
OpenAeroVTOL_2_1.elf:     file format elf32-avr

Sections:
Idx Name          Size      VMA       LMA       File off  Algn
  0 .data         0000040c  00800100  00008436  000084ca  2**0
                  CONTENTS, ALLOC, LOAD, DATA
  1 .text         00008436  00000000  00000000  00000094  2**1
                  CONTENTS, ALLOC, LOAD, READONLY, CODE
  2 .bss          000002ec  0080050c  0080050c  000088d6  2**0
                  ALLOC
  3 .comment      00000030  00000000  00000000  000088d6  2**0
                  CONTENTS, READONLY
  4 .debug_aranges 00000648  00000000  00000000  00008908  2**3
                  CONTENTS, READONLY, DEBUGGING
  5 .debug_info   000136d9  00000000  00000000  00008f50  2**0
                  CONTENTS, READONLY, DEBUGGING
  6 .debug_abbrev 0000337f  00000000  00000000  0001c629  2**0
                  CONTENTS, READONLY, DEBUGGING
  7 .debug_line   00004011  00000000  00000000  0001f9a8  2**0
                  CONTENTS, READONLY, DEBUGGING
  8 .debug_frame  00000f3c  00000000  00000000  000239bc  2**2
                  CONTENTS, READONLY, DEBUGGING
  9 .debug_str    00002777  00000000  00000000  000248f8  2**0
                  CONTENTS, READONLY, DEBUGGING
 10 .debug_loc    000069dc  00000000  00000000  0002706f  2**0
                  CONTENTS, READONLY, DEBUGGING
 11 .debug_ranges 00000500  00000000  00000000  0002da4b  2**0
                  CONTENTS, READONLY, DEBUGGING

Disassembly of section .text:

00000000 <__vectors>:
       0:	0c 94 05 0d 	jmp	0x1a0a	; 0x1a0a <__ctors_end>
       4:	0c 94 80 25 	jmp	0x4b00	; 0x4b00 <__vector_1>
       8:	0c 94 48 25 	jmp	0x4a90	; 0x4a90 <__vector_2>
       c:	0c 94 2b 26 	jmp	0x4c56	; 0x4c56 <__vector_3>
      10:	0c 94 2b 0d 	jmp	0x1a56	; 0x1a56 <__bad_interrupt>
      14:	0c 94 f2 25 	jmp	0x4be4	; 0x4be4 <__vector_5>
      18:	0c 94 2b 0d 	jmp	0x1a56	; 0x1a56 <__bad_interrupt>
      1c:	0c 94 b9 25 	jmp	0x4b72	; 0x4b72 <__vector_7>
      20:	0c 94 2b 0d 	jmp	0x1a56	; 0x1a56 <__bad_interrupt>
      24:	0c 94 2b 0d 	jmp	0x1a56	; 0x1a56 <__bad_interrupt>
      28:	0c 94 2b 0d 	jmp	0x1a56	; 0x1a56 <__bad_interrupt>
      2c:	0c 94 2b 0d 	jmp	0x1a56	; 0x1a56 <__bad_interrupt>
      30:	0c 94 2b 0d 	jmp	0x1a56	; 0x1a56 <__bad_interrupt>
      34:	0c 94 2b 0d 	jmp	0x1a56	; 0x1a56 <__bad_interrupt>
      38:	0c 94 2b 0d 	jmp	0x1a56	; 0x1a56 <__bad_interrupt>
      3c:	0c 94 2b 0d 	jmp	0x1a56	; 0x1a56 <__bad_interrupt>
      40:	0c 94 2b 0d 	jmp	0x1a56	; 0x1a56 <__bad_interrupt>
      44:	0c 94 2b 0d 	jmp	0x1a56	; 0x1a56 <__bad_interrupt>
      48:	0c 94 31 25 	jmp	0x4a62	; 0x4a62 <__vector_18>
      4c:	0c 94 2b 0d 	jmp	0x1a56	; 0x1a56 <__bad_interrupt>
      50:	0c 94 ed 26 	jmp	0x4dda	; 0x4dda <__vector_20>
      54:	0c 94 2b 0d 	jmp	0x1a56	; 0x1a56 <__bad_interrupt>
      58:	0c 94 2b 0d 	jmp	0x1a56	; 0x1a56 <__bad_interrupt>
      5c:	0c 94 2b 0d 	jmp	0x1a56	; 0x1a56 <__bad_interrupt>
      60:	0c 94 2b 0d 	jmp	0x1a56	; 0x1a56 <__bad_interrupt>
      64:	0c 94 2b 0d 	jmp	0x1a56	; 0x1a56 <__bad_interrupt>
      68:	0c 94 2b 0d 	jmp	0x1a56	; 0x1a56 <__bad_interrupt>
      6c:	0c 94 2b 0d 	jmp	0x1a56	; 0x1a56 <__bad_interrupt>
      70:	0c 94 ed 26 	jmp	0x4dda	; 0x4dda <__vector_20>
      74:	0c 94 2b 0d 	jmp	0x1a56	; 0x1a56 <__bad_interrupt>
      78:	0c 94 2b 0d 	jmp	0x1a56	; 0x1a56 <__bad_interrupt>
      7c:	53 2c       	mov	r5, r3
      7e:	55 2c       	mov	r5, r5
      80:	59 2c       	mov	r5, r9
      82:	5c 2c       	mov	r5, r12
      84:	5f 2c       	mov	r5, r15
      86:	62 2c       	mov	r6, r2
      88:	65 2c       	mov	r6, r5
      8a:	67 2c       	mov	r6, r7
      8c:	6b 2c       	mov	r6, r11
      8e:	6d 2c       	mov	r6, r13
      90:	6f 2c       	mov	r6, r15
      92:	71 2c       	mov	r7, r1
      94:	73 2c       	mov	r7, r3
      96:	75 2c       	mov	r7, r5
      98:	77 2c       	mov	r7, r7
      9a:	79 2c       	mov	r7, r9
      9c:	7d 2c       	mov	r7, r13
      9e:	7f 2c       	mov	r7, r15
      a0:	81 2c       	mov	r8, r1

000000a2 <Acc_Pol>:
      a2:	ff ff 01 ff 01 ff 01 ff ff 01 01 01 ff 01 01 ff     ................
      b2:	ff ff                                               ..

000000b4 <ACC_RPY_Order>:
      b4:	00 01 02 02 00 01 00 01 02 00 01 02 01 00 02 00     ................
      c4:	02 01                                               ..

000000c6 <FUTABA>:
      c6:	01 02 00 03 04 05 06 07                             ........

000000ce <JR>:
      ce:	00 01 02 03 04 05 06 07                             ........

000000d6 <Trans_Matrix>:
      d6:	05 02 06 01 05 08 03 07 05                          .........

000000df <Wingdings>:
      df:	01 02 41 05 0d 00 0f 00 22 00 33 00 44 00 4f 09     ..A.....".3.D.O.
      ef:	01 00 03 00 07 00 0f 00 1f 00 0f 00 07 00 03 00     ................
      ff:	01 00 08 1c 00 1c 00 1c 00 1c 00 7f 00 3e 00 1c     .............>..
     10f:	00 08 00 08 08 00 1c 00 3e 00 7f 00 1c 00 1c 00     ........>.......
     11f:	1c 00 1c 00 05 ff 01 fe 00 7c 00 38 00 10 00 0d     .........|.8....
     12f:	40 00 60 00 70 00 78 00 7c 00 7e 00 7f 00 7e 00     @.`.p.x.|.~...~.
     13f:	7c 00 78 00 70 00 60 00 40 00                       |.x.p.`.@.

00000149 <Verdana14>:
     149:	01 02 20 5b 13 00 bb 00 c5 00 cc 00 cc 00 cc 00     .. [............
     159:	cc 01 03 01 03 01 03 01 16 01 29 01 29 01 29 01     ..........).).).
     169:	36 01 49 01 50 01 50 01 6f 01 88 01 a4 01 c0 01     6.I.P.P.o.......
     179:	df 01 fb 02 1a 02 36 02 55 02 74 02 7b 02 7b 02     ......6.U.t.{.{.
     189:	7b 02 7b 02 7b 02 94 02 94 02 bc 02 db 02 fd 03     {.{.{...........
     199:	22 03 3e 03 5a 03 82 03 a1 03 b4 03 ca 03 ec 04     ".>.Z...........
     1a9:	08 04 2d 04 4c 04 74 04 8d 04 b5 04 d7 04 f9 05     ..-.L.t.........
     1b9:	1e 05 3d 05 65 05 99 05 bb 05 e0 06 02 06 02 06     ..=.e...........
     1c9:	1b 06 1b 06 1b 06 1b 06 1b 06 34 06 50 06 69 06     ..........4.P.i.
     1d9:	85 06 a1 06 b4 06 d0 06 e9 06 f0 07 00 07 1c 07     ................
     1e9:	23 07 4e 07 67 07 86 07 a2 07 be 07 d1 07 ea 07     #.N.g...........
     1f9:	fd 08 16 08 32 08 5d 08 79 08 95 03 00 00 00 00     ....2.].y.......
     209:	00 00 00 00 00 02 fe 67 00 fe 67 00 12 78 00 00     .......g..g..x..
     219:	fe 01 00 02 01 00 02 01 00 02 01 00 fe 41 00 78     .............A.x
     229:	70 00 00 1c 00 00 07 00 e0 00 00 38 00 00 0e 1e     p..........8....
     239:	00 82 7f 00 80 40 00 80 40 00 80 40 00 80 7f 00     .....@..@..@....
     249:	00 1e 00 06 c0 1f 00 f8 ff 00 3c e0 01 07 00 07     ..........<.....
     259:	03 00 06 01 00 04 06 01 00 04 03 00 06 07 00 07     ................
     269:	3c e0 01 f8 ff 00 c0 1f 00 04 00 00 03 00 f0 03     <...............
     279:	00 70 00 00 10 00 06 00 03 00 00 03 00 00 03 00     .p..............
     289:	00 03 00 00 03 00 00 03 00 02 00 70 00 00 70 00     ...........p..p.
     299:	0a f0 0f 00 fc 3f 00 0c 30 00 06 60 00 06 60 00     .....?..0..`..`.
     2a9:	06 60 00 06 60 00 0c 30 00 fc 3f 00 f0 0f 00 08     .`..`..0..?.....
     2b9:	18 60 00 18 60 00 18 60 00 fe 7f 00 fe 7f 00 00     .`..`..`........
     2c9:	60 00 00 60 00 00 60 00 09 0c 70 00 06 78 00 06     `..`..`...p..x..
     2d9:	6c 00 06 66 00 06 63 00 8e 61 00 fc 60 00 78 60     l..f..c..a..`.x`
     2e9:	00 00 60 00 09 0c 30 00 06 60 00 06 60 00 86 61     ..`...0..`..`..a
     2f9:	00 86 61 00 86 61 00 ce 73 00 7c 3f 00 38 1e 00     ..a..a..s.|?.8..
     309:	0a 00 07 00 80 07 00 c0 07 00 f0 06 00 38 06 00     .............8..
     319:	1c 06 00 fe 7f 00 fe 7f 00 00 06 00 00 06 00 09     ................
     329:	00 30 00 fe 60 00 fe 60 00 c6 60 00 c6 60 00 c6     .0..`..`..`..`..
     339:	60 00 c6 31 00 86 3f 00 06 0f 00 0a e0 0f 00 f0     `..1..?.........
     349:	3f 00 9c 30 00 cc 60 00 c6 60 00 c6 60 00 c6 60     ?..0..`..`..`..`
     359:	00 c6 31 00 86 3f 00 00 0f 00 09 06 00 00 06 40     ..1..?.........@
     369:	00 06 70 00 06 7c 00 06 0f 00 c6 03 00 f6 00 00     ..p..|..........
     379:	3e 00 00 0e 00 00 0a 38 1e 00 7c 3f 00 ce 71 00     >......8..|?..q.
     389:	c6 60 00 c6 60 00 86 61 00 86 61 00 4e 73 00 7c     .`..`..a..a.Ns.|
     399:	3f 00 38 1e 00 0a f0 00 00 fc 61 00 8c 63 00 06     ?.8.......a..c..
     3a9:	63 00 06 63 00 06 63 00 06 33 00 0c 39 00 fc 1f     c..c..c..3..9...
     3b9:	00 f0 07 00 02 70 70 00 70 70 00 08 0c 00 00 06     .....pp.pp......
     3c9:	00 00 06 67 00 06 67 00 86 01 00 ce 00 00 fc 00     ...g..g.........
     3d9:	00 38 00 00 0d 00 40 00 00 78 00 00 3f 00 c0 07     .8....@..x..?...
     3e9:	00 f8 06 00 3e 06 00 06 06 00 3e 06 00 f8 06 00     ....>.....>.....
     3f9:	c0 07 00 00 3f 00 00 78 00 00 40 00 0a fe 7f 00     ....?..x..@.....
     409:	fe 7f 00 86 61 00 86 61 00 86 61 00 86 61 00 c6     ....a..a..a..a..
     419:	61 00 7c 73 00 3c 3f 00 00 1e 00 0b e0 07 00 f8     a.|s.<?.........
     429:	1f 00 1c 38 00 0c 30 00 06 60 00 06 60 00 06 60     ...8..0..`..`..`
     439:	00 06 60 00 06 60 00 06 20 00 0c 30 00 0c fe 7f     ..`..`.. ..0....
     449:	00 fe 7f 00 06 60 00 06 60 00 06 60 00 06 60 00     .....`..`..`..`.
     459:	06 60 00 0e 70 00 0c 30 00 38 1c 00 f8 0f 00 e0     .`..p..0.8......
     469:	07 00 09 fe 7f 00 fe 7f 00 c6 60 00 c6 60 00 c6     ..........`..`..
     479:	60 00 c6 60 00 c6 60 00 c6 60 00 c6 60 00 09 fe     `..`..`..`..`...
     489:	7f 00 fe 7f 00 86 01 00 86 01 00 86 01 00 86 01     ................
     499:	00 86 01 00 86 01 00 06 00 00 0d e0 07 00 f8 1f     ................
     4a9:	00 3c 3c 00 0c 30 00 0e 70 00 06 60 00 06 60 00     .<<..0..p..`..`.
     4b9:	06 63 00 06 63 00 06 63 00 06 63 00 0c 3f 00 0c     .c..c..c..c..?..
     4c9:	3f 00 0a fe 7f 00 fe 7f 00 c0 00 00 c0 00 00 c0     ?...............
     4d9:	00 00 c0 00 00 c0 00 00 c0 00 00 fe 7f 00 fe 7f     ................
     4e9:	00 06 06 60 00 06 60 00 fe 7f 00 fe 7f 00 06 60     ...`..`........`
     4f9:	00 06 60 00 07 00 60 00 00 60 00 06 60 00 06 60     ..`...`..`..`..`
     509:	00 06 70 00 fe 3f 00 fe 1f 00 0b fe 7f 00 fe 7f     ..p..?..........
     519:	00 80 03 00 c0 01 00 e0 03 00 70 07 00 38 1c 00     ..........p..8..
     529:	1c 38 00 0e 70 00 06 60 00 02 40 00 09 fe 7f 00     .8..p..`..@.....
     539:	fe 7f 00 00 60 00 00 60 00 00 60 00 00 60 00 00     ....`..`..`..`..
     549:	60 00 00 60 00 00 60 00 0c fe 7f 00 fe 7f 00 0e     `..`..`.........
     559:	00 00 38 00 00 e0 01 00 80 07 00 00 07 00 e0 01     ..8.............
     569:	00 38 00 00 0e 00 00 fe 7f 00 fe 7f 00 0a fe 7f     .8..............
     579:	00 fe 7f 00 0e 00 00 3c 00 00 e0 00 00 80 03 00     .......<........
     589:	00 1e 00 00 78 00 fe 7f 00 fe 7f 00 0d e0 07 00     ....x...........
     599:	f8 1f 00 1c 38 00 0c 30 00 06 60 00 06 60 00 06     ....8..0..`..`..
     5a9:	60 00 06 60 00 06 60 00 0c 30 00 1c 38 00 f8 1f     `..`..`..0..8...
     5b9:	00 e0 07 00 08 fe 7f 00 fe 7f 00 06 03 00 06 03     ................
     5c9:	00 06 03 00 8e 03 00 fc 01 00 f8 00 00 0d e0 07     ................
     5d9:	00 f8 1f 00 1c 38 00 0c 30 00 06 60 00 06 60 00     .....8..0..`..`.
     5e9:	06 60 00 06 e0 01 06 e0 03 0c 30 07 1c 38 06 f8     .`........0..8..
     5f9:	1f 06 e0 07 06 0b fe 7f 00 fe 7f 00 86 01 00 86     ................
     609:	01 00 86 01 00 86 07 00 ce 0e 00 fc 1c 00 78 70     ..............xp
     619:	00 00 60 00 00 40 00 0b 78 30 00 fc 70 00 ce 60     ..`..@..x0..p..`
     629:	00 86 61 00 86 61 00 86 61 00 86 61 00 86 61 00     ..a..a..a..a..a.
     639:	06 33 00 0c 3f 00 00 1e 00 0c 06 00 00 06 00 00     .3..?...........
     649:	06 00 00 06 00 00 06 00 00 fe 7f 00 fe 7f 00 06     ................
     659:	00 00 06 00 00 06 00 00 06 00 00 06 00 00 0a fe     ................
     669:	0f 00 fe 3f 00 00 70 00 00 60 00 00 60 00 00 60     ...?..p..`..`..`
     679:	00 00 60 00 00 70 00 fe 3f 00 fe 0f 00 0d 02 00     ..`..p..?.......
     689:	00 1e 00 00 fc 00 00 e0 03 00 80 1f 00 00 7c 00     ..............|.
     699:	00 60 00 00 7c 00 80 1f 00 e0 03 00 fc 00 00 1e     .`..|...........
     6a9:	00 00 02 00 00 11 06 00 00 7e 00 00 f8 07 00 80     .........~......
     6b9:	3f 00 00 78 00 00 7c 00 c0 0f 00 7e 00 00 06 00     ?..x..|....~....
     6c9:	00 7e 00 00 e0 07 00 00 7e 00 00 70 00 80 7f 00     .~......~..p....
     6d9:	f8 07 00 7e 00 00 06 00 00 0b 02 40 00 06 60 00     ...~.......@..`.
     6e9:	1e 78 00 38 1c 00 e0 07 00 80 01 00 e0 07 00 38     .x.8...........8
     6f9:	1e 00 1e 78 00 06 60 00 02 40 00 0c 02 00 00 06     ...x..`..@......
     709:	00 00 1e 00 00 78 00 00 e0 00 00 c0 7f 00 c0 7f     .....x..........
     719:	00 e0 00 00 78 00 00 1e 00 00 06 00 00 02 00 00     ....x...........
     729:	0b 06 70 00 06 78 00 06 7c 00 06 6e 00 06 67 00     ..p..x..|..n..g.
     739:	c6 63 00 e6 60 00 76 60 00 3e 60 00 1e 60 00 0e     .c..`.v`.>`..`..
     749:	60 00 08 03 00 00 1f 00 00 fe 00 00 f0 07 00 80     `...............
     759:	3f 00 00 fc 01 00 e0 03 00 00 03 08 00 3c 00 30     ?............<.0
     769:	7e 00 30 67 00 30 63 00 30 63 00 30 33 00 e0 7f     ~.0g.0c.0c.03...
     779:	00 e0 7f 00 09 ff 7f 00 ff 7f 00 60 20 00 30 60     ...........` .0`
     789:	00 30 60 00 30 60 00 70 70 00 e0 3f 00 c0 0f 00     .0`.0`.pp..?....
     799:	08 80 0f 00 e0 3f 00 60 30 00 30 60 00 30 60 00     .....?.`0.0`.0`.
     7a9:	30 60 00 30 60 00 60 30 00 09 80 1f 00 e0 3f 00     0`.0`.`0......?.
     7b9:	70 70 00 30 60 00 30 60 00 30 60 00 30 30 00 ff     pp.0`.0`.0`.00..
     7c9:	7f 00 ff 7f 00 09 80 0f 00 e0 3f 00 60 33 00 30     ..........?.`3.0
     7d9:	63 00 30 63 00 30 63 00 70 63 00 e0 63 00 c0 33     c.0c.0c.pc..c..3
     7e9:	00 06 30 00 00 fe 7f 00 ff 7f 00 33 00 00 33 00     ..0........3..3.
     7f9:	00 03 00 00 09 80 1f 00 e0 3f 06 70 70 06 30 60     .........?.pp.0`
     809:	06 30 60 06 30 60 06 30 30 07 f0 ff 03 f0 ff 01     .0`.0`.00.......
     819:	08 ff 7f 00 ff 7f 00 60 00 00 30 00 00 30 00 00     .......`..0..0..
     829:	30 00 00 f0 7f 00 e0 7f 00 02 f6 7f 00 f6 7f 00     0...............
     839:	05 00 00 06 30 00 06 30 00 06 f6 ff 07 f6 ff 03     ....0..0........
     849:	09 ff 7f 00 ff 7f 00 00 06 00 00 07 00 80 0f 00     ................
     859:	c0 38 00 70 70 00 30 60 00 10 40 00 02 ff 7f 00     .8.pp.0`..@.....
     869:	ff 7f 00 0e f0 7f 00 f0 7f 00 60 00 00 30 00 00     ..........`..0..
     879:	30 00 00 30 00 00 f0 7f 00 e0 7f 00 60 00 00 30     0..0........`..0
     889:	00 00 30 00 00 30 00 00 f0 7f 00 e0 7f 00 08 f0     ..0..0..........
     899:	7f 00 f0 7f 00 60 00 00 30 00 00 30 00 00 30 00     .....`..0..0..0.
     8a9:	00 f0 7f 00 e0 7f 00 0a 80 0f 00 e0 3f 00 60 30     ............?.`0
     8b9:	00 30 60 00 30 60 00 30 60 00 30 60 00 60 30 00     .0`.0`.0`.0`.`0.
     8c9:	e0 3f 00 80 0f 00 09 f0 ff 07 f0 ff 07 60 60 00     .?...........``.
     8d9:	30 60 00 30 60 00 30 60 00 70 70 00 e0 3f 00 c0     0`.0`.0`.pp..?..
     8e9:	0f 00 09 80 1f 00 e0 3f 00 70 70 00 30 60 00 30     .......?.pp.0`.0
     8f9:	60 00 30 60 00 30 30 00 f0 ff 07 f0 ff 07 06 f0     `.0`.00.........
     909:	7f 00 f0 7f 00 60 00 00 30 00 00 30 00 00 30 00     .....`..0..0..0.
     919:	00 08 c0 31 00 e0 63 00 30 63 00 30 63 00 30 66     ...1..c.0c.0c.0f
     929:	00 30 66 00 30 3e 00 60 1c 00 06 30 00 00 fe 3f     .0f.0>.`...0...?
     939:	00 fe 7f 00 30 60 00 30 60 00 30 60 00 08 f0 1f     ....0`.0`.0`....
     949:	00 f0 7f 00 00 60 00 00 60 00 00 60 00 00 30 00     .....`..`..`..0.
     959:	f0 7f 00 f0 7f 00 09 10 00 00 f0 00 00 e0 07 00     ................
     969:	00 3e 00 00 60 00 00 3e 00 e0 07 00 f0 00 00 10     .>..`..>........
     979:	00 00 0e 30 00 00 f0 03 00 c0 3f 00 00 78 00 00     ...0......?..x..
     989:	7c 00 80 07 00 f0 00 00 f0 00 00 c0 07 00 00 3c     |..............<
     999:	00 00 70 00 c0 3f 00 f0 03 00 30 00 00 09 10 40     ..p..?....0....@
     9a9:	00 30 60 00 f0 78 00 c0 1d 00 00 07 00 c0 1d 00     .0`..x..........
     9b9:	f0 78 00 30 60 00 10 40 00 09 10 00 00 f0 00 00     .x.0`..@........
     9c9:	e0 07 06 00 bf 07 00 f0 01 00 3f 00 e0 07 00 f0     ..........?.....
     9d9:	00 00 10 00 00 08 30 70 00 30 78 00 30 7c 00 30     ......0p.0x.0|.0
     9e9:	66 00 30 63 00 f0 61 00 f0 60 00 70 60 00           f.0c..a..`.p`.

000009f7 <Verdana8>:
     9f7:	01 02 20 5b 0b 00 bb 00 be 00 c1 00 c1 00 c1 00     .. [............
     a07:	c1 00 d6 00 d6 00 d6 00 dd 00 e4 00 e4 00 e4 00     ................
     a17:	e9 00 f0 00 f3 00 f3 00 fe 01 09 01 14 01 1f 01     ................
     a27:	2c 01 37 01 42 01 4d 01 58 01 63 01 66 01 66 01     ,.7.B.M.X.c.f.f.
     a37:	66 01 66 01 66 01 6f 01 6f 01 7c 01 89 01 98 01     f.f.f.o.o.|.....
     a47:	a7 01 b2 01 bd 01 cc 01 d9 01 e0 01 e9 01 f6 02     ................
     a57:	01 02 10 02 1d 02 2c 02 37 02 46 02 53 02 60 02     ......,.7.F.S.`.
     a67:	6f 02 7c 02 89 02 9c 02 a9 02 b8 02 c5 02 c5 02     o.|.............
     a77:	c5 02 c5 02 c5 02 c5 02 c5 02 d0 02 db 02 e6 02     ................
     a87:	f1 02 fc 03 05 03 10 03 1b 03 1e 03 25 03 30 03     ............%.0.
     a97:	33 03 46 03 51 03 5c 03 67 03 72 03 7b 03 84 03     3.F.Q.\.g.r.{...
     aa7:	8d 03 98 03 a3 03 b2 03 bd 03 c8 01 00 00 01 7e     ...............~
     ab7:	01 0a 0c 00 12 00 12 00 8c 01 60 00 18 00 c6 00     ..........`.....
     ac7:	20 01 20 01 c0 00 03 f8 00 06 03 01 04 03 01 04      . .............
     ad7:	06 03 f8 00 02 00 04 80 03 03 20 00 20 00 20 00     .......... . . .
     ae7:	01 80 01 05 fc 00 02 01 02 01 02 01 fc 00 05 04     ................
     af7:	01 04 01 fe 01 00 01 00 01 05 84 01 42 01 22 01     ............B.".
     b07:	12 01 0c 01 05 84 00 02 01 12 01 12 01 ec 00 06     ................
     b17:	60 00 50 00 48 00 44 00 fe 01 40 00 05 9e 00 12     `.P.H.D...@.....
     b27:	01 12 01 12 01 e2 00 05 f8 00 14 01 12 01 12 01     ................
     b37:	e0 00 05 02 00 82 01 62 00 1a 00 06 00 05 ec 00     .......b........
     b47:	12 01 12 01 12 01 ec 00 05 1c 00 22 01 22 01 a2     ..........."."..
     b57:	00 7c 00 01 98 01 04 02 00 62 01 12 00 0c 00 06     .|.......b......
     b67:	c0 01 78 00 46 00 46 00 78 00 c0 01 06 fe 01 12     ..x.F.F.x.......
     b77:	01 12 01 12 01 1c 01 e0 00 07 78 00 84 00 02 01     ..........x.....
     b87:	02 01 02 01 02 01 84 00 07 fe 01 02 01 02 01 02     ................
     b97:	01 02 01 84 00 78 00 05 fe 01 12 01 12 01 12 01     .....x..........
     ba7:	12 01 05 fe 01 12 00 12 00 12 00 02 00 07 78 00     ..............x.
     bb7:	84 00 02 01 02 01 22 01 22 01 e4 00 06 fe 01 10     ......".".......
     bc7:	00 10 00 10 00 10 00 fe 01 03 02 01 fe 01 02 01     ................
     bd7:	04 00 01 02 01 02 01 fe 00 06 fe 01 20 00 30 00     ............ .0.
     be7:	48 00 84 00 02 01 05 fe 01 00 01 00 01 00 01 00     H...............
     bf7:	01 07 fe 01 06 00 18 00 60 00 18 00 06 00 fe 01     ........`.......
     c07:	06 fe 01 06 00 18 00 60 00 80 01 fe 01 07 78 00     .......`......x.
     c17:	84 00 02 01 02 01 02 01 84 00 78 00 05 fe 01 22     ..........x...."
     c27:	00 22 00 22 00 1c 00 07 78 00 84 00 02 01 02 01     ."."....x.......
     c37:	02 03 84 04 78 04 06 fe 01 22 00 22 00 62 00 9c     ....x....".".b..
     c47:	00 00 01 06 8c 00 12 01 12 01 22 01 22 01 c4 00     .........."."...
     c57:	07 02 00 02 00 02 00 fe 01 02 00 02 00 02 00 06     ................
     c67:	fe 00 00 01 00 01 00 01 00 01 fe 00 06 0e 00 70     ...............p
     c77:	00 80 01 80 01 70 00 0e 00 09 06 00 78 00 80 01     .....p......x...
     c87:	78 00 06 00 78 00 80 01 78 00 06 00 06 86 01 48     x...x...x......H
     c97:	00 30 00 30 00 48 00 86 01 07 02 00 04 00 08 00     .0.0.H..........
     ca7:	f0 01 08 00 04 00 02 00 06 82 01 42 01 22 01 12     ...........B."..
     cb7:	01 0a 01 06 01 05 c0 00 28 01 28 01 28 01 f0 01     ........(.(.(...
     cc7:	05 ff 01 08 01 08 01 08 01 f0 00 05 f0 00 08 01     ................
     cd7:	08 01 08 01 90 00 05 f0 00 08 01 08 01 08 01 ff     ................
     ce7:	01 05 f0 00 28 01 28 01 28 01 b0 00 04 08 00 fe     ....(.(.(.......
     cf7:	01 09 00 09 00 05 f0 00 08 05 08 05 08 05 f8 03     ................
     d07:	05 ff 01 08 00 08 00 08 00 f0 01 01 f9 01 03 00     ................
     d17:	04 08 04 f9 03 05 ff 01 40 00 60 00 90 00 08 01     ........@.`.....
     d27:	01 ff 01 09 f8 01 08 00 08 00 08 00 f0 01 08 00     ................
     d37:	08 00 08 00 f0 01 05 f8 01 08 00 08 00 08 00 f0     ................
     d47:	01 05 f0 00 08 01 08 01 08 01 f0 00 05 f8 07 08     ................
     d57:	01 08 01 08 01 f0 00 05 f0 00 08 01 08 01 08 01     ................
     d67:	f8 07 04 f8 01 10 00 08 00 08 00 04 30 01 28 01     ............0.(.
     d77:	48 01 c8 00 04 08 00 fe 00 08 01 08 01 05 f8 00     H...............
     d87:	00 01 00 01 00 01 f8 01 05 18 00 60 00 80 01 60     ...........`...`
     d97:	00 18 00 07 78 00 80 01 60 00 18 00 60 00 80 01     ....x...`...`...
     da7:	78 00 05 08 01 90 00 60 00 90 00 08 01 05 08 00     x......`........
     db7:	70 04 80 03 70 00 08 00 04 88 01 48 01 28 01 18     p...p......H.(..
     dc7:	01                                                  .

00000dc8 <lcd_commmands>:
     dc8:	af 40 a0 a6 a4 a2 ee c8 2f 24 ac 00 f8 00           .@....../$....

00000dd6 <pagemap>:
     dd6:	07 06 05 04 03 02 01 00                             ........

00000dde <text_menu>:
     dde:	10 11 0a 11 fe 10 2c 17 26 17 9c 14 1d 17 1b 17     ......,.&.......
     dee:	19 17 01 17 f9 16 ff 16 fd 16 fb 16 f4 16 ef 16     ................
     dfe:	ea 16 e5 16 1a 11 3a 11 35 11 2f 11 43 14 0b 17     ......:.5./.C...
     e0e:	03 17 77 15 94 15 8f 15 89 15 85 15 81 15 de 0f     ..w.............
     e1e:	80 11 77 11 88 11 70 11 6b 11 ee 0f e9 0f e4 0f     ..w...p.k.......
     e2e:	df 0f fe 0f f8 0f f2 0f 27 10 1f 10 ac 11 a6 11     ........'.......
     e3e:	a8 13 a3 13 a0 13 96 13 8c 13 de 0f de 0f 1a 10     ................
     e4e:	9f 11 9a 11 91 11 f0 10 7c 15 e4 10 32 14 2e 14     ........|...2...
     e5e:	28 14 1f 14 de 0f de 0f a8 14 a5 14 35 10 3c 10     (...........5.<.
     e6e:	de 0f 23 11 de 0f 47 11 40 11 da 16 c8 16 b5 16     ..#...G.@.......
     e7e:	a3 16 8d 16 7e 16 6a 16 56 16 48 16 39 16 2a 16     ....~.j.V.H.9.*.
     e8e:	1b 16 0c 16 fd 15 ee 15 df 15 cb 15 b2 15 99 15     ................
     e9e:	de 0f de 0f ee 0f e9 0f e4 0f 10 10 df 0f 15 10     ................
     eae:	57 11 88 11 80 11 77 11 70 11 6b 11 66 11 61 11     W.....w.p.k.f.a.
     ebe:	5c 11 57 11 50 11 4a 11 16 14 0f 14 23 11 2d 10     \.W.P.J.....#.-.
     ece:	1a 10 be 10 b2 10 de 0f 6f 10 66 10 5d 10 59 10     ........o.f.].Y.
     ede:	50 10 48 10 de 0f de 0f de 0f 10 17 27 11 d7 10     P.H.........'...
     eee:	c9 10 c4 10 aa 10 9f 10 de 0f 41 10 3c 10 de 0f     ..........A.<...
     efe:	de 0f de 0f 8f 15 89 15 85 15 9c 14 92 14 87 14     ................
     f0e:	78 14 6a 14 5b 14 4e 14 43 14 37 14 02 14 f8 13     x.j.[.N.C.7.....
     f1e:	f0 13 e3 13 ab 13 d9 13 cf 13 c5 13 b9 13 03 10     ................
     f2e:	de 0f de 0f 63 15 5b 15 4d 15 40 15 32 15 27 15     ....c.[.M.@.2.'.
     f3e:	1e 15 15 15 06 15 f8 14 e9 14 dd 14 d6 14 cf 14     ................
     f4e:	c2 14 b6 14 ac 14 6b 15 de 0f de 0f 84 13 79 13     ......k.......y.
     f5e:	68 13 5b 13 50 13 40 13 30 13 21 13 11 13 01 13     h.[.P.@.0.!.....
     f6e:	f1 12 e1 12 d1 12 c1 12 b3 12 a5 12 96 12 87 12     ................
     f7e:	7a 12 6d 12 61 12 55 12 49 12 3c 12 32 12 28 12     z.m.a.U.I.<.2.(.
     f8e:	1b 12 10 12 03 12 f8 11 eb 11 10 12 de 11 f8 11     ................
     f9e:	de 0f de 0f de 0f de 0f de 0f de 0f 9a 10 95 10     ................
     fae:	90 10 8b 10 86 10 81 10 7c 10 77 10 88 11 80 11     ........|.w.....
     fbe:	77 11 70 11 6b 11 66 11 61 11 5c 11 d5 11 cb 11     w.p.k.f.a.\.....
     fce:	c3 11 bb 11 b2 11 57 11 de 0f de 0f de 0f de 0f     ......W.........

00000fde <Dummy0>:
	...

00000fdf <MPU6050LPF4>:
     fdf:	34 34 48 7a 00                                      44Hz.

00000fe4 <MPU6050LPF3>:
     fe4:	32 31 48 7a 00                                      21Hz.

00000fe9 <MPU6050LPF2>:
     fe9:	31 30 48 7a 00                                      10Hz.

00000fee <MPU6050LPF1>:
     fee:	35 48 7a 00                                         5Hz.

00000ff2 <MPU6050LPF7>:
     ff2:	32 36 30 48 7a 00                                   260Hz.

00000ff8 <MPU6050LPF6>:
     ff8:	31 38 34 48 7a 00                                   184Hz.

00000ffe <MPU6050LPF5>:
     ffe:	39 34 48 7a 00                                      94Hz.

00001003 <GeneralText10>:
    1003:	4d 50 55 36 30 35 30 20 4c 50 46 3a 00              MPU6050 LPF:.

00001010 <SWLPF2>:
    1010:	33 32 48 7a 00                                      32Hz.

00001015 <SWLPF1>:
    1015:	37 34 48 7a 00                                      74Hz.

0000101a <Random1>:
    101a:	48 69 67 68 00                                      High.

0000101f <Safety2>:
    101f:	41 72 6d 61 62 6c 65 00                             Armable.

00001027 <Safety1>:
    1027:	41 72 6d 65 64 00                                   Armed.

0000102d <GeneralText5>:
    102d:	53 79 6e 63 20 52 43 00                             Sync RC.

00001035 <MixerItem15>:
    1035:	53 63 61 6c 65 64 00                                Scaled.

0000103c <MixerItem12>:
    103c:	52 65 76 2e 00                                      Rev..

00001041 <MixerItem11>:
    1041:	4e 6f 72 6d 61 6c 00                                Normal.

00001048 <MixerMenuItem7>:
    1048:	50 69 74 63 68 55 70 00                             PitchUp.

00001050 <MixerMenuItem6>:
    1050:	53 69 64 65 77 61 79 73 00                          Sideways.

00001059 <MixerMenuItem5>:
    1059:	41 66 74 00                                         Aft.

0000105d <MixerMenuItem4>:
    105d:	49 6e 76 65 72 74 65 64 00                          Inverted.

00001066 <MixerMenuItem3>:
    1066:	56 65 72 74 69 63 61 6c 00                          Vertical.

0000106f <MixerMenuItem2>:
    106f:	46 6f 72 77 61 72 64 00                             Forward.

00001077 <MOUT8>:
    1077:	4f 55 54 38 00                                      OUT8.

0000107c <MOUT7>:
    107c:	4f 55 54 37 00                                      OUT7.

00001081 <MOUT6>:
    1081:	4f 55 54 36 00                                      OUT6.

00001086 <MOUT5>:
    1086:	4f 55 54 35 00                                      OUT5.

0000108b <MOUT4>:
    108b:	4f 55 54 34 00                                      OUT4.

00001090 <MOUT3>:
    1090:	4f 55 54 33 00                                      OUT3.

00001095 <MOUT2>:
    1095:	4f 55 54 32 00                                      OUT2.

0000109a <MOUT1>:
    109a:	4f 55 54 31 00                                      OUT1.

0000109f <Status5>:
    109f:	28 44 69 73 61 72 6d 65 64 29 00                    (Disarmed).

000010aa <Status4>:
    10aa:	28 41 72 6d 65 64 29 00                             (Armed).

000010b2 <Status2>:
    10b2:	66 6f 72 20 73 74 61 74 75 73 2e 00                 for status..

000010be <Status0>:
    10be:	50 72 65 73 73 00                                   Press.

000010c4 <WizardText2>:
    10c4:	44 6f 6e 65 00                                      Done.

000010c9 <WizardText1>:
    10c9:	48 6f 6c 64 20 61 73 20 73 68 6f 77 6e 00           Hold as shown.

000010d7 <WizardText0>:
    10d7:	4e 6f 20 52 58 20 73 69 67 6e 61 6c 00              No RX signal.

000010e4 <PText4>:
    10e4:	43 61 6c 2e 20 66 61 69 6c 65 64 00                 Cal. failed.

000010f0 <PText3>:
    10f0:	45 53 43 20 43 61 6c 69 62 72 61 74 65 00           ESC Calibrate.

000010fe <PText2>:
    10fe:	48 6f 6c 64 20 73 74 65 61 64 79 00                 Hold steady.

0000110a <PText1>:
    110a:	52 65 73 65 74 00                                   Reset.

00001110 <PText0>:
    1110:	4f 70 65 6e 41 65 72 6f 32 00                       OpenAero2.

0000111a <Disarmed>:
    111a:	44 69 73 61 72 6d 65 64 00                          Disarmed.

00001123 <ErrorText10>:
    1123:	4c 6f 77 00                                         Low.

00001127 <Status3>:
    1127:	42 61 74 74 65 72 79 00                             Battery.

0000112f <ErrorText7>:
    112f:	4d 6f 64 65 6c 00                                   Model.

00001135 <ErrorText6>:
    1135:	4c 6f 73 74 00                                      Lost.

0000113a <ErrorText5>:
    113a:	45 72 72 6f 72 00                                   Error.

00001140 <ErrorText4>:
    1140:	53 69 67 6e 61 6c 00                                Signal.

00001147 <ErrorText3>:
    1147:	4e 6f 00                                            No.

0000114a <ChannelRef12>:
    114a:	45 6c 65 76 2e 00                                   Elev..

00001150 <ChannelRef10>:
    1150:	54 68 72 6f 74 2e 00                                Throt..

00001157 <ChannelRef8>:
    1157:	4e 6f 6e 65 00                                      None.

0000115c <ChannelRef7>:
    115c:	41 55 58 33 00                                      AUX3.

00001161 <ChannelRef6>:
    1161:	41 55 58 32 00                                      AUX2.

00001166 <ChannelRef5>:
    1166:	41 55 58 31 00                                      AUX1.

0000116b <ChannelRef4>:
    116b:	47 65 61 72 00                                      Gear.

00001170 <ChannelRef3>:
    1170:	52 75 64 64 65 72 00                                Rudder.

00001177 <ChannelRef2>:
    1177:	45 6c 65 76 61 74 6f 72 00                          Elevator.

00001180 <ChannelRef1>:
    1180:	41 69 6c 65 72 6f 6e 00                             Aileron.

00001188 <ChannelRef0>:
    1188:	54 68 72 6f 74 74 6c 65 00                          Throttle.

00001191 <MixerItem62>:
    1191:	53 71 72 74 53 69 6e 65 00                          SqrtSine.

0000119a <MixerItem61>:
    119a:	53 69 6e 65 00                                      Sine.

0000119f <MixerItem60>:
    119f:	4c 69 6e 65 61 72 00                                Linear.

000011a6 <MixerItem41>:
    11a6:	4d 6f 74 6f 72 00                                   Motor.

000011ac <MixerItem40>:
    11ac:	53 65 72 76 6f 00                                   Servo.

000011b2 <MixerItem74>:
    11b2:	41 63 63 50 69 74 63 68 00                          AccPitch.

000011bb <MixerItem73>:
    11bb:	41 63 63 52 6f 6c 6c 00                             AccRoll.

000011c3 <MixerItem72>:
    11c3:	47 79 72 6f 59 61 77 00                             GyroYaw.

000011cb <MixerItem71>:
    11cb:	47 79 72 6f 50 69 74 63 68 00                       GyroPitch.

000011d5 <MixerItem70>:
    11d5:	47 79 72 6f 52 6f 6c 6c 00                          GyroRoll.

000011de <MixerItem31>:
    11de:	50 32 20 53 6f 75 72 63 65 20 42 3a 00              P2 Source B:.

000011eb <MixerItem21>:
    11eb:	50 31 20 53 6f 75 72 63 65 20 42 3a 00              P1 Source B:.

000011f8 <MixerItem30>:
    11f8:	50 32 20 56 6f 6c 75 6d 65 3a 00                    P2 Volume:.

00001203 <MixerItem29>:
    1203:	50 32 20 53 6f 75 72 63 65 20 41 3a 00              P2 Source A:.

00001210 <MixerItem2>:
    1210:	50 31 20 56 6f 6c 75 6d 65 3a 00                    P1 Volume:.

0000121b <MixerItem0>:
    121b:	50 31 20 53 6f 75 72 63 65 20 41 3a 00              P1 Source A:.

00001228 <MixerItem43>:
    1228:	50 32 20 5a 20 61 63 63 3a 00                       P2 Z acc:.

00001232 <MixerItem42>:
    1232:	50 31 20 5a 20 61 63 63 3a 00                       P1 Z acc:.

0000123c <MixerItem28>:
    123c:	50 32 20 50 69 74 63 68 20 41 4c 3a 00              P2 Pitch AL:.

00001249 <MixerItem3>:
    1249:	50 31 20 50 69 74 63 68 20 41 4c 00                 P1 Pitch AL.

00001255 <MixerItem27>:
    1255:	50 32 20 52 6f 6c 6c 20 41 4c 3a 00                 P2 Roll AL:.

00001261 <MixerItem7>:
    1261:	50 31 20 52 6f 6c 6c 20 41 4c 3a 00                 P1 Roll AL:.

0000126d <MixerItem26>:
    126d:	50 32 20 59 61 77 20 67 79 72 6f 3a 00              P2 Yaw gyro:.

0000127a <MixerItem6>:
    127a:	50 31 20 59 61 77 20 67 79 72 6f 3a 00              P1 Yaw gyro:.

00001287 <MixerItem25>:
    1287:	50 32 20 50 69 74 63 68 20 67 79 72 6f 3a 00        P2 Pitch gyro:.

00001296 <MixerItem5>:
    1296:	50 31 20 50 69 74 63 68 20 67 79 72 6f 3a 00        P1 Pitch gyro:.

000012a5 <MixerItem24>:
    12a5:	50 32 20 52 6f 6c 6c 20 67 79 72 6f 3a 00           P2 Roll gyro:.

000012b3 <MixerItem4>:
    12b3:	50 31 20 52 6f 6c 6c 20 67 79 72 6f 3a 00           P1 Roll gyro:.

000012c1 <MixerItem56>:
    12c1:	50 32 20 52 75 64 2e 20 76 6f 6c 75 6d 65 3a 00     P2 Rud. volume:.

000012d1 <MixerItem53>:
    12d1:	50 31 20 52 75 64 2e 20 76 6f 6c 75 6d 65 3a 00     P1 Rud. volume:.

000012e1 <MixerItem55>:
    12e1:	50 32 20 45 6c 65 2e 20 76 6f 6c 75 6d 65 3a 00     P2 Ele. volume:.

000012f1 <MixerItem52>:
    12f1:	50 31 20 45 6c 65 2e 20 76 6f 6c 75 6d 65 3a 00     P1 Ele. volume:.

00001301 <MixerItem54>:
    1301:	50 32 20 41 69 6c 2e 20 76 6f 6c 75 6d 65 3a 00     P2 Ail. volume:.

00001311 <MixerItem51>:
    1311:	50 31 20 41 69 6c 2e 20 76 6f 6c 75 6d 65 3a 00     P1 Ail. volume:.

00001321 <Mixeritem50>:
    1321:	54 68 72 6f 74 74 6c 65 20 63 75 72 76 65 00        Throttle curve.

00001330 <MixerItem33>:
    1330:	50 32 20 54 68 72 2e 20 76 6f 6c 75 6d 65 3a 00     P2 Thr. volume:.

00001340 <MixerItem23>:
    1340:	50 31 20 54 68 72 2e 20 76 6f 6c 75 6d 65 3a 00     P1 Thr. volume:.

00001350 <MixerItem34>:
    1350:	50 32 20 4f 66 66 73 65 74 3a 00                    P2 Offset:.

0000135b <MixerItem35>:
    135b:	50 31 2e 6e 20 4f 66 66 73 65 74 3a 00              P1.n Offset:.

00001368 <MixerItem36>:
    1368:	50 31 2e 6e 20 25 20 6f 66 20 74 72 61 6e 73 3a     P1.n % of trans:
	...

00001379 <MixerItem20>:
    1379:	50 31 20 4f 66 66 73 65 74 3a 00                    P1 Offset:.

00001384 <MixerItem1>:
    1384:	44 65 76 69 63 65 3a 00                             Device:.

0000138c <P5text>:
    138c:	50 31 2e 6e 20 2d 20 50 32 00                       P1.n - P2.

00001396 <P4text>:
    1396:	50 31 20 2d 20 50 31 2e 6e 00                       P1 - P1.n.

000013a0 <P3text>:
    13a0:	50 32 00                                            P2.

000013a3 <P2text>:
    13a3:	50 31 2e 6e 00                                      P1.n.

000013a8 <P1text>:
    13a8:	50 31 00                                            P1.

000013ab <BattMenuItem2>:
    13ab:	42 61 74 2e 20 4c 56 41 20 78 31 30 3a 00           Bat. LVA x10:.

000013b9 <GeneralText7>:
    13b9:	41 4c 20 63 6f 72 72 65 63 74 3a 00                 AL correct:.

000013c5 <GeneralText16>:
    13c5:	47 79 72 6f 20 4c 50 46 3a 00                       Gyro LPF:.

000013cf <GeneralText6>:
    13cf:	41 63 63 2e 20 4c 50 46 3a 00                       Acc. LPF:.

000013d9 <GeneralText3>:
    13d9:	50 57 4d 20 72 61 74 65 3a 00                       PWM rate:.

000013e3 <GeneralText2>:
    13e3:	44 69 73 61 72 6d 20 74 69 6d 65 3a 00              Disarm time:.

000013f0 <AutoMenuItem2>:
    13f0:	53 61 66 65 74 79 3a 00                             Safety:.

000013f8 <Contrast>:
    13f8:	43 6f 6e 74 72 61 73 74 3a 00                       Contrast:.

00001402 <MixerMenuItem0>:
    1402:	4f 72 69 65 6e 74 61 74 69 6f 6e 3a 00              Orientation:.

0000140f <RCMenuItem7>:
    140f:	46 75 74 61 62 61 00                                Futaba.

00001416 <RCMenuItem6>:
    1416:	4a 52 2c 53 70 6b 74 6d 00                          JR,Spktm.

0000141f <RXMode3>:
    141f:	53 70 65 6b 74 72 75 6d 00                          Spektrum.

00001428 <RXMode2>:
    1428:	53 2d 42 75 73 00                                   S-Bus.

0000142e <RXMode1>:
    142e:	50 57 4d 00                                         PWM.

00001432 <RXMode0>:
    1432:	43 50 50 4d 00                                      CPPM.

00001437 <Transition_P1n>:
    1437:	54 72 61 6e 73 2e 20 50 31 6e 3a 00                 Trans. P1n:.

00001443 <Transition>:
    1443:	54 72 61 6e 73 69 74 69 6f 6e 00                    Transition.

0000144e <RCMenuItem10>:
    144e:	52 75 64 64 65 72 20 70 6f 6c 2e 3a 00              Rudder pol.:.

0000145b <RCMenuItem9>:
    145b:	45 6c 65 76 61 74 6f 72 20 70 6f 6c 2e 3a 00        Elevator pol.:.

0000146a <RCMenuItem8>:
    146a:	41 69 6c 65 72 6f 6e 20 70 6f 6c 2e 3a 00           Aileron pol.:.

00001478 <RCMenuItem2>:
    1478:	50 72 6f 66 69 6c 65 20 43 68 61 6e 2e 3a 00        Profile Chan.:.

00001487 <RCMenuItem0>:
    1487:	43 68 2e 20 6f 72 64 65 72 3a 00                    Ch. order:.

00001492 <RCMenuItem20>:
    1492:	50 57 4d 20 73 79 6e 63 3a 00                       PWM sync:.

0000149c <RCMenuItem1>:
    149c:	52 58 20 74 79 70 65 3a 00                          RX type:.

000014a5 <AutoMenuItem15>:
    14a5:	4f 4e 00                                            ON.

000014a8 <AutoMenuItem11>:
    14a8:	4f 46 46 00                                         OFF.

000014ac <StabMenuItem30>:
    14ac:	59 61 77 20 74 72 69 6d 3a 00                       Yaw trim:.

000014b6 <StabMenuItem9>:
    14b6:	59 61 77 20 49 20 72 61 74 65 3a 00                 Yaw I rate:.

000014c2 <StabMenuItem12>:
    14c2:	59 61 77 20 49 20 4c 69 6d 69 74 3a 00              Yaw I Limit:.

000014cf <StabMenuItem8>:
    14cf:	59 61 77 20 49 3a 00                                Yaw I:.

000014d6 <StabMenuItem7>:
    14d6:	59 61 77 20 50 3a 00                                Yaw P:.

000014dd <AutoMenuItem8>:
    14dd:	50 69 74 63 68 20 74 72 69 6d 3a 00                 Pitch trim:.

000014e9 <AutoMenuItem21>:
    14e9:	50 69 74 63 68 20 41 75 74 6f 4c 76 6c 3a 00        Pitch AutoLvl:.

000014f8 <StabMenuItem6>:
    14f8:	50 69 74 63 68 20 49 20 72 61 74 65 3a 00           Pitch I rate:.

00001506 <StabMenuItem11>:
    1506:	50 69 74 63 68 20 49 20 4c 69 6d 69 74 3a 00        Pitch I Limit:.

00001515 <StabMenuItem5>:
    1515:	50 69 74 63 68 20 49 3a 00                          Pitch I:.

0000151e <AutoMenuItem4>:
    151e:	50 69 74 63 68 20 50 3a 00                          Pitch P:.

00001527 <AutoMenuItem7>:
    1527:	52 6f 6c 6c 20 74 72 69 6d 3a 00                    Roll trim:.

00001532 <AutoMenuItem20>:
    1532:	52 6f 6c 6c 20 41 75 74 6f 4c 76 6c 3a 00           Roll AutoLvl:.

00001540 <StabMenuItem3>:
    1540:	52 6f 6c 6c 20 49 20 72 61 74 65 3a 00              Roll I rate:.

0000154d <StabMenuItem10>:
    154d:	52 6f 6c 6c 20 49 20 4c 69 6d 69 74 3a 00           Roll I Limit:.

0000155b <StabMenuItem2>:
    155b:	52 6f 6c 6c 20 49 3a 00                             Roll I:.

00001563 <AutoMenuItem1>:
    1563:	52 6f 6c 6c 20 50 3a 00                             Roll P:.

0000156b <StabMenuItem13>:
    156b:	41 63 63 20 56 65 72 74 20 50 3a 00                 Acc Vert P:.

00001577 <SensorMenuItem2>:
    1577:	49 6e 76 2e 00                                      Inv..

0000157c <SensorMenuItem1>:
    157c:	43 61 6c 2e 00                                      Cal..

00001581 <PText19>:
    1581:	41 63 63 00                                         Acc.

00001585 <PText18>:
    1585:	59 61 77 00                                         Yaw.

00001589 <PText17>:
    1589:	50 69 74 63 68 00                                   Pitch.

0000158f <PText16>:
    158f:	52 6f 6c 6c 00                                      Roll.

00001594 <PText15>:
    1594:	47 79 72 6f 00                                      Gyro.

00001599 <MainMenuItem23>:
    1599:	31 39 2e 20 50 6f 73 2e 20 53 65 72 76 6f 20 74     19. Pos. Servo t
    15a9:	72 76 6c 2e 20 28 25 29 00                          rvl. (%).

000015b2 <MainMenuItem22>:
    15b2:	31 38 2e 20 4e 65 67 2e 20 53 65 72 76 6f 20 74     18. Neg. Servo t
    15c2:	72 76 6c 2e 20 28 25 29 00                          rvl. (%).

000015cb <MainMenuItem20>:
    15cb:	31 37 2e 20 53 65 72 76 6f 20 64 69 72 65 63 74     17. Servo direct
    15db:	69 6f 6e 00                                         ion.

000015df <MainMenuItem18>:
    15df:	31 36 2e 20 4f 55 54 38 20 4d 69 78 65 72 00        16. OUT8 Mixer.

000015ee <MainMenuItem17>:
    15ee:	31 35 2e 20 4f 55 54 37 20 4d 69 78 65 72 00        15. OUT7 Mixer.

000015fd <MainMenuItem16>:
    15fd:	31 34 2e 20 4f 55 54 36 20 4d 69 78 65 72 00        14. OUT6 Mixer.

0000160c <MainMenuItem15>:
    160c:	31 33 2e 20 4f 55 54 35 20 4d 69 78 65 72 00        13. OUT5 Mixer.

0000161b <MainMenuItem14>:
    161b:	31 32 2e 20 4f 55 54 34 20 4d 69 78 65 72 00        12. OUT4 Mixer.

0000162a <MainMenuItem13>:
    162a:	31 31 2e 20 4f 55 54 33 20 4d 69 78 65 72 00        11. OUT3 Mixer.

00001639 <MainMenuItem12>:
    1639:	31 30 2e 20 4f 55 54 32 20 4d 69 78 65 72 00        10. OUT2 Mixer.

00001648 <MainMenuItem11>:
    1648:	39 2e 20 4f 55 54 31 20 4d 69 78 65 72 00           9. OUT1 Mixer.

00001656 <MainMenuItem3>:
    1656:	38 2e 20 46 6c 69 67 68 74 20 70 72 6f 66 69 6c     8. Flight profil
    1666:	65 20 32 00                                         e 2.

0000166a <MainMenuItem2>:
    166a:	37 2e 20 46 6c 69 67 68 74 20 70 72 6f 66 69 6c     7. Flight profil
    167a:	65 20 31 00                                         e 1.

0000167e <MainMenuItem10>:
    167e:	36 2e 20 4c 65 76 65 6c 20 6d 65 74 65 72 00        6. Level meter.

0000168d <MainMenuItem8>:
    168d:	35 2e 20 53 65 6e 73 6f 72 20 63 61 6c 69 62 72     5. Sensor calibr
    169d:	61 74 69 6f 6e 00                                   ation.

000016a3 <MainMenuItem7>:
    16a3:	34 2e 20 53 74 69 63 6b 20 70 6f 6c 61 72 69 74     4. Stick polarit
    16b3:	79 00                                               y.

000016b5 <MainMenuItem9>:
    16b5:	33 2e 20 52 65 63 65 69 76 65 72 20 69 6e 70 75     3. Receiver inpu
    16c5:	74 73 00                                            ts.

000016c8 <MainMenuItem1>:
    16c8:	32 2e 20 52 65 63 65 69 76 65 72 20 73 65 74 75     2. Receiver setu
    16d8:	70 00                                               p.

000016da <MainMenuItem0>:
    16da:	31 2e 20 47 65 6e 65 72 61 6c 00                    1. General.

000016e5 <MenuFrame8>:
    16e5:	53 61 76 65 00                                      Save.

000016ea <MenuFrame7>:
    16ea:	44 65 66 2e 00                                      Def..

000016ef <MenuFrame6>:
    16ef:	42 61 63 6b 00                                      Back.

000016f4 <MenuFrame5>:
    16f4:	4d 65 6e 75 00                                      Menu.

000016f9 <MenuFrame1>:
    16f9:	45 00                                               E.

000016fb <MenuFrame4>:
    16fb:	44 00                                               D.

000016fd <MenuFrame3>:
    16fd:	43 00                                               C.

000016ff <MenuFrame2>:
    16ff:	42 00                                               B.

00001701 <MenuFrame0>:
    1701:	41 00                                               A.

00001703 <StatusText9>:
    1703:	4a 69 74 74 65 72 3a 00                             Jitter:.

0000170b <StatusText8>:
    170b:	50 6f 73 3a 00                                      Pos:.

00001710 <StatusText7>:
    1710:	42 61 74 74 65 72 79 3a 00                          Battery:.

00001719 <StatusText5>:
    1719:	30 00                                               0.

0000171b <StatusText4>:
    171b:	2e 00                                               ..

0000171d <StatusText3>:
    171d:	50 72 6f 66 69 6c 65 3a 00                          Profile:.

00001726 <StatusText1>:
    1726:	4d 6f 64 65 3a 00                                   Mode:.

0000172c <StatusText0>:
    172c:	56 65 72 73 69 6f 6e 3a 20 56 31 2e 30 00           Version: V1.0.

0000173a <Gyro_Pol>:
    173a:	01 01 01 01 01 01 01 ff ff ff ff 01 01 ff 01 ff     ................
    174a:	01 01                                               ..

0000174c <Gyro_RPY_Order>:
    174c:	00 01 02 01 02 00 00 01 02 00 01 02 01 00 02 02     ................
    175c:	01 00                                               ..

0000175e <LPF_lookup>:
    175e:	17 0c 06 04 03 02 01                                .......

00001765 <lines>:
    1765:	03 0f 1b 27                                         ...'

00001769 <flight_menu_ranges>:
    1769:	00 7f 01 00 3c 00 7f 01 00 28 00 7d 01 00 0a 00     ....<....(.}....
    1779:	04 01 00 02 00 7f 01 00 05 81 7f 01 00 00 00 7f     ................
    1789:	01 00 3c 00 7f 01 00 28 00 7d 01 00 0a 00 04 01     ..<....(.}......
    1799:	00 02 00 7f 01 00 05 81 7f 01 00 00 00 7f 01 00     ................
    17a9:	50 00 7f 01 00 00 00 7d 01 00 00 00 04 01 00 01     P......}........
    17b9:	81 7f 01 00 00 00 7f 01 00 00                       ..........

000017c3 <FlightMenuText>:
	...

000017d5 <mixer_menu_ranges>:
    17d5:	00 01 01 01 00 83 7d 01 00 00 01 63 01 00 32 83     ......}....c..2.
    17e5:	7d 01 00 00 83 7d 01 00 00 00 7d 01 00 64 00 7d     }....}....}..d.}
    17f5:	01 00 64 00 02 01 01 00 83 7d 01 00 00 83 7d 01     ..d......}....}.
    1805:	00 00 83 7d 01 00 00 83 7d 01 00 00 83 7d 01 00     ...}....}....}..
    1815:	00 83 7d 01 00 00 00 02 01 01 00 00 02 01 01 00     ..}.............
    1825:	00 02 01 01 00 00 02 01 01 00 00 02 01 01 00 00     ................
    1835:	02 01 01 00 00 02 01 01 00 00 02 01 01 00 00 02     ................
    1845:	01 01 00 00 02 01 01 00 00 02 01 01 00 00 02 01     ................
    1855:	01 00 00 0d 01 01 0d 83 7d 01 00 00 00 0d 01 01     ........}.......
    1865:	0d 83 7d 01 00 00 00 0d 01 01 0d 83 7d 01 00 00     ..}.........}...
    1875:	00 0d 01 01 0d 83 7d 01 00 00                       ......}...

0000187f <MixerMenuText>:
    187f:	2e 00 00 00 00 00 00 38 00 00 00 00 00 00 44 44     .......8......DD
    188f:	44 44 44 44 44 44 44 44 44 44 ee 00 ee 00 ee 00     DDDDDDDDDD......
    189f:	ee 00                                               ..

000018a1 <servo_menu_ranges>:
    18a1:	00 01 01 01 00 83 00 01 00 9c 00 7d 01 00 64        ...........}..d

000018b0 <ServoMenuText>:
    18b0:	8d 8d 8d 8d 8d 8d 8d 8d 00 00 00 00 00 00 00 00     ................
	...

000018c8 <rc_menu_ranges>:
    18c8:	00 03 01 01 01 00 04 01 01 04 00 01 01 01 00 00     ................
    18d8:	08 01 01 04 00 01 01 01 00 00 01 01 01 00 00 01     ................
    18e8:	01 01 00 00 28 01 00 00 01 63 01 00 32 00 00 00     ....(....c..2...
    18f8:	00 00 00 05 01 01 00 1a 22 01 00 1e 00 01 01 01     ........".......
    1908:	01 00 7f 01 00 1e 00 7f 01 00 00 00 01 01 01 00     ................
    1918:	00 06 01 01 02 00 06 01 01 06 01 0a 01 00 07 00     ................
    1928:	06 01 01 02                                         ....

0000192c <RCMenuText>:
    192c:	3e 69 74 69 8d 8d 8d 00 00 00 7c 00 2c 00 00 76     >iti......|.,..v
    193c:	62 62 00 25                                         bb.%

00001940 <SQRTSIN>:
    1940:	00 0d 12 16 19 1c 1f 21 23 26 28 29 2b 2d 2f 30     .......!#&()+-/0
    1950:	32 33 35 36 38 39 3a 3b 3d 3e 3f 40 41 42 43 44     235689:;=>?@ABCD
    1960:	45 46 47 48 49 4a 4b 4c 4d 4d 4e 4f 50 51 51 52     EFGHIJKLMMNOPQQR
    1970:	53 53 54 55 55 56 57 57 58 58 59 59 5a 5a 5b 5b     SSTUUVWWXXYYZZ[[
    1980:	5c 5c 5d 5d 5e 5e 5e 5f 5f 5f 60 60 60 61 61 61     \\]]^^^___```aaa
    1990:	62 62 62 62 62 63 63 63 63 63 63 63 64 64 64 64     bbbbbcccccccdddd
    19a0:	64 64 64 64 64                                      ddddd

000019a5 <SIN>:
    19a5:	00 02 03 05 06 08 0a 0b 0d 0e 10 11 13 14 16 17     ................
    19b5:	19 1a 1c 1d 1f 20 22 23 25 26 28 29 2b 2c 2d 2f     ..... "#%&()+,-/
    19c5:	30 32 33 34 36 37 38 3a 3b 3c 3d 3f 40 41 42 43     0234678:;<=?@ABC
    19d5:	44 46 47 48 49 4a 4b 4c 4d 4e 4f 50 51 52 53 54     DFGHIJKLMNOPQRST
    19e5:	54 55 56 57 58 58 59 5a 5a 5b 5c 5c 5d 5e 5e 5f     TUVWXXYZZ[\\]^^_
    19f5:	5f 60 60 60 61 61 62 62 62 63 63 63 63 63 64 64     _```aabbbcccccdd
    1a05:	64 64 64 64 64                                      ddddd

00001a0a <__ctors_end>:
    1a0a:	11 24       	eor	r1, r1
    1a0c:	1f be       	out	0x3f, r1	; 63
    1a0e:	cf ef       	ldi	r28, 0xFF	; 255
    1a10:	d0 e1       	ldi	r29, 0x10	; 16
    1a12:	de bf       	out	0x3e, r29	; 62
    1a14:	cd bf       	out	0x3d, r28	; 61

00001a16 <wdt_init>:
// WDT reset prototype. Placed before main() in code to prevent wdt re-firing
void wdt_init(void) __attribute__((naked)) __attribute__((section(".init3")));

void wdt_init(void)
{
	MCUSR = 0;
    1a16:	14 be       	out	0x34, r1	; 52
	wdt_disable();
    1a18:	88 e1       	ldi	r24, 0x18	; 24
    1a1a:	0f b6       	in	r0, 0x3f	; 63
    1a1c:	f8 94       	cli
    1a1e:	80 93 60 00 	sts	0x0060, r24
    1a22:	10 92 60 00 	sts	0x0060, r1
    1a26:	0f be       	out	0x3f, r0	; 63

00001a28 <__do_copy_data>:
    1a28:	15 e0       	ldi	r17, 0x05	; 5
    1a2a:	a0 e0       	ldi	r26, 0x00	; 0
    1a2c:	b1 e0       	ldi	r27, 0x01	; 1
    1a2e:	e6 e3       	ldi	r30, 0x36	; 54
    1a30:	f4 e8       	ldi	r31, 0x84	; 132
    1a32:	02 c0       	rjmp	.+4      	; 0x1a38 <__do_copy_data+0x10>
    1a34:	05 90       	lpm	r0, Z+
    1a36:	0d 92       	st	X+, r0
    1a38:	ac 30       	cpi	r26, 0x0C	; 12
    1a3a:	b1 07       	cpc	r27, r17
    1a3c:	d9 f7       	brne	.-10     	; 0x1a34 <__do_copy_data+0xc>

00001a3e <__do_clear_bss>:
    1a3e:	27 e0       	ldi	r18, 0x07	; 7
    1a40:	ac e0       	ldi	r26, 0x0C	; 12
    1a42:	b5 e0       	ldi	r27, 0x05	; 5
    1a44:	01 c0       	rjmp	.+2      	; 0x1a48 <.do_clear_bss_start>

00001a46 <.do_clear_bss_loop>:
    1a46:	1d 92       	st	X+, r1

00001a48 <.do_clear_bss_start>:
    1a48:	a8 3f       	cpi	r26, 0xF8	; 248
    1a4a:	b2 07       	cpc	r27, r18
    1a4c:	e1 f7       	brne	.-8      	; 0x1a46 <.do_clear_bss_loop>
    1a4e:	0e 94 ab 16 	call	0x2d56	; 0x2d56 <main>
    1a52:	0c 94 19 42 	jmp	0x8432	; 0x8432 <_exit>

00001a56 <__bad_interrupt>:
    1a56:	0c 94 00 00 	jmp	0	; 0x0 <__vectors>

00001a5a <glcd_delay>:
;*************************************************************************

	.global glcd_delay
	.func   glcd_delay
glcd_delay:
	nop					// 1 5 * 50ns = 250ns = 4MHz
    1a5a:	00 00       	nop
	ret					// 4 (5 cycles)
    1a5c:	08 95       	ret

00001a5e <glcd_delay_1us>:
;*************************************************************************

	.global glcd_delay_1us
	.func   glcd_delay_1us
glcd_delay_1us:
	rcall	glcd_delay
    1a5e:	fd df       	rcall	.-6      	; 0x1a5a <glcd_delay>
	rcall	glcd_delay
    1a60:	fc df       	rcall	.-8      	; 0x1a5a <glcd_delay>
	rcall	glcd_delay
    1a62:	fb df       	rcall	.-10     	; 0x1a5a <glcd_delay>
	rcall	glcd_delay
    1a64:	fa df       	rcall	.-12     	; 0x1a5a <glcd_delay>
	ret
    1a66:	08 95       	ret

00001a68 <bind_master>:
;*************************************************************************

	.global bind_master
	.func   bind_master
bind_master:
	push	YL			//	1
    1a68:	cf 93       	push	r28
	push	XL			//	1
    1a6a:	af 93       	push	r26

	ldi		XL,0x5		// 	1 Master is 5 pulses
    1a6c:	a5 e0       	ldi	r26, 0x05	; 5

00001a6e <master_loop>:
master_loop:
	cbi 	BIND		//	2
    1a6e:	58 98       	cbi	0x0b, 0	; 11
	ldi		YL,0x76		// 	1 		118us
    1a70:	c6 e7       	ldi	r28, 0x76	; 118
	call	VarDelay	//	4
    1a72:	0e 94 44 0d 	call	0x1a88	; 0x1a88 <VarDelay>
	sbi		BIND		//	2
    1a76:	58 9a       	sbi	0x0b, 0	; 11
	ldi		YL,0x7A		// 	1 		122us
    1a78:	ca e7       	ldi	r28, 0x7A	; 122
	call	VarDelay	//	4
    1a7a:	0e 94 44 0d 	call	0x1a88	; 0x1a88 <VarDelay>
	dec		XL			//	1
    1a7e:	aa 95       	dec	r26
	brne	master_loop	//  2 1
    1a80:	b1 f7       	brne	.-20     	; 0x1a6e <master_loop>

	pop		XL			//	  1
    1a82:	af 91       	pop	r26
	pop		YL			//	  1
    1a84:	cf 91       	pop	r28
	ret					//	  4 
    1a86:	08 95       	ret

00001a88 <VarDelay>:
; 5 cycles to configure and call, 4 to return and 2 to change bit afterwards = 11
; 20 cycles makes 1.0us
;*************************************************************************

VarDelay:
	rjmp .+0			// 2
    1a88:	00 c0       	rjmp	.+0      	; 0x1a8a <VarDelay+0x2>
	rjmp .+0			// 2
    1a8a:	00 c0       	rjmp	.+0      	; 0x1a8c <VarDelay+0x4>
	rjmp .+0			// 2
    1a8c:	00 c0       	rjmp	.+0      	; 0x1a8e <VarDelay+0x6>
	rjmp .+0			// 2
    1a8e:	00 c0       	rjmp	.+0      	; 0x1a90 <VarDelay+0x8>
	rjmp .+0			// 2
    1a90:	00 c0       	rjmp	.+0      	; 0x1a92 <VarDelay+0xa>
	rjmp .+0			// 2
    1a92:	00 c0       	rjmp	.+0      	; 0x1a94 <VarDelay+0xc>
	rjmp .+0			// 2
    1a94:	00 c0       	rjmp	.+0      	; 0x1a96 <VarDelay+0xe>
	rjmp .+0			// 2
    1a96:	00 c0       	rjmp	.+0      	; 0x1a98 <VarDelay+0x10>
	nop					// 1
    1a98:	00 00       	nop
	dec 	YL			// 1
    1a9a:	ca 95       	dec	r28
	brne	VarDelay	// 2 1
    1a9c:	a9 f7       	brne	.-22     	; 0x1a88 <VarDelay>
	ret					//   4 
    1a9e:	08 95       	ret

00001aa0 <output_servo_ppm_asm>:

	.global output_servo_ppm_asm
	.func   output_servo_ppm_asm
output_servo_ppm_asm:
// Save regs
	push	ZL			// 2			
    1aa0:	ef 93       	push	r30
	push	ZH			// 2
    1aa2:	ff 93       	push	r31
	push	XL			// 2
    1aa4:	af 93       	push	r26
	push	XH			// 2
    1aa6:	bf 93       	push	r27
	push	YL			// 2
    1aa8:	cf 93       	push	r28
	push	YH			// 2
    1aaa:	df 93       	push	r29
	push	16			// 2
    1aac:	0f 93       	push	r16
	push	17			// 2
    1aae:	1f 93       	push	r17
	push	18			// 2
    1ab0:	2f 93       	push	r18
	push	19			// 2
    1ab2:	3f 93       	push	r19
	push	20			// 2
    1ab4:	4f 93       	push	r20
	push	21			// 2
    1ab6:	5f 93       	push	r21
	push	22			// 2
    1ab8:	6f 93       	push	r22
	push	23			// 2
    1aba:	7f 93       	push	r23

// Get start address of ServoOut[0] into Z
	mov		ZL, r24		// 1 Low byte
    1abc:	e8 2f       	mov	r30, r24
	mov		ZH, r25		// 1 High byte
    1abe:	f9 2f       	mov	r31, r25

// Save initial address for later
	push	24			// 2
    1ac0:	8f 93       	push	r24
	push	25			// 2
    1ac2:	9f 93       	push	r25

// Trim 16-bit values to suit individual needs, 
// Save result and copy lower 3 bits to r16 to r23 (96 cycles)

// M1
	ld		XL, Z+ 		// 2			Load XL with data at address in Z
    1ac4:	a1 91       	ld	r26, Z+
	ld		XH, Z+		// 2			Load XH with data at address in Z+1
    1ac6:	b1 91       	ld	r27, Z+
	subi	XL,	0x4a	// 1 			Trim servo pulse
    1ac8:	aa 54       	subi	r26, 0x4A	; 74
	sbci 	XH,	0x03	// 1
    1aca:	b3 40       	sbci	r27, 0x03	; 3
	push	XL 			// 2			Save trimmed value to the stack
    1acc:	af 93       	push	r26
	push	XH 			// 2
    1ace:	bf 93       	push	r27
	andi	XL,	0x07	// 1			And all but first 3 bits
    1ad0:	a7 70       	andi	r26, 0x07	; 7
	mov		r23,XL		// 1 (12)		Copy 8-bit result to regs
    1ad2:	7a 2f       	mov	r23, r26
// M2
	ld		XL, Z+
    1ad4:	a1 91       	ld	r26, Z+
	ld		XH, Z+
    1ad6:	b1 91       	ld	r27, Z+
	subi	XL,	0xe6
    1ad8:	a6 5e       	subi	r26, 0xE6	; 230
	sbci 	XH,	0x02
    1ada:	b2 40       	sbci	r27, 0x02	; 2
	push	XL 		
    1adc:	af 93       	push	r26
	push	XH 		
    1ade:	bf 93       	push	r27
	andi	XL,	0x07
    1ae0:	a7 70       	andi	r26, 0x07	; 7
	mov		r22,XL	
    1ae2:	6a 2f       	mov	r22, r26
// M3
	ld		XL, Z+
    1ae4:	a1 91       	ld	r26, Z+
	ld		XH, Z+
    1ae6:	b1 91       	ld	r27, Z+
	subi	XL,	0x82
    1ae8:	a2 58       	subi	r26, 0x82	; 130
	sbci 	XH,	0x02
    1aea:	b2 40       	sbci	r27, 0x02	; 2
	push	XL 		
    1aec:	af 93       	push	r26
	push	XH 		
    1aee:	bf 93       	push	r27
	andi	XL,	0x07
    1af0:	a7 70       	andi	r26, 0x07	; 7
	mov		r21,XL	
    1af2:	5a 2f       	mov	r21, r26
// M4
	ld		XL, Z+
    1af4:	a1 91       	ld	r26, Z+
	ld		XH, Z+
    1af6:	b1 91       	ld	r27, Z+
	subi	XL,	0x1e
    1af8:	ae 51       	subi	r26, 0x1E	; 30
	sbci 	XH,	0x02
    1afa:	b2 40       	sbci	r27, 0x02	; 2
	push	XL 	
    1afc:	af 93       	push	r26
	push	XH 	
    1afe:	bf 93       	push	r27
	andi	XL,	0x07
    1b00:	a7 70       	andi	r26, 0x07	; 7
	mov		r20,XL	
    1b02:	4a 2f       	mov	r20, r26
// M5
	ld		XL, Z+
    1b04:	a1 91       	ld	r26, Z+
	ld		XH, Z+
    1b06:	b1 91       	ld	r27, Z+
	subi	XL,	0xb9
    1b08:	a9 5b       	subi	r26, 0xB9	; 185
	sbci 	XH,	0x01
    1b0a:	b1 40       	sbci	r27, 0x01	; 1
	push	XL 	
    1b0c:	af 93       	push	r26
	push	XH 	
    1b0e:	bf 93       	push	r27
	andi	XL,	0x07
    1b10:	a7 70       	andi	r26, 0x07	; 7
	mov		r19,XL	
    1b12:	3a 2f       	mov	r19, r26
// M6
	ld		XL, Z+
    1b14:	a1 91       	ld	r26, Z+
	ld		XH, Z+
    1b16:	b1 91       	ld	r27, Z+
	subi	XL,	0x55
    1b18:	a5 55       	subi	r26, 0x55	; 85
	sbci 	XH,	0x01
    1b1a:	b1 40       	sbci	r27, 0x01	; 1
	push	XL 	
    1b1c:	af 93       	push	r26
	push	XH 	
    1b1e:	bf 93       	push	r27
	andi	XL,	0x07
    1b20:	a7 70       	andi	r26, 0x07	; 7
	mov		r18,XL
    1b22:	2a 2f       	mov	r18, r26
// M7
	ld		XL, Z+
    1b24:	a1 91       	ld	r26, Z+
	ld		XH, Z+
    1b26:	b1 91       	ld	r27, Z+
	subi	XL,	0xf1
    1b28:	a1 5f       	subi	r26, 0xF1	; 241
	sbci 	XH,	0x00
    1b2a:	b0 40       	sbci	r27, 0x00	; 0
	push	XL 	
    1b2c:	af 93       	push	r26
	push	XH 
    1b2e:	bf 93       	push	r27
	andi	XL,	0x07
    1b30:	a7 70       	andi	r26, 0x07	; 7
	mov		r17,XL
    1b32:	1a 2f       	mov	r17, r26
// M8
	ld		XL, Z+
    1b34:	a1 91       	ld	r26, Z+
	ld		XH, Z+
    1b36:	b1 91       	ld	r27, Z+
	subi	XL,	0x8d
    1b38:	ad 58       	subi	r26, 0x8D	; 141
	sbci 	XH,	0x00
    1b3a:	b0 40       	sbci	r27, 0x00	; 0
	push	XL
    1b3c:	af 93       	push	r26
	push	XH 
    1b3e:	bf 93       	push	r27
	andi	XL,	0x07
    1b40:	a7 70       	andi	r26, 0x07	; 7
	mov		r16,XL
    1b42:	0a 2f       	mov	r16, r26
// Time out lower 3 bits of pulse value (Zero to 7us)
// Each chunk is always executed in 1+10+1+147 = 159 cycles or 7.95us
// This does affect the inter-pulse delay, but not the pulsewidth.

// M1
	mov		r25,r23		// 1
    1b44:	97 2f       	mov	r25, r23
	call	DelayHigh	// 10 (where r25 = 7)
    1b46:	0e 94 d1 0e 	call	0x1da2	; 0x1da2 <DelayHigh>
	sbi 	M1			// 1
    1b4a:	46 9a       	sbi	0x08, 6	; 8
	call	DelayLow	// 7 + 140 (where r25 = 0)
    1b4c:	0e 94 dd 0e 	call	0x1dba	; 0x1dba <DelayLow>
	call    pwm_delay   // 100us
    1b50:	0e 94 b0 0e 	call	0x1d60	; 0x1d60 <pwm_delay>
	call    pwm_delay
    1b54:	0e 94 b0 0e 	call	0x1d60	; 0x1d60 <pwm_delay>

// M2
	mov		r25,r22
    1b58:	96 2f       	mov	r25, r22
	call	DelayHigh
    1b5a:	0e 94 d1 0e 	call	0x1da2	; 0x1da2 <DelayHigh>
	sbi 	M2
    1b5e:	44 9a       	sbi	0x08, 4	; 8
	call	DelayLow
    1b60:	0e 94 dd 0e 	call	0x1dba	; 0x1dba <DelayLow>
	call    pwm_delay   // 100us
    1b64:	0e 94 b0 0e 	call	0x1d60	; 0x1d60 <pwm_delay>
	call    pwm_delay
    1b68:	0e 94 b0 0e 	call	0x1d60	; 0x1d60 <pwm_delay>

// M3
	mov		r25,r21
    1b6c:	95 2f       	mov	r25, r21
	call	DelayHigh
    1b6e:	0e 94 d1 0e 	call	0x1da2	; 0x1da2 <DelayHigh>
	sbi 	M3
    1b72:	42 9a       	sbi	0x08, 2	; 8
	call	DelayLow
    1b74:	0e 94 dd 0e 	call	0x1dba	; 0x1dba <DelayLow>
	call    pwm_delay   // 100us
    1b78:	0e 94 b0 0e 	call	0x1d60	; 0x1d60 <pwm_delay>
	call    pwm_delay
    1b7c:	0e 94 b0 0e 	call	0x1d60	; 0x1d60 <pwm_delay>

// M4
	mov		r25,r20
    1b80:	94 2f       	mov	r25, r20
	call	DelayHigh
    1b82:	0e 94 d1 0e 	call	0x1da2	; 0x1da2 <DelayHigh>
	sbi 	M4
    1b86:	43 9a       	sbi	0x08, 3	; 8
	call	DelayLow
    1b88:	0e 94 dd 0e 	call	0x1dba	; 0x1dba <DelayLow>
	call    pwm_delay   // 100us
    1b8c:	0e 94 b0 0e 	call	0x1d60	; 0x1d60 <pwm_delay>
	call    pwm_delay
    1b90:	0e 94 b0 0e 	call	0x1d60	; 0x1d60 <pwm_delay>

// M5
	mov		r25,r19
    1b94:	93 2f       	mov	r25, r19
	call	DelayHigh
    1b96:	0e 94 d1 0e 	call	0x1da2	; 0x1da2 <DelayHigh>
	sbi 	M5
    1b9a:	14 9a       	sbi	0x02, 4	; 2
	call	DelayLow
    1b9c:	0e 94 dd 0e 	call	0x1dba	; 0x1dba <DelayLow>
	call    pwm_delay   // 100us
    1ba0:	0e 94 b0 0e 	call	0x1d60	; 0x1d60 <pwm_delay>
	call    pwm_delay
    1ba4:	0e 94 b0 0e 	call	0x1d60	; 0x1d60 <pwm_delay>

// M6
	mov		r25,r18
    1ba8:	92 2f       	mov	r25, r18
	call	DelayHigh
    1baa:	0e 94 d1 0e 	call	0x1da2	; 0x1da2 <DelayHigh>
	sbi 	M6
    1bae:	15 9a       	sbi	0x02, 5	; 2
	call	DelayLow
    1bb0:	0e 94 dd 0e 	call	0x1dba	; 0x1dba <DelayLow>
	call    pwm_delay   // 100us
    1bb4:	0e 94 b0 0e 	call	0x1d60	; 0x1d60 <pwm_delay>
	call    pwm_delay
    1bb8:	0e 94 b0 0e 	call	0x1d60	; 0x1d60 <pwm_delay>

// M7
	mov		r25,r17
    1bbc:	91 2f       	mov	r25, r17
	call	DelayHigh
    1bbe:	0e 94 d1 0e 	call	0x1da2	; 0x1da2 <DelayHigh>
	sbi 	M7
    1bc2:	45 9a       	sbi	0x08, 5	; 8
	call	DelayLow
    1bc4:	0e 94 dd 0e 	call	0x1dba	; 0x1dba <DelayLow>
	call    pwm_delay   // 100us
    1bc8:	0e 94 b0 0e 	call	0x1d60	; 0x1d60 <pwm_delay>
	call    pwm_delay
    1bcc:	0e 94 b0 0e 	call	0x1d60	; 0x1d60 <pwm_delay>

// M8
	mov		r25,r16
    1bd0:	90 2f       	mov	r25, r16
	call	DelayHigh
    1bd2:	0e 94 d1 0e 	call	0x1da2	; 0x1da2 <DelayHigh>
	sbi 	M8
    1bd6:	47 9a       	sbi	0x08, 7	; 8
	call	DelayLow
    1bd8:	0e 94 dd 0e 	call	0x1dba	; 0x1dba <DelayLow>
// At this point, the largest pulse that we can generate is 256 * 8 = 2.048ms
// However we would like to be able to generate up to 2.100ms (150%) - an extra 52us
// So we can fluff it out another 200us so that we can subtract enough to keep r16 under 0xff or 256 :)
// With this setup, M1 can go down to 850 and M8 can go up to 2150

	call    pwm_delay   // 150us
    1bdc:	0e 94 b0 0e 	call	0x1d60	; 0x1d60 <pwm_delay>
	call    pwm_delay
    1be0:	0e 94 b0 0e 	call	0x1d60	; 0x1d60 <pwm_delay>
	call    pwm_delay
    1be4:	0e 94 b0 0e 	call	0x1d60	; 0x1d60 <pwm_delay>

// Copy trimmed array data into regs
// This now represents steps of 8us chunks
	pop		XH			// M8
    1be8:	bf 91       	pop	r27
	pop		XL
    1bea:	af 91       	pop	r26
	call	shuffle_8
    1bec:	0e 94 ca 0e 	call	0x1d94	; 0x1d94 <shuffle_8>
	mov		r16,XL
    1bf0:	0a 2f       	mov	r16, r26
	pop		XH			// M7
    1bf2:	bf 91       	pop	r27
	pop		XL
    1bf4:	af 91       	pop	r26
	call	shuffle_8
    1bf6:	0e 94 ca 0e 	call	0x1d94	; 0x1d94 <shuffle_8>
	mov		r17,XL
    1bfa:	1a 2f       	mov	r17, r26
	pop		XH			// M6
    1bfc:	bf 91       	pop	r27
	pop		XL
    1bfe:	af 91       	pop	r26
	call	shuffle_8
    1c00:	0e 94 ca 0e 	call	0x1d94	; 0x1d94 <shuffle_8>
	mov		r18,XL
    1c04:	2a 2f       	mov	r18, r26
	pop		XH			// M5
    1c06:	bf 91       	pop	r27
	pop		XL
    1c08:	af 91       	pop	r26
	call	shuffle_8
    1c0a:	0e 94 ca 0e 	call	0x1d94	; 0x1d94 <shuffle_8>
	mov		r19,XL
    1c0e:	3a 2f       	mov	r19, r26
	pop		XH			// M4
    1c10:	bf 91       	pop	r27
	pop		XL
    1c12:	af 91       	pop	r26
	call	shuffle_8
    1c14:	0e 94 ca 0e 	call	0x1d94	; 0x1d94 <shuffle_8>
	mov		r20,XL
    1c18:	4a 2f       	mov	r20, r26
	pop		XH			// M3
    1c1a:	bf 91       	pop	r27
	pop		XL
    1c1c:	af 91       	pop	r26
	call	shuffle_8
    1c1e:	0e 94 ca 0e 	call	0x1d94	; 0x1d94 <shuffle_8>
	mov		r21,XL
    1c22:	5a 2f       	mov	r21, r26
	pop		XH			// M2
    1c24:	bf 91       	pop	r27
	pop		XL
    1c26:	af 91       	pop	r26
	call	shuffle_8
    1c28:	0e 94 ca 0e 	call	0x1d94	; 0x1d94 <shuffle_8>
	mov		r22,XL
    1c2c:	6a 2f       	mov	r22, r26
	pop		XH			// M1
    1c2e:	bf 91       	pop	r27
	pop		XL
    1c30:	af 91       	pop	r26
	call	shuffle_8
    1c32:	0e 94 ca 0e 	call	0x1d94	; 0x1d94 <shuffle_8>
	mov		r23,XL
    1c36:	7a 2f       	mov	r23, r26

// Loop prep
	ldi 	YL,0x13		// 1			Set loop count to 113h or 275 (275 * 8us = 2200us)
    1c38:	c3 e1       	ldi	r28, 0x13	; 19
	ldi		YH,0x01		// 1
    1c3a:	d1 e0       	ldi	r29, 0x01	; 1
	clr		0			// 1 (7)
    1c3c:	00 24       	eor	r0, r0

00001c3e <nloop>:

// Ninja loop - 7 cycles each side (8 x 7 = 56 + 6 to loop + 98 pad = 160 cycles)
// 20 cyles = 1us, 160 cycles = 8us

nloop:
	subi	r23,1		// 1 			ServoOut1
    1c3e:	71 50       	subi	r23, 0x01	; 1
	brne	j1			// 2	1	
    1c40:	19 f4       	brne	.+6      	; 0x1c48 <j1>
	cbi 	M1			// 		2		Clear output M1 if done (+5 = 1448 = 72.4us = 48)
    1c42:	46 98       	cbi	0x08, 6	; 8
	jmp		jj1			//		3
    1c44:	0c 94 26 0e 	jmp	0x1c4c	; 0x1c4c <jj1>

00001c48 <j1>:
j1:
	rjmp 	.+0			// 2
    1c48:	00 c0       	rjmp	.+0      	; 0x1c4a <j1+0x2>
	rjmp 	.+0			// 2
    1c4a:	00 c0       	rjmp	.+0      	; 0x1c4c <jj1>

00001c4c <jj1>:
jj1:
	subi	r22,1		// 1			ServoOut2
    1c4c:	61 50       	subi	r22, 0x01	; 1
	brne	j2			// 2	1
    1c4e:	19 f4       	brne	.+6      	; 0x1c56 <j2>
	cbi 	M2			// 		2		Clear output M2 if done (+11 = 1285 = 64.25us = 40)
    1c50:	44 98       	cbi	0x08, 4	; 8
	jmp		jj2			//		3
    1c52:	0c 94 2d 0e 	jmp	0x1c5a	; 0x1c5a <jj2>

00001c56 <j2>:
j2:
	rjmp	.+0
    1c56:	00 c0       	rjmp	.+0      	; 0x1c58 <j2+0x2>
	rjmp	.+0
    1c58:	00 c0       	rjmp	.+0      	; 0x1c5a <jj2>

00001c5a <jj2>:
jj2:
	subi	r21,1
    1c5a:	51 50       	subi	r21, 0x01	; 1
	brne	j3
    1c5c:	19 f4       	brne	.+6      	; 0x1c64 <j3>
	cbi 	M3
    1c5e:	42 98       	cbi	0x08, 2	; 8
	jmp		jj3
    1c60:	0c 94 34 0e 	jmp	0x1c68	; 0x1c68 <jj3>

00001c64 <j3>:
j3:
	rjmp	.+0
    1c64:	00 c0       	rjmp	.+0      	; 0x1c66 <j3+0x2>
	rjmp	.+0
    1c66:	00 c0       	rjmp	.+0      	; 0x1c68 <jj3>

00001c68 <jj3>:
jj3:
	subi 	r20,1
    1c68:	41 50       	subi	r20, 0x01	; 1
	brne	j4
    1c6a:	19 f4       	brne	.+6      	; 0x1c72 <j4>
	cbi 	M4
    1c6c:	43 98       	cbi	0x08, 3	; 8
	jmp		jj4	
    1c6e:	0c 94 3b 0e 	jmp	0x1c76	; 0x1c76 <jj4>

00001c72 <j4>:
j4:
	rjmp 	.+0
    1c72:	00 c0       	rjmp	.+0      	; 0x1c74 <j4+0x2>
	rjmp 	.+0
    1c74:	00 c0       	rjmp	.+0      	; 0x1c76 <jj4>

00001c76 <jj4>:
jj4:
	subi	r19,1
    1c76:	31 50       	subi	r19, 0x01	; 1
	brne	j5
    1c78:	19 f4       	brne	.+6      	; 0x1c80 <j5>
	cbi 	M5
    1c7a:	14 98       	cbi	0x02, 4	; 2
	jmp		jj5
    1c7c:	0c 94 42 0e 	jmp	0x1c84	; 0x1c84 <jj5>

00001c80 <j5>:
j5:
	rjmp 	.+0
    1c80:	00 c0       	rjmp	.+0      	; 0x1c82 <j5+0x2>
	rjmp 	.+0
    1c82:	00 c0       	rjmp	.+0      	; 0x1c84 <jj5>

00001c84 <jj5>:
jj5:
	subi	r18,1
    1c84:	21 50       	subi	r18, 0x01	; 1
	brne	j6
    1c86:	19 f4       	brne	.+6      	; 0x1c8e <j6>
	cbi 	M6
    1c88:	15 98       	cbi	0x02, 5	; 2
	jmp		jj6
    1c8a:	0c 94 49 0e 	jmp	0x1c92	; 0x1c92 <jj6>

00001c8e <j6>:
j6:
	rjmp 	.+0
    1c8e:	00 c0       	rjmp	.+0      	; 0x1c90 <j6+0x2>
	rjmp	.+0
    1c90:	00 c0       	rjmp	.+0      	; 0x1c92 <jj6>

00001c92 <jj6>:
jj6:
	subi	r17,1
    1c92:	11 50       	subi	r17, 0x01	; 1
	brne	j7
    1c94:	19 f4       	brne	.+6      	; 0x1c9c <j7>
	cbi 	M7
    1c96:	45 98       	cbi	0x08, 5	; 8
	jmp		jj7
    1c98:	0c 94 50 0e 	jmp	0x1ca0	; 0x1ca0 <jj7>

00001c9c <j7>:
j7:
	rjmp 	.+0
    1c9c:	00 c0       	rjmp	.+0      	; 0x1c9e <j7+0x2>
	rjmp 	.+0
    1c9e:	00 c0       	rjmp	.+0      	; 0x1ca0 <jj7>

00001ca0 <jj7>:
jj7:
	subi 	r16,1		// ServoOut 8
    1ca0:	01 50       	subi	r16, 0x01	; 1
	brne	j8
    1ca2:	19 f4       	brne	.+6      	; 0x1caa <j8>
	cbi 	M8
    1ca4:	47 98       	cbi	0x08, 7	; 8
	jmp		jj8
    1ca6:	0c 94 57 0e 	jmp	0x1cae	; 0x1cae <jj8>

00001caa <j8>:
j8:
	rjmp 	.+0
    1caa:	00 c0       	rjmp	.+0      	; 0x1cac <j8+0x2>
	rjmp 	.+0
    1cac:	00 c0       	rjmp	.+0      	; 0x1cae <jj8>

00001cae <jj8>:
jj8:
	call	pad_100_delay // (100)
    1cae:	0e 94 b9 0e 	call	0x1d72	; 0x1d72 <pad_100_delay>

	subi 	YL,1		// 1
    1cb2:	c1 50       	subi	r28, 0x01	; 1
	sbc 	YH,0		// 1
    1cb4:	d0 09       	sbc	r29, r0
	breq	skiploop	// 1	2		Loop until zero - 1 false 2 true
    1cb6:	11 f0       	breq	.+4      	; 0x1cbc <skiploop>
	jmp		nloop		// 3			Can't reach nloop with a brne alone
    1cb8:	0c 94 1f 0e 	jmp	0x1c3e	; 0x1c3e <nloop>

00001cbc <skiploop>:

skiploop:
	pop		25			// 		2		Restore regs
    1cbc:	9f 91       	pop	r25
	pop		24			// 		2
    1cbe:	8f 91       	pop	r24
	pop		23			//		2
    1cc0:	7f 91       	pop	r23
	pop		22			//		2
    1cc2:	6f 91       	pop	r22
	pop		21			//		2
    1cc4:	5f 91       	pop	r21
	pop		20			//		2
    1cc6:	4f 91       	pop	r20
	pop		19			//		2
    1cc8:	3f 91       	pop	r19
	pop		18			//		2
    1cca:	2f 91       	pop	r18
	pop		17			//		2
    1ccc:	1f 91       	pop	r17
	pop		16			//		2
    1cce:	0f 91       	pop	r16
	pop		YH			//		2
    1cd0:	df 91       	pop	r29
	pop		YL			//		2
    1cd2:	cf 91       	pop	r28
	pop		XH			//		2
    1cd4:	bf 91       	pop	r27
	pop		XL			//		2
    1cd6:	af 91       	pop	r26
	pop		ZH			// 		2
    1cd8:	ff 91       	pop	r31
	pop		ZL			//		2
    1cda:	ef 91       	pop	r30

	ret					//		4
    1cdc:	08 95       	ret

00001cde <output_servo_ppm_asm3>:
;*************************************************************************

	.global output_servo_ppm_asm3
	.func   output_servo_ppm_asm3
output_servo_ppm_asm3:
	push	16			// Save regs
    1cde:	0f 93       	push	r16
	push	17
    1ce0:	1f 93       	push	r17
	push	18
    1ce2:	2f 93       	push	r18

	//ldi 	16,0x34		// 1			Set loop count to 834h or 2100
	ldi 	16,0xFC		// 1			Set loop count to 8FCh or 2300(us)
    1ce4:	0c ef       	ldi	r16, 0xFC	; 252
	ldi		17,0x08	
    1ce6:	18 e0       	ldi	r17, 0x08	; 8
	clr		0
    1ce8:	00 24       	eor	r0, r0

00001cea <jump_table>:

jump_table:
	cpi		r24,0x00	; 0				
    1cea:	80 30       	cpi	r24, 0x00	; 0
	breq	in1
    1cec:	71 f0       	breq	.+28     	; 0x1d0a <in1>
	cpi		r24,0x01	; 1
    1cee:	81 30       	cpi	r24, 0x01	; 1
	breq	in2
    1cf0:	79 f0       	breq	.+30     	; 0x1d10 <in2>
	cpi		r24,0x02	; 2
    1cf2:	82 30       	cpi	r24, 0x02	; 2
	breq	in3
    1cf4:	81 f0       	breq	.+32     	; 0x1d16 <in3>
	cpi		r24,0x03	; 3
    1cf6:	83 30       	cpi	r24, 0x03	; 3
	breq	in4
    1cf8:	89 f0       	breq	.+34     	; 0x1d1c <in4>
	cpi		r24,0x04	; 4
    1cfa:	84 30       	cpi	r24, 0x04	; 4
	breq	in5
    1cfc:	91 f0       	breq	.+36     	; 0x1d22 <in5>
	cpi		r24,0x05	; 5
    1cfe:	85 30       	cpi	r24, 0x05	; 5
	breq	in6
    1d00:	99 f0       	breq	.+38     	; 0x1d28 <in6>
	cpi		r24,0x06	; 6
    1d02:	86 30       	cpi	r24, 0x06	; 6
	breq	in7
    1d04:	a1 f0       	breq	.+40     	; 0x1d2e <in7>
	cpi		r24,0x07	; 7
    1d06:	87 30       	cpi	r24, 0x07	; 7
	breq	in8
    1d08:	a9 f0       	breq	.+42     	; 0x1d34 <in8>

00001d0a <in1>:

in1:sbi 	M1			// Set output high
    1d0a:	46 9a       	sbi	0x08, 6	; 8
	jmp		loopin
    1d0c:	0c 94 9d 0e 	jmp	0x1d3a	; 0x1d3a <loopin>

00001d10 <in2>:
in2:sbi 	M2
    1d10:	44 9a       	sbi	0x08, 4	; 8
	jmp		loopin
    1d12:	0c 94 9d 0e 	jmp	0x1d3a	; 0x1d3a <loopin>

00001d16 <in3>:
in3:sbi 	M3	
    1d16:	42 9a       	sbi	0x08, 2	; 8
	jmp		loopin
    1d18:	0c 94 9d 0e 	jmp	0x1d3a	; 0x1d3a <loopin>

00001d1c <in4>:
in4:sbi 	M4
    1d1c:	43 9a       	sbi	0x08, 3	; 8
	jmp		loopin
    1d1e:	0c 94 9d 0e 	jmp	0x1d3a	; 0x1d3a <loopin>

00001d22 <in5>:
in5:sbi 	M5
    1d22:	14 9a       	sbi	0x02, 4	; 2
	jmp		loopin
    1d24:	0c 94 9d 0e 	jmp	0x1d3a	; 0x1d3a <loopin>

00001d28 <in6>:
in6:sbi 	M6
    1d28:	15 9a       	sbi	0x02, 5	; 2
	jmp		loopin
    1d2a:	0c 94 9d 0e 	jmp	0x1d3a	; 0x1d3a <loopin>

00001d2e <in7>:
in7:sbi 	M7
    1d2e:	45 9a       	sbi	0x08, 5	; 8
	jmp		loopin
    1d30:	0c 94 9d 0e 	jmp	0x1d3a	; 0x1d3a <loopin>

00001d34 <in8>:
in8:sbi 	M8
    1d34:	47 9a       	sbi	0x08, 7	; 8
	jmp		loopin
    1d36:	0c 94 9d 0e 	jmp	0x1d3a	; 0x1d3a <loopin>

00001d3a <loopin>:

// Loop - 20 cycles = 1us
loopin:
						// <---------	Left column is skip execution path
	rjmp .+0			// 2 	<----	Right column is pulse end execution path
    1d3a:	00 c0       	rjmp	.+0      	; 0x1d3c <loopin+0x2>
	rjmp .+0			// 2
    1d3c:	00 c0       	rjmp	.+0      	; 0x1d3e <loopin+0x4>
	rjmp .+0			// 2
    1d3e:	00 c0       	rjmp	.+0      	; 0x1d40 <loopin+0x6>
	rjmp .+0			// 2
    1d40:	00 c0       	rjmp	.+0      	; 0x1d42 <loopin+0x8>
	rjmp .+0			// 2
    1d42:	00 c0       	rjmp	.+0      	; 0x1d44 <loopin+0xa>
	rjmp .+0			// 2
    1d44:	00 c0       	rjmp	.+0      	; 0x1d46 <loopin+0xc>

	subi	r22,1		// 1 			Time servo pulse
    1d46:	61 50       	subi	r22, 0x01	; 1
	sbc 	r23,0		// 1
    1d48:	70 09       	sbc	r23, r0
	brne	loopout		// 2	1
    1d4a:	19 f4       	brne	.+6      	; 0x1d52 <loopout>

// Clear outputs if done
	ldi		r18,0x00	 // 1
    1d4c:	20 e0       	ldi	r18, 0x00	; 0
	out 	SERVO_OUT_KK20,r18// 1			Boom.
    1d4e:	28 b9       	out	0x08, r18	; 8
#ifdef KK21
	out 	SERVO_OUT_KK21,r18// 1			KK2.1 has a couple of outputs on Port A also.
    1d50:	22 b9       	out	0x02, r18	; 2

00001d52 <loopout>:
#endif

// Exit
loopout:
	subi 	16,1		// 1			+4 cycles = total 20 cycles
    1d52:	01 50       	subi	r16, 0x01	; 1
	sbc 	17,0		// 1
    1d54:	10 09       	sbc	r17, r0
	brne	loopin		// 2	1		Loop until zero
    1d56:	89 f7       	brne	.-30     	; 0x1d3a <loopin>

	pop		18
    1d58:	2f 91       	pop	r18
	pop		17			// Restore regs
    1d5a:	1f 91       	pop	r17
	pop		16
    1d5c:	0f 91       	pop	r16
	ret	
    1d5e:	08 95       	ret

00001d60 <pwm_delay>:
;*************************************************************************	
; void pwm_delay(void) 50us output spacing delay (8 cycle loop - 400ns)
;*************************************************************************

pwm_delay:				// 4 to call
	push	16			// 1
    1d60:	0f 93       	push	r16
	ldi 	16,0x65		// 1
    1d62:	05 e6       	ldi	r16, 0x65	; 101

00001d64 <pwm_loop>:

pwm_loop:
	rjmp .+0			// 2
    1d64:	00 c0       	rjmp	.+0      	; 0x1d66 <pwm_loop+0x2>
	rjmp .+0			// 2
    1d66:	00 c0       	rjmp	.+0      	; 0x1d68 <pwm_loop+0x4>
	rjmp .+0			// 2
    1d68:	00 c0       	rjmp	.+0      	; 0x1d6a <pwm_loop+0x6>
	subi	r16,1		// 1
    1d6a:	01 50       	subi	r16, 0x01	; 1
	brne	pwm_loop	// 2  1
    1d6c:	d9 f7       	brne	.-10     	; 0x1d64 <pwm_loop>

00001d6e <pwm_exit>:

pwm_exit:
	pop		16			//    1
    1d6e:	0f 91       	pop	r16
	ret					//    4 to return
    1d70:	08 95       	ret

00001d72 <pad_100_delay>:
; pad_100_delay 98 cycle padding delay
; Takes 4 to call, so we need 94 cycles burnt here
;*************************************************************************

pad_100_delay:
	push	16			// 		2		Save regs
    1d72:	0f 93       	push	r16
	ldi 	16,0x09		// 		1		Set loop count to 09h or 9
    1d74:	09 e0       	ldi	r16, 0x09	; 9

00001d76 <pad_100>:

pad_100:				//				9 cycles, 8 on last
	rjmp .+0			// 2
    1d76:	00 c0       	rjmp	.+0      	; 0x1d78 <pad_100+0x2>
	rjmp .+0			// 2			8 x 9cyc + 8 = 80
    1d78:	00 c0       	rjmp	.+0      	; 0x1d7a <pad_100+0x4>
	rjmp .+0			// 2
    1d7a:	00 c0       	rjmp	.+0      	; 0x1d7c <pad_100+0x6>

	subi 	16,1		// 1
    1d7c:	01 50       	subi	r16, 0x01	; 1
	brne	pad_100		// 2	1		Loop until zero	
    1d7e:	d9 f7       	brne	.-10     	; 0x1d76 <pad_100>

	nop					// 		1		Trim to precisely the right value
    1d80:	00 00       	nop
	rjmp .+0			// 		2
    1d82:	00 c0       	rjmp	.+0      	; 0x1d84 <pad_100+0xe>
	rjmp .+0			// 		2
    1d84:	00 c0       	rjmp	.+0      	; 0x1d86 <pad_100+0x10>

	pop		16			// 		2		Restore regs
    1d86:	0f 91       	pop	r16
	ret					// 		4 (94 cycles)
    1d88:	08 95       	ret

00001d8a <us_delay>:
; void us_delay(void) 1us delay for ninja skills
; Takes 4 to call, 4 to return, so we need 12 cycles burnt here
;*************************************************************************

us_delay:
	rjmp .+0			// 2
    1d8a:	00 c0       	rjmp	.+0      	; 0x1d8c <us_delay+0x2>
	rjmp .+0			// 2
    1d8c:	00 c0       	rjmp	.+0      	; 0x1d8e <us_delay+0x4>
	rjmp .+0			// 2
    1d8e:	00 c0       	rjmp	.+0      	; 0x1d90 <us_delay+0x6>
	rjmp .+0			// 2
    1d90:	00 c0       	rjmp	.+0      	; 0x1d92 <us_delay+0x8>
	ret					// 4 (16 cycles)
    1d92:	08 95       	ret

00001d94 <shuffle_8>:
;*************************************************************************	
; Space-saving macro-ish suroutines
;*************************************************************************

shuffle_8: // (10 cycles)
	lsr		XH			// 1 Rotate right into carry
    1d94:	b6 95       	lsr	r27
	ror		XL			// 1 Rotate right with carry from MSB
    1d96:	a7 95       	ror	r26
	lsr		XH			// 1
    1d98:	b6 95       	lsr	r27
	ror		XL			// 1
    1d9a:	a7 95       	ror	r26
	lsr		XH			// 1
    1d9c:	b6 95       	lsr	r27
	ror		XL			// 1
    1d9e:	a7 95       	ror	r26
	ret					// 4
    1da0:	08 95       	ret

00001da2 <DelayHigh>:
; 10 and 150 cycles at 1us intervals per value in r26
; 
;*************************************************************************

DelayHigh:				// (0)	(1)	(2+) each extra is +20
	ldi		YL,0x07		// 1	1	1
    1da2:	c7 e0       	ldi	r28, 0x07	; 7
	andi	r25,0x07	
    1da4:	97 70       	andi	r25, 0x07	; 7
	eor		YL,r25		// 1 	1	1
    1da6:	c9 27       	eor	r28, r25
	breq	LoopHighOut1// 2	1	1
    1da8:	31 f0       	breq	.+12     	; 0x1db6 <LoopHighOut1>

00001daa <LoopHigh>:
LoopHigh:
	call    us_delay	// 		16	16
    1daa:	0e 94 c5 0e 	call	0x1d8a	; 0x1d8a <us_delay>
	dec 	YL			// 		1	1
    1dae:	ca 95       	dec	r28
	breq	LoopHighOut2// 		2	1/2
    1db0:	09 f0       	breq	.+2      	; 0x1db4 <LoopHighOut2>
	rjmp	LoopHigh	// 			2
    1db2:	fb cf       	rjmp	.-10     	; 0x1daa <LoopHigh>

00001db4 <LoopHighOut2>:
LoopHighOut2:
	rjmp .+0			// 		2	2
    1db4:	00 c0       	rjmp	.+0      	; 0x1db6 <LoopHighOut1>

00001db6 <LoopHighOut1>:
LoopHighOut1:
	nop					// 1	1	1
    1db6:	00 00       	nop
    ret					// 4	4	4
    1db8:	08 95       	ret

00001dba <DelayLow>:
; regardless of the value of r25
;
;*************************************************************************

DelayLow:				// (0)	(1)	(2+) each extra is +20
	mov		YL,r25		// 1	1	
    1dba:	c9 2f       	mov	r28, r25
	andi	YL,0x07	
    1dbc:	c7 70       	andi	r28, 0x07	; 7
	breq	LoopLowOut1	// 2	1	1
    1dbe:	31 f0       	breq	.+12     	; 0x1dcc <LoopLowOut1>

00001dc0 <LoopLow>:
LoopLow:
	call    us_delay	//		16	16
    1dc0:	0e 94 c5 0e 	call	0x1d8a	; 0x1d8a <us_delay>
	dec 	YL			//		1	1
    1dc4:	ca 95       	dec	r28
	breq	LoopLowOut2	//		2	1/2
    1dc6:	09 f0       	breq	.+2      	; 0x1dca <LoopLowOut2>
	rjmp	LoopLow		//			2
    1dc8:	fb cf       	rjmp	.-10     	; 0x1dc0 <LoopLow>

00001dca <LoopLowOut2>:
LoopLowOut2:
	rjmp .+0			// 		2	2
    1dca:	00 c0       	rjmp	.+0      	; 0x1dcc <LoopLowOut1>

00001dcc <LoopLowOut1>:
LoopLowOut1:
    ret					// 4	4	4
    1dcc:	08 95       	ret

00001dce <get_raw_accs>:
//***************************************************************
// Fill accADC with RPY data appropriate to the board orientation
//***************************************************************

void get_raw_accs(void)
{
    1dce:	ac e0       	ldi	r26, 0x0C	; 12
    1dd0:	b0 e0       	ldi	r27, 0x00	; 0
    1dd2:	ed ee       	ldi	r30, 0xED	; 237
    1dd4:	fe e0       	ldi	r31, 0x0E	; 14
    1dd6:	0c 94 8e 41 	jmp	0x831c	; 0x831c <__prologue_saves__+0x20>
	// Get data from MPU6050 for KK2.1
	uint8_t Accs[6];
	int16_t temp1, temp2;

	// For KK2.1 boards, use the i2c data from the MPU6050
	readI2CbyteArray(MPU60X0_DEFAULT_ADDRESS,MPU60X0_RA_ACCEL_XOUT_H,(uint8_t *)Accs,6);
    1dda:	26 e0       	ldi	r18, 0x06	; 6
    1ddc:	ae 01       	movw	r20, r28
    1dde:	4f 5f       	subi	r20, 0xFF	; 255
    1de0:	5f 4f       	sbci	r21, 0xFF	; 255
    1de2:	6b e3       	ldi	r22, 0x3B	; 59
    1de4:	80 ed       	ldi	r24, 0xD0	; 208
    1de6:	0e 94 ec 1e 	call	0x3dd8	; 0x3dd8 <readI2CbyteArray>

	// Reassemble data into accADC array and down sample to reduce resolution and noise
	// This notation is true to the chip, but not the board orientation

	temp1 = Accs[0] << 8;					// Accel X
    1dea:	89 81       	ldd	r24, Y+1	; 0x01
    1dec:	90 e0       	ldi	r25, 0x00	; 0
    1dee:	98 2f       	mov	r25, r24
    1df0:	88 27       	eor	r24, r24
	temp2 = Accs[1];
    1df2:	2a 81       	ldd	r18, Y+2	; 0x02
	RawADC[ROLL] = (temp1 + temp2) >> 6;
    1df4:	82 0f       	add	r24, r18
    1df6:	91 1d       	adc	r25, r1
    1df8:	36 e0       	ldi	r19, 0x06	; 6
    1dfa:	95 95       	asr	r25
    1dfc:	87 95       	ror	r24
    1dfe:	3a 95       	dec	r19
    1e00:	e1 f7       	brne	.-8      	; 0x1dfa <get_raw_accs+0x2c>
    1e02:	98 87       	std	Y+8, r25	; 0x08
    1e04:	8f 83       	std	Y+7, r24	; 0x07

	temp1 = Accs[2] << 8;					// Accel Y (note: reversed polarity wrt KK2.0
    1e06:	8b 81       	ldd	r24, Y+3	; 0x03
    1e08:	90 e0       	ldi	r25, 0x00	; 0
    1e0a:	98 2f       	mov	r25, r24
    1e0c:	88 27       	eor	r24, r24
	temp2 = Accs[3];
    1e0e:	2c 81       	ldd	r18, Y+4	; 0x04
	RawADC[PITCH] = -((temp1 + temp2) >> 6);
    1e10:	82 0f       	add	r24, r18
    1e12:	91 1d       	adc	r25, r1
    1e14:	56 e0       	ldi	r21, 0x06	; 6
    1e16:	95 95       	asr	r25
    1e18:	87 95       	ror	r24
    1e1a:	5a 95       	dec	r21
    1e1c:	e1 f7       	brne	.-8      	; 0x1e16 <get_raw_accs+0x48>
    1e1e:	91 95       	neg	r25
    1e20:	81 95       	neg	r24
    1e22:	91 09       	sbc	r25, r1
    1e24:	9a 87       	std	Y+10, r25	; 0x0a
    1e26:	89 87       	std	Y+9, r24	; 0x09

	temp1 = Accs[4] << 8;					// Accel Z
    1e28:	8d 81       	ldd	r24, Y+5	; 0x05
    1e2a:	90 e0       	ldi	r25, 0x00	; 0
    1e2c:	98 2f       	mov	r25, r24
    1e2e:	88 27       	eor	r24, r24
	temp2 = Accs[5];
    1e30:	2e 81       	ldd	r18, Y+6	; 0x06
	RawADC[YAW] = (temp1 + temp2) >> 6;
    1e32:	82 0f       	add	r24, r18
    1e34:	91 1d       	adc	r25, r1
    1e36:	76 e0       	ldi	r23, 0x06	; 6
    1e38:	95 95       	asr	r25
    1e3a:	87 95       	ror	r24
    1e3c:	7a 95       	dec	r23
    1e3e:	e1 f7       	brne	.-8      	; 0x1e38 <get_raw_accs+0x6a>
    1e40:	9c 87       	std	Y+12, r25	; 0x0c
    1e42:	8b 87       	std	Y+11, r24	; 0x0b

	// Reorient the data as per the board orientation	
	for (i=0; i<NUMBEROFAXIS; i++)
	{
		// Rearrange the sensors
		accADC[i] = RawADC[(int8_t)pgm_read_byte(&ACC_RPY_Order[Config.Orientation][i])];
    1e44:	20 91 2d 06 	lds	r18, 0x062D
    1e48:	a0 e3       	ldi	r26, 0x30	; 48
    1e4a:	b5 e0       	ldi	r27, 0x05	; 5
    1e4c:	43 e0       	ldi	r20, 0x03	; 3
    1e4e:	24 02       	muls	r18, r20
    1e50:	90 01       	movw	r18, r0
    1e52:	11 24       	eor	r1, r1
    1e54:	80 e0       	ldi	r24, 0x00	; 0
    1e56:	90 e0       	ldi	r25, 0x00	; 0
    1e58:	2c 54       	subi	r18, 0x4C	; 76
    1e5a:	3f 4f       	sbci	r19, 0xFF	; 255
    1e5c:	f9 01       	movw	r30, r18
    1e5e:	e8 0f       	add	r30, r24
    1e60:	f9 1f       	adc	r31, r25
    1e62:	e4 91       	lpm	r30, Z
    1e64:	ee 0f       	add	r30, r30
    1e66:	ff 0b       	sbc	r31, r31
    1e68:	41 e0       	ldi	r20, 0x01	; 1
    1e6a:	50 e0       	ldi	r21, 0x00	; 0
    1e6c:	4c 0f       	add	r20, r28
    1e6e:	5d 1f       	adc	r21, r29
    1e70:	e4 0f       	add	r30, r20
    1e72:	f5 1f       	adc	r31, r21
    1e74:	46 81       	ldd	r20, Z+6	; 0x06
    1e76:	57 81       	ldd	r21, Z+7	; 0x07
    1e78:	4d 93       	st	X+, r20
    1e7a:	5d 93       	st	X+, r21
    1e7c:	01 96       	adiw	r24, 0x01	; 1
	RawADC[YAW] = ADCW;

#endif

	// Reorient the data as per the board orientation	
	for (i=0; i<NUMBEROFAXIS; i++)
    1e7e:	83 30       	cpi	r24, 0x03	; 3
    1e80:	91 05       	cpc	r25, r1
    1e82:	61 f7       	brne	.-40     	; 0x1e5c <get_raw_accs+0x8e>
	{
		// Rearrange the sensors
		accADC[i] = RawADC[(int8_t)pgm_read_byte(&ACC_RPY_Order[Config.Orientation][i])];
	}
}
    1e84:	2c 96       	adiw	r28, 0x0c	; 12
    1e86:	e2 e0       	ldi	r30, 0x02	; 2
    1e88:	0c 94 aa 41 	jmp	0x8354	; 0x8354 <__epilogue_restores__+0x20>

00001e8c <ReadAcc>:

int16_t accADC[NUMBEROFAXIS];	// Holds Acc ADC values - always in RPY order
int16_t accVert = 0;			// Holds the level-zeroed Z-acc value. Used for height damping in hover only.

void ReadAcc()
{
    1e8c:	1f 93       	push	r17
    1e8e:	cf 93       	push	r28
    1e90:	df 93       	push	r29
	uint8_t i;

	get_raw_accs();				// Updates accADC[] (RPY)
    1e92:	0e 94 e7 0e 	call	0x1dce	; 0x1dce <get_raw_accs>

	// Use default Config.AccZero for Acc-Z if inverse calibration not done yet
	// Actual zero is held in Config.AccZeroNormZ waiting for inv calibration
	if (!(Config.Main_flags & (1 << inv_cal_done)))
    1e96:	80 91 64 07 	lds	r24, 0x0764
    1e9a:	80 fd       	sbrc	r24, 0
    1e9c:	05 c0       	rjmp	.+10     	; 0x1ea8 <ReadAcc+0x1c>
	{
#ifdef KK21 
		Config.AccZero[YAW] = 0;
    1e9e:	10 92 4c 07 	sts	0x074C, r1
    1ea2:	10 92 4b 07 	sts	0x074B, r1
    1ea6:	0e c0       	rjmp	.+28     	; 0x1ec4 <ReadAcc+0x38>

	// If inverted cal done, Config.AccZeroNormZ and Config.AccZeroDiff have
	// valid values
	else
	{
		Config.AccZero[YAW] = Config.AccZeroNormZ - Config.AccZeroDiff;
    1ea8:	80 91 4d 07 	lds	r24, 0x074D
    1eac:	90 91 4e 07 	lds	r25, 0x074E
    1eb0:	20 91 51 07 	lds	r18, 0x0751
    1eb4:	30 91 52 07 	lds	r19, 0x0752
    1eb8:	82 1b       	sub	r24, r18
    1eba:	93 0b       	sbc	r25, r19
    1ebc:	90 93 4c 07 	sts	0x074C, r25
    1ec0:	80 93 4b 07 	sts	0x074B, r24
	{
		// Remove offsets from acc outputs
		accADC[i] -= Config.AccZero[i];

		// Change polarity
		accADC[i] *= (int8_t)pgm_read_byte(&Acc_Pol[Config.Orientation][i]);
    1ec4:	20 91 2d 06 	lds	r18, 0x062D
    1ec8:	c7 e4       	ldi	r28, 0x47	; 71
    1eca:	d7 e0       	ldi	r29, 0x07	; 7
    1ecc:	a0 e3       	ldi	r26, 0x30	; 48
    1ece:	b5 e0       	ldi	r27, 0x05	; 5
    1ed0:	83 e0       	ldi	r24, 0x03	; 3
    1ed2:	28 02       	muls	r18, r24
    1ed4:	90 01       	movw	r18, r0
    1ed6:	11 24       	eor	r1, r1
    1ed8:	80 e0       	ldi	r24, 0x00	; 0
    1eda:	90 e0       	ldi	r25, 0x00	; 0
    1edc:	2e 55       	subi	r18, 0x5E	; 94
    1ede:	3f 4f       	sbci	r19, 0xFF	; 255
	}

	for (i=0; i<NUMBEROFAXIS; i++)
	{
		// Remove offsets from acc outputs
		accADC[i] -= Config.AccZero[i];
    1ee0:	69 91       	ld	r22, Y+
    1ee2:	79 91       	ld	r23, Y+
    1ee4:	f9 01       	movw	r30, r18
    1ee6:	e8 0f       	add	r30, r24
    1ee8:	f9 1f       	adc	r31, r25

		// Change polarity
		accADC[i] *= (int8_t)pgm_read_byte(&Acc_Pol[Config.Orientation][i]);
    1eea:	14 91       	lpm	r17, Z
	}

	for (i=0; i<NUMBEROFAXIS; i++)
	{
		// Remove offsets from acc outputs
		accADC[i] -= Config.AccZero[i];
    1eec:	4d 91       	ld	r20, X+
    1eee:	5c 91       	ld	r21, X
    1ef0:	11 97       	sbiw	r26, 0x01	; 1
    1ef2:	46 1b       	sub	r20, r22
    1ef4:	57 0b       	sbc	r21, r23

		// Change polarity
		accADC[i] *= (int8_t)pgm_read_byte(&Acc_Pol[Config.Orientation][i]);
    1ef6:	14 03       	mulsu	r17, r20
    1ef8:	b0 01       	movw	r22, r0
    1efa:	15 9f       	mul	r17, r21
    1efc:	70 0d       	add	r23, r0
    1efe:	11 24       	eor	r1, r1
    1f00:	6d 93       	st	X+, r22
    1f02:	7d 93       	st	X+, r23
    1f04:	01 96       	adiw	r24, 0x01	; 1
	else
	{
		Config.AccZero[YAW] = Config.AccZeroNormZ - Config.AccZeroDiff;
	}

	for (i=0; i<NUMBEROFAXIS; i++)
    1f06:	83 30       	cpi	r24, 0x03	; 3
    1f08:	91 05       	cpc	r25, r1
    1f0a:	51 f7       	brne	.-44     	; 0x1ee0 <ReadAcc+0x54>
	}

	// Recalculate current accVert using filtered acc value
	// Note that AccSmooth[YAW] is already zeroed around 1G so we have to re-add 
	// the zero back here so that Config.AccZeroNormZ subtracts the correct amount
	 accVert = accSmooth[YAW] + (Config.AccZeroNormZ - Config.AccZero[YAW]);
    1f0c:	60 91 4d 07 	lds	r22, 0x074D
    1f10:	70 91 4e 07 	lds	r23, 0x074E
    1f14:	80 91 4b 07 	lds	r24, 0x074B
    1f18:	90 91 4c 07 	lds	r25, 0x074C
    1f1c:	68 1b       	sub	r22, r24
    1f1e:	79 0b       	sbc	r23, r25
    1f20:	88 27       	eor	r24, r24
    1f22:	77 fd       	sbrc	r23, 7
    1f24:	80 95       	com	r24
    1f26:	98 2f       	mov	r25, r24
    1f28:	0e 94 c7 3f 	call	0x7f8e	; 0x7f8e <__floatsisf>
    1f2c:	20 91 95 05 	lds	r18, 0x0595
    1f30:	30 91 96 05 	lds	r19, 0x0596
    1f34:	40 91 97 05 	lds	r20, 0x0597
    1f38:	50 91 98 05 	lds	r21, 0x0598
    1f3c:	0e 94 c4 3e 	call	0x7d88	; 0x7d88 <__addsf3>
    1f40:	0e 94 94 3f 	call	0x7f28	; 0x7f28 <__fixsfsi>
    1f44:	70 93 0d 05 	sts	0x050D, r23
    1f48:	60 93 0c 05 	sts	0x050C, r22
}
    1f4c:	df 91       	pop	r29
    1f4e:	cf 91       	pop	r28
    1f50:	1f 91       	pop	r17
    1f52:	08 95       	ret

00001f54 <CalibrateAcc>:
//***************************************************************
// Calibration routines
//***************************************************************

void CalibrateAcc(int8_t type)
{
    1f54:	a6 e0       	ldi	r26, 0x06	; 6
    1f56:	b0 e0       	ldi	r27, 0x00	; 0
    1f58:	e0 eb       	ldi	r30, 0xB0	; 176
    1f5a:	ff e0       	ldi	r31, 0x0F	; 15
    1f5c:	0c 94 8d 41 	jmp	0x831a	; 0x831a <__prologue_saves__+0x1e>
	uint8_t i;
	int16_t accZero[NUMBEROFAXIS] = {0,0,0};	// Used for calibrating Accs on ground
    1f60:	1a 82       	std	Y+2, r1	; 0x02
    1f62:	19 82       	std	Y+1, r1	; 0x01
    1f64:	1c 82       	std	Y+4, r1	; 0x04
    1f66:	1b 82       	std	Y+3, r1	; 0x03
    1f68:	1e 82       	std	Y+6, r1	; 0x06
    1f6a:	1d 82       	std	Y+5, r1	; 0x05

	// Calibrate acc
	if (type == NORMAL)
    1f6c:	81 11       	cpse	r24, r1
    1f6e:	6f c0       	rjmp	.+222    	; 0x204e <CalibrateAcc+0xfa>
    1f70:	10 e2       	ldi	r17, 0x20	; 32
	{
		// Get average zero value (over 32 readings)
		for (i = 0; i < 32; i++)
		{
			get_raw_accs();						// Updates accADC[] with signals reoriented into (RPY)
    1f72:	0e 94 e7 0e 	call	0x1dce	; 0x1dce <get_raw_accs>

			accZero[ROLL] += accADC[ROLL];
    1f76:	89 81       	ldd	r24, Y+1	; 0x01
    1f78:	9a 81       	ldd	r25, Y+2	; 0x02
    1f7a:	20 91 30 05 	lds	r18, 0x0530
    1f7e:	30 91 31 05 	lds	r19, 0x0531
    1f82:	82 0f       	add	r24, r18
    1f84:	93 1f       	adc	r25, r19
    1f86:	9a 83       	std	Y+2, r25	; 0x02
    1f88:	89 83       	std	Y+1, r24	; 0x01
			accZero[PITCH] += accADC[PITCH];						
    1f8a:	8b 81       	ldd	r24, Y+3	; 0x03
    1f8c:	9c 81       	ldd	r25, Y+4	; 0x04
    1f8e:	20 91 32 05 	lds	r18, 0x0532
    1f92:	30 91 33 05 	lds	r19, 0x0533
    1f96:	82 0f       	add	r24, r18
    1f98:	93 1f       	adc	r25, r19
    1f9a:	9c 83       	std	Y+4, r25	; 0x04
    1f9c:	8b 83       	std	Y+3, r24	; 0x03
			accZero[YAW] += accADC[YAW];		
    1f9e:	8d 81       	ldd	r24, Y+5	; 0x05
    1fa0:	9e 81       	ldd	r25, Y+6	; 0x06
    1fa2:	20 91 34 05 	lds	r18, 0x0534
    1fa6:	30 91 35 05 	lds	r19, 0x0535
    1faa:	82 0f       	add	r24, r18
    1fac:	93 1f       	adc	r25, r19
    1fae:	9e 83       	std	Y+6, r25	; 0x06
    1fb0:	8d 83       	std	Y+5, r24	; 0x05
	#else
		//round up by default
		__ticks_dc = (uint32_t)(ceil(fabs(__tmp)));
	#endif

	__builtin_avr_delay_cycles(__ticks_dc);
    1fb2:	8f e4       	ldi	r24, 0x4F	; 79
    1fb4:	93 ec       	ldi	r25, 0xC3	; 195
    1fb6:	01 97       	sbiw	r24, 0x01	; 1
    1fb8:	f1 f7       	brne	.-4      	; 0x1fb6 <CalibrateAcc+0x62>
    1fba:	00 c0       	rjmp	.+0      	; 0x1fbc <CalibrateAcc+0x68>
    1fbc:	00 00       	nop
    1fbe:	11 50       	subi	r17, 0x01	; 1

	// Calibrate acc
	if (type == NORMAL)
	{
		// Get average zero value (over 32 readings)
		for (i = 0; i < 32; i++)
    1fc0:	c1 f6       	brne	.-80     	; 0x1f72 <CalibrateAcc+0x1e>
    1fc2:	fe 01       	movw	r30, r28
    1fc4:	31 96       	adiw	r30, 0x01	; 1
    1fc6:	9e 01       	movw	r18, r28
    1fc8:	29 5f       	subi	r18, 0xF9	; 249
    1fca:	3f 4f       	sbci	r19, 0xFF	; 255
		}

		for (i = 0; i < NUMBEROFAXIS; i++)		// For selected axis in RPY order
		{
			// Round and divide by 32
			accZero[i] = ((accZero[i] + 16) >> 5);
    1fcc:	80 81       	ld	r24, Z
    1fce:	91 81       	ldd	r25, Z+1	; 0x01
    1fd0:	40 96       	adiw	r24, 0x10	; 16
    1fd2:	45 e0       	ldi	r20, 0x05	; 5
    1fd4:	95 95       	asr	r25
    1fd6:	87 95       	ror	r24
    1fd8:	4a 95       	dec	r20
    1fda:	e1 f7       	brne	.-8      	; 0x1fd4 <CalibrateAcc+0x80>
    1fdc:	81 93       	st	Z+, r24
    1fde:	91 93       	st	Z+, r25
			accZero[YAW] += accADC[YAW];		

			_delay_ms(10);						// Get a better acc average over time
		}

		for (i = 0; i < NUMBEROFAXIS; i++)		// For selected axis in RPY order
    1fe0:	e2 17       	cp	r30, r18
    1fe2:	f3 07       	cpc	r31, r19
    1fe4:	99 f7       	brne	.-26     	; 0x1fcc <CalibrateAcc+0x78>
			// Round and divide by 32
			accZero[i] = ((accZero[i] + 16) >> 5);
		}

		// Reset zeros to normal cal
		Config.AccZero[ROLL] = accZero[ROLL]; 
    1fe6:	89 81       	ldd	r24, Y+1	; 0x01
    1fe8:	9a 81       	ldd	r25, Y+2	; 0x02
    1fea:	90 93 48 07 	sts	0x0748, r25
    1fee:	80 93 47 07 	sts	0x0747, r24
		Config.AccZero[PITCH] = accZero[PITCH]; 
    1ff2:	8b 81       	ldd	r24, Y+3	; 0x03
    1ff4:	9c 81       	ldd	r25, Y+4	; 0x04
    1ff6:	90 93 4a 07 	sts	0x074A, r25
    1ffa:	80 93 49 07 	sts	0x0749, r24
		Config.AccZeroNormZ = accZero[YAW]; 
			
		// Correct polarity of AccZeroNormZ as per orientation
		Config.AccZeroNormZ *= (int8_t)pgm_read_byte(&Acc_Pol[Config.Orientation][YAW]);
    1ffe:	80 91 2d 06 	lds	r24, 0x062D
    2002:	99 27       	eor	r25, r25
    2004:	87 fd       	sbrc	r24, 7
    2006:	90 95       	com	r25
    2008:	fc 01       	movw	r30, r24
    200a:	ee 0f       	add	r30, r30
    200c:	ff 1f       	adc	r31, r31
    200e:	e8 0f       	add	r30, r24
    2010:	f9 1f       	adc	r31, r25
    2012:	ec 55       	subi	r30, 0x5C	; 92
    2014:	ff 4f       	sbci	r31, 0xFF	; 255
    2016:	44 91       	lpm	r20, Z
    2018:	2d 81       	ldd	r18, Y+5	; 0x05
    201a:	3e 81       	ldd	r19, Y+6	; 0x06
    201c:	42 03       	mulsu	r20, r18
    201e:	c0 01       	movw	r24, r0
    2020:	43 9f       	mul	r20, r19
    2022:	90 0d       	add	r25, r0
    2024:	11 24       	eor	r1, r1
    2026:	90 93 4e 07 	sts	0x074E, r25
    202a:	80 93 4d 07 	sts	0x074D, r24
			
		// Flag that normal cal done
		Config.Main_flags |= (1 << normal_cal_done);
    202e:	80 91 64 07 	lds	r24, 0x0764
    2032:	82 60       	ori	r24, 0x02	; 2
    2034:	80 93 64 07 	sts	0x0764, r24
	
		// Save new calibration and flash LED for confirmation
		Save_Config_to_EEPROM();
    2038:	0e 94 8c 16 	call	0x2d18	; 0x2d18 <Save_Config_to_EEPROM>
		LED1 = 1;
    203c:	2b 9a       	sbi	0x05, 3	; 5
    203e:	9f e7       	ldi	r25, 0x7F	; 127
    2040:	24 e8       	ldi	r18, 0x84	; 132
    2042:	4e e1       	ldi	r20, 0x1E	; 30
    2044:	91 50       	subi	r25, 0x01	; 1
    2046:	20 40       	sbci	r18, 0x00	; 0
    2048:	40 40       	sbci	r20, 0x00	; 0
    204a:	e1 f7       	brne	.-8      	; 0x2044 <CalibrateAcc+0xf0>
    204c:	67 c0       	rjmp	.+206    	; 0x211c <CalibrateAcc+0x1c8>

	else
	// Calibrate inverted acc
	{
		// Only update the inverted cal value if preceded by a normal calibration
		if (Config.Main_flags & (1 << normal_cal_done))
    204e:	80 91 64 07 	lds	r24, 0x0764
    2052:	81 ff       	sbrs	r24, 1
    2054:	66 c0       	rjmp	.+204    	; 0x2122 <CalibrateAcc+0x1ce>
		{
			// Get average zero value (over 32 readings)
			Config.AccZeroInvZ = 0;
    2056:	10 92 50 07 	sts	0x0750, r1
    205a:	10 92 4f 07 	sts	0x074F, r1
    205e:	10 e2       	ldi	r17, 0x20	; 32

			for (i = 0; i < 32; i++)
			{
				get_raw_accs();					// Updates gyroADC[] with reoriented vales
    2060:	0e 94 e7 0e 	call	0x1dce	; 0x1dce <get_raw_accs>
				Config.AccZeroInvZ += accADC[YAW];		
    2064:	80 91 4f 07 	lds	r24, 0x074F
    2068:	90 91 50 07 	lds	r25, 0x0750
    206c:	20 91 34 05 	lds	r18, 0x0534
    2070:	30 91 35 05 	lds	r19, 0x0535
    2074:	82 0f       	add	r24, r18
    2076:	93 1f       	adc	r25, r19
    2078:	90 93 50 07 	sts	0x0750, r25
    207c:	80 93 4f 07 	sts	0x074F, r24
    2080:	8f e4       	ldi	r24, 0x4F	; 79
    2082:	93 ec       	ldi	r25, 0xC3	; 195
    2084:	01 97       	sbiw	r24, 0x01	; 1
    2086:	f1 f7       	brne	.-4      	; 0x2084 <CalibrateAcc+0x130>
    2088:	00 c0       	rjmp	.+0      	; 0x208a <CalibrateAcc+0x136>
    208a:	00 00       	nop
    208c:	11 50       	subi	r17, 0x01	; 1
		if (Config.Main_flags & (1 << normal_cal_done))
		{
			// Get average zero value (over 32 readings)
			Config.AccZeroInvZ = 0;

			for (i = 0; i < 32; i++)
    208e:	41 f7       	brne	.-48     	; 0x2060 <CalibrateAcc+0x10c>

			// Round and divide by 32
			Config.AccZeroInvZ = ((Config.AccZeroInvZ + 16) >> 5);		// Inverted zero point
			
			// Correct polarity of AccZeroInvZ as per orientation
			Config.AccZeroInvZ *= (int8_t)pgm_read_byte(&Acc_Pol[Config.Orientation][YAW]);
    2090:	80 91 2d 06 	lds	r24, 0x062D
    2094:	99 27       	eor	r25, r25
    2096:	87 fd       	sbrc	r24, 7
    2098:	90 95       	com	r25
    209a:	fc 01       	movw	r30, r24
    209c:	ee 0f       	add	r30, r30
    209e:	ff 1f       	adc	r31, r31
    20a0:	e8 0f       	add	r30, r24
    20a2:	f9 1f       	adc	r31, r25
    20a4:	ec 55       	subi	r30, 0x5C	; 92
    20a6:	ff 4f       	sbci	r31, 0xFF	; 255
    20a8:	44 91       	lpm	r20, Z
				Config.AccZeroInvZ += accADC[YAW];		
				_delay_ms(10);					// Get a better acc average over time
			}

			// Round and divide by 32
			Config.AccZeroInvZ = ((Config.AccZeroInvZ + 16) >> 5);		// Inverted zero point
    20aa:	20 91 4f 07 	lds	r18, 0x074F
    20ae:	30 91 50 07 	lds	r19, 0x0750
    20b2:	20 5f       	subi	r18, 0xF0	; 240
    20b4:	3f 4f       	sbci	r19, 0xFF	; 255
    20b6:	b5 e0       	ldi	r27, 0x05	; 5
    20b8:	35 95       	asr	r19
    20ba:	27 95       	ror	r18
    20bc:	ba 95       	dec	r27
    20be:	e1 f7       	brne	.-8      	; 0x20b8 <CalibrateAcc+0x164>
			
			// Correct polarity of AccZeroInvZ as per orientation
			Config.AccZeroInvZ *= (int8_t)pgm_read_byte(&Acc_Pol[Config.Orientation][YAW]);
    20c0:	42 03       	mulsu	r20, r18
    20c2:	c0 01       	movw	r24, r0
    20c4:	43 9f       	mul	r20, r19
    20c6:	90 0d       	add	r25, r0
    20c8:	11 24       	eor	r1, r1
    20ca:	90 93 50 07 	sts	0x0750, r25
    20ce:	80 93 4f 07 	sts	0x074F, r24

			// Test if board is actually inverted relative to board orientation.
#ifdef KK21
			if (Config.AccZeroInvZ < 0)
    20d2:	97 ff       	sbrs	r25, 7
    20d4:	26 c0       	rjmp	.+76     	; 0x2122 <CalibrateAcc+0x1ce>
			if (Config.AccZeroInvZ < Config.AccZero[YAW])
#endif
			{

				// Reset zero to halfway between min and max Z
				Config.AccZeroDiff = ((Config.AccZeroNormZ - Config.AccZeroInvZ) >> 1);
    20d6:	20 91 4d 07 	lds	r18, 0x074D
    20da:	30 91 4e 07 	lds	r19, 0x074E
    20de:	a9 01       	movw	r20, r18
    20e0:	48 1b       	sub	r20, r24
    20e2:	59 0b       	sbc	r21, r25
    20e4:	ca 01       	movw	r24, r20
    20e6:	95 95       	asr	r25
    20e8:	87 95       	ror	r24
    20ea:	90 93 52 07 	sts	0x0752, r25
    20ee:	80 93 51 07 	sts	0x0751, r24
				Config.AccZero[YAW] = Config.AccZeroNormZ - Config.AccZeroDiff; // Config.AccZero[YAW] is now valid to use
    20f2:	28 1b       	sub	r18, r24
    20f4:	39 0b       	sbc	r19, r25
    20f6:	30 93 4c 07 	sts	0x074C, r19
    20fa:	20 93 4b 07 	sts	0x074B, r18

				// Flag that inverted cal done
				Config.Main_flags |= (1 << inv_cal_done);
    20fe:	80 91 64 07 	lds	r24, 0x0764
    2102:	81 60       	ori	r24, 0x01	; 1
    2104:	80 93 64 07 	sts	0x0764, r24

				// Save new calibration and flash LED for confirmation
				Save_Config_to_EEPROM();
    2108:	0e 94 8c 16 	call	0x2d18	; 0x2d18 <Save_Config_to_EEPROM>
				LED1 = 1;
    210c:	2b 9a       	sbi	0x05, 3	; 5
    210e:	5f e7       	ldi	r21, 0x7F	; 127
    2110:	84 e8       	ldi	r24, 0x84	; 132
    2112:	9e e1       	ldi	r25, 0x1E	; 30
    2114:	51 50       	subi	r21, 0x01	; 1
    2116:	80 40       	sbci	r24, 0x00	; 0
    2118:	90 40       	sbci	r25, 0x00	; 0
    211a:	e1 f7       	brne	.-8      	; 0x2114 <CalibrateAcc+0x1c0>
    211c:	00 c0       	rjmp	.+0      	; 0x211e <CalibrateAcc+0x1ca>
    211e:	00 00       	nop
				_delay_ms(500);
				LED1 = 0;
    2120:	2b 98       	cbi	0x05, 3	; 5
			}
		}
	}
}
    2122:	26 96       	adiw	r28, 0x06	; 6
    2124:	e3 e0       	ldi	r30, 0x03	; 3
    2126:	0c 94 a9 41 	jmp	0x8352	; 0x8352 <__epilogue_restores__+0x1e>

0000212a <init_i2c_accs>:
// Set up the MPU6050 (Acc)
//***************************************************************

void init_i2c_accs(void)
{
	writeI2Cbyte(MPU60X0_DEFAULT_ADDRESS, MPU60X0_RA_PWR_MGMT_1, 0x01); // Gyro X clock, awake
    212a:	41 e0       	ldi	r20, 0x01	; 1
    212c:	6b e6       	ldi	r22, 0x6B	; 107
    212e:	80 ed       	ldi	r24, 0xD0	; 208
    2130:	0e 94 d4 1e 	call	0x3da8	; 0x3da8 <writeI2Cbyte>
	writeI2Cbyte(MPU60X0_DEFAULT_ADDRESS, MPU60X0_RA_ACCEL_CONFIG, ACCFS4G); // 4G full scale
    2134:	48 e0       	ldi	r20, 0x08	; 8
    2136:	6c e1       	ldi	r22, 0x1C	; 28
    2138:	80 ed       	ldi	r24, 0xD0	; 208
    213a:	0e 94 d4 1e 	call	0x3da8	; 0x3da8 <writeI2Cbyte>
    213e:	08 95       	ret

00002140 <Init_ADC>:
// ADC subroutines
//***********************************************************

void Init_ADC(void)
{
	DIDR0 	= 0b11111111;					// Digital Input Disable Register - ADC0~7 Digital Input Disable
    2140:	8f ef       	ldi	r24, 0xFF	; 255
    2142:	80 93 7e 00 	sts	0x007E, r24
	ADCSRB 	= 0b00000000; 					// ADC Control and Status Register B - ADTS2:0
    2146:	10 92 7b 00 	sts	0x007B, r1
    214a:	08 95       	ret

0000214c <read_adc>:
}

void read_adc(uint8_t channel)
{
	ADMUX = channel;
    214c:	80 93 7c 00 	sts	0x007C, r24
	ADCSRA 	= 0b11000110;					// ADEN, ADSC, ADPS1,2
    2150:	86 ec       	ldi	r24, 0xC6	; 198
    2152:	80 93 7a 00 	sts	0x007A, r24
	while (ADCSRA & (1 << ADSC));			// Wait to complete. Result is in ADCW
    2156:	80 91 7a 00 	lds	r24, 0x007A
    215a:	86 fd       	sbrc	r24, 6
    215c:	fc cf       	rjmp	.-8      	; 0x2156 <read_adc+0xa>
}
    215e:	08 95       	ret

00002160 <Display_balance>:
//************************************************************
// Code
//************************************************************

void Display_balance(void)
{
    2160:	cf 92       	push	r12
    2162:	df 92       	push	r13
    2164:	ef 92       	push	r14
    2166:	0f 93       	push	r16
    2168:	cf 93       	push	r28
    216a:	df 93       	push	r29
	int16_t	x_pos, y_pos;

	#ifdef KK2Mini
	st7565_set_brightness(28);
    216c:	8c e1       	ldi	r24, 0x1C	; 28
    216e:	0e 94 bc 1a 	call	0x3578	; 0x3578 <st7565_set_brightness>
	#endif

	while(BUTTON1 != 0)
    2172:	1f 9b       	sbis	0x03, 7	; 3
    2174:	85 c0       	rjmp	.+266    	; 0x2280 <Display_balance+0x120>
	{
		// Read accs
		ReadAcc();
    2176:	0e 94 46 0f 	call	0x1e8c	; 0x1e8c <ReadAcc>

		// Refresh accSmooth values
		// Fake the IMU period as accSmooth doesn't need that
		simple_imu_update(0);
    217a:	60 e0       	ldi	r22, 0x00	; 0
    217c:	70 e0       	ldi	r23, 0x00	; 0
    217e:	cb 01       	movw	r24, r22
    2180:	0e 94 89 21 	call	0x4312	; 0x4312 <simple_imu_update>
		
		// Convert acc signal to a pixel position
		x_pos = accSmooth[PITCH] + 32;
    2184:	20 e0       	ldi	r18, 0x00	; 0
    2186:	30 e0       	ldi	r19, 0x00	; 0
    2188:	40 e0       	ldi	r20, 0x00	; 0
    218a:	52 e4       	ldi	r21, 0x42	; 66
    218c:	60 91 91 05 	lds	r22, 0x0591
    2190:	70 91 92 05 	lds	r23, 0x0592
    2194:	80 91 93 05 	lds	r24, 0x0593
    2198:	90 91 94 05 	lds	r25, 0x0594
    219c:	0e 94 c4 3e 	call	0x7d88	; 0x7d88 <__addsf3>
    21a0:	0e 94 94 3f 	call	0x7f28	; 0x7f28 <__fixsfsi>
    21a4:	eb 01       	movw	r28, r22
		y_pos = accSmooth[ROLL] + 64;
    21a6:	20 e0       	ldi	r18, 0x00	; 0
    21a8:	30 e0       	ldi	r19, 0x00	; 0
    21aa:	40 e8       	ldi	r20, 0x80	; 128
    21ac:	52 e4       	ldi	r21, 0x42	; 66
    21ae:	60 91 8d 05 	lds	r22, 0x058D
    21b2:	70 91 8e 05 	lds	r23, 0x058E
    21b6:	80 91 8f 05 	lds	r24, 0x058F
    21ba:	90 91 90 05 	lds	r25, 0x0590
    21be:	0e 94 c4 3e 	call	0x7d88	; 0x7d88 <__addsf3>
    21c2:	0e 94 94 3f 	call	0x7f28	; 0x7f28 <__fixsfsi>
    21c6:	6b 01       	movw	r12, r22

		if (x_pos < 0) x_pos = 0;
    21c8:	d7 fd       	sbrc	r29, 7
    21ca:	06 c0       	rjmp	.+12     	; 0x21d8 <Display_balance+0x78>
		if (x_pos > 64) x_pos = 64;
    21cc:	c1 34       	cpi	r28, 0x41	; 65
    21ce:	d1 05       	cpc	r29, r1
    21d0:	2c f0       	brlt	.+10     	; 0x21dc <Display_balance+0x7c>
    21d2:	c0 e4       	ldi	r28, 0x40	; 64
    21d4:	d0 e0       	ldi	r29, 0x00	; 0
    21d6:	02 c0       	rjmp	.+4      	; 0x21dc <Display_balance+0x7c>
		
		// Convert acc signal to a pixel position
		x_pos = accSmooth[PITCH] + 32;
		y_pos = accSmooth[ROLL] + 64;

		if (x_pos < 0) x_pos = 0;
    21d8:	c0 e0       	ldi	r28, 0x00	; 0
    21da:	d0 e0       	ldi	r29, 0x00	; 0
		if (x_pos > 64) x_pos = 64;
		if (y_pos < 0) y_pos = 0;
    21dc:	d7 fc       	sbrc	r13, 7
    21de:	08 c0       	rjmp	.+16     	; 0x21f0 <Display_balance+0x90>
		if (y_pos > 128) y_pos = 128;
    21e0:	21 e8       	ldi	r18, 0x81	; 129
    21e2:	c2 16       	cp	r12, r18
    21e4:	d1 04       	cpc	r13, r1
    21e6:	34 f0       	brlt	.+12     	; 0x21f4 <Display_balance+0x94>
    21e8:	80 e8       	ldi	r24, 0x80	; 128
    21ea:	c8 2e       	mov	r12, r24
    21ec:	d1 2c       	mov	r13, r1
    21ee:	02 c0       	rjmp	.+4      	; 0x21f4 <Display_balance+0x94>
		x_pos = accSmooth[PITCH] + 32;
		y_pos = accSmooth[ROLL] + 64;

		if (x_pos < 0) x_pos = 0;
		if (x_pos > 64) x_pos = 64;
		if (y_pos < 0) y_pos = 0;
    21f0:	c1 2c       	mov	r12, r1
    21f2:	d1 2c       	mov	r13, r1
		if (y_pos > 128) y_pos = 128;

		// Print bottom markers
		LCD_Display_Text(12, (const unsigned char*)Wingdings, 2, 55); 	// Left
    21f4:	27 e3       	ldi	r18, 0x37	; 55
    21f6:	30 e0       	ldi	r19, 0x00	; 0
    21f8:	42 e0       	ldi	r20, 0x02	; 2
    21fa:	50 e0       	ldi	r21, 0x00	; 0
    21fc:	6f ed       	ldi	r22, 0xDF	; 223
    21fe:	70 e0       	ldi	r23, 0x00	; 0
    2200:	8c e0       	ldi	r24, 0x0C	; 12
    2202:	0e 94 bd 1c 	call	0x397a	; 0x397a <LCD_Display_Text>

		// Draw balance meter
		drawrect(buffer, 0, 0, 128, 64, 1);		// Border
    2206:	ee 24       	eor	r14, r14
    2208:	e3 94       	inc	r14
    220a:	00 e4       	ldi	r16, 0x40	; 64
    220c:	20 e8       	ldi	r18, 0x80	; 128
    220e:	40 e0       	ldi	r20, 0x00	; 0
    2210:	60 e0       	ldi	r22, 0x00	; 0
    2212:	80 e0       	ldi	r24, 0x00	; 0
    2214:	91 e0       	ldi	r25, 0x01	; 1
    2216:	0e 94 fc 1b 	call	0x37f8	; 0x37f8 <drawrect>
		drawrect(buffer, 54, 22, 21, 21, 1);	// Target
    221a:	05 e1       	ldi	r16, 0x15	; 21
    221c:	25 e1       	ldi	r18, 0x15	; 21
    221e:	46 e1       	ldi	r20, 0x16	; 22
    2220:	66 e3       	ldi	r22, 0x36	; 54
    2222:	80 e0       	ldi	r24, 0x00	; 0
    2224:	91 e0       	ldi	r25, 0x01	; 1
    2226:	0e 94 fc 1b 	call	0x37f8	; 0x37f8 <drawrect>
		drawline(buffer, 64, 8, 64, 56, 1); 	// Crosshairs
    222a:	08 e3       	ldi	r16, 0x38	; 56
    222c:	20 e4       	ldi	r18, 0x40	; 64
    222e:	48 e0       	ldi	r20, 0x08	; 8
    2230:	60 e4       	ldi	r22, 0x40	; 64
    2232:	80 e0       	ldi	r24, 0x00	; 0
    2234:	91 e0       	ldi	r25, 0x01	; 1
    2236:	0e 94 74 1b 	call	0x36e8	; 0x36e8 <drawline>
		drawline(buffer, 32, 32, 96, 32, 1);
    223a:	00 e2       	ldi	r16, 0x20	; 32
    223c:	20 e6       	ldi	r18, 0x60	; 96
    223e:	40 e2       	ldi	r20, 0x20	; 32
    2240:	60 e2       	ldi	r22, 0x20	; 32
    2242:	80 e0       	ldi	r24, 0x00	; 0
    2244:	91 e0       	ldi	r25, 0x01	; 1
    2246:	0e 94 74 1b 	call	0x36e8	; 0x36e8 <drawline>
		fillcircle(buffer, y_pos, x_pos, 8, 1);	// Bubble
    224a:	01 e0       	ldi	r16, 0x01	; 1
    224c:	28 e0       	ldi	r18, 0x08	; 8
    224e:	4c 2f       	mov	r20, r28
    2250:	6c 2d       	mov	r22, r12
    2252:	80 e0       	ldi	r24, 0x00	; 0
    2254:	91 e0       	ldi	r25, 0x01	; 1
    2256:	0e 94 42 1c 	call	0x3884	; 0x3884 <fillcircle>

		// Refresh GLCD
		write_buffer(buffer,1);
    225a:	61 e0       	ldi	r22, 0x01	; 1
    225c:	80 e0       	ldi	r24, 0x00	; 0
    225e:	91 e0       	ldi	r25, 0x01	; 1
    2260:	0e 94 e6 1a 	call	0x35cc	; 0x35cc <write_buffer>
		clear_buffer(buffer);
    2264:	80 e0       	ldi	r24, 0x00	; 0
    2266:	91 e0       	ldi	r25, 0x01	; 1
    2268:	0e 94 14 1b 	call	0x3628	; 0x3628 <clear_buffer>
    226c:	8f e7       	ldi	r24, 0x7F	; 127
    226e:	98 e3       	ldi	r25, 0x38	; 56
    2270:	21 e0       	ldi	r18, 0x01	; 1
    2272:	81 50       	subi	r24, 0x01	; 1
    2274:	90 40       	sbci	r25, 0x00	; 0
    2276:	20 40       	sbci	r18, 0x00	; 0
    2278:	e1 f7       	brne	.-8      	; 0x2272 <Display_balance+0x112>
    227a:	00 c0       	rjmp	.+0      	; 0x227c <Display_balance+0x11c>
    227c:	00 00       	nop
    227e:	79 cf       	rjmp	.-270    	; 0x2172 <Display_balance+0x12>
		_delay_ms(20);
	}

	#ifdef KK2Mini
	clear_buffer(buffer);
    2280:	80 e0       	ldi	r24, 0x00	; 0
    2282:	91 e0       	ldi	r25, 0x01	; 1
    2284:	0e 94 14 1b 	call	0x3628	; 0x3628 <clear_buffer>
	write_buffer(buffer,1);
    2288:	61 e0       	ldi	r22, 0x01	; 1
    228a:	80 e0       	ldi	r24, 0x00	; 0
    228c:	91 e0       	ldi	r25, 0x01	; 1
    228e:	0e 94 e6 1a 	call	0x35cc	; 0x35cc <write_buffer>
	st7565_set_brightness((uint8_t)Config.Contrast);
    2292:	80 91 2e 06 	lds	r24, 0x062E
    2296:	0e 94 bc 1a 	call	0x3578	; 0x3578 <st7565_set_brightness>
	#endif
}
    229a:	df 91       	pop	r29
    229c:	cf 91       	pop	r28
    229e:	0f 91       	pop	r16
    22a0:	ef 90       	pop	r14
    22a2:	df 90       	pop	r13
    22a4:	cf 90       	pop	r12
    22a6:	08 95       	ret

000022a8 <Display_rcinput>:
// Code
//************************************************************

void Display_rcinput(void)
{
	while(BUTTON1 != 0)
    22a8:	1f 9b       	sbis	0x03, 7	; 3
    22aa:	f1 c0       	rjmp	.+482    	; 0x248e <Display_rcinput+0x1e6>
	{
		if (BUTTON4 == 0)
    22ac:	1c 9b       	sbis	0x03, 4	; 3
		{
			CenterSticks();
    22ae:	0e 94 a8 3c 	call	0x7950	; 0x7950 <CenterSticks>
		}

		RxGetChannels();
    22b2:	0e 94 18 3c 	call	0x7830	; 0x7830 <RxGetChannels>

		LCD_Display_Text(114,(const unsigned char*)Verdana8,0,0); // Throttle
    22b6:	20 e0       	ldi	r18, 0x00	; 0
    22b8:	30 e0       	ldi	r19, 0x00	; 0
    22ba:	40 e0       	ldi	r20, 0x00	; 0
    22bc:	50 e0       	ldi	r21, 0x00	; 0
    22be:	67 ef       	ldi	r22, 0xF7	; 247
    22c0:	79 e0       	ldi	r23, 0x09	; 9
    22c2:	82 e7       	ldi	r24, 0x72	; 114
    22c4:	0e 94 bd 1c 	call	0x397a	; 0x397a <LCD_Display_Text>
		LCD_Display_Text(32,(const unsigned char*)Verdana8,0,10);
    22c8:	2a e0       	ldi	r18, 0x0A	; 10
    22ca:	30 e0       	ldi	r19, 0x00	; 0
    22cc:	40 e0       	ldi	r20, 0x00	; 0
    22ce:	50 e0       	ldi	r21, 0x00	; 0
    22d0:	67 ef       	ldi	r22, 0xF7	; 247
    22d2:	79 e0       	ldi	r23, 0x09	; 9
    22d4:	80 e2       	ldi	r24, 0x20	; 32
    22d6:	0e 94 bd 1c 	call	0x397a	; 0x397a <LCD_Display_Text>
		LCD_Display_Text(115,(const unsigned char*)Verdana8,0,20);
    22da:	24 e1       	ldi	r18, 0x14	; 20
    22dc:	30 e0       	ldi	r19, 0x00	; 0
    22de:	40 e0       	ldi	r20, 0x00	; 0
    22e0:	50 e0       	ldi	r21, 0x00	; 0
    22e2:	67 ef       	ldi	r22, 0xF7	; 247
    22e4:	79 e0       	ldi	r23, 0x09	; 9
    22e6:	83 e7       	ldi	r24, 0x73	; 115
    22e8:	0e 94 bd 1c 	call	0x397a	; 0x397a <LCD_Display_Text>
		LCD_Display_Text(35,(const unsigned char*)Verdana8,0,30);
    22ec:	2e e1       	ldi	r18, 0x1E	; 30
    22ee:	30 e0       	ldi	r19, 0x00	; 0
    22f0:	40 e0       	ldi	r20, 0x00	; 0
    22f2:	50 e0       	ldi	r21, 0x00	; 0
    22f4:	67 ef       	ldi	r22, 0xF7	; 247
    22f6:	79 e0       	ldi	r23, 0x09	; 9
    22f8:	83 e2       	ldi	r24, 0x23	; 35
    22fa:	0e 94 bd 1c 	call	0x397a	; 0x397a <LCD_Display_Text>

		LCD_Display_Text(109,(const unsigned char*)Verdana8,70,0); // Gear
    22fe:	20 e0       	ldi	r18, 0x00	; 0
    2300:	30 e0       	ldi	r19, 0x00	; 0
    2302:	46 e4       	ldi	r20, 0x46	; 70
    2304:	50 e0       	ldi	r21, 0x00	; 0
    2306:	67 ef       	ldi	r22, 0xF7	; 247
    2308:	79 e0       	ldi	r23, 0x09	; 9
    230a:	8d e6       	ldi	r24, 0x6D	; 109
    230c:	0e 94 bd 1c 	call	0x397a	; 0x397a <LCD_Display_Text>
		LCD_Display_Text(110,(const unsigned char*)Verdana8,70,10);
    2310:	2a e0       	ldi	r18, 0x0A	; 10
    2312:	30 e0       	ldi	r19, 0x00	; 0
    2314:	46 e4       	ldi	r20, 0x46	; 70
    2316:	50 e0       	ldi	r21, 0x00	; 0
    2318:	67 ef       	ldi	r22, 0xF7	; 247
    231a:	79 e0       	ldi	r23, 0x09	; 9
    231c:	8e e6       	ldi	r24, 0x6E	; 110
    231e:	0e 94 bd 1c 	call	0x397a	; 0x397a <LCD_Display_Text>
		LCD_Display_Text(111,(const unsigned char*)Verdana8,70,20);
    2322:	24 e1       	ldi	r18, 0x14	; 20
    2324:	30 e0       	ldi	r19, 0x00	; 0
    2326:	46 e4       	ldi	r20, 0x46	; 70
    2328:	50 e0       	ldi	r21, 0x00	; 0
    232a:	67 ef       	ldi	r22, 0xF7	; 247
    232c:	79 e0       	ldi	r23, 0x09	; 9
    232e:	8f e6       	ldi	r24, 0x6F	; 111
    2330:	0e 94 bd 1c 	call	0x397a	; 0x397a <LCD_Display_Text>
		LCD_Display_Text(112,(const unsigned char*)Verdana8,70,30);
    2334:	2e e1       	ldi	r18, 0x1E	; 30
    2336:	30 e0       	ldi	r19, 0x00	; 0
    2338:	46 e4       	ldi	r20, 0x46	; 70
    233a:	50 e0       	ldi	r21, 0x00	; 0
    233c:	67 ef       	ldi	r22, 0xF7	; 247
    233e:	79 e0       	ldi	r23, 0x09	; 9
    2340:	80 e7       	ldi	r24, 0x70	; 112
    2342:	0e 94 bd 1c 	call	0x397a	; 0x397a <LCD_Display_Text>
    } else if (__radix < 2 || __radix > 36) {
	*__s = 0;
	return __s;
    } else {
	extern char *__itoa_ncheck (int, char *, unsigned char);
	return __itoa_ncheck (__val, __s, __radix);
    2346:	4a e0       	ldi	r20, 0x0A	; 10
    2348:	63 e5       	ldi	r22, 0x53	; 83
    234a:	75 e0       	ldi	r23, 0x05	; 5
    234c:	80 91 d4 07 	lds	r24, 0x07D4
    2350:	90 91 d5 07 	lds	r25, 0x07D5
    2354:	0e 94 be 41 	call	0x837c	; 0x837c <__itoa_ncheck>

		mugui_lcd_puts(itoa(MonopolarThrottle,pBuffer,10),(const unsigned char*)Verdana8,37,0);
    2358:	20 e0       	ldi	r18, 0x00	; 0
    235a:	30 e0       	ldi	r19, 0x00	; 0
    235c:	45 e2       	ldi	r20, 0x25	; 37
    235e:	50 e0       	ldi	r21, 0x00	; 0
    2360:	67 ef       	ldi	r22, 0xF7	; 247
    2362:	79 e0       	ldi	r23, 0x09	; 9
    2364:	0e 94 dc 37 	call	0x6fb8	; 0x6fb8 <mugui_lcd_puts>
    2368:	4a e0       	ldi	r20, 0x0A	; 10
    236a:	63 e5       	ldi	r22, 0x53	; 83
    236c:	75 e0       	ldi	r23, 0x05	; 5
    236e:	80 91 d8 07 	lds	r24, 0x07D8
    2372:	90 91 d9 07 	lds	r25, 0x07D9
    2376:	0e 94 be 41 	call	0x837c	; 0x837c <__itoa_ncheck>
		mugui_lcd_puts(itoa(RCinputs[AILERON],pBuffer,10),(const unsigned char*)Verdana8,37,10);
    237a:	2a e0       	ldi	r18, 0x0A	; 10
    237c:	30 e0       	ldi	r19, 0x00	; 0
    237e:	45 e2       	ldi	r20, 0x25	; 37
    2380:	50 e0       	ldi	r21, 0x00	; 0
    2382:	67 ef       	ldi	r22, 0xF7	; 247
    2384:	79 e0       	ldi	r23, 0x09	; 9
    2386:	0e 94 dc 37 	call	0x6fb8	; 0x6fb8 <mugui_lcd_puts>
    238a:	4a e0       	ldi	r20, 0x0A	; 10
    238c:	63 e5       	ldi	r22, 0x53	; 83
    238e:	75 e0       	ldi	r23, 0x05	; 5
    2390:	80 91 da 07 	lds	r24, 0x07DA
    2394:	90 91 db 07 	lds	r25, 0x07DB
    2398:	0e 94 be 41 	call	0x837c	; 0x837c <__itoa_ncheck>
		mugui_lcd_puts(itoa(RCinputs[ELEVATOR],pBuffer,10),(const unsigned char*)Verdana8,37,20);
    239c:	24 e1       	ldi	r18, 0x14	; 20
    239e:	30 e0       	ldi	r19, 0x00	; 0
    23a0:	45 e2       	ldi	r20, 0x25	; 37
    23a2:	50 e0       	ldi	r21, 0x00	; 0
    23a4:	67 ef       	ldi	r22, 0xF7	; 247
    23a6:	79 e0       	ldi	r23, 0x09	; 9
    23a8:	0e 94 dc 37 	call	0x6fb8	; 0x6fb8 <mugui_lcd_puts>
    23ac:	4a e0       	ldi	r20, 0x0A	; 10
    23ae:	63 e5       	ldi	r22, 0x53	; 83
    23b0:	75 e0       	ldi	r23, 0x05	; 5
    23b2:	80 91 dc 07 	lds	r24, 0x07DC
    23b6:	90 91 dd 07 	lds	r25, 0x07DD
    23ba:	0e 94 be 41 	call	0x837c	; 0x837c <__itoa_ncheck>
		mugui_lcd_puts(itoa(RCinputs[RUDDER],pBuffer,10),(const unsigned char*)Verdana8,37,30);
    23be:	2e e1       	ldi	r18, 0x1E	; 30
    23c0:	30 e0       	ldi	r19, 0x00	; 0
    23c2:	45 e2       	ldi	r20, 0x25	; 37
    23c4:	50 e0       	ldi	r21, 0x00	; 0
    23c6:	67 ef       	ldi	r22, 0xF7	; 247
    23c8:	79 e0       	ldi	r23, 0x09	; 9
    23ca:	0e 94 dc 37 	call	0x6fb8	; 0x6fb8 <mugui_lcd_puts>
    23ce:	4a e0       	ldi	r20, 0x0A	; 10
    23d0:	63 e5       	ldi	r22, 0x53	; 83
    23d2:	75 e0       	ldi	r23, 0x05	; 5
    23d4:	80 91 de 07 	lds	r24, 0x07DE
    23d8:	90 91 df 07 	lds	r25, 0x07DF
    23dc:	0e 94 be 41 	call	0x837c	; 0x837c <__itoa_ncheck>

		mugui_lcd_puts(itoa(RCinputs[GEAR],pBuffer,10),(const unsigned char*)Verdana8,100,0);
    23e0:	20 e0       	ldi	r18, 0x00	; 0
    23e2:	30 e0       	ldi	r19, 0x00	; 0
    23e4:	44 e6       	ldi	r20, 0x64	; 100
    23e6:	50 e0       	ldi	r21, 0x00	; 0
    23e8:	67 ef       	ldi	r22, 0xF7	; 247
    23ea:	79 e0       	ldi	r23, 0x09	; 9
    23ec:	0e 94 dc 37 	call	0x6fb8	; 0x6fb8 <mugui_lcd_puts>
    23f0:	4a e0       	ldi	r20, 0x0A	; 10
    23f2:	63 e5       	ldi	r22, 0x53	; 83
    23f4:	75 e0       	ldi	r23, 0x05	; 5
    23f6:	80 91 e0 07 	lds	r24, 0x07E0
    23fa:	90 91 e1 07 	lds	r25, 0x07E1
    23fe:	0e 94 be 41 	call	0x837c	; 0x837c <__itoa_ncheck>
		mugui_lcd_puts(itoa(RCinputs[AUX1],pBuffer,10),(const unsigned char*)Verdana8,100,10);
    2402:	2a e0       	ldi	r18, 0x0A	; 10
    2404:	30 e0       	ldi	r19, 0x00	; 0
    2406:	44 e6       	ldi	r20, 0x64	; 100
    2408:	50 e0       	ldi	r21, 0x00	; 0
    240a:	67 ef       	ldi	r22, 0xF7	; 247
    240c:	79 e0       	ldi	r23, 0x09	; 9
    240e:	0e 94 dc 37 	call	0x6fb8	; 0x6fb8 <mugui_lcd_puts>
    2412:	4a e0       	ldi	r20, 0x0A	; 10
    2414:	63 e5       	ldi	r22, 0x53	; 83
    2416:	75 e0       	ldi	r23, 0x05	; 5
    2418:	80 91 e2 07 	lds	r24, 0x07E2
    241c:	90 91 e3 07 	lds	r25, 0x07E3
    2420:	0e 94 be 41 	call	0x837c	; 0x837c <__itoa_ncheck>
		mugui_lcd_puts(itoa(RCinputs[AUX2],pBuffer,10),(const unsigned char*)Verdana8,100,20);
    2424:	24 e1       	ldi	r18, 0x14	; 20
    2426:	30 e0       	ldi	r19, 0x00	; 0
    2428:	44 e6       	ldi	r20, 0x64	; 100
    242a:	50 e0       	ldi	r21, 0x00	; 0
    242c:	67 ef       	ldi	r22, 0xF7	; 247
    242e:	79 e0       	ldi	r23, 0x09	; 9
    2430:	0e 94 dc 37 	call	0x6fb8	; 0x6fb8 <mugui_lcd_puts>
    2434:	4a e0       	ldi	r20, 0x0A	; 10
    2436:	63 e5       	ldi	r22, 0x53	; 83
    2438:	75 e0       	ldi	r23, 0x05	; 5
    243a:	80 91 e4 07 	lds	r24, 0x07E4
    243e:	90 91 e5 07 	lds	r25, 0x07E5
    2442:	0e 94 be 41 	call	0x837c	; 0x837c <__itoa_ncheck>
		mugui_lcd_puts(itoa(RCinputs[AUX3],pBuffer,10),(const unsigned char*)Verdana8,100,30);
    2446:	2e e1       	ldi	r18, 0x1E	; 30
    2448:	30 e0       	ldi	r19, 0x00	; 0
    244a:	44 e6       	ldi	r20, 0x64	; 100
    244c:	50 e0       	ldi	r21, 0x00	; 0
    244e:	67 ef       	ldi	r22, 0xF7	; 247
    2450:	79 e0       	ldi	r23, 0x09	; 9
    2452:	0e 94 dc 37 	call	0x6fb8	; 0x6fb8 <mugui_lcd_puts>

		// Print bottom text and markers
		LCD_Display_Text(12, (const unsigned char*)Wingdings, 0, 57); 	// Left
    2456:	29 e3       	ldi	r18, 0x39	; 57
    2458:	30 e0       	ldi	r19, 0x00	; 0
    245a:	40 e0       	ldi	r20, 0x00	; 0
    245c:	50 e0       	ldi	r21, 0x00	; 0
    245e:	6f ed       	ldi	r22, 0xDF	; 223
    2460:	70 e0       	ldi	r23, 0x00	; 0
    2462:	8c e0       	ldi	r24, 0x0C	; 12
    2464:	0e 94 bd 1c 	call	0x397a	; 0x397a <LCD_Display_Text>
		LCD_Display_Text(60, (const unsigned char*)Verdana8, 110, 55); 	// Cal.
    2468:	27 e3       	ldi	r18, 0x37	; 55
    246a:	30 e0       	ldi	r19, 0x00	; 0
    246c:	4e e6       	ldi	r20, 0x6E	; 110
    246e:	50 e0       	ldi	r21, 0x00	; 0
    2470:	67 ef       	ldi	r22, 0xF7	; 247
    2472:	79 e0       	ldi	r23, 0x09	; 9
    2474:	8c e3       	ldi	r24, 0x3C	; 60
    2476:	0e 94 bd 1c 	call	0x397a	; 0x397a <LCD_Display_Text>

		// Update buffer
		write_buffer(buffer,1);
    247a:	61 e0       	ldi	r22, 0x01	; 1
    247c:	80 e0       	ldi	r24, 0x00	; 0
    247e:	91 e0       	ldi	r25, 0x01	; 1
    2480:	0e 94 e6 1a 	call	0x35cc	; 0x35cc <write_buffer>
		clear_buffer(buffer);
    2484:	80 e0       	ldi	r24, 0x00	; 0
    2486:	91 e0       	ldi	r25, 0x01	; 1
    2488:	0e 94 14 1b 	call	0x3628	; 0x3628 <clear_buffer>
    248c:	0d cf       	rjmp	.-486    	; 0x22a8 <Display_rcinput>
	}
}
    248e:	08 95       	ret

00002490 <Display_sensors>:
// Code
//************************************************************

void Display_sensors(void)
{
	while(BUTTON1 != 0)
    2490:	1f 9b       	sbis	0x03, 7	; 3
    2492:	e6 c0       	rjmp	.+460    	; 0x2660 <Display_sensors+0x1d0>
	{
	
		// Normal calibrate button pressed
		if (BUTTON4 == 0)
    2494:	1c 99       	sbic	0x03, 4	; 3
    2496:	1a c0       	rjmp	.+52     	; 0x24cc <Display_sensors+0x3c>
		{
			// Wait until finger off button
			while(BUTTON4 == 0)
    2498:	1c 99       	sbic	0x03, 4	; 3
    249a:	0a c0       	rjmp	.+20     	; 0x24b0 <Display_sensors+0x20>
    249c:	2f e3       	ldi	r18, 0x3F	; 63
    249e:	8d e0       	ldi	r24, 0x0D	; 13
    24a0:	93 e0       	ldi	r25, 0x03	; 3
    24a2:	21 50       	subi	r18, 0x01	; 1
    24a4:	80 40       	sbci	r24, 0x00	; 0
    24a6:	90 40       	sbci	r25, 0x00	; 0
    24a8:	e1 f7       	brne	.-8      	; 0x24a2 <Display_sensors+0x12>
    24aa:	00 c0       	rjmp	.+0      	; 0x24ac <Display_sensors+0x1c>
    24ac:	00 00       	nop
    24ae:	f4 cf       	rjmp	.-24     	; 0x2498 <Display_sensors+0x8>
    24b0:	2f e3       	ldi	r18, 0x3F	; 63
    24b2:	82 e4       	ldi	r24, 0x42	; 66
    24b4:	9f e0       	ldi	r25, 0x0F	; 15
    24b6:	21 50       	subi	r18, 0x01	; 1
    24b8:	80 40       	sbci	r24, 0x00	; 0
    24ba:	90 40       	sbci	r25, 0x00	; 0
    24bc:	e1 f7       	brne	.-8      	; 0x24b6 <Display_sensors+0x26>
    24be:	00 c0       	rjmp	.+0      	; 0x24c0 <Display_sensors+0x30>
    24c0:	00 00       	nop
			
			// Pause until steady		
			_delay_ms(250);
			
			// Calibrate sensors
			CalibrateGyrosFast();		
    24c2:	0e 94 b6 1d 	call	0x3b6c	; 0x3b6c <CalibrateGyrosFast>
			CalibrateAcc(NORMAL);
    24c6:	80 e0       	ldi	r24, 0x00	; 0
    24c8:	0e 94 aa 0f 	call	0x1f54	; 0x1f54 <CalibrateAcc>
		}

		// Inverted calibrate button pressed
		if (BUTTON3 == 0)
    24cc:	1d 99       	sbic	0x03, 5	; 3
    24ce:	0c c0       	rjmp	.+24     	; 0x24e8 <Display_sensors+0x58>
    24d0:	2f e3       	ldi	r18, 0x3F	; 63
    24d2:	82 e4       	ldi	r24, 0x42	; 66
    24d4:	9f e0       	ldi	r25, 0x0F	; 15
    24d6:	21 50       	subi	r18, 0x01	; 1
    24d8:	80 40       	sbci	r24, 0x00	; 0
    24da:	90 40       	sbci	r25, 0x00	; 0
    24dc:	e1 f7       	brne	.-8      	; 0x24d6 <Display_sensors+0x46>
    24de:	00 c0       	rjmp	.+0      	; 0x24e0 <Display_sensors+0x50>
    24e0:	00 00       	nop
		{
			// Wait until button snap dissipated
			_delay_ms(250);
			CalibrateAcc(REVERSED);
    24e2:	81 e0       	ldi	r24, 0x01	; 1
    24e4:	0e 94 aa 0f 	call	0x1f54	; 0x1f54 <CalibrateAcc>
		}

		ReadGyros();
    24e8:	0e 94 89 1d 	call	0x3b12	; 0x3b12 <ReadGyros>
		ReadAcc();
    24ec:	0e 94 46 0f 	call	0x1e8c	; 0x1e8c <ReadAcc>

		LCD_Display_Text(26,(const unsigned char*)Verdana8,37,0); 	// Gyro
    24f0:	20 e0       	ldi	r18, 0x00	; 0
    24f2:	30 e0       	ldi	r19, 0x00	; 0
    24f4:	45 e2       	ldi	r20, 0x25	; 37
    24f6:	50 e0       	ldi	r21, 0x00	; 0
    24f8:	67 ef       	ldi	r22, 0xF7	; 247
    24fa:	79 e0       	ldi	r23, 0x09	; 9
    24fc:	8a e1       	ldi	r24, 0x1A	; 26
    24fe:	0e 94 bd 1c 	call	0x397a	; 0x397a <LCD_Display_Text>
		LCD_Display_Text(30,(const unsigned char*)Verdana8,77,0); 	// Acc
    2502:	20 e0       	ldi	r18, 0x00	; 0
    2504:	30 e0       	ldi	r19, 0x00	; 0
    2506:	4d e4       	ldi	r20, 0x4D	; 77
    2508:	50 e0       	ldi	r21, 0x00	; 0
    250a:	67 ef       	ldi	r22, 0xF7	; 247
    250c:	79 e0       	ldi	r23, 0x09	; 9
    250e:	8e e1       	ldi	r24, 0x1E	; 30
    2510:	0e 94 bd 1c 	call	0x397a	; 0x397a <LCD_Display_Text>
		//
		LCD_Display_Text(27,(const unsigned char*)Verdana8,5,13);	// Roll
    2514:	2d e0       	ldi	r18, 0x0D	; 13
    2516:	30 e0       	ldi	r19, 0x00	; 0
    2518:	45 e0       	ldi	r20, 0x05	; 5
    251a:	50 e0       	ldi	r21, 0x00	; 0
    251c:	67 ef       	ldi	r22, 0xF7	; 247
    251e:	79 e0       	ldi	r23, 0x09	; 9
    2520:	8b e1       	ldi	r24, 0x1B	; 27
    2522:	0e 94 bd 1c 	call	0x397a	; 0x397a <LCD_Display_Text>
		LCD_Display_Text(28,(const unsigned char*)Verdana8,5,23);	// Pitch
    2526:	27 e1       	ldi	r18, 0x17	; 23
    2528:	30 e0       	ldi	r19, 0x00	; 0
    252a:	45 e0       	ldi	r20, 0x05	; 5
    252c:	50 e0       	ldi	r21, 0x00	; 0
    252e:	67 ef       	ldi	r22, 0xF7	; 247
    2530:	79 e0       	ldi	r23, 0x09	; 9
    2532:	8c e1       	ldi	r24, 0x1C	; 28
    2534:	0e 94 bd 1c 	call	0x397a	; 0x397a <LCD_Display_Text>
		LCD_Display_Text(29,(const unsigned char*)Verdana8,5,33);	// Yaw/Z
    2538:	21 e2       	ldi	r18, 0x21	; 33
    253a:	30 e0       	ldi	r19, 0x00	; 0
    253c:	45 e0       	ldi	r20, 0x05	; 5
    253e:	50 e0       	ldi	r21, 0x00	; 0
    2540:	67 ef       	ldi	r22, 0xF7	; 247
    2542:	79 e0       	ldi	r23, 0x09	; 9
    2544:	8d e1       	ldi	r24, 0x1D	; 29
    2546:	0e 94 bd 1c 	call	0x397a	; 0x397a <LCD_Display_Text>
    254a:	4a e0       	ldi	r20, 0x0A	; 10
    254c:	63 e5       	ldi	r22, 0x53	; 83
    254e:	75 e0       	ldi	r23, 0x05	; 5
    2550:	80 91 63 05 	lds	r24, 0x0563
    2554:	90 91 64 05 	lds	r25, 0x0564
    2558:	0e 94 be 41 	call	0x837c	; 0x837c <__itoa_ncheck>
		//
		mugui_lcd_puts(itoa(gyroADC[ROLL],pBuffer,10),(const unsigned char*)Verdana8,40,13);
    255c:	2d e0       	ldi	r18, 0x0D	; 13
    255e:	30 e0       	ldi	r19, 0x00	; 0
    2560:	48 e2       	ldi	r20, 0x28	; 40
    2562:	50 e0       	ldi	r21, 0x00	; 0
    2564:	67 ef       	ldi	r22, 0xF7	; 247
    2566:	79 e0       	ldi	r23, 0x09	; 9
    2568:	0e 94 dc 37 	call	0x6fb8	; 0x6fb8 <mugui_lcd_puts>
    256c:	4a e0       	ldi	r20, 0x0A	; 10
    256e:	63 e5       	ldi	r22, 0x53	; 83
    2570:	75 e0       	ldi	r23, 0x05	; 5
    2572:	80 91 65 05 	lds	r24, 0x0565
    2576:	90 91 66 05 	lds	r25, 0x0566
    257a:	0e 94 be 41 	call	0x837c	; 0x837c <__itoa_ncheck>
		mugui_lcd_puts(itoa(gyroADC[PITCH],pBuffer,10),(const unsigned char*)Verdana8,40,23);
    257e:	27 e1       	ldi	r18, 0x17	; 23
    2580:	30 e0       	ldi	r19, 0x00	; 0
    2582:	48 e2       	ldi	r20, 0x28	; 40
    2584:	50 e0       	ldi	r21, 0x00	; 0
    2586:	67 ef       	ldi	r22, 0xF7	; 247
    2588:	79 e0       	ldi	r23, 0x09	; 9
    258a:	0e 94 dc 37 	call	0x6fb8	; 0x6fb8 <mugui_lcd_puts>
    258e:	4a e0       	ldi	r20, 0x0A	; 10
    2590:	63 e5       	ldi	r22, 0x53	; 83
    2592:	75 e0       	ldi	r23, 0x05	; 5
    2594:	80 91 67 05 	lds	r24, 0x0567
    2598:	90 91 68 05 	lds	r25, 0x0568
    259c:	0e 94 be 41 	call	0x837c	; 0x837c <__itoa_ncheck>
		mugui_lcd_puts(itoa(gyroADC[YAW],pBuffer,10),(const unsigned char*)Verdana8,40,33);
    25a0:	21 e2       	ldi	r18, 0x21	; 33
    25a2:	30 e0       	ldi	r19, 0x00	; 0
    25a4:	48 e2       	ldi	r20, 0x28	; 40
    25a6:	50 e0       	ldi	r21, 0x00	; 0
    25a8:	67 ef       	ldi	r22, 0xF7	; 247
    25aa:	79 e0       	ldi	r23, 0x09	; 9
    25ac:	0e 94 dc 37 	call	0x6fb8	; 0x6fb8 <mugui_lcd_puts>
    25b0:	4a e0       	ldi	r20, 0x0A	; 10
    25b2:	63 e5       	ldi	r22, 0x53	; 83
    25b4:	75 e0       	ldi	r23, 0x05	; 5
    25b6:	80 91 30 05 	lds	r24, 0x0530
    25ba:	90 91 31 05 	lds	r25, 0x0531
    25be:	0e 94 be 41 	call	0x837c	; 0x837c <__itoa_ncheck>
		mugui_lcd_puts(itoa(accADC[ROLL],pBuffer,10),(const unsigned char*)Verdana8,80,13);
    25c2:	2d e0       	ldi	r18, 0x0D	; 13
    25c4:	30 e0       	ldi	r19, 0x00	; 0
    25c6:	40 e5       	ldi	r20, 0x50	; 80
    25c8:	50 e0       	ldi	r21, 0x00	; 0
    25ca:	67 ef       	ldi	r22, 0xF7	; 247
    25cc:	79 e0       	ldi	r23, 0x09	; 9
    25ce:	0e 94 dc 37 	call	0x6fb8	; 0x6fb8 <mugui_lcd_puts>
    25d2:	4a e0       	ldi	r20, 0x0A	; 10
    25d4:	63 e5       	ldi	r22, 0x53	; 83
    25d6:	75 e0       	ldi	r23, 0x05	; 5
    25d8:	80 91 32 05 	lds	r24, 0x0532
    25dc:	90 91 33 05 	lds	r25, 0x0533
    25e0:	0e 94 be 41 	call	0x837c	; 0x837c <__itoa_ncheck>
		mugui_lcd_puts(itoa(accADC[PITCH],pBuffer,10),(const unsigned char*)Verdana8,80,23);
    25e4:	27 e1       	ldi	r18, 0x17	; 23
    25e6:	30 e0       	ldi	r19, 0x00	; 0
    25e8:	40 e5       	ldi	r20, 0x50	; 80
    25ea:	50 e0       	ldi	r21, 0x00	; 0
    25ec:	67 ef       	ldi	r22, 0xF7	; 247
    25ee:	79 e0       	ldi	r23, 0x09	; 9
    25f0:	0e 94 dc 37 	call	0x6fb8	; 0x6fb8 <mugui_lcd_puts>
    25f4:	4a e0       	ldi	r20, 0x0A	; 10
    25f6:	63 e5       	ldi	r22, 0x53	; 83
    25f8:	75 e0       	ldi	r23, 0x05	; 5
    25fa:	80 91 34 05 	lds	r24, 0x0534
    25fe:	90 91 35 05 	lds	r25, 0x0535
    2602:	0e 94 be 41 	call	0x837c	; 0x837c <__itoa_ncheck>
		mugui_lcd_puts(itoa(accADC[YAW],pBuffer,10),(const unsigned char*)Verdana8,80,33);
    2606:	21 e2       	ldi	r18, 0x21	; 33
    2608:	30 e0       	ldi	r19, 0x00	; 0
    260a:	40 e5       	ldi	r20, 0x50	; 80
    260c:	50 e0       	ldi	r21, 0x00	; 0
    260e:	67 ef       	ldi	r22, 0xF7	; 247
    2610:	79 e0       	ldi	r23, 0x09	; 9
    2612:	0e 94 dc 37 	call	0x6fb8	; 0x6fb8 <mugui_lcd_puts>

		// Print bottom markers
		LCD_Display_Text(12, (const unsigned char*)Wingdings, 0, 57); 	// Left
    2616:	29 e3       	ldi	r18, 0x39	; 57
    2618:	30 e0       	ldi	r19, 0x00	; 0
    261a:	40 e0       	ldi	r20, 0x00	; 0
    261c:	50 e0       	ldi	r21, 0x00	; 0
    261e:	6f ed       	ldi	r22, 0xDF	; 223
    2620:	70 e0       	ldi	r23, 0x00	; 0
    2622:	8c e0       	ldi	r24, 0x0C	; 12
    2624:	0e 94 bd 1c 	call	0x397a	; 0x397a <LCD_Display_Text>
		LCD_Display_Text(60, (const unsigned char*)Verdana8, 108, 55); 	// Calibrate
    2628:	27 e3       	ldi	r18, 0x37	; 55
    262a:	30 e0       	ldi	r19, 0x00	; 0
    262c:	4c e6       	ldi	r20, 0x6C	; 108
    262e:	50 e0       	ldi	r21, 0x00	; 0
    2630:	67 ef       	ldi	r22, 0xF7	; 247
    2632:	79 e0       	ldi	r23, 0x09	; 9
    2634:	8c e3       	ldi	r24, 0x3C	; 60
    2636:	0e 94 bd 1c 	call	0x397a	; 0x397a <LCD_Display_Text>
		LCD_Display_Text(25, (const unsigned char*)Verdana8, 75, 55); 	// Inverted Calibrate		
    263a:	27 e3       	ldi	r18, 0x37	; 55
    263c:	30 e0       	ldi	r19, 0x00	; 0
    263e:	4b e4       	ldi	r20, 0x4B	; 75
    2640:	50 e0       	ldi	r21, 0x00	; 0
    2642:	67 ef       	ldi	r22, 0xF7	; 247
    2644:	79 e0       	ldi	r23, 0x09	; 9
    2646:	89 e1       	ldi	r24, 0x19	; 25
    2648:	0e 94 bd 1c 	call	0x397a	; 0x397a <LCD_Display_Text>

		// Update buffer
		write_buffer(buffer,1);
    264c:	61 e0       	ldi	r22, 0x01	; 1
    264e:	80 e0       	ldi	r24, 0x00	; 0
    2650:	91 e0       	ldi	r25, 0x01	; 1
    2652:	0e 94 e6 1a 	call	0x35cc	; 0x35cc <write_buffer>
		clear_buffer(buffer);
    2656:	80 e0       	ldi	r24, 0x00	; 0
    2658:	91 e0       	ldi	r25, 0x01	; 1
    265a:	0e 94 14 1b 	call	0x3628	; 0x3628 <clear_buffer>
    265e:	18 cf       	rjmp	.-464    	; 0x2490 <Display_sensors>
	}
}
    2660:	08 95       	ret

00002662 <Display_status>:
//************************************************************
// Code
//************************************************************

void Display_status(void)
{
    2662:	a4 e0       	ldi	r26, 0x04	; 4
    2664:	b0 e0       	ldi	r27, 0x00	; 0
    2666:	e7 e3       	ldi	r30, 0x37	; 55
    2668:	f3 e1       	ldi	r31, 0x13	; 19
    266a:	0c 94 87 41 	jmp	0x830e	; 0x830e <__prologue_saves__+0x12>
	int16_t temp;
	uint16_t vbat_temp; 
	int8_t	pos1, pos2, pos3;
	mugui_size16_t size;

	clear_buffer(buffer);
    266e:	80 e0       	ldi	r24, 0x00	; 0
    2670:	91 e0       	ldi	r25, 0x01	; 1
    2672:	0e 94 14 1b 	call	0x3628	; 0x3628 <clear_buffer>

	// Display text
	LCD_Display_Text(3,(const unsigned char*)Verdana8,0,0); 	// Version text
    2676:	20 e0       	ldi	r18, 0x00	; 0
    2678:	30 e0       	ldi	r19, 0x00	; 0
    267a:	40 e0       	ldi	r20, 0x00	; 0
    267c:	50 e0       	ldi	r21, 0x00	; 0
    267e:	67 ef       	ldi	r22, 0xF7	; 247
    2680:	79 e0       	ldi	r23, 0x09	; 9
    2682:	83 e0       	ldi	r24, 0x03	; 3
    2684:	0e 94 bd 1c 	call	0x397a	; 0x397a <LCD_Display_Text>
	LCD_Display_Text(5,(const unsigned char*)Verdana8,0,16); 	// RX sync
    2688:	20 e1       	ldi	r18, 0x10	; 16
    268a:	30 e0       	ldi	r19, 0x00	; 0
    268c:	40 e0       	ldi	r20, 0x00	; 0
    268e:	50 e0       	ldi	r21, 0x00	; 0
    2690:	67 ef       	ldi	r22, 0xF7	; 247
    2692:	79 e0       	ldi	r23, 0x09	; 9
    2694:	85 e0       	ldi	r24, 0x05	; 5
    2696:	0e 94 bd 1c 	call	0x397a	; 0x397a <LCD_Display_Text>
	LCD_Display_Text(6,(const unsigned char*)Verdana8,0,27); 	// Profile
    269a:	2b e1       	ldi	r18, 0x1B	; 27
    269c:	30 e0       	ldi	r19, 0x00	; 0
    269e:	40 e0       	ldi	r20, 0x00	; 0
    26a0:	50 e0       	ldi	r21, 0x00	; 0
    26a2:	67 ef       	ldi	r22, 0xF7	; 247
    26a4:	79 e0       	ldi	r23, 0x09	; 9
    26a6:	86 e0       	ldi	r24, 0x06	; 6
    26a8:	0e 94 bd 1c 	call	0x397a	; 0x397a <LCD_Display_Text>
	LCD_Display_Text(23,(const unsigned char*)Verdana8,88,27); 	// Pos
    26ac:	2b e1       	ldi	r18, 0x1B	; 27
    26ae:	30 e0       	ldi	r19, 0x00	; 0
    26b0:	48 e5       	ldi	r20, 0x58	; 88
    26b2:	50 e0       	ldi	r21, 0x00	; 0
    26b4:	67 ef       	ldi	r22, 0xF7	; 247
    26b6:	79 e0       	ldi	r23, 0x09	; 9
    26b8:	87 e1       	ldi	r24, 0x17	; 23
    26ba:	0e 94 bd 1c 	call	0x397a	; 0x397a <LCD_Display_Text>
	LCD_Display_Text(133,(const unsigned char*)Verdana8,0,38); 	// Battery
    26be:	26 e2       	ldi	r18, 0x26	; 38
    26c0:	30 e0       	ldi	r19, 0x00	; 0
    26c2:	40 e0       	ldi	r20, 0x00	; 0
    26c4:	50 e0       	ldi	r21, 0x00	; 0
    26c6:	67 ef       	ldi	r22, 0xF7	; 247
    26c8:	79 e0       	ldi	r23, 0x09	; 9
    26ca:	85 e8       	ldi	r24, 0x85	; 133
    26cc:	0e 94 bd 1c 	call	0x397a	; 0x397a <LCD_Display_Text>
	
	// Display menu and markers
	LCD_Display_Text(9, (const unsigned char*)Wingdings, 0, 59);// Down
    26d0:	2b e3       	ldi	r18, 0x3B	; 59
    26d2:	30 e0       	ldi	r19, 0x00	; 0
    26d4:	40 e0       	ldi	r20, 0x00	; 0
    26d6:	50 e0       	ldi	r21, 0x00	; 0
    26d8:	6f ed       	ldi	r22, 0xDF	; 223
    26da:	70 e0       	ldi	r23, 0x00	; 0
    26dc:	89 e0       	ldi	r24, 0x09	; 9
    26de:	0e 94 bd 1c 	call	0x397a	; 0x397a <LCD_Display_Text>
	LCD_Display_Text(14,(const unsigned char*)Verdana8,10,55);	// Menu
    26e2:	27 e3       	ldi	r18, 0x37	; 55
    26e4:	30 e0       	ldi	r19, 0x00	; 0
    26e6:	4a e0       	ldi	r20, 0x0A	; 10
    26e8:	50 e0       	ldi	r21, 0x00	; 0
    26ea:	67 ef       	ldi	r22, 0xF7	; 247
    26ec:	79 e0       	ldi	r23, 0x09	; 9
    26ee:	8e e0       	ldi	r24, 0x0E	; 14
    26f0:	0e 94 bd 1c 	call	0x397a	; 0x397a <LCD_Display_Text>

	// Display values
	print_menu_text(0, 1, (62 + Config.RxMode), 45, 16); // Rx mode
    26f4:	40 91 ce 05 	lds	r20, 0x05CE
    26f8:	42 5c       	subi	r20, 0xC2	; 194
    26fa:	00 e1       	ldi	r16, 0x10	; 16
    26fc:	2d e2       	ldi	r18, 0x2D	; 45
    26fe:	61 e0       	ldi	r22, 0x01	; 1
    2700:	80 e0       	ldi	r24, 0x00	; 0
    2702:	90 e0       	ldi	r25, 0x00	; 0
    2704:	0e 94 c7 28 	call	0x518e	; 0x518e <print_menu_text>
    2708:	4a e0       	ldi	r20, 0x0A	; 10
    270a:	63 e5       	ldi	r22, 0x53	; 83
    270c:	75 e0       	ldi	r23, 0x05	; 5
    270e:	80 91 18 05 	lds	r24, 0x0518
    2712:	90 91 19 05 	lds	r25, 0x0519
    2716:	0e 94 be 41 	call	0x837c	; 0x837c <__itoa_ncheck>
	mugui_lcd_puts(itoa(transition,pBuffer,10),(const unsigned char*)Verdana8,110,27); // Raw transition value
    271a:	2b e1       	ldi	r18, 0x1B	; 27
    271c:	30 e0       	ldi	r19, 0x00	; 0
    271e:	4e e6       	ldi	r20, 0x6E	; 110
    2720:	50 e0       	ldi	r21, 0x00	; 0
    2722:	67 ef       	ldi	r22, 0xF7	; 247
    2724:	79 e0       	ldi	r23, 0x09	; 9
    2726:	0e 94 dc 37 	call	0x6fb8	; 0x6fb8 <mugui_lcd_puts>

	if (Config.RxMode == PWM)
    272a:	80 91 ce 05 	lds	r24, 0x05CE
    272e:	81 30       	cpi	r24, 0x01	; 1
    2730:	d1 f4       	brne	.+52     	; 0x2766 <Display_status+0x104>
	{
		LCD_Display_Text(24,(const unsigned char*)Verdana8,77,38); // Interrupt counter text 
    2732:	26 e2       	ldi	r18, 0x26	; 38
    2734:	30 e0       	ldi	r19, 0x00	; 0
    2736:	4d e4       	ldi	r20, 0x4D	; 77
    2738:	50 e0       	ldi	r21, 0x00	; 0
    273a:	67 ef       	ldi	r22, 0xF7	; 247
    273c:	79 e0       	ldi	r23, 0x09	; 9
    273e:	88 e1       	ldi	r24, 0x18	; 24
    2740:	0e 94 bd 1c 	call	0x397a	; 0x397a <LCD_Display_Text>
    2744:	4a e0       	ldi	r20, 0x0A	; 10
    2746:	63 e5       	ldi	r22, 0x53	; 83
    2748:	75 e0       	ldi	r23, 0x05	; 5
    274a:	80 91 12 05 	lds	r24, 0x0512
    274e:	90 91 13 05 	lds	r25, 0x0513
    2752:	0e 94 be 41 	call	0x837c	; 0x837c <__itoa_ncheck>
		mugui_lcd_puts(itoa(InterruptCount,pBuffer,10),(const unsigned char*)Verdana8,110,38); // Interrupt counter
    2756:	26 e2       	ldi	r18, 0x26	; 38
    2758:	30 e0       	ldi	r19, 0x00	; 0
    275a:	4e e6       	ldi	r20, 0x6E	; 110
    275c:	50 e0       	ldi	r21, 0x00	; 0
    275e:	67 ef       	ldi	r22, 0xF7	; 247
    2760:	79 e0       	ldi	r23, 0x09	; 9
    2762:	0e 94 dc 37 	call	0x6fb8	; 0x6fb8 <mugui_lcd_puts>
	}

	// Display transition point
	if (transition <= 0)
    2766:	80 91 18 05 	lds	r24, 0x0518
    276a:	90 91 19 05 	lds	r25, 0x0519
    276e:	18 16       	cp	r1, r24
    2770:	19 06       	cpc	r1, r25
    2772:	44 f0       	brlt	.+16     	; 0x2784 <Display_status+0x122>
	{
		LCD_Display_Text(48,(const unsigned char*)Verdana8,45,27);
    2774:	2b e1       	ldi	r18, 0x1B	; 27
    2776:	30 e0       	ldi	r19, 0x00	; 0
    2778:	4d e2       	ldi	r20, 0x2D	; 45
    277a:	50 e0       	ldi	r21, 0x00	; 0
    277c:	67 ef       	ldi	r22, 0xF7	; 247
    277e:	79 e0       	ldi	r23, 0x09	; 9
    2780:	80 e3       	ldi	r24, 0x30	; 48
    2782:	2d c0       	rjmp	.+90     	; 0x27de <Display_status+0x17c>
	}
	else if (transition >= 100)
    2784:	84 36       	cpi	r24, 0x64	; 100
    2786:	91 05       	cpc	r25, r1
    2788:	44 f0       	brlt	.+16     	; 0x279a <Display_status+0x138>
	{
		LCD_Display_Text(50,(const unsigned char*)Verdana8,45,27);
    278a:	2b e1       	ldi	r18, 0x1B	; 27
    278c:	30 e0       	ldi	r19, 0x00	; 0
    278e:	4d e2       	ldi	r20, 0x2D	; 45
    2790:	50 e0       	ldi	r21, 0x00	; 0
    2792:	67 ef       	ldi	r22, 0xF7	; 247
    2794:	79 e0       	ldi	r23, 0x09	; 9
    2796:	82 e3       	ldi	r24, 0x32	; 50
    2798:	22 c0       	rjmp	.+68     	; 0x27de <Display_status+0x17c>
	}
	else if (transition == Config.Transition_P1n)
    279a:	20 91 d6 05 	lds	r18, 0x05D6
    279e:	33 27       	eor	r19, r19
    27a0:	27 fd       	sbrc	r18, 7
    27a2:	30 95       	com	r19
    27a4:	82 17       	cp	r24, r18
    27a6:	93 07       	cpc	r25, r19
    27a8:	41 f4       	brne	.+16     	; 0x27ba <Display_status+0x158>
	{
		LCD_Display_Text(49,(const unsigned char*)Verdana8,45,27);
    27aa:	2b e1       	ldi	r18, 0x1B	; 27
    27ac:	30 e0       	ldi	r19, 0x00	; 0
    27ae:	4d e2       	ldi	r20, 0x2D	; 45
    27b0:	50 e0       	ldi	r21, 0x00	; 0
    27b2:	67 ef       	ldi	r22, 0xF7	; 247
    27b4:	79 e0       	ldi	r23, 0x09	; 9
    27b6:	81 e3       	ldi	r24, 0x31	; 49
    27b8:	12 c0       	rjmp	.+36     	; 0x27de <Display_status+0x17c>
	}
	else if (transition < Config.Transition_P1n)
    27ba:	82 17       	cp	r24, r18
    27bc:	93 07       	cpc	r25, r19
    27be:	44 f4       	brge	.+16     	; 0x27d0 <Display_status+0x16e>
	{
		LCD_Display_Text(51,(const unsigned char*)Verdana8,45,27);
    27c0:	2b e1       	ldi	r18, 0x1B	; 27
    27c2:	30 e0       	ldi	r19, 0x00	; 0
    27c4:	4d e2       	ldi	r20, 0x2D	; 45
    27c6:	50 e0       	ldi	r21, 0x00	; 0
    27c8:	67 ef       	ldi	r22, 0xF7	; 247
    27ca:	79 e0       	ldi	r23, 0x09	; 9
    27cc:	83 e3       	ldi	r24, 0x33	; 51
    27ce:	07 c0       	rjmp	.+14     	; 0x27de <Display_status+0x17c>
	}
	else
	{
		LCD_Display_Text(52,(const unsigned char*)Verdana8,45,27);
    27d0:	2b e1       	ldi	r18, 0x1B	; 27
    27d2:	30 e0       	ldi	r19, 0x00	; 0
    27d4:	4d e2       	ldi	r20, 0x2D	; 45
    27d6:	50 e0       	ldi	r21, 0x00	; 0
    27d8:	67 ef       	ldi	r22, 0xF7	; 247
    27da:	79 e0       	ldi	r23, 0x09	; 9
    27dc:	84 e3       	ldi	r24, 0x34	; 52
    27de:	0e 94 bd 1c 	call	0x397a	; 0x397a <LCD_Display_Text>

	// Display voltage
	uint8_t x_loc = 45;		// X location of voltage display
	uint8_t y_loc = 38;		// Y location of voltage display

	vbat_temp = GetVbat();
    27e2:	0e 94 b4 3e 	call	0x7d68	; 0x7d68 <GetVbat>
    27e6:	6c 01       	movw	r12, r24
	temp = vbat_temp/100;	// Display whole decimal part first
    27e8:	64 e6       	ldi	r22, 0x64	; 100
    27ea:	70 e0       	ldi	r23, 0x00	; 0
    27ec:	0e 94 de 40 	call	0x81bc	; 0x81bc <__udivmodhi4>
    27f0:	8b 01       	movw	r16, r22
    27f2:	4a e0       	ldi	r20, 0x0A	; 10
    27f4:	63 e5       	ldi	r22, 0x53	; 83
    27f6:	75 e0       	ldi	r23, 0x05	; 5
    27f8:	c8 01       	movw	r24, r16
    27fa:	0e 94 be 41 	call	0x837c	; 0x837c <__itoa_ncheck>
	mugui_text_sizestring(itoa(temp,pBuffer,10), (const unsigned char*)Verdana8, &size);
    27fe:	ae 01       	movw	r20, r28
    2800:	4f 5f       	subi	r20, 0xFF	; 255
    2802:	5f 4f       	sbci	r21, 0xFF	; 255
    2804:	67 ef       	ldi	r22, 0xF7	; 247
    2806:	79 e0       	ldi	r23, 0x09	; 9
    2808:	0e 94 c4 36 	call	0x6d88	; 0x6d88 <mugui_text_sizestring>
    280c:	4a e0       	ldi	r20, 0x0A	; 10
    280e:	63 e5       	ldi	r22, 0x53	; 83
    2810:	75 e0       	ldi	r23, 0x05	; 5
    2812:	c8 01       	movw	r24, r16
    2814:	0e 94 be 41 	call	0x837c	; 0x837c <__itoa_ncheck>
	mugui_lcd_puts(itoa(temp,pBuffer,10),(const unsigned char*)Verdana8,x_loc,y_loc);
    2818:	26 e2       	ldi	r18, 0x26	; 38
    281a:	30 e0       	ldi	r19, 0x00	; 0
    281c:	4d e2       	ldi	r20, 0x2D	; 45
    281e:	50 e0       	ldi	r21, 0x00	; 0
    2820:	67 ef       	ldi	r22, 0xF7	; 247
    2822:	79 e0       	ldi	r23, 0x09	; 9
    2824:	0e 94 dc 37 	call	0x6fb8	; 0x6fb8 <mugui_lcd_puts>
	pos1 = size.x;

	vbat_temp = vbat_temp - (temp * 100); // Now display the parts to the right of the decimal point
    2828:	2c e9       	ldi	r18, 0x9C	; 156
    282a:	20 03       	mulsu	r18, r16
    282c:	70 01       	movw	r14, r0
    282e:	21 9f       	mul	r18, r17
    2830:	f0 0c       	add	r15, r0
    2832:	11 24       	eor	r1, r1
    2834:	ec 0c       	add	r14, r12
    2836:	fd 1c       	adc	r15, r13

	LCD_Display_Text(7,(const unsigned char*)Verdana8,(x_loc + pos1),y_loc);
    2838:	09 81       	ldd	r16, Y+1	; 0x01
    283a:	11 27       	eor	r17, r17
    283c:	07 fd       	sbrc	r16, 7
    283e:	10 95       	com	r17
    2840:	03 5d       	subi	r16, 0xD3	; 211
    2842:	1f 4f       	sbci	r17, 0xFF	; 255
    2844:	26 e2       	ldi	r18, 0x26	; 38
    2846:	30 e0       	ldi	r19, 0x00	; 0
    2848:	a8 01       	movw	r20, r16
    284a:	67 ef       	ldi	r22, 0xF7	; 247
    284c:	79 e0       	ldi	r23, 0x09	; 9
    284e:	87 e0       	ldi	r24, 0x07	; 7
    2850:	0e 94 bd 1c 	call	0x397a	; 0x397a <LCD_Display_Text>
	mugui_text_sizestring(".", (const unsigned char*)Verdana8, &size);
    2854:	ae 01       	movw	r20, r28
    2856:	4f 5f       	subi	r20, 0xFF	; 255
    2858:	5f 4f       	sbci	r21, 0xFF	; 255
    285a:	67 ef       	ldi	r22, 0xF7	; 247
    285c:	79 e0       	ldi	r23, 0x09	; 9
    285e:	87 e0       	ldi	r24, 0x07	; 7
    2860:	95 e0       	ldi	r25, 0x05	; 5
    2862:	0e 94 c4 36 	call	0x6d88	; 0x6d88 <mugui_text_sizestring>
	pos3 = size.x;
    2866:	c9 80       	ldd	r12, Y+1	; 0x01
	mugui_text_sizestring("0", (const unsigned char*)Verdana8, &size);
    2868:	ae 01       	movw	r20, r28
    286a:	4f 5f       	subi	r20, 0xFF	; 255
    286c:	5f 4f       	sbci	r21, 0xFF	; 255
    286e:	67 ef       	ldi	r22, 0xF7	; 247
    2870:	79 e0       	ldi	r23, 0x09	; 9
    2872:	89 e0       	ldi	r24, 0x09	; 9
    2874:	95 e0       	ldi	r25, 0x05	; 5
    2876:	0e 94 c4 36 	call	0x6d88	; 0x6d88 <mugui_text_sizestring>
	pos2 = size.x;
    287a:	b9 80       	ldd	r11, Y+1	; 0x01
    287c:	dd 24       	eor	r13, r13
    287e:	c7 fc       	sbrc	r12, 7
    2880:	d0 94       	com	r13

	if (vbat_temp >= 10)
    2882:	8a e0       	ldi	r24, 0x0A	; 10
    2884:	e8 16       	cp	r14, r24
    2886:	f1 04       	cpc	r15, r1
    2888:	40 f0       	brcs	.+16     	; 0x289a <Display_status+0x238>
    288a:	4a e0       	ldi	r20, 0x0A	; 10
    288c:	63 e5       	ldi	r22, 0x53	; 83
    288e:	75 e0       	ldi	r23, 0x05	; 5
    2890:	c7 01       	movw	r24, r14
    2892:	0e 94 be 41 	call	0x837c	; 0x837c <__itoa_ncheck>
	{
		mugui_lcd_puts(itoa(vbat_temp,pBuffer,10),(const unsigned char*)Verdana8,(x_loc + pos1 + pos3),y_loc);
    2896:	a8 01       	movw	r20, r16
    2898:	15 c0       	rjmp	.+42     	; 0x28c4 <Display_status+0x262>
	}
	else
	{
		LCD_Display_Text(8,(const unsigned char*)Verdana8,(x_loc + pos1 + pos3),y_loc);
    289a:	a8 01       	movw	r20, r16
    289c:	4c 0d       	add	r20, r12
    289e:	5d 1d       	adc	r21, r13
    28a0:	26 e2       	ldi	r18, 0x26	; 38
    28a2:	30 e0       	ldi	r19, 0x00	; 0
    28a4:	67 ef       	ldi	r22, 0xF7	; 247
    28a6:	79 e0       	ldi	r23, 0x09	; 9
    28a8:	88 e0       	ldi	r24, 0x08	; 8
    28aa:	0e 94 bd 1c 	call	0x397a	; 0x397a <LCD_Display_Text>
    28ae:	4a e0       	ldi	r20, 0x0A	; 10
    28b0:	63 e5       	ldi	r22, 0x53	; 83
    28b2:	75 e0       	ldi	r23, 0x05	; 5
    28b4:	c7 01       	movw	r24, r14
    28b6:	0e 94 be 41 	call	0x837c	; 0x837c <__itoa_ncheck>
		mugui_lcd_puts(itoa(vbat_temp,pBuffer,10),(const unsigned char*)Verdana8,(x_loc + pos1 + pos2 + pos3),y_loc);
    28ba:	a8 01       	movw	r20, r16
    28bc:	4b 0d       	add	r20, r11
    28be:	51 1d       	adc	r21, r1
    28c0:	b7 fc       	sbrc	r11, 7
    28c2:	5a 95       	dec	r21
    28c4:	4c 0d       	add	r20, r12
    28c6:	5d 1d       	adc	r21, r13
    28c8:	26 e2       	ldi	r18, 0x26	; 38
    28ca:	30 e0       	ldi	r19, 0x00	; 0
    28cc:	67 ef       	ldi	r22, 0xF7	; 247
    28ce:	79 e0       	ldi	r23, 0x09	; 9
    28d0:	0e 94 dc 37 	call	0x6fb8	; 0x6fb8 <mugui_lcd_puts>
	}

	// Display error messages
	if (General_error != 0)
    28d4:	80 91 17 05 	lds	r24, 0x0517
    28d8:	88 23       	and	r24, r24
    28da:	09 f4       	brne	.+2      	; 0x28de <Display_status+0x27c>
    28dc:	58 c0       	rjmp	.+176    	; 0x298e <Display_status+0x32c>
	{
		// Create message box
		fillrect(buffer, 14,8, 96, 48, 0);	// White box
    28de:	e1 2c       	mov	r14, r1
    28e0:	00 e3       	ldi	r16, 0x30	; 48
    28e2:	20 e6       	ldi	r18, 0x60	; 96
    28e4:	48 e0       	ldi	r20, 0x08	; 8
    28e6:	6e e0       	ldi	r22, 0x0E	; 14
    28e8:	80 e0       	ldi	r24, 0x00	; 0
    28ea:	91 e0       	ldi	r25, 0x01	; 1
    28ec:	0e 94 d2 1b 	call	0x37a4	; 0x37a4 <fillrect>
		drawrect(buffer, 14,8, 96, 48, 1); 	// Outline
    28f0:	ee 24       	eor	r14, r14
    28f2:	e3 94       	inc	r14
    28f4:	20 e6       	ldi	r18, 0x60	; 96
    28f6:	48 e0       	ldi	r20, 0x08	; 8
    28f8:	6e e0       	ldi	r22, 0x0E	; 14
    28fa:	80 e0       	ldi	r24, 0x00	; 0
    28fc:	91 e0       	ldi	r25, 0x01	; 1
    28fe:	0e 94 fc 1b 	call	0x37f8	; 0x37f8 <drawrect>

		// Prioritise error from top to bottom
		if((General_error & (1 << LVA_ALARM)) != 0)
    2902:	80 91 17 05 	lds	r24, 0x0517
    2906:	83 ff       	sbrs	r24, 3
    2908:	11 c0       	rjmp	.+34     	; 0x292c <Display_status+0x2ca>
		{
			LCD_Display_Text(134,(const unsigned char*)Verdana14,33,14);	// Battery
    290a:	2e e0       	ldi	r18, 0x0E	; 14
    290c:	30 e0       	ldi	r19, 0x00	; 0
    290e:	41 e2       	ldi	r20, 0x21	; 33
    2910:	50 e0       	ldi	r21, 0x00	; 0
    2912:	69 e4       	ldi	r22, 0x49	; 73
    2914:	71 e0       	ldi	r23, 0x01	; 1
    2916:	86 e8       	ldi	r24, 0x86	; 134
    2918:	0e 94 bd 1c 	call	0x397a	; 0x397a <LCD_Display_Text>
			LCD_Display_Text(73,(const unsigned char*)Verdana14,46,34);		// Low
    291c:	22 e2       	ldi	r18, 0x22	; 34
    291e:	30 e0       	ldi	r19, 0x00	; 0
    2920:	4e e2       	ldi	r20, 0x2E	; 46
    2922:	50 e0       	ldi	r21, 0x00	; 0
    2924:	69 e4       	ldi	r22, 0x49	; 73
    2926:	71 e0       	ldi	r23, 0x01	; 1
    2928:	89 e4       	ldi	r24, 0x49	; 73
    292a:	2f c0       	rjmp	.+94     	; 0x298a <Display_status+0x328>
		}
		else if((General_error & (1 << NO_SIGNAL)) != 0)
    292c:	81 ff       	sbrs	r24, 1
    292e:	11 c0       	rjmp	.+34     	; 0x2952 <Display_status+0x2f0>
		{
			LCD_Display_Text(75,(const unsigned char*)Verdana14,51,13); 	// No
    2930:	2d e0       	ldi	r18, 0x0D	; 13
    2932:	30 e0       	ldi	r19, 0x00	; 0
    2934:	43 e3       	ldi	r20, 0x33	; 51
    2936:	50 e0       	ldi	r21, 0x00	; 0
    2938:	69 e4       	ldi	r22, 0x49	; 73
    293a:	71 e0       	ldi	r23, 0x01	; 1
    293c:	8b e4       	ldi	r24, 0x4B	; 75
    293e:	0e 94 bd 1c 	call	0x397a	; 0x397a <LCD_Display_Text>
			LCD_Display_Text(76,(const unsigned char*)Verdana14,39,33);		// Signal
    2942:	21 e2       	ldi	r18, 0x21	; 33
    2944:	30 e0       	ldi	r19, 0x00	; 0
    2946:	47 e2       	ldi	r20, 0x27	; 39
    2948:	50 e0       	ldi	r21, 0x00	; 0
    294a:	69 e4       	ldi	r22, 0x49	; 73
    294c:	71 e0       	ldi	r23, 0x01	; 1
    294e:	8c e4       	ldi	r24, 0x4C	; 76
    2950:	1c c0       	rjmp	.+56     	; 0x298a <Display_status+0x328>
		}
		else if((General_error & (1 << THROTTLE_HIGH)) != 0)
    2952:	80 ff       	sbrs	r24, 0
    2954:	11 c0       	rjmp	.+34     	; 0x2978 <Display_status+0x316>
		{
			LCD_Display_Text(105,(const unsigned char*)Verdana14,28,14);	// Throttle
    2956:	2e e0       	ldi	r18, 0x0E	; 14
    2958:	30 e0       	ldi	r19, 0x00	; 0
    295a:	4c e1       	ldi	r20, 0x1C	; 28
    295c:	50 e0       	ldi	r21, 0x00	; 0
    295e:	69 e4       	ldi	r22, 0x49	; 73
    2960:	71 e0       	ldi	r23, 0x01	; 1
    2962:	89 e6       	ldi	r24, 0x69	; 105
    2964:	0e 94 bd 1c 	call	0x397a	; 0x397a <LCD_Display_Text>
			LCD_Display_Text(55,(const unsigned char*)Verdana14,46,34);		// High
    2968:	22 e2       	ldi	r18, 0x22	; 34
    296a:	30 e0       	ldi	r19, 0x00	; 0
    296c:	4e e2       	ldi	r20, 0x2E	; 46
    296e:	50 e0       	ldi	r21, 0x00	; 0
    2970:	69 e4       	ldi	r22, 0x49	; 73
    2972:	71 e0       	ldi	r23, 0x01	; 1
    2974:	87 e3       	ldi	r24, 0x37	; 55
    2976:	09 c0       	rjmp	.+18     	; 0x298a <Display_status+0x328>
		}
		else if((General_error & (1 << DISARMED)) != 0)
    2978:	82 ff       	sbrs	r24, 2
    297a:	09 c0       	rjmp	.+18     	; 0x298e <Display_status+0x32c>
		{
			LCD_Display_Text(18,(const unsigned char*)Verdana14,25,24); 	// Disarmed
    297c:	28 e1       	ldi	r18, 0x18	; 24
    297e:	30 e0       	ldi	r19, 0x00	; 0
    2980:	49 e1       	ldi	r20, 0x19	; 25
    2982:	50 e0       	ldi	r21, 0x00	; 0
    2984:	69 e4       	ldi	r22, 0x49	; 73
    2986:	71 e0       	ldi	r23, 0x01	; 1
    2988:	82 e1       	ldi	r24, 0x12	; 18
    298a:	0e 94 bd 1c 	call	0x397a	; 0x397a <LCD_Display_Text>
		}
	}

	// Write buffer to complete
	write_buffer(buffer,1);
    298e:	61 e0       	ldi	r22, 0x01	; 1
    2990:	80 e0       	ldi	r24, 0x00	; 0
    2992:	91 e0       	ldi	r25, 0x01	; 1
    2994:	0e 94 e6 1a 	call	0x35cc	; 0x35cc <write_buffer>
	clear_buffer(buffer);
    2998:	80 e0       	ldi	r24, 0x00	; 0
    299a:	91 e0       	ldi	r25, 0x01	; 1
    299c:	0e 94 14 1b 	call	0x3628	; 0x3628 <clear_buffer>
}
    29a0:	24 96       	adiw	r28, 0x04	; 4
    29a2:	e9 e0       	ldi	r30, 0x09	; 9
    29a4:	0c 94 a3 41 	jmp	0x8346	; 0x8346 <__epilogue_restores__+0x12>

000029a8 <Display_sticks>:
//************************************************************
// Code
//************************************************************

void Display_sticks(void)
{
    29a8:	a0 e0       	ldi	r26, 0x00	; 0
    29aa:	b0 e0       	ldi	r27, 0x00	; 0
    29ac:	ea ed       	ldi	r30, 0xDA	; 218
    29ae:	f4 e1       	ldi	r31, 0x14	; 20
    29b0:	0c 94 86 41 	jmp	0x830c	; 0x830c <__prologue_saves__+0x10>
	int8_t	temp_aileron, temp_elevator, temp_rudder;
	bool	CalibrateDone = false;
	bool	CalibrateStarted = false;

	// Save original settings in case user aborts
	temp_aileron = Config.AileronPol;
    29b4:	c0 90 d2 05 	lds	r12, 0x05D2
	temp_elevator = Config.ElevatorPol;
    29b8:	d0 90 d3 05 	lds	r13, 0x05D3
	temp_rudder = Config.RudderPol;
    29bc:	f0 90 d4 05 	lds	r15, 0x05D4

	// Reset to defaults - not ideal, but it works
	Config.AileronPol = NORMAL;
    29c0:	10 92 d2 05 	sts	0x05D2, r1
	Config.ElevatorPol =  NORMAL;
    29c4:	10 92 d3 05 	sts	0x05D3, r1
	Config.RudderPol = NORMAL;
    29c8:	10 92 d4 05 	sts	0x05D4, r1
{
	int8_t	i;
	int8_t	offset;
	int8_t	temp_aileron, temp_elevator, temp_rudder;
	bool	CalibrateDone = false;
	bool	CalibrateStarted = false;
    29cc:	10 e0       	ldi	r17, 0x00	; 0
void Display_sticks(void)
{
	int8_t	i;
	int8_t	offset;
	int8_t	temp_aileron, temp_elevator, temp_rudder;
	bool	CalibrateDone = false;
    29ce:	d0 e0       	ldi	r29, 0x00	; 0
	Config.AileronPol = NORMAL;
	Config.ElevatorPol =  NORMAL;
	Config.RudderPol = NORMAL;

	// Until exit button pressed or complete
	while((BUTTON1 != 0) && (!CalibrateDone))
    29d0:	1f 9b       	sbis	0x03, 7	; 3
    29d2:	98 c0       	rjmp	.+304    	; 0x2b04 <Display_sticks+0x15c>
    29d4:	d1 11       	cpse	r29, r1
    29d6:	98 c0       	rjmp	.+304    	; 0x2b08 <Display_sticks+0x160>
	{
		// Draw first stick on the left
		offset = 0;

		// Clear screen buffer
		clear_buffer(buffer);
    29d8:	80 e0       	ldi	r24, 0x00	; 0
    29da:	91 e0       	ldi	r25, 0x01	; 1
    29dc:	0e 94 14 1b 	call	0x3628	; 0x3628 <clear_buffer>
    29e0:	92 e0       	ldi	r25, 0x02	; 2
    29e2:	b9 2e       	mov	r11, r25

	// Until exit button pressed or complete
	while((BUTTON1 != 0) && (!CalibrateDone))
	{
		// Draw first stick on the left
		offset = 0;
    29e4:	c0 e0       	ldi	r28, 0x00	; 0
		clear_buffer(buffer);

		// Draw graphic
		for (i = 0; i < 2; i++)
		{
			drawrect(buffer, 17 + offset, 0, 40, 40, 1);			// Box
    29e6:	61 e1       	ldi	r22, 0x11	; 17
    29e8:	6c 0f       	add	r22, r28
    29ea:	ee 24       	eor	r14, r14
    29ec:	e3 94       	inc	r14
    29ee:	08 e2       	ldi	r16, 0x28	; 40
    29f0:	28 e2       	ldi	r18, 0x28	; 40
    29f2:	40 e0       	ldi	r20, 0x00	; 0
    29f4:	80 e0       	ldi	r24, 0x00	; 0
    29f6:	91 e0       	ldi	r25, 0x01	; 1
    29f8:	0e 94 fc 1b 	call	0x37f8	; 0x37f8 <drawrect>
			drawline(buffer, 38 + offset,20, 48 + offset,  3, 1); 	// Line 1
    29fc:	86 e2       	ldi	r24, 0x26	; 38
    29fe:	a8 2e       	mov	r10, r24
    2a00:	ac 0e       	add	r10, r28
    2a02:	20 e3       	ldi	r18, 0x30	; 48
    2a04:	2c 0f       	add	r18, r28
    2a06:	03 e0       	ldi	r16, 0x03	; 3
    2a08:	44 e1       	ldi	r20, 0x14	; 20
    2a0a:	6a 2d       	mov	r22, r10
    2a0c:	80 e0       	ldi	r24, 0x00	; 0
    2a0e:	91 e0       	ldi	r25, 0x01	; 1
    2a10:	0e 94 74 1b 	call	0x36e8	; 0x36e8 <drawline>
			drawline(buffer, 41 + offset,21, 56 + offset,  6, 1); 	// Line 2
    2a14:	28 e3       	ldi	r18, 0x38	; 56
    2a16:	2c 0f       	add	r18, r28
    2a18:	69 e2       	ldi	r22, 0x29	; 41
    2a1a:	6c 0f       	add	r22, r28
    2a1c:	06 e0       	ldi	r16, 0x06	; 6
    2a1e:	45 e1       	ldi	r20, 0x15	; 21
    2a20:	80 e0       	ldi	r24, 0x00	; 0
    2a22:	91 e0       	ldi	r25, 0x01	; 1
    2a24:	0e 94 74 1b 	call	0x36e8	; 0x36e8 <drawline>
			fillcircle(buffer, 38 + offset, 21, 2, 1);				// Center
    2a28:	01 e0       	ldi	r16, 0x01	; 1
    2a2a:	22 e0       	ldi	r18, 0x02	; 2
    2a2c:	45 e1       	ldi	r20, 0x15	; 21
    2a2e:	6a 2d       	mov	r22, r10
    2a30:	80 e0       	ldi	r24, 0x00	; 0
    2a32:	91 e0       	ldi	r25, 0x01	; 1
    2a34:	0e 94 42 1c 	call	0x3884	; 0x3884 <fillcircle>
			fillcircle(buffer, 51 + offset, 5, 4, 1);				// End
    2a38:	63 e3       	ldi	r22, 0x33	; 51
    2a3a:	6c 0f       	add	r22, r28
    2a3c:	24 e0       	ldi	r18, 0x04	; 4
    2a3e:	45 e0       	ldi	r20, 0x05	; 5
    2a40:	80 e0       	ldi	r24, 0x00	; 0
    2a42:	91 e0       	ldi	r25, 0x01	; 1
    2a44:	0e 94 42 1c 	call	0x3884	; 0x3884 <fillcircle>
    2a48:	ba 94       	dec	r11

		// Clear screen buffer
		clear_buffer(buffer);

		// Draw graphic
		for (i = 0; i < 2; i++)
    2a4a:	11 f0       	breq	.+4      	; 0x2a50 <Display_sticks+0xa8>
			drawline(buffer, 41 + offset,21, 56 + offset,  6, 1); 	// Line 2
			fillcircle(buffer, 38 + offset, 21, 2, 1);				// Center
			fillcircle(buffer, 51 + offset, 5, 4, 1);				// End

			// Draw second stick on the right
			offset = 52;
    2a4c:	c4 e3       	ldi	r28, 0x34	; 52
    2a4e:	cb cf       	rjmp	.-106    	; 0x29e6 <Display_sticks+0x3e>
		}

		// Print bottom text and markers
		LCD_Display_Text(12, (const unsigned char*)Wingdings, 0, 57); 		// Left
    2a50:	29 e3       	ldi	r18, 0x39	; 57
    2a52:	30 e0       	ldi	r19, 0x00	; 0
    2a54:	40 e0       	ldi	r20, 0x00	; 0
    2a56:	50 e0       	ldi	r21, 0x00	; 0
    2a58:	6f ed       	ldi	r22, 0xDF	; 223
    2a5a:	70 e0       	ldi	r23, 0x00	; 0
    2a5c:	8c e0       	ldi	r24, 0x0C	; 12
    2a5e:	0e 94 bd 1c 	call	0x397a	; 0x397a <LCD_Display_Text>

		// If uncalibrated
		if (!CalibrateDone)
		{
			RxGetChannels();
    2a62:	0e 94 18 3c 	call	0x7830	; 0x7830 <RxGetChannels>
			
			// Display warning if sticks not centered or no RC signal while not started calibrating
			if (((RCinputs[AILERON] < -2000) || (RCinputs[AILERON] > 2000)) && !CalibrateStarted)
    2a66:	80 91 d8 07 	lds	r24, 0x07D8
    2a6a:	90 91 d9 07 	lds	r25, 0x07D9
    2a6e:	9c 01       	movw	r18, r24
    2a70:	20 53       	subi	r18, 0x30	; 48
    2a72:	38 4f       	sbci	r19, 0xF8	; 248
    2a74:	21 3a       	cpi	r18, 0xA1	; 161
    2a76:	3f 40       	sbci	r19, 0x0F	; 15
    2a78:	60 f0       	brcs	.+24     	; 0x2a92 <Display_sticks+0xea>
    2a7a:	11 11       	cpse	r17, r1
    2a7c:	0a c0       	rjmp	.+20     	; 0x2a92 <Display_sticks+0xea>
			{
				LCD_Display_Text(135,(const unsigned char*)Verdana14,16,43); 	// "No RX signal?"
    2a7e:	2b e2       	ldi	r18, 0x2B	; 43
    2a80:	30 e0       	ldi	r19, 0x00	; 0
    2a82:	40 e1       	ldi	r20, 0x10	; 16
    2a84:	50 e0       	ldi	r21, 0x00	; 0
    2a86:	69 e4       	ldi	r22, 0x49	; 73
    2a88:	71 e0       	ldi	r23, 0x01	; 1
    2a8a:	87 e8       	ldi	r24, 0x87	; 135
    2a8c:	0e 94 bd 1c 	call	0x397a	; 0x397a <LCD_Display_Text>
    2a90:	33 c0       	rjmp	.+102    	; 0x2af8 <Display_sticks+0x150>
			}

			// Sticks have not moved far enough but RC being received
			else if ((RCinputs[AILERON] < 500) && (RCinputs[AILERON] > -500))
    2a92:	9c 01       	movw	r18, r24
    2a94:	2d 50       	subi	r18, 0x0D	; 13
    2a96:	3e 4f       	sbci	r19, 0xFE	; 254
    2a98:	27 3e       	cpi	r18, 0xE7	; 231
    2a9a:	33 40       	sbci	r19, 0x03	; 3
    2a9c:	58 f4       	brcc	.+22     	; 0x2ab4 <Display_sticks+0x10c>
			{
				CalibrateStarted = true;
				LCD_Display_Text(136,(const unsigned char*)Verdana14,9,43); 	// "Hold as shown"
    2a9e:	2b e2       	ldi	r18, 0x2B	; 43
    2aa0:	30 e0       	ldi	r19, 0x00	; 0
    2aa2:	49 e0       	ldi	r20, 0x09	; 9
    2aa4:	50 e0       	ldi	r21, 0x00	; 0
    2aa6:	69 e4       	ldi	r22, 0x49	; 73
    2aa8:	71 e0       	ldi	r23, 0x01	; 1
    2aaa:	88 e8       	ldi	r24, 0x88	; 136
    2aac:	0e 94 bd 1c 	call	0x397a	; 0x397a <LCD_Display_Text>
			}

			// Sticks have not moved far enough but RC being received
			else if ((RCinputs[AILERON] < 500) && (RCinputs[AILERON] > -500))
			{
				CalibrateStarted = true;
    2ab0:	11 e0       	ldi	r17, 0x01	; 1
    2ab2:	22 c0       	rjmp	.+68     	; 0x2af8 <Display_sticks+0x150>

			// Sticks should now be in the right position
			// Reverse wrong input channels
			else
			{
				if (RCinputs[AILERON] < 0)
    2ab4:	97 ff       	sbrs	r25, 7
    2ab6:	03 c0       	rjmp	.+6      	; 0x2abe <Display_sticks+0x116>
				{
					Config.AileronPol = REVERSED;
    2ab8:	21 e0       	ldi	r18, 0x01	; 1
    2aba:	20 93 d2 05 	sts	0x05D2, r18
				}

				if (RCinputs[ELEVATOR] < 0)
    2abe:	40 91 da 07 	lds	r20, 0x07DA
    2ac2:	50 91 db 07 	lds	r21, 0x07DB
    2ac6:	57 ff       	sbrs	r21, 7
    2ac8:	03 c0       	rjmp	.+6      	; 0x2ad0 <Display_sticks+0x128>
				{
					Config.ElevatorPol = REVERSED;
    2aca:	21 e0       	ldi	r18, 0x01	; 1
    2acc:	20 93 d3 05 	sts	0x05D3, r18
				}

				if (RCinputs[RUDDER] < 0)
    2ad0:	20 91 dc 07 	lds	r18, 0x07DC
    2ad4:	30 91 dd 07 	lds	r19, 0x07DD
    2ad8:	37 ff       	sbrs	r19, 7
    2ada:	03 c0       	rjmp	.+6      	; 0x2ae2 <Display_sticks+0x13a>
				{
					Config.RudderPol = REVERSED;
    2adc:	61 e0       	ldi	r22, 0x01	; 1
    2ade:	60 93 d4 05 	sts	0x05D4, r22
				}

				// If all positive - done!
				if ((RCinputs[AILERON] > 0) && (RCinputs[ELEVATOR] > 0) && (RCinputs[RUDDER] > 0))
    2ae2:	18 16       	cp	r1, r24
    2ae4:	19 06       	cpc	r1, r25
    2ae6:	44 f4       	brge	.+16     	; 0x2af8 <Display_sticks+0x150>
    2ae8:	14 16       	cp	r1, r20
    2aea:	15 06       	cpc	r1, r21
    2aec:	2c f4       	brge	.+10     	; 0x2af8 <Display_sticks+0x150>
    2aee:	d1 e0       	ldi	r29, 0x01	; 1
    2af0:	12 16       	cp	r1, r18
    2af2:	13 06       	cpc	r1, r19
    2af4:	0c f0       	brlt	.+2      	; 0x2af8 <Display_sticks+0x150>
    2af6:	d0 e0       	ldi	r29, 0x00	; 0
				}
			}
		}

		// Update buffer
		write_buffer(buffer,1);
    2af8:	61 e0       	ldi	r22, 0x01	; 1
    2afa:	80 e0       	ldi	r24, 0x00	; 0
    2afc:	91 e0       	ldi	r25, 0x01	; 1
    2afe:	0e 94 e6 1a 	call	0x35cc	; 0x35cc <write_buffer>
    2b02:	66 cf       	rjmp	.-308    	; 0x29d0 <Display_sticks+0x28>
	}

	// Save value and return
	if (CalibrateDone)
    2b04:	dd 23       	and	r29, r29
    2b06:	f1 f0       	breq	.+60     	; 0x2b44 <Display_sticks+0x19c>
	{
		// We are too poor to have this tiny feature in KK2.0
#ifdef KK21
		LCD_Display_Text(137,(const unsigned char*)Verdana14,40,43); 	// "Done!"
    2b08:	2b e2       	ldi	r18, 0x2B	; 43
    2b0a:	30 e0       	ldi	r19, 0x00	; 0
    2b0c:	48 e2       	ldi	r20, 0x28	; 40
    2b0e:	50 e0       	ldi	r21, 0x00	; 0
    2b10:	69 e4       	ldi	r22, 0x49	; 73
    2b12:	71 e0       	ldi	r23, 0x01	; 1
    2b14:	89 e8       	ldi	r24, 0x89	; 137
    2b16:	0e 94 bd 1c 	call	0x397a	; 0x397a <LCD_Display_Text>
		// Update buffer
		write_buffer(buffer,1);
    2b1a:	61 e0       	ldi	r22, 0x01	; 1
    2b1c:	80 e0       	ldi	r24, 0x00	; 0
    2b1e:	91 e0       	ldi	r25, 0x01	; 1
    2b20:	0e 94 e6 1a 	call	0x35cc	; 0x35cc <write_buffer>
		clear_buffer(buffer);
    2b24:	80 e0       	ldi	r24, 0x00	; 0
    2b26:	91 e0       	ldi	r25, 0x01	; 1
    2b28:	0e 94 14 1b 	call	0x3628	; 0x3628 <clear_buffer>
    2b2c:	8f e7       	ldi	r24, 0x7F	; 127
    2b2e:	94 e8       	ldi	r25, 0x84	; 132
    2b30:	2e e1       	ldi	r18, 0x1E	; 30
    2b32:	81 50       	subi	r24, 0x01	; 1
    2b34:	90 40       	sbci	r25, 0x00	; 0
    2b36:	20 40       	sbci	r18, 0x00	; 0
    2b38:	e1 f7       	brne	.-8      	; 0x2b32 <Display_sticks+0x18a>
    2b3a:	00 c0       	rjmp	.+0      	; 0x2b3c <Display_sticks+0x194>
    2b3c:	00 00       	nop
		// Pause so that the "Done!" text is readable
		_delay_ms(500);
#endif			
		Save_Config_to_EEPROM();
    2b3e:	0e 94 8c 16 	call	0x2d18	; 0x2d18 <Save_Config_to_EEPROM>
    2b42:	06 c0       	rjmp	.+12     	; 0x2b50 <Display_sticks+0x1a8>
 	}
	else
	{
		// Restore old settings if failed
		Config.AileronPol = temp_aileron;
    2b44:	c0 92 d2 05 	sts	0x05D2, r12
		Config.ElevatorPol = temp_elevator;
    2b48:	d0 92 d3 05 	sts	0x05D3, r13
		Config.RudderPol = temp_rudder;
    2b4c:	f0 92 d4 05 	sts	0x05D4, r15
	}
}
    2b50:	cd b7       	in	r28, 0x3d	; 61
    2b52:	de b7       	in	r29, 0x3e	; 62
    2b54:	ea e0       	ldi	r30, 0x0A	; 10
    2b56:	0c 94 a2 41 	jmp	0x8344	; 0x8344 <__epilogue_restores__+0x10>

00002b5a <Set_EEPROM_Default_Config>:

const uint8_t	JR[MAX_RC_CHANNELS] PROGMEM 	= {0,1,2,3,4,5,6,7}; 	// JR/Spektrum channel sequence (TAERG123)
const uint8_t	FUTABA[MAX_RC_CHANNELS] PROGMEM = {1,2,0,3,4,5,6,7}; 	// Futaba channel sequence (AETRGF12)

void Set_EEPROM_Default_Config(void)
{
    2b5a:	cf 93       	push	r28
    2b5c:	df 93       	push	r29
	uint8_t i;
	
	// Clear entire Config space first
	memset(&Config.setup,0,(sizeof(Config)));
    2b5e:	80 ec       	ldi	r24, 0xC0	; 192
    2b60:	91 e0       	ldi	r25, 0x01	; 1
    2b62:	e5 ea       	ldi	r30, 0xA5	; 165
    2b64:	f5 e0       	ldi	r31, 0x05	; 5
    2b66:	df 01       	movw	r26, r30
    2b68:	9c 01       	movw	r18, r24
    2b6a:	1d 92       	st	X+, r1
    2b6c:	21 50       	subi	r18, 0x01	; 1
    2b6e:	30 40       	sbci	r19, 0x00	; 0
    2b70:	e1 f7       	brne	.-8      	; 0x2b6a <Set_EEPROM_Default_Config+0x10>

	// Set magic number / setup byte
	Config.setup = MAGIC_NUMBER;
    2b72:	85 e3       	ldi	r24, 0x35	; 53
    2b74:	80 93 a5 05 	sts	0x05A5, r24

	// Misc settings
	Config.RxMode = PWM;				// Default to PWM
    2b78:	81 e0       	ldi	r24, 0x01	; 1
    2b7a:	80 93 ce 05 	sts	0x05CE, r24
	Config.PWM_Sync = GEAR;
    2b7e:	84 e0       	ldi	r24, 0x04	; 4
    2b80:	80 93 cf 05 	sts	0x05CF, r24
	Config.Acc_LPF = 2;					// Acc LPF around 21Hz (5, 10, 21, 32, 44, 74, None)
    2b84:	92 e0       	ldi	r25, 0x02	; 2
    2b86:	90 93 33 06 	sts	0x0633, r25
	Config.Gyro_LPF = 6;				// Gyro LPF off "None" (5, 10, 21, 32, 44, 74, None)
    2b8a:	96 e0       	ldi	r25, 0x06	; 6
    2b8c:	90 93 34 06 	sts	0x0634, r25
	Config.CF_factor = 7;
    2b90:	97 e0       	ldi	r25, 0x07	; 7
    2b92:	90 93 35 06 	sts	0x0635, r25
	Config.FlightChan = GEAR;			// Channel GEAR switches flight mode by default
    2b96:	80 93 d1 05 	sts	0x05D1, r24
	Config.Disarm_timer = 30;			// Default to 30 seconds
    2b9a:	8e e1       	ldi	r24, 0x1E	; 30
    2b9c:	80 93 30 06 	sts	0x0630, r24
	Config.Transition_P1n = 50;			// Set P1.n point to 50%
    2ba0:	82 e3       	ldi	r24, 0x32	; 50
    2ba2:	80 93 d6 05 	sts	0x05D6, r24
    2ba6:	ee ec       	ldi	r30, 0xCE	; 206
    2ba8:	f0 e0       	ldi	r31, 0x00	; 0
    2baa:	c6 ea       	ldi	r28, 0xA6	; 166
    2bac:	d5 e0       	ldi	r29, 0x05	; 5
    2bae:	a7 e3       	ldi	r26, 0x37	; 55
    2bb0:	b7 e0       	ldi	r27, 0x07	; 7

	// Servo defaults
	for (i = 0; i < MAX_RC_CHANNELS; i++)
	{
		Config.ChannelOrder[i] = pgm_read_byte(&JR[i]);
		Config.RxChannelZeroOffset[i] = 3750;
    2bb2:	86 ea       	ldi	r24, 0xA6	; 166
    2bb4:	9e e0       	ldi	r25, 0x0E	; 14
	Config.Transition_P1n = 50;			// Set P1.n point to 50%

	// Servo defaults
	for (i = 0; i < MAX_RC_CHANNELS; i++)
	{
		Config.ChannelOrder[i] = pgm_read_byte(&JR[i]);
    2bb6:	24 91       	lpm	r18, Z
    2bb8:	29 93       	st	Y+, r18
		Config.RxChannelZeroOffset[i] = 3750;
    2bba:	8d 93       	st	X+, r24
    2bbc:	9d 93       	st	X+, r25
    2bbe:	31 96       	adiw	r30, 0x01	; 1
	Config.FlightChan = GEAR;			// Channel GEAR switches flight mode by default
	Config.Disarm_timer = 30;			// Default to 30 seconds
	Config.Transition_P1n = 50;			// Set P1.n point to 50%

	// Servo defaults
	for (i = 0; i < MAX_RC_CHANNELS; i++)
    2bc0:	30 e0       	ldi	r19, 0x00	; 0
    2bc2:	e6 3d       	cpi	r30, 0xD6	; 214
    2bc4:	f3 07       	cpc	r31, r19
    2bc6:	b9 f7       	brne	.-18     	; 0x2bb6 <Set_EEPROM_Default_Config+0x5c>
		Config.ChannelOrder[i] = pgm_read_byte(&JR[i]);
		Config.RxChannelZeroOffset[i] = 3750;
	}
		
	// Monopolar throttle is a special case. Set to -100% or -1000
	Config.RxChannelZeroOffset[THROTTLE] = 2750;
    2bc8:	8e eb       	ldi	r24, 0xBE	; 190
    2bca:	9a e0       	ldi	r25, 0x0A	; 10
    2bcc:	90 93 38 07 	sts	0x0738, r25
    2bd0:	80 93 37 07 	sts	0x0737, r24
    2bd4:	e2 e5       	ldi	r30, 0x52	; 82
    2bd6:	f6 e0       	ldi	r31, 0x06	; 6
    2bd8:	c7 e2       	ldi	r28, 0x27	; 39
    2bda:	d7 e0       	ldi	r29, 0x07	; 7
    2bdc:	6f e2       	ldi	r22, 0x2F	; 47
    2bde:	77 e0       	ldi	r23, 0x07	; 7

	// Preset mixers to safe values
	for (i = 0; i < MAX_OUTPUTS; i++)
	{
		Config.Channel[i].P1n_position	= 50;
    2be0:	52 e3       	ldi	r21, 0x32	; 50
		Config.Channel[i].P1_source_a 	= NOMIX;
    2be2:	2d e0       	ldi	r18, 0x0D	; 13
		Config.Channel[i].P1_source_b 	= NOMIX;
		Config.Channel[i].P2_source_a 	= NOMIX;
		Config.Channel[i].P2_source_b 	= NOMIX;
		Config.min_travel[i] = -100;
    2be4:	4c e9       	ldi	r20, 0x9C	; 156
		Config.max_travel[i] = 100;
    2be6:	34 e6       	ldi	r19, 0x64	; 100
    2be8:	cf 01       	movw	r24, r30
    2bea:	46 97       	sbiw	r24, 0x16	; 22
	Config.RxChannelZeroOffset[THROTTLE] = 2750;

	// Preset mixers to safe values
	for (i = 0; i < MAX_OUTPUTS; i++)
	{
		Config.Channel[i].P1n_position	= 50;
    2bec:	dc 01       	movw	r26, r24
    2bee:	5c 93       	st	X, r21
    2bf0:	40 96       	adiw	r24, 0x10	; 16
		Config.Channel[i].P1_source_a 	= NOMIX;
    2bf2:	dc 01       	movw	r26, r24
    2bf4:	2c 93       	st	X, r18
    2bf6:	04 96       	adiw	r24, 0x04	; 4
		Config.Channel[i].P1_source_b 	= NOMIX;
    2bf8:	dc 01       	movw	r26, r24
    2bfa:	2c 93       	st	X, r18
    2bfc:	02 97       	sbiw	r24, 0x02	; 2
		Config.Channel[i].P2_source_a 	= NOMIX;
    2bfe:	dc 01       	movw	r26, r24
    2c00:	2c 93       	st	X, r18
		Config.Channel[i].P2_source_b 	= NOMIX;
    2c02:	20 83       	st	Z, r18
		Config.min_travel[i] = -100;
    2c04:	49 93       	st	Y+, r20
		Config.max_travel[i] = 100;
    2c06:	84 e6       	ldi	r24, 0x64	; 100
    2c08:	db 01       	movw	r26, r22
    2c0a:	3d 93       	st	X+, r19
    2c0c:	bd 01       	movw	r22, r26
    2c0e:	7d 96       	adiw	r30, 0x1d	; 29
		
	// Monopolar throttle is a special case. Set to -100% or -1000
	Config.RxChannelZeroOffset[THROTTLE] = 2750;

	// Preset mixers to safe values
	for (i = 0; i < MAX_OUTPUTS; i++)
    2c10:	b7 e0       	ldi	r27, 0x07	; 7
    2c12:	ea 33       	cpi	r30, 0x3A	; 58
    2c14:	fb 07       	cpc	r31, r27
    2c16:	41 f7       	brne	.-48     	; 0x2be8 <Set_EEPROM_Default_Config+0x8e>
		Config.min_travel[i] = -100;
		Config.max_travel[i] = 100;
	}

	// Preset simple mixing for primary channels - all models
	Config.Channel[OUT1].P1_throttle_volume = 100;
    2c18:	80 93 3f 06 	sts	0x063F, r24
	Config.Channel[OUT2].P1_aileron_volume = 100;
    2c1c:	80 93 5f 06 	sts	0x065F, r24
	Config.Channel[OUT3].P1_elevator_volume = 100;
    2c20:	80 93 7e 06 	sts	0x067E, r24
	Config.Channel[OUT4].P1_rudder_volume = 100;
    2c24:	80 93 9d 06 	sts	0x069D, r24
	
	// Set up profile 1
	Config.FlightMode[P1].Roll_P_mult = 60;			// PID defaults
    2c28:	2c e3       	ldi	r18, 0x3C	; 60
    2c2a:	20 93 d7 05 	sts	0x05D7, r18
	Config.FlightMode[P1].A_Roll_P_mult = 5;
    2c2e:	95 e0       	ldi	r25, 0x05	; 5
    2c30:	90 93 db 05 	sts	0x05DB, r25
	Config.FlightMode[P1].Pitch_P_mult = 60;
    2c34:	20 93 dd 05 	sts	0x05DD, r18
	Config.FlightMode[P1].A_Pitch_P_mult = 5;
    2c38:	90 93 e1 05 	sts	0x05E1, r25
	Config.FlightMode[P1].Yaw_P_mult = 80;
    2c3c:	90 e5       	ldi	r25, 0x50	; 80
    2c3e:	90 93 e3 05 	sts	0x05E3, r25
	
	// KK2.1-specific setup
#ifdef KK21
	Config.Channel[OUT1].P2_throttle_volume = 100;
    2c42:	80 93 40 06 	sts	0x0640, r24
	Config.Channel[OUT2].P2_aileron_volume = 100;
    2c46:	80 93 60 06 	sts	0x0660, r24
	Config.Channel[OUT3].P2_elevator_volume = 100;
    2c4a:	80 93 7f 06 	sts	0x067F, r24
	Config.Channel[OUT4].P2_rudder_volume = 100;
    2c4e:	80 93 9e 06 	sts	0x069E, r24

	// Preset basic axis gyros in P2
	Config.Channel[OUT2].P2_sensors |= (1 << RollGyro);
    2c52:	80 91 66 06 	lds	r24, 0x0666
    2c56:	81 60       	ori	r24, 0x01	; 1
    2c58:	80 93 66 06 	sts	0x0666, r24
	Config.Channel[OUT3].P2_sensors |= (1 << PitchGyro);
    2c5c:	80 91 83 06 	lds	r24, 0x0683
    2c60:	82 60       	ori	r24, 0x02	; 2
    2c62:	80 93 83 06 	sts	0x0683, r24
	Config.Channel[OUT4].P2_sensors |= (1 << YawGyro);
    2c66:	80 91 a0 06 	lds	r24, 0x06A0
    2c6a:	84 60       	ori	r24, 0x04	; 4
    2c6c:	80 93 a0 06 	sts	0x06A0, r24

	Config.FlightMode[P1].Roll_I_mult = 40;
    2c70:	98 e2       	ldi	r25, 0x28	; 40
    2c72:	90 93 d8 05 	sts	0x05D8, r25
	Config.FlightMode[P1].Roll_limit = 10;
    2c76:	8a e0       	ldi	r24, 0x0A	; 10
    2c78:	80 93 d9 05 	sts	0x05D9, r24
	Config.FlightMode[P1].Pitch_I_mult = 40;
    2c7c:	90 93 de 05 	sts	0x05DE, r25
	Config.FlightMode[P1].Pitch_limit = 10;
    2c80:	80 93 df 05 	sts	0x05DF, r24
	Config.FlightMode[P1].Roll_Rate = 2;
    2c84:	82 e0       	ldi	r24, 0x02	; 2
    2c86:	80 93 da 05 	sts	0x05DA, r24
	Config.FlightMode[P1].Pitch_Rate = 2;
    2c8a:	80 93 e0 05 	sts	0x05E0, r24
	Config.FlightMode[P1].Yaw_Rate = 1;
    2c8e:	91 e0       	ldi	r25, 0x01	; 1
    2c90:	90 93 e6 05 	sts	0x05E6, r25
	
	// Set up profile 2
	Config.FlightMode[P2].Roll_Rate = 2;
    2c94:	80 93 ec 05 	sts	0x05EC, r24
	Config.FlightMode[P2].Pitch_Rate = 2;
    2c98:	80 93 f2 05 	sts	0x05F2, r24
	Config.FlightMode[P2].Yaw_Rate = 1;
    2c9c:	90 93 f8 05 	sts	0x05F8, r25
	
	// Set default sensor LPF
	Config.MPU6050_LPF = 2;				// 6 - 2 = 4. MPU6050's internal LPF. Values are 0x06 = 5Hz, (5)10Hz, (4)21Hz*, (3)44Hz, (2)94Hz, (1)184Hz LPF, (0)260Hz
    2ca0:	80 93 36 06 	sts	0x0636, r24

	// Preset AccZeroNormZ for KK2.1
	Config.AccZeroNormZ		= 128;	
    2ca4:	80 e8       	ldi	r24, 0x80	; 128
    2ca6:	90 e0       	ldi	r25, 0x00	; 0
    2ca8:	90 93 4e 07 	sts	0x074E, r25
    2cac:	80 93 4d 07 	sts	0x074D, r24
	// Preset AccZeroNormZ for KK2.0
	Config.AccZeroNormZ		= 765;
#endif

#ifdef KK2Mini
	Config.Contrast = 30;				// Contrast (KK2 Mini)
    2cb0:	8e e1       	ldi	r24, 0x1E	; 30
    2cb2:	80 93 2e 06 	sts	0x062E, r24
#else
	Config.Contrast = 36;				// Contrast (Everything else)
#endif	
}
    2cb6:	df 91       	pop	r29
    2cb8:	cf 91       	pop	r28
    2cba:	08 95       	ret

00002cbc <eeprom_write_byte_changed>:
	eeprom_write_block_changes((const void*) &Config, (void*) EEPROM_DATA_START_POS, sizeof(CONFIG_STRUCT));	
	sei();
}

void eeprom_write_byte_changed( uint8_t * addr, uint8_t value )
{ 
    2cbc:	a1 e0       	ldi	r26, 0x01	; 1
    2cbe:	b0 e0       	ldi	r27, 0x00	; 0
    2cc0:	e4 e6       	ldi	r30, 0x64	; 100
    2cc2:	f6 e1       	ldi	r31, 0x16	; 22
    2cc4:	0c 94 8c 41 	jmp	0x8318	; 0x8318 <__prologue_saves__+0x1c>
    2cc8:	8c 01       	movw	r16, r24
	if(eeprom_read_byte(addr) != value)
    2cca:	69 83       	std	Y+1, r22	; 0x01
    2ccc:	0e 94 f3 41 	call	0x83e6	; 0x83e6 <__eerd_byte_m644p>
    2cd0:	69 81       	ldd	r22, Y+1	; 0x01
    2cd2:	86 17       	cp	r24, r22
    2cd4:	19 f0       	breq	.+6      	; 0x2cdc <eeprom_write_byte_changed+0x20>
	{
		eeprom_write_byte( addr, value );
    2cd6:	c8 01       	movw	r24, r16
    2cd8:	0e 94 fb 41 	call	0x83f6	; 0x83f6 <__eewr_byte_m644p>
	}
}
    2cdc:	21 96       	adiw	r28, 0x01	; 1
    2cde:	e4 e0       	ldi	r30, 0x04	; 4
    2ce0:	0c 94 a8 41 	jmp	0x8350	; 0x8350 <__epilogue_restores__+0x1c>

00002ce4 <eeprom_write_block_changes>:

void eeprom_write_block_changes( const uint8_t * src, void * dest, uint16_t size )
{ 
    2ce4:	ef 92       	push	r14
    2ce6:	ff 92       	push	r15
    2ce8:	0f 93       	push	r16
    2cea:	1f 93       	push	r17
    2cec:	cf 93       	push	r28
    2cee:	df 93       	push	r29
    2cf0:	ec 01       	movw	r28, r24
    2cf2:	8b 01       	movw	r16, r22
    2cf4:	7a 01       	movw	r14, r20
    2cf6:	e8 0e       	add	r14, r24
    2cf8:	f9 1e       	adc	r15, r25
	uint16_t len;

	for(len=0;len<size;len++)
    2cfa:	ce 15       	cp	r28, r14
    2cfc:	df 05       	cpc	r29, r15
    2cfe:	39 f0       	breq	.+14     	; 0x2d0e <eeprom_write_block_changes+0x2a>
	{
		eeprom_write_byte_changed( dest, *src );
    2d00:	69 91       	ld	r22, Y+
    2d02:	c8 01       	movw	r24, r16
    2d04:	0e 94 5e 16 	call	0x2cbc	; 0x2cbc <eeprom_write_byte_changed>
		src++;
		dest++;
    2d08:	0f 5f       	subi	r16, 0xFF	; 255
    2d0a:	1f 4f       	sbci	r17, 0xFF	; 255
    2d0c:	f6 cf       	rjmp	.-20     	; 0x2cfa <eeprom_write_block_changes+0x16>
	}
}
    2d0e:	cd b7       	in	r28, 0x3d	; 61
    2d10:	de b7       	in	r29, 0x3e	; 62
    2d12:	e6 e0       	ldi	r30, 0x06	; 6
    2d14:	0c 94 a6 41 	jmp	0x834c	; 0x834c <__epilogue_restores__+0x18>

00002d18 <Save_Config_to_EEPROM>:
}

void Save_Config_to_EEPROM(void)
{
	// Write to eeProm
	cli();
    2d18:	f8 94       	cli
	eeprom_write_block_changes((const void*) &Config, (void*) EEPROM_DATA_START_POS, sizeof(CONFIG_STRUCT));	
    2d1a:	40 ec       	ldi	r20, 0xC0	; 192
    2d1c:	51 e0       	ldi	r21, 0x01	; 1
    2d1e:	60 e0       	ldi	r22, 0x00	; 0
    2d20:	70 e0       	ldi	r23, 0x00	; 0
    2d22:	85 ea       	ldi	r24, 0xA5	; 165
    2d24:	95 e0       	ldi	r25, 0x05	; 5
    2d26:	0e 94 72 16 	call	0x2ce4	; 0x2ce4 <eeprom_write_block_changes>
	sei();
    2d2a:	78 94       	sei
    2d2c:	08 95       	ret

00002d2e <Initial_EEPROM_Config_Load>:
}

void Initial_EEPROM_Config_Load(void)
{
	// Load last settings from EEPROM
	if(eeprom_read_byte((uint8_t*) EEPROM_DATA_START_POS )!= MAGIC_NUMBER)
    2d2e:	80 e0       	ldi	r24, 0x00	; 0
    2d30:	90 e0       	ldi	r25, 0x00	; 0
    2d32:	0e 94 f3 41 	call	0x83e6	; 0x83e6 <__eerd_byte_m644p>
    2d36:	85 33       	cpi	r24, 0x35	; 53
    2d38:	29 f0       	breq	.+10     	; 0x2d44 <Initial_EEPROM_Config_Load+0x16>
	{
		Set_EEPROM_Default_Config();
    2d3a:	0e 94 ad 15 	call	0x2b5a	; 0x2b5a <Set_EEPROM_Default_Config>
		// Write to eeProm
		Save_Config_to_EEPROM();
    2d3e:	0e 94 8c 16 	call	0x2d18	; 0x2d18 <Save_Config_to_EEPROM>
    2d42:	08 95       	ret
	} 
	else 
	{
		// Read eeProm
		eeprom_read_block(&Config, (void*) EEPROM_DATA_START_POS, sizeof(CONFIG_STRUCT)); 
    2d44:	40 ec       	ldi	r20, 0xC0	; 192
    2d46:	51 e0       	ldi	r21, 0x01	; 1
    2d48:	60 e0       	ldi	r22, 0x00	; 0
    2d4a:	70 e0       	ldi	r23, 0x00	; 0
    2d4c:	85 ea       	ldi	r24, 0xA5	; 165
    2d4e:	95 e0       	ldi	r25, 0x05	; 5
    2d50:	0e 94 e3 41 	call	0x83c6	; 0x83c6 <__eerd_block_m644p>
    2d54:	08 95       	ret

00002d56 <main>:
//************************************************************
//* Main loop
//************************************************************

int main(void)
{
    2d56:	ac e1       	ldi	r26, 0x1C	; 28
    2d58:	b0 e0       	ldi	r27, 0x00	; 0
    2d5a:	e1 eb       	ldi	r30, 0xB1	; 177
    2d5c:	f6 e1       	ldi	r31, 0x16	; 22
    2d5e:	0c 94 7e 41 	jmp	0x82fc	; 0x82fc <__prologue_saves__>
	uint8_t Menu_mode = STATUS_TIMEOUT;
	int8_t	old_flight = 3;			// Old flight profile
	int8_t	old_trans_mode = 0;		// Old transition mode
	int16_t temp1 = 0;
	
	init();							// Do all init tasks
    2d62:	0e 94 a8 23 	call	0x4750	; 0x4750 <init>
	uint16_t InterruptCounter = 0;
	uint8_t	Disarm_seconds = 0;
	uint8_t Status_seconds = 0;
	uint8_t Menu_mode = STATUS_TIMEOUT;
	int8_t	old_flight = 3;			// Old flight profile
	int8_t	old_trans_mode = 0;		// Old transition mode
    2d66:	18 8e       	std	Y+24, r1	; 0x18
	// Locals
	uint16_t InterruptCounter = 0;
	uint8_t	Disarm_seconds = 0;
	uint8_t Status_seconds = 0;
	uint8_t Menu_mode = STATUS_TIMEOUT;
	int8_t	old_flight = 3;			// Old flight profile
    2d68:	03 e0       	ldi	r16, 0x03	; 3

	// Locals
	uint16_t InterruptCounter = 0;
	uint8_t	Disarm_seconds = 0;
	uint8_t Status_seconds = 0;
	uint8_t Menu_mode = STATUS_TIMEOUT;
    2d6a:	16 e0       	ldi	r17, 0x06	; 6
	uint8_t ServoRate_TCNT2 = 0;

	// Locals
	uint16_t InterruptCounter = 0;
	uint8_t	Disarm_seconds = 0;
	uint8_t Status_seconds = 0;
    2d6c:	a1 2c       	mov	r10, r1
	uint8_t Servo_TCNT2 = 0;
	uint8_t ServoRate_TCNT2 = 0;

	// Locals
	uint16_t InterruptCounter = 0;
	uint8_t	Disarm_seconds = 0;
    2d6e:	b1 2c       	mov	r11, r1
	uint8_t Ticker_TCNT2 = 0;
	uint8_t Servo_TCNT2 = 0;
	uint8_t ServoRate_TCNT2 = 0;

	// Locals
	uint16_t InterruptCounter = 0;
    2d70:	18 86       	std	Y+8, r1	; 0x08
    2d72:	1f 82       	std	Y+7, r1	; 0x07
	uint8_t Refresh_TCNT2 = 0;
	uint8_t Disarm_TCNT2 = 0;
	uint8_t Arm_TCNT2 = 0;
	uint8_t Ticker_TCNT2 = 0;
	uint8_t Servo_TCNT2 = 0;
	uint8_t ServoRate_TCNT2 = 0;
    2d74:	1f 8a       	std	Y+23, r1	; 0x17
	uint8_t Status_TCNT2 = 0;
	uint8_t Refresh_TCNT2 = 0;
	uint8_t Disarm_TCNT2 = 0;
	uint8_t Arm_TCNT2 = 0;
	uint8_t Ticker_TCNT2 = 0;
	uint8_t Servo_TCNT2 = 0;
    2d76:	1e 8a       	std	Y+22, r1	; 0x16
	uint8_t Transition_TCNT2 = 0;
	uint8_t Status_TCNT2 = 0;
	uint8_t Refresh_TCNT2 = 0;
	uint8_t Disarm_TCNT2 = 0;
	uint8_t Arm_TCNT2 = 0;
	uint8_t Ticker_TCNT2 = 0;
    2d78:	1d 8a       	std	Y+21, r1	; 0x15
	uint16_t RC_Rate_TCNT1 = 0;
	uint8_t Transition_TCNT2 = 0;
	uint8_t Status_TCNT2 = 0;
	uint8_t Refresh_TCNT2 = 0;
	uint8_t Disarm_TCNT2 = 0;
	uint8_t Arm_TCNT2 = 0;
    2d7a:	1c 8a       	std	Y+20, r1	; 0x14
	// Timer incrementers
	uint16_t RC_Rate_TCNT1 = 0;
	uint8_t Transition_TCNT2 = 0;
	uint8_t Status_TCNT2 = 0;
	uint8_t Refresh_TCNT2 = 0;
	uint8_t Disarm_TCNT2 = 0;
    2d7c:	1b 8a       	std	Y+19, r1	; 0x13

	// Timer incrementers
	uint16_t RC_Rate_TCNT1 = 0;
	uint8_t Transition_TCNT2 = 0;
	uint8_t Status_TCNT2 = 0;
	uint8_t Refresh_TCNT2 = 0;
    2d7e:	1a 8a       	std	Y+18, r1	; 0x12
	uint16_t ticker_16 = 0;

	// Timer incrementers
	uint16_t RC_Rate_TCNT1 = 0;
	uint8_t Transition_TCNT2 = 0;
	uint8_t Status_TCNT2 = 0;
    2d80:	19 8a       	std	Y+17, r1	; 0x11
	uint16_t Save_TCNT1 = 0;
	uint16_t ticker_16 = 0;

	// Timer incrementers
	uint16_t RC_Rate_TCNT1 = 0;
	uint8_t Transition_TCNT2 = 0;
    2d82:	18 8a       	std	Y+16, r1	; 0x10
	uint16_t Disarm_timer = 0;
	uint16_t Save_TCNT1 = 0;
	uint16_t ticker_16 = 0;

	// Timer incrementers
	uint16_t RC_Rate_TCNT1 = 0;
    2d84:	1f 86       	std	Y+15, r1	; 0x0f
    2d86:	1e 86       	std	Y+14, r1	; 0x0e
	uint16_t UpdateStatus_timer = 0;
	uint16_t Ticker_Count = 0;
	uint16_t RC_Timeout = 0;
	uint16_t Servo_Rate = 0;
	uint16_t Transition_timeout = 0;
	uint16_t Disarm_timer = 0;
    2d88:	21 2c       	mov	r2, r1
    2d8a:	31 2c       	mov	r3, r1
	uint16_t Status_timeout = 0;
	uint16_t UpdateStatus_timer = 0;
	uint16_t Ticker_Count = 0;
	uint16_t RC_Timeout = 0;
	uint16_t Servo_Rate = 0;
	uint16_t Transition_timeout = 0;
    2d8c:	81 2c       	mov	r8, r1
    2d8e:	91 2c       	mov	r9, r1
	// 16-bit timers
	uint16_t Status_timeout = 0;
	uint16_t UpdateStatus_timer = 0;
	uint16_t Ticker_Count = 0;
	uint16_t RC_Timeout = 0;
	uint16_t Servo_Rate = 0;
    2d90:	1c 8e       	std	Y+28, r1	; 0x1c
    2d92:	1b 8e       	std	Y+27, r1	; 0x1b

	// 16-bit timers
	uint16_t Status_timeout = 0;
	uint16_t UpdateStatus_timer = 0;
	uint16_t Ticker_Count = 0;
	uint16_t RC_Timeout = 0;
    2d94:	1e 82       	std	Y+6, r1	; 0x06
    2d96:	1d 82       	std	Y+5, r1	; 0x05
	uint32_t RC_Rate_Timer = 0;

	// 16-bit timers
	uint16_t Status_timeout = 0;
	uint16_t UpdateStatus_timer = 0;
	uint16_t Ticker_Count = 0;
    2d98:	1c 86       	std	Y+12, r1	; 0x0c
    2d9a:	1b 86       	std	Y+11, r1	; 0x0b
	uint32_t Arm_timer = 0;
	uint32_t RC_Rate_Timer = 0;

	// 16-bit timers
	uint16_t Status_timeout = 0;
	uint16_t UpdateStatus_timer = 0;
    2d9c:	1c 82       	std	Y+4, r1	; 0x04
    2d9e:	1b 82       	std	Y+3, r1	; 0x03
	// 32-bit timers
	uint32_t Arm_timer = 0;
	uint32_t RC_Rate_Timer = 0;

	// 16-bit timers
	uint16_t Status_timeout = 0;
    2da0:	1a 82       	std	Y+2, r1	; 0x02
    2da2:	19 82       	std	Y+1, r1	; 0x01
	bool SlowRC = false;
	bool TransitionUpdated = false;

	// 32-bit timers
	uint32_t Arm_timer = 0;
	uint32_t RC_Rate_Timer = 0;
    2da4:	41 2c       	mov	r4, r1
    2da6:	51 2c       	mov	r5, r1
    2da8:	32 01       	movw	r6, r4
	bool ServoTick = false;
	bool SlowRC = false;
	bool TransitionUpdated = false;

	// 32-bit timers
	uint32_t Arm_timer = 0;
    2daa:	c1 2c       	mov	r12, r1
    2dac:	d1 2c       	mov	r13, r1
    2dae:	76 01       	movw	r14, r12
//************************************************************

int main(void)
{
	bool ServoTick = false;
	bool SlowRC = false;
    2db0:	1a 86       	std	Y+10, r1	; 0x0a
//* Main loop
//************************************************************

int main(void)
{
	bool ServoTick = false;
    2db2:	19 86       	std	Y+9, r1	; 0x09

	// Main loop
	while (1)
	{
		// Increment the loop counter
		LoopCount++;
    2db4:	80 91 0e 05 	lds	r24, 0x050E
    2db8:	8f 5f       	subi	r24, 0xFF	; 255
    2dba:	80 93 0e 05 	sts	0x050E, r24
		//************************************************************
		//* Check for interruption of PWM generation
		//* The "JitterFlag" flag was reset just before PWM generation
		//************************************************************

		if (JitterFlag == true)
    2dbe:	80 91 91 07 	lds	r24, 0x0791
    2dc2:	88 23       	and	r24, r24
    2dc4:	31 f0       	breq	.+12     	; 0x2dd2 <main+0x7c>
		{
			InterruptCounter++;
    2dc6:	2f 81       	ldd	r18, Y+7	; 0x07
    2dc8:	38 85       	ldd	r19, Y+8	; 0x08
    2dca:	2f 5f       	subi	r18, 0xFF	; 255
    2dcc:	3f 4f       	sbci	r19, 0xFF	; 255
    2dce:	38 87       	std	Y+8, r19	; 0x08
    2dd0:	2f 83       	std	Y+7, r18	; 0x07

		//************************************************************
		//* State machine for switching between screens safely
		//************************************************************

		switch(Menu_mode) 
    2dd2:	14 30       	cpi	r17, 0x04	; 4
    2dd4:	b9 f1       	breq	.+110    	; 0x2e44 <main+0xee>
    2dd6:	68 f4       	brcc	.+26     	; 0x2df2 <main+0x9c>
    2dd8:	11 23       	and	r17, r17
    2dda:	f1 f0       	breq	.+60     	; 0x2e18 <main+0xc2>
    2ddc:	13 30       	cpi	r17, 0x03	; 3
    2dde:	09 f0       	breq	.+2      	; 0x2de2 <main+0x8c>
    2de0:	4e c0       	rjmp	.+156    	; 0x2e7e <main+0x128>
			// Status screen first display
			case STATUS:
				// Reset the status screen period
				UpdateStatus_timer = 0;
				// Update status screen
				Display_status();
    2de2:	0e 94 31 13 	call	0x2662	; 0x2662 <Display_status>
				// Force resync on next RC packet
				Interrupted = false;	
    2de6:	10 92 76 07 	sts	0x0776, r1
				// Wait for timeout
				Menu_mode = WAITING_TIMEOUT_BD;
    2dea:	15 e0       	ldi	r17, 0x05	; 5
				break;

			// Status screen first display
			case STATUS:
				// Reset the status screen period
				UpdateStatus_timer = 0;
    2dec:	1c 82       	std	Y+4, r1	; 0x04
    2dee:	1b 82       	std	Y+3, r1	; 0x03
				Display_status();
				// Force resync on next RC packet
				Interrupted = false;	
				// Wait for timeout
				Menu_mode = WAITING_TIMEOUT_BD;
				break;
    2df0:	46 c0       	rjmp	.+140    	; 0x2e7e <main+0x128>

		//************************************************************
		//* State machine for switching between screens safely
		//************************************************************

		switch(Menu_mode) 
    2df2:	16 30       	cpi	r17, 0x06	; 6
    2df4:	d1 f1       	breq	.+116    	; 0x2e6a <main+0x114>
    2df6:	10 f1       	brcs	.+68     	; 0x2e3c <main+0xe6>
    2df8:	17 30       	cpi	r17, 0x07	; 7
    2dfa:	09 f0       	breq	.+2      	; 0x2dfe <main+0xa8>
    2dfc:	40 c0       	rjmp	.+128    	; 0x2e7e <main+0x128>
				Menu_mode = IDLE;
				break;

			// In MENU mode, 
			case MENU:
				LVA = 0;	// Make sure buzzer is off :)
    2dfe:	29 98       	cbi	0x05, 1	; 5
				// Disarm the FC
				General_error |= (1 << DISARMED);
    2e00:	80 91 17 05 	lds	r24, 0x0517
    2e04:	84 60       	ori	r24, 0x04	; 4
    2e06:	80 93 17 05 	sts	0x0517, r24
				// Start the menu system
				menu_main();
    2e0a:	0e 94 92 2c 	call	0x5924	; 0x5924 <menu_main>
				
				// Force resync on next RC packet
				Interrupted = false;
    2e0e:	10 92 76 07 	sts	0x0776, r1
				// Switch back to status screen when leaving menu
				Menu_mode = STATUS;
				// Reset timeout once back in status screen
				Status_seconds = 0;
				// Reset IMU on return from menu
				reset_IMU();
    2e12:	0e 94 33 23 	call	0x4666	; 0x4666 <reset_IMU>
    2e16:	2f c0       	rjmp	.+94     	; 0x2e76 <main+0x120>
		switch(Menu_mode) 
		{
			// In IDLE mode, the text "Press for status" is displayed ONCE.
			// If a button is pressed the mode changes to STATUS
			case IDLE:
				if((PINB & 0xf0) != 0xf0)
    2e18:	83 b1       	in	r24, 0x03	; 3
    2e1a:	80 7f       	andi	r24, 0xF0	; 240
    2e1c:	80 3f       	cpi	r24, 0xF0	; 240
    2e1e:	49 f0       	breq	.+18     	; 0x2e32 <main+0xdc>
				{
					Menu_mode = STATUS;
					// Reset the status screen timeout
					Status_seconds = 0;
					menu_beep(1);
    2e20:	81 e0       	ldi	r24, 0x01	; 1
    2e22:	0e 94 7a 2a 	call	0x54f4	; 0x54f4 <menu_beep>
					
					// Enable Timer0 interrupts as loop rate is slow
					// and we need TMR0 to fully measure it.
					TIMSK0 |= (1 << TOIE0);	
    2e26:	80 91 6e 00 	lds	r24, 0x006E
    2e2a:	81 60       	ori	r24, 0x01	; 1
    2e2c:	80 93 6e 00 	sts	0x006E, r24
    2e30:	22 c0       	rjmp	.+68     	; 0x2e76 <main+0x120>
				}
				// Idle mode - fast loop rate so don't need TMR0.
				// We don't want TMR0 to interrupt PWM generation.
				else
				{
					TIMSK0 = 0; 		// Disable Timer0 interrupts
    2e32:	10 92 6e 00 	sts	0x006E, r1
					TIFR0 = 1;			// Clear interrupt flag
    2e36:	81 e0       	ldi	r24, 0x01	; 1
    2e38:	85 bb       	out	0x15, r24	; 21
    2e3a:	21 c0       	rjmp	.+66     	; 0x2e7e <main+0x128>

			// Status screen up, but button still down ;)
			// This is designed to stop the menu appearing instead of the status screen
			// as it will stay here until the button is released
			case WAITING_TIMEOUT_BD:
				if(BUTTON1 == 0)
    2e3c:	1f 9b       	sbis	0x03, 7	; 3
    2e3e:	1f c0       	rjmp	.+62     	; 0x2e7e <main+0x128>
				{
					Menu_mode = WAITING_TIMEOUT_BD;
				}
				else
				{
					Menu_mode = WAITING_TIMEOUT;
    2e40:	14 e0       	ldi	r17, 0x04	; 4
    2e42:	1d c0       	rjmp	.+58     	; 0x2e7e <main+0x128>
												
			// Status screen up, waiting for timeout or action
			// but button is back up
			case WAITING_TIMEOUT:
				// In status screen, change back to idle after timing out
				if (Status_seconds >= 10)
    2e44:	39 e0       	ldi	r19, 0x09	; 9
    2e46:	3a 15       	cp	r19, r10
    2e48:	c8 f0       	brcs	.+50     	; 0x2e7c <main+0x126>
				{
					Menu_mode = STATUS_TIMEOUT;
				}

				// Jump to menu if button pressed
				else if(BUTTON1 == 0)
    2e4a:	1f 99       	sbic	0x03, 7	; 3
    2e4c:	07 c0       	rjmp	.+14     	; 0x2e5c <main+0x106>
				{
					Menu_mode = MENU;
					menu_beep(1);
    2e4e:	81 e0       	ldi	r24, 0x01	; 1
    2e50:	0e 94 7a 2a 	call	0x54f4	; 0x54f4 <menu_beep>
					// Force resync on next RC packet
					Interrupted = false;
    2e54:	10 92 76 07 	sts	0x0776, r1
				}

				// Jump to menu if button pressed
				else if(BUTTON1 == 0)
				{
					Menu_mode = MENU;
    2e58:	17 e0       	ldi	r17, 0x07	; 7
    2e5a:	11 c0       	rjmp	.+34     	; 0x2e7e <main+0x128>
					// Force resync on next RC packet
					Interrupted = false;
				}

				// Update status screen while waiting to time out
				else if (UpdateStatus_timer > (SECOND_TIMER >> 2))
    2e5c:	4b 81       	ldd	r20, Y+3	; 0x03
    2e5e:	5c 81       	ldd	r21, Y+4	; 0x04
    2e60:	43 31       	cpi	r20, 0x13	; 19
    2e62:	53 41       	sbci	r21, 0x13	; 19
    2e64:	60 f0       	brcs	.+24     	; 0x2e7e <main+0x128>
				{
					Menu_mode = STATUS;
    2e66:	13 e0       	ldi	r17, 0x03	; 3
    2e68:	0a c0       	rjmp	.+20     	; 0x2e7e <main+0x128>
				break;

			// In STATUS_TIMEOUT mode, the idle screen is displayed and the mode changed to IDLE
			case STATUS_TIMEOUT:
				// Pop up the Idle screen
				idle_screen();
    2e6a:	0e 94 cb 1c 	call	0x3996	; 0x3996 <idle_screen>
				// Force resync on next RC packet
				Interrupted = false;
    2e6e:	10 92 76 07 	sts	0x0776, r1
				// Switch to IDLE mode
				Menu_mode = IDLE;
    2e72:	10 e0       	ldi	r17, 0x00	; 0
				break;
    2e74:	04 c0       	rjmp	.+8      	; 0x2e7e <main+0x128>
				menu_main();
				
				// Force resync on next RC packet
				Interrupted = false;
				// Switch back to status screen when leaving menu
				Menu_mode = STATUS;
    2e76:	13 e0       	ldi	r17, 0x03	; 3
				// Reset timeout once back in status screen
				Status_seconds = 0;
    2e78:	a1 2c       	mov	r10, r1
				// Reset IMU on return from menu
				reset_IMU();
				break;
    2e7a:	01 c0       	rjmp	.+2      	; 0x2e7e <main+0x128>
			// but button is back up
			case WAITING_TIMEOUT:
				// In status screen, change back to idle after timing out
				if (Status_seconds >= 10)
				{
					Menu_mode = STATUS_TIMEOUT;
    2e7c:	16 e0       	ldi	r17, 0x06	; 6
		//************************************************************
		//* Status menu timing
		//************************************************************

		// Count elapsed seconds
		if (Status_timeout > SECOND_TIMER)
    2e7e:	29 81       	ldd	r18, Y+1	; 0x01
    2e80:	3a 81       	ldd	r19, Y+2	; 0x02
    2e82:	2c 34       	cpi	r18, 0x4C	; 76
    2e84:	3c 44       	sbci	r19, 0x4C	; 76
    2e86:	58 f0       	brcs	.+22     	; 0x2e9e <main+0x148>
		{
			Status_seconds++;
    2e88:	a3 94       	inc	r10
			Status_timeout = 0;

			// Display the interrupt count each second
			InterruptCount = InterruptCounter;
    2e8a:	2f 81       	ldd	r18, Y+7	; 0x07
    2e8c:	38 85       	ldd	r19, Y+8	; 0x08
    2e8e:	30 93 13 05 	sts	0x0513, r19
    2e92:	20 93 12 05 	sts	0x0512, r18
			InterruptCounter = 0;
    2e96:	18 86       	std	Y+8, r1	; 0x08
    2e98:	1f 82       	std	Y+7, r1	; 0x07

		// Count elapsed seconds
		if (Status_timeout > SECOND_TIMER)
		{
			Status_seconds++;
			Status_timeout = 0;
    2e9a:	1a 82       	std	Y+2, r1	; 0x02
    2e9c:	19 82       	std	Y+1, r1	; 0x01
    2e9e:	80 91 15 05 	lds	r24, 0x0515
		//* System ticker - based on TCNT2 (19.531kHz)
		//* 
		//* ((Ticker_Count >> 8) &8) 	= 4.77Hz (Disarm and LVA alarms)
		//************************************************************

		if ((Ticker_Count >> 8) &8) 
    2ea2:	4b 85       	ldd	r20, Y+11	; 0x0b
    2ea4:	5c 85       	ldd	r21, Y+12	; 0x0c
    2ea6:	53 ff       	sbrs	r21, 3
    2ea8:	02 c0       	rjmp	.+4      	; 0x2eae <main+0x158>
		{
			Alarm_flags |= (1 << BUZZER_ON);	// 4.77Hz beep
    2eaa:	80 61       	ori	r24, 0x10	; 16
    2eac:	01 c0       	rjmp	.+2      	; 0x2eb0 <main+0x15a>
		}
		else 
		{
			Alarm_flags &= ~(1 << BUZZER_ON);
    2eae:	8f 7e       	andi	r24, 0xEF	; 239
    2eb0:	80 93 15 05 	sts	0x0515, r24
		//************************************************************
		//* Alarms
		//************************************************************

		// If RC signals overdue, signal RX error message and disarm
		if (Overdue)
    2eb4:	90 91 0f 05 	lds	r25, 0x050F
    2eb8:	80 91 17 05 	lds	r24, 0x0517
    2ebc:	99 23       	and	r25, r25
    2ebe:	89 f0       	breq	.+34     	; 0x2ee2 <main+0x18c>
		{
			General_error |= (1 << NO_SIGNAL);		// Set NO_SIGNAL bit
    2ec0:	98 2f       	mov	r25, r24
    2ec2:	92 60       	ori	r25, 0x02	; 2
    2ec4:	90 93 17 05 	sts	0x0517, r25
			
			// If FC is set to "armable" and is currently armed, disarm the FC
			if ((Config.ArmMode == ARMABLE) && ((General_error & (1 << DISARMED)) == 0))
    2ec8:	90 91 2f 06 	lds	r25, 0x062F
    2ecc:	91 30       	cpi	r25, 0x01	; 1
    2ece:	61 f4       	brne	.+24     	; 0x2ee8 <main+0x192>
    2ed0:	82 fd       	sbrc	r24, 2
    2ed2:	0a c0       	rjmp	.+20     	; 0x2ee8 <main+0x192>
			{
				General_error |= (1 << DISARMED);	// Set flags to disarmed
    2ed4:	86 60       	ori	r24, 0x06	; 6
    2ed6:	80 93 17 05 	sts	0x0517, r24
				menu_beep(1);						// Signal that FC is now disarmed
    2eda:	81 e0       	ldi	r24, 0x01	; 1
    2edc:	0e 94 7a 2a 	call	0x54f4	; 0x54f4 <menu_beep>
    2ee0:	03 c0       	rjmp	.+6      	; 0x2ee8 <main+0x192>
			}
		}
		else
		{
			General_error &= ~(1 << NO_SIGNAL);	// Clear NO_SIGNAL bit
    2ee2:	8d 7f       	andi	r24, 0xFD	; 253
    2ee4:	80 93 17 05 	sts	0x0517, r24
		}

		// Beep buzzer if Vbat lower than trigger
		// Vbat is measured in units of 10mV, so a PowerTrigger of 127 equates to 12.7V
		if (GetVbat() < Config.PowerTriggerActual)
    2ee8:	0e 94 b4 3e 	call	0x7d68	; 0x7d68 <GetVbat>
    2eec:	20 91 2b 06 	lds	r18, 0x062B
    2ef0:	30 91 2c 06 	lds	r19, 0x062C
    2ef4:	40 91 17 05 	lds	r20, 0x0517
    2ef8:	82 17       	cp	r24, r18
    2efa:	93 07       	cpc	r25, r19
    2efc:	10 f4       	brcc	.+4      	; 0x2f02 <main+0x1ac>
		{
			General_error |= (1 << LVA_ALARM);	// Set LVA_Alarm flag
    2efe:	48 60       	ori	r20, 0x08	; 8
    2f00:	01 c0       	rjmp	.+2      	; 0x2f04 <main+0x1ae>
		}
		else 
		{
			General_error &= ~(1 << LVA_ALARM);	// Clear LVA_Alarm flag
    2f02:	47 7f       	andi	r20, 0xF7	; 247
    2f04:	40 93 17 05 	sts	0x0517, r20
		}

		// Turn on buzzer if in alarm state (BUZZER_ON is oscillating)
		if	(
			 (
				(General_error & (1 << LVA_ALARM)) ||		// Low battery
    2f08:	80 91 17 05 	lds	r24, 0x0517
		{
			General_error &= ~(1 << LVA_ALARM);	// Clear LVA_Alarm flag
		}

		// Turn on buzzer if in alarm state (BUZZER_ON is oscillating)
		if	(
    2f0c:	83 fd       	sbrc	r24, 3
    2f0e:	02 c0       	rjmp	.+4      	; 0x2f14 <main+0x1be>
    2f10:	83 70       	andi	r24, 0x03	; 3
			 (
				(General_error & (1 << LVA_ALARM)) ||		// Low battery
				(General_error & (1 << NO_SIGNAL)) ||		// No signal
    2f12:	31 f0       	breq	.+12     	; 0x2f20 <main+0x1ca>
				(General_error & (1 << THROTTLE_HIGH))		// Throttle high
			 ) && 
			  (Alarm_flags & (1 << BUZZER_ON))
    2f14:	80 91 15 05 	lds	r24, 0x0515
		if	(
			 (
				(General_error & (1 << LVA_ALARM)) ||		// Low battery
				(General_error & (1 << NO_SIGNAL)) ||		// No signal
				(General_error & (1 << THROTTLE_HIGH))		// Throttle high
			 ) && 
    2f18:	84 ff       	sbrs	r24, 4
    2f1a:	02 c0       	rjmp	.+4      	; 0x2f20 <main+0x1ca>
			  (Alarm_flags & (1 << BUZZER_ON))
			) 
		{
			LVA = 1;
    2f1c:	29 9a       	sbi	0x05, 1	; 5
    2f1e:	01 c0       	rjmp	.+2      	; 0x2f22 <main+0x1cc>
		}
		else 
		{
			LVA = 0;
    2f20:	29 98       	cbi	0x05, 1	; 5

		//************************************************************
		//* Arm/disarm handling
		//************************************************************

		if (Config.ArmMode == ARMABLE)
    2f22:	80 91 2f 06 	lds	r24, 0x062F
    2f26:	81 30       	cpi	r24, 0x01	; 1
    2f28:	09 f0       	breq	.+2      	; 0x2f2c <main+0x1d6>
    2f2a:	7b c0       	rjmp	.+246    	; 0x3022 <main+0x2cc>
			// Manual arm/disarm

			// If sticks not at extremes, reset manual arm/disarm timer
			// Sticks down and centered = armed. Down and outside = disarmed
			if (
				((-ARM_TIMER_RESET_1 < RCinputs[AILERON]) && (RCinputs[AILERON] < ARM_TIMER_RESET_1)) ||
    2f2c:	80 91 d8 07 	lds	r24, 0x07D8
    2f30:	90 91 d9 07 	lds	r25, 0x07D9
    2f34:	9c 01       	movw	r18, r24
    2f36:	21 54       	subi	r18, 0x41	; 65
    2f38:	3c 4f       	sbci	r19, 0xFC	; 252
		{
			// Manual arm/disarm

			// If sticks not at extremes, reset manual arm/disarm timer
			// Sticks down and centered = armed. Down and outside = disarmed
			if (
    2f3a:	2f 37       	cpi	r18, 0x7F	; 127
    2f3c:	37 40       	sbci	r19, 0x07	; 7
    2f3e:	08 f4       	brcc	.+2      	; 0x2f42 <main+0x1ec>
    2f40:	42 c0       	rjmp	.+132    	; 0x2fc6 <main+0x270>
				((-ARM_TIMER_RESET_1 < RCinputs[AILERON]) && (RCinputs[AILERON] < ARM_TIMER_RESET_1)) ||
				((-ARM_TIMER_RESET_1 < RCinputs[ELEVATOR]) && (RCinputs[ELEVATOR] < ARM_TIMER_RESET_1)) ||
    2f42:	20 91 da 07 	lds	r18, 0x07DA
    2f46:	30 91 db 07 	lds	r19, 0x07DB
    2f4a:	21 54       	subi	r18, 0x41	; 65
    2f4c:	3c 4f       	sbci	r19, 0xFC	; 252
			// Manual arm/disarm

			// If sticks not at extremes, reset manual arm/disarm timer
			// Sticks down and centered = armed. Down and outside = disarmed
			if (
				((-ARM_TIMER_RESET_1 < RCinputs[AILERON]) && (RCinputs[AILERON] < ARM_TIMER_RESET_1)) ||
    2f4e:	2f 37       	cpi	r18, 0x7F	; 127
    2f50:	37 40       	sbci	r19, 0x07	; 7
    2f52:	c8 f1       	brcs	.+114    	; 0x2fc6 <main+0x270>
				((-ARM_TIMER_RESET_1 < RCinputs[ELEVATOR]) && (RCinputs[ELEVATOR] < ARM_TIMER_RESET_1)) ||
				((-ARM_TIMER_RESET_1 < RCinputs[RUDDER]) && (RCinputs[RUDDER] < ARM_TIMER_RESET_1)) ||
    2f54:	20 91 dc 07 	lds	r18, 0x07DC
    2f58:	30 91 dd 07 	lds	r19, 0x07DD
    2f5c:	21 54       	subi	r18, 0x41	; 65
    2f5e:	3c 4f       	sbci	r19, 0xFC	; 252

			// If sticks not at extremes, reset manual arm/disarm timer
			// Sticks down and centered = armed. Down and outside = disarmed
			if (
				((-ARM_TIMER_RESET_1 < RCinputs[AILERON]) && (RCinputs[AILERON] < ARM_TIMER_RESET_1)) ||
				((-ARM_TIMER_RESET_1 < RCinputs[ELEVATOR]) && (RCinputs[ELEVATOR] < ARM_TIMER_RESET_1)) ||
    2f60:	2f 37       	cpi	r18, 0x7F	; 127
    2f62:	37 40       	sbci	r19, 0x07	; 7
    2f64:	80 f1       	brcs	.+96     	; 0x2fc6 <main+0x270>
				((-ARM_TIMER_RESET_1 < RCinputs[RUDDER]) && (RCinputs[RUDDER] < ARM_TIMER_RESET_1)) ||
    2f66:	20 91 d4 07 	lds	r18, 0x07D4
    2f6a:	30 91 d5 07 	lds	r19, 0x07D5
    2f6e:	23 33       	cpi	r18, 0x33	; 51
    2f70:	31 05       	cpc	r19, r1
    2f72:	4c f5       	brge	.+82     	; 0x2fc6 <main+0x270>
				Arm_timer = 0;
			}

			// If arm timer times out, the sticks must have been at extremes for ARM_TIMER seconds
			// If aileron is at min, arm the FC
			if ((Arm_timer > ARM_TIMER) && (RCinputs[AILERON] < -ARM_TIMER_RESET_1))
    2f74:	2c e4       	ldi	r18, 0x4C	; 76
    2f76:	c2 16       	cp	r12, r18
    2f78:	d2 06       	cpc	r13, r18
    2f7a:	e1 04       	cpc	r14, r1
    2f7c:	f1 04       	cpc	r15, r1
    2f7e:	30 f1       	brcs	.+76     	; 0x2fcc <main+0x276>
    2f80:	80 34       	cpi	r24, 0x40	; 64
    2f82:	3c ef       	ldi	r19, 0xFC	; 252
    2f84:	93 07       	cpc	r25, r19
    2f86:	6c f4       	brge	.+26     	; 0x2fa2 <main+0x24c>
			{
				Arm_timer = 0;
				General_error &= ~(1 << DISARMED);		// Set flags to armed (negate disarmed)
    2f88:	80 91 17 05 	lds	r24, 0x0517
    2f8c:	8b 7f       	andi	r24, 0xFB	; 251
    2f8e:	80 93 17 05 	sts	0x0517, r24
				CalibrateGyrosSlow();					// Calibrate gyros
    2f92:	0e 94 0c 1e 	call	0x3c18	; 0x3c18 <CalibrateGyrosSlow>
				menu_beep(20);							// Signal that FC is ready
    2f96:	84 e1       	ldi	r24, 0x14	; 20
    2f98:	0e 94 7a 2a 	call	0x54f4	; 0x54f4 <menu_beep>
				reset_IMU();							// Reset IMU just in case...
    2f9c:	0e 94 33 23 	call	0x4666	; 0x4666 <reset_IMU>
    2fa0:	12 c0       	rjmp	.+36     	; 0x2fc6 <main+0x270>
			}
			// Else, disarm the FC after DISARM_TIMER seconds if aileron at max
			else if ((Arm_timer > DISARM_TIMER) && (RCinputs[AILERON] > ARM_TIMER_RESET_1))
    2fa2:	42 ee       	ldi	r20, 0xE2	; 226
    2fa4:	c4 16       	cp	r12, r20
    2fa6:	44 ee       	ldi	r20, 0xE4	; 228
    2fa8:	d4 06       	cpc	r13, r20
    2faa:	e1 04       	cpc	r14, r1
    2fac:	f1 04       	cpc	r15, r1
    2fae:	70 f0       	brcs	.+28     	; 0x2fcc <main+0x276>
    2fb0:	81 3c       	cpi	r24, 0xC1	; 193
    2fb2:	93 40       	sbci	r25, 0x03	; 3
    2fb4:	5c f0       	brlt	.+22     	; 0x2fcc <main+0x276>
			{
				Arm_timer = 0;
				General_error |= (1 << DISARMED);		// Set flags to disarmed
    2fb6:	80 91 17 05 	lds	r24, 0x0517
    2fba:	84 60       	ori	r24, 0x04	; 4
    2fbc:	80 93 17 05 	sts	0x0517, r24
				menu_beep(1);							// Signal that FC is now disarmed
    2fc0:	81 e0       	ldi	r24, 0x01	; 1
    2fc2:	0e 94 7a 2a 	call	0x54f4	; 0x54f4 <menu_beep>
    2fc6:	c1 2c       	mov	r12, r1
    2fc8:	d1 2c       	mov	r13, r1
    2fca:	76 01       	movw	r14, r12
			}

			// Automatic disarm

			// Reset auto-disarm count if any RX activity or set to zero, or when currently disarmed
			if ((Flight_flags & (1 << RxActivity)) || (Config.Disarm_timer == 0) || (General_error & (1 << DISARMED)))
    2fcc:	80 91 16 05 	lds	r24, 0x0516
    2fd0:	80 fd       	sbrc	r24, 0
    2fd2:	0e c0       	rjmp	.+28     	; 0x2ff0 <main+0x29a>
    2fd4:	80 91 30 06 	lds	r24, 0x0630
    2fd8:	88 23       	and	r24, r24
    2fda:	51 f0       	breq	.+20     	; 0x2ff0 <main+0x29a>
    2fdc:	80 91 17 05 	lds	r24, 0x0517
    2fe0:	82 fd       	sbrc	r24, 2
    2fe2:	06 c0       	rjmp	.+12     	; 0x2ff0 <main+0x29a>
				Disarm_timer = 0;
				Disarm_seconds = 0;
			}
		
			// Increment disarm timer (seconds) if armed
			if (Disarm_timer > SECOND_TIMER)
    2fe4:	8c e4       	ldi	r24, 0x4C	; 76
    2fe6:	28 16       	cp	r2, r24
    2fe8:	38 06       	cpc	r3, r24
    2fea:	28 f0       	brcs	.+10     	; 0x2ff6 <main+0x2a0>
			{
				Disarm_seconds++;
    2fec:	b3 94       	inc	r11
    2fee:	01 c0       	rjmp	.+2      	; 0x2ff2 <main+0x29c>
    2ff0:	b1 2c       	mov	r11, r1
    2ff2:	21 2c       	mov	r2, r1
    2ff4:	31 2c       	mov	r3, r1
				Disarm_timer = 0;
			}

			// Auto-disarm model if timeout enabled and due
			if ((Disarm_seconds >= Config.Disarm_timer) && (Config.Disarm_timer >= 30))	
    2ff6:	40 91 30 06 	lds	r20, 0x0630
    2ffa:	2b 2d       	mov	r18, r11
    2ffc:	30 e0       	ldi	r19, 0x00	; 0
    2ffe:	84 2f       	mov	r24, r20
    3000:	99 27       	eor	r25, r25
    3002:	87 fd       	sbrc	r24, 7
    3004:	90 95       	com	r25
    3006:	28 17       	cp	r18, r24
    3008:	39 07       	cpc	r19, r25
    300a:	84 f0       	brlt	.+32     	; 0x302c <main+0x2d6>
    300c:	4e 31       	cpi	r20, 0x1E	; 30
    300e:	74 f0       	brlt	.+28     	; 0x302c <main+0x2d6>
			{
				// Disarm the FC
				General_error |= (1 << DISARMED);		// Set flags to disarmed
    3010:	80 91 17 05 	lds	r24, 0x0517
    3014:	84 60       	ori	r24, 0x04	; 4
    3016:	80 93 17 05 	sts	0x0517, r24
				menu_beep(1);							// Signal that FC is now disarmed
    301a:	81 e0       	ldi	r24, 0x01	; 1
    301c:	0e 94 7a 2a 	call	0x54f4	; 0x54f4 <menu_beep>
    3020:	05 c0       	rjmp	.+10     	; 0x302c <main+0x2d6>
			}
		}
		// Arm when ArmMode is OFF
		else 
		{
			General_error &= ~(1 << DISARMED);			// Set flags to armed
    3022:	80 91 17 05 	lds	r24, 0x0517
    3026:	8b 7f       	andi	r24, 0xFB	; 251
    3028:	80 93 17 05 	sts	0x0517, r24
		//************************************************************
		//* Get RC data
		//************************************************************

		// Update zeroed RC channel data
		RxGetChannels();
    302c:	0e 94 18 3c 	call	0x7830	; 0x7830 <RxGetChannels>

		// Check for throttle reset
		if (MonopolarThrottle < THROTTLEIDLE)
    3030:	80 91 d4 07 	lds	r24, 0x07D4
    3034:	90 91 d5 07 	lds	r25, 0x07D5
    3038:	c2 97       	sbiw	r24, 0x32	; 50
    303a:	5c f4       	brge	.+22     	; 0x3052 <main+0x2fc>
		{
			// Clear throttle high error
			General_error &= ~(1 << THROTTLE_HIGH);	
    303c:	80 91 17 05 	lds	r24, 0x0517
    3040:	8e 7f       	andi	r24, 0xFE	; 254
    3042:	80 93 17 05 	sts	0x0517, r24

			// Reset I-terms at throttle cut. Using memset saves code space
			memset(&IntegralGyro[P1][ROLL], 0, sizeof(int32_t) * 6); 
    3046:	e8 e9       	ldi	r30, 0x98	; 152
    3048:	f7 e0       	ldi	r31, 0x07	; 7
    304a:	28 e1       	ldi	r18, 0x18	; 24
    304c:	11 92       	st	Z+, r1
    304e:	2a 95       	dec	r18
    3050:	e9 f7       	brne	.-6      	; 0x304c <main+0x2f6>
		//* by the Config.TransitionSpeed setting.
		//* The transition will hold at P1n position if directed to
		//************************************************************

		// P2 transition point hard-coded to 50% above center
		if 	(RCinputs[Config.FlightChan] > 500)
    3052:	e0 91 d1 05 	lds	r30, 0x05D1
    3056:	ee 0f       	add	r30, r30
    3058:	ff 0b       	sbc	r31, r31
    305a:	ea 52       	subi	r30, 0x2A	; 42
    305c:	f8 4f       	sbci	r31, 0xF8	; 248
    305e:	80 81       	ld	r24, Z
    3060:	91 81       	ldd	r25, Z+1	; 0x01
    3062:	85 3f       	cpi	r24, 0xF5	; 245
    3064:	31 e0       	ldi	r19, 0x01	; 1
    3066:	93 07       	cpc	r25, r19
    3068:	24 f0       	brlt	.+8      	; 0x3072 <main+0x31c>
		{
			Config.FlightSel = 2;			// Flight mode 2 (P2)
    306a:	42 e0       	ldi	r20, 0x02	; 2
    306c:	40 93 5b 07 	sts	0x075B, r20
    3070:	0a c0       	rjmp	.+20     	; 0x3086 <main+0x330>
		}
		// P1.n transition point hard-coded to 50% below center
		else if (RCinputs[Config.FlightChan] > -500)
    3072:	8d 30       	cpi	r24, 0x0D	; 13
    3074:	5e ef       	ldi	r21, 0xFE	; 254
    3076:	95 07       	cpc	r25, r21
    3078:	24 f0       	brlt	.+8      	; 0x3082 <main+0x32c>
		{
			Config.FlightSel = 1;			// Flight mode 1 (P1.n)
    307a:	21 e0       	ldi	r18, 0x01	; 1
    307c:	20 93 5b 07 	sts	0x075B, r18
    3080:	02 c0       	rjmp	.+4      	; 0x3086 <main+0x330>
		}
		// Otherwise the default is P1
		else
		{
			Config.FlightSel = 0;			// Flight mode 0 (P1)
    3082:	10 92 5b 07 	sts	0x075B, r1
		//* Set up the correct state for the current setting.
		//* Check for initial startup - the only time that old_flight should be "3".
		//* Also, re-initialise if the transition setting is changed
		//************************************************************

		if ((old_flight == 3) || (old_trans_mode != Config.TransitionSpeed))
    3086:	03 30       	cpi	r16, 0x03	; 3
    3088:	29 f0       	breq	.+10     	; 0x3094 <main+0x33e>
    308a:	20 91 d5 05 	lds	r18, 0x05D5
    308e:	38 8d       	ldd	r19, Y+24	; 0x18
    3090:	32 17       	cp	r19, r18
    3092:	41 f1       	breq	.+80     	; 0x30e4 <main+0x38e>
		{
			switch(Config.FlightSel)
    3094:	00 91 5b 07 	lds	r16, 0x075B
    3098:	01 30       	cpi	r16, 0x01	; 1
    309a:	59 f0       	breq	.+22     	; 0x30b2 <main+0x35c>
    309c:	02 30       	cpi	r16, 0x02	; 2
    309e:	b1 f0       	breq	.+44     	; 0x30cc <main+0x376>
    30a0:	01 11       	cpse	r16, r1
    30a2:	1d c0       	rjmp	.+58     	; 0x30de <main+0x388>
			{
				case 0:
					Transition_state = TRANS_P1;
    30a4:	10 92 1a 05 	sts	0x051A, r1
					transition_counter = 0;
    30a8:	10 92 1c 05 	sts	0x051C, r1
    30ac:	10 92 1b 05 	sts	0x051B, r1
					break;
    30b0:	16 c0       	rjmp	.+44     	; 0x30de <main+0x388>
				case 1:
					Transition_state = TRANS_P1n;
    30b2:	44 e0       	ldi	r20, 0x04	; 4
    30b4:	40 93 1a 05 	sts	0x051A, r20
					transition_counter = Config.Transition_P1n; // Set transition point to the user-selected point
    30b8:	20 91 d6 05 	lds	r18, 0x05D6
    30bc:	33 27       	eor	r19, r19
    30be:	27 fd       	sbrc	r18, 7
    30c0:	30 95       	com	r19
    30c2:	30 93 1c 05 	sts	0x051C, r19
    30c6:	20 93 1b 05 	sts	0x051B, r18
					break;
    30ca:	09 c0       	rjmp	.+18     	; 0x30de <main+0x388>
				case 2:
					Transition_state = TRANS_P2;
    30cc:	29 e0       	ldi	r18, 0x09	; 9
    30ce:	20 93 1a 05 	sts	0x051A, r18
					transition_counter = 100;
    30d2:	e4 e6       	ldi	r30, 0x64	; 100
    30d4:	f0 e0       	ldi	r31, 0x00	; 0
    30d6:	f0 93 1c 05 	sts	0x051C, r31
    30da:	e0 93 1b 05 	sts	0x051B, r30
					break;
				default:
					break;
			}		 
			old_flight = Config.FlightSel;
			old_trans_mode = Config.TransitionSpeed;
    30de:	20 91 d5 05 	lds	r18, 0x05D5
    30e2:	28 8f       	std	Y+24, r18	; 0x18
		//************************************************************
		//* Transition state handling
		//************************************************************

		// Update timed transition when changing flight modes
		if (Config.FlightSel != old_flight)
    30e4:	30 91 5b 07 	lds	r19, 0x075B
    30e8:	3d 87       	std	Y+13, r19	; 0x0d
    30ea:	31 e0       	ldi	r19, 0x01	; 1
    30ec:	4d 85       	ldd	r20, Y+13	; 0x0d
    30ee:	40 13       	cpse	r20, r16
    30f0:	01 c0       	rjmp	.+2      	; 0x30f4 <main+0x39e>
    30f2:	30 e0       	ldi	r19, 0x00	; 0
			TransitionUpdated = true;
		}

		// Work out transition number when manually transitioning
		// Convert number to percentage (0 to 100%)
		if (Config.TransitionSpeed == 0)
    30f4:	20 91 d5 05 	lds	r18, 0x05D5
    30f8:	21 11       	cpse	r18, r1
    30fa:	16 c0       	rjmp	.+44     	; 0x3128 <main+0x3d2>
    30fc:	88 51       	subi	r24, 0x18	; 24
    30fe:	9c 4f       	sbci	r25, 0xFC	; 252
    3100:	97 ff       	sbrs	r25, 7
    3102:	02 c0       	rjmp	.+4      	; 0x3108 <main+0x3b2>
    3104:	80 e0       	ldi	r24, 0x00	; 0
    3106:	90 e0       	ldi	r25, 0x00	; 0
			// Trim lower end to zero (0 to 2250)
			if (temp1 < 0) temp1 = 0;

			// Convert 0 to 2250 to 0 to 125. Divide by 20
			// Round to avoid truncation errors
			transition = (temp1 + 10) / 20;
    3108:	0a 96       	adiw	r24, 0x0a	; 10
    310a:	64 e1       	ldi	r22, 0x14	; 20
    310c:	70 e0       	ldi	r23, 0x00	; 0
    310e:	0e 94 f2 40 	call	0x81e4	; 0x81e4 <__divmodhi4>

			// transition now has a range of 0 to 101 for 0 to 2000 input
			// Limit extent of transition value 0 to 100 (101 steps)
			if (transition > 100) transition = 100;
    3112:	65 36       	cpi	r22, 0x65	; 101
    3114:	71 05       	cpc	r23, r1
    3116:	0c f4       	brge	.+2      	; 0x311a <main+0x3c4>
    3118:	00 c2       	rjmp	.+1024   	; 0x351a <main+0x7c4>
    311a:	84 e6       	ldi	r24, 0x64	; 100
    311c:	90 e0       	ldi	r25, 0x00	; 0
    311e:	90 93 19 05 	sts	0x0519, r25
    3122:	80 93 18 05 	sts	0x0518, r24
    3126:	fd c1       	rjmp	.+1018   	; 0x3522 <main+0x7cc>
		}
		else
		{
			// transition_counter counts from 0 to 100 (101 steps)
			transition = transition_counter;
    3128:	80 91 1b 05 	lds	r24, 0x051B
    312c:	90 91 1c 05 	lds	r25, 0x051C
    3130:	90 93 19 05 	sts	0x0519, r25
    3134:	80 93 18 05 	sts	0x0518, r24
		{
			Transition_state = TRANSITIONING;
		}

		// Update transition state change when control value or flight mode changes
		if (TransitionUpdated)
    3138:	33 23       	and	r19, r19
    313a:	99 f0       	breq	.+38     	; 0x3162 <main+0x40c>
		{
			// Update transition state from matrix
			Transition_state = (uint8_t)pgm_read_byte(&Trans_Matrix[Config.FlightSel][old_flight]);
    313c:	4d 85       	ldd	r20, Y+13	; 0x0d
    313e:	84 2f       	mov	r24, r20
    3140:	99 27       	eor	r25, r25
    3142:	87 fd       	sbrc	r24, 7
    3144:	90 95       	com	r25
    3146:	fc 01       	movw	r30, r24
    3148:	ee 0f       	add	r30, r30
    314a:	ff 1f       	adc	r31, r31
    314c:	e8 0f       	add	r30, r24
    314e:	f9 1f       	adc	r31, r25
    3150:	e0 0f       	add	r30, r16
    3152:	f1 1d       	adc	r31, r1
    3154:	07 fd       	sbrc	r16, 7
    3156:	fa 95       	dec	r31
    3158:	ea 52       	subi	r30, 0x2A	; 42
    315a:	ff 4f       	sbci	r31, 0xFF	; 255
    315c:	e4 91       	lpm	r30, Z
    315e:	e0 93 1a 05 	sts	0x051A, r30
		}

		// Update state, values and transition_counter every Config.TransitionSpeed if not zero. 195 = 10ms
		if (((Config.TransitionSpeed != 0) && (Transition_timeout > (TRANSITION_TIMER * Config.TransitionSpeed))) ||
    3162:	22 23       	and	r18, r18
    3164:	39 f0       	breq	.+14     	; 0x3174 <main+0x41e>
    3166:	53 ec       	ldi	r21, 0xC3	; 195
    3168:	25 03       	mulsu	r18, r21
    316a:	c0 01       	movw	r24, r0
    316c:	11 24       	eor	r1, r1
    316e:	88 15       	cp	r24, r8
    3170:	99 05       	cpc	r25, r9
    3172:	18 f0       	brcs	.+6      	; 0x317a <main+0x424>
    3174:	33 23       	and	r19, r19
    3176:	09 f4       	brne	.+2      	; 0x317a <main+0x424>
    3178:	a9 c0       	rjmp	.+338    	; 0x32cc <main+0x576>
		{
			Transition_timeout = 0;
			TransitionUpdated = false;

			// Fixed, end-point states
			if (Transition_state == TRANS_P1)
    317a:	80 91 1a 05 	lds	r24, 0x051A
    317e:	81 11       	cpse	r24, r1
    3180:	05 c0       	rjmp	.+10     	; 0x318c <main+0x436>
			{
				transition_counter = 0;
    3182:	10 92 1c 05 	sts	0x051C, r1
    3186:	10 92 1b 05 	sts	0x051B, r1
    318a:	22 c0       	rjmp	.+68     	; 0x31d0 <main+0x47a>
			}
			else if (Transition_state == TRANS_P1n)
    318c:	84 30       	cpi	r24, 0x04	; 4
    318e:	31 f4       	brne	.+12     	; 0x319c <main+0x446>
			{
				transition_counter = Config.Transition_P1n;
    3190:	80 91 d6 05 	lds	r24, 0x05D6
    3194:	99 27       	eor	r25, r25
    3196:	87 fd       	sbrc	r24, 7
    3198:	90 95       	com	r25
    319a:	04 c0       	rjmp	.+8      	; 0x31a4 <main+0x44e>
			}
			else if (Transition_state == TRANS_P2)
    319c:	89 30       	cpi	r24, 0x09	; 9
    319e:	39 f4       	brne	.+14     	; 0x31ae <main+0x458>
			{
				transition_counter = 100;
    31a0:	84 e6       	ldi	r24, 0x64	; 100
    31a2:	90 e0       	ldi	r25, 0x00	; 0
    31a4:	90 93 1c 05 	sts	0x051C, r25
    31a8:	80 93 1b 05 	sts	0x051B, r24
    31ac:	11 c0       	rjmp	.+34     	; 0x31d0 <main+0x47a>
			}		

			// Over-ride users requesting silly states
			// If transition_counter is above P1.n but request is P1 to P1.n or 
			// if transition_counter is below P1.n but request is P2 to P1.n...
			if ((Transition_state == TRANS_P1_to_P1n_start) && (transition_counter > Config.Transition_P1n))
    31ae:	81 30       	cpi	r24, 0x01	; 1
    31b0:	79 f4       	brne	.+30     	; 0x31d0 <main+0x47a>
    31b2:	80 91 d6 05 	lds	r24, 0x05D6
    31b6:	99 27       	eor	r25, r25
    31b8:	87 fd       	sbrc	r24, 7
    31ba:	90 95       	com	r25
    31bc:	20 91 1b 05 	lds	r18, 0x051B
    31c0:	30 91 1c 05 	lds	r19, 0x051C
    31c4:	82 17       	cp	r24, r18
    31c6:	93 07       	cpc	r25, r19
    31c8:	1c f4       	brge	.+6      	; 0x31d0 <main+0x47a>
			{
				// Reset state to a more appropriate one
				Transition_state = TRANS_P2_to_P1n_start;
    31ca:	88 e0       	ldi	r24, 0x08	; 8
    31cc:	80 93 1a 05 	sts	0x051A, r24
			}

			if ((Transition_state == TRANS_P2_to_P1n_start) && (transition_counter < Config.Transition_P1n))
    31d0:	80 91 1a 05 	lds	r24, 0x051A
    31d4:	88 30       	cpi	r24, 0x08	; 8
    31d6:	79 f4       	brne	.+30     	; 0x31f6 <main+0x4a0>
    31d8:	80 91 d6 05 	lds	r24, 0x05D6
    31dc:	99 27       	eor	r25, r25
    31de:	87 fd       	sbrc	r24, 7
    31e0:	90 95       	com	r25
    31e2:	20 91 1b 05 	lds	r18, 0x051B
    31e6:	30 91 1c 05 	lds	r19, 0x051C
    31ea:	28 17       	cp	r18, r24
    31ec:	39 07       	cpc	r19, r25
    31ee:	1c f4       	brge	.+6      	; 0x31f6 <main+0x4a0>
			{
				// Reset state to a more appropriate one
				Transition_state = TRANS_P1_to_P1n_start;
    31f0:	81 e0       	ldi	r24, 0x01	; 1
    31f2:	80 93 1a 05 	sts	0x051A, r24
			}

			// Handle timed transition towards P1
			if ((Transition_state == TRANS_P1n_to_P1_start) || (Transition_state == TRANS_P2_to_P1_start))
    31f6:	80 91 1a 05 	lds	r24, 0x051A
    31fa:	8b 7f       	andi	r24, 0xFB	; 251
    31fc:	82 30       	cpi	r24, 0x02	; 2
    31fe:	91 f4       	brne	.+36     	; 0x3224 <main+0x4ce>
			{
				transition_counter--;
    3200:	80 91 1b 05 	lds	r24, 0x051B
    3204:	90 91 1c 05 	lds	r25, 0x051C
    3208:	01 97       	sbiw	r24, 0x01	; 1
    320a:	90 93 1c 05 	sts	0x051C, r25
    320e:	80 93 1b 05 	sts	0x051B, r24
				if (transition_counter <= 0)
    3212:	18 16       	cp	r1, r24
    3214:	19 06       	cpc	r1, r25
    3216:	34 f0       	brlt	.+12     	; 0x3224 <main+0x4ce>
				{
					transition_counter = 0;
    3218:	10 92 1c 05 	sts	0x051C, r1
    321c:	10 92 1b 05 	sts	0x051B, r1
					Transition_state = TRANS_P1;
    3220:	10 92 1a 05 	sts	0x051A, r1
				}
			}

			// Handle timed transition between P1.n and P1
			if (Transition_state == TRANS_P1_to_P1n_start)
    3224:	80 91 1a 05 	lds	r24, 0x051A
    3228:	81 30       	cpi	r24, 0x01	; 1
    322a:	c1 f4       	brne	.+48     	; 0x325c <main+0x506>
			{
				transition_counter++;
    322c:	80 91 1b 05 	lds	r24, 0x051B
    3230:	90 91 1c 05 	lds	r25, 0x051C
    3234:	01 96       	adiw	r24, 0x01	; 1
    3236:	90 93 1c 05 	sts	0x051C, r25
    323a:	80 93 1b 05 	sts	0x051B, r24
				if (transition_counter >= Config.Transition_P1n)
    323e:	20 91 d6 05 	lds	r18, 0x05D6
    3242:	33 27       	eor	r19, r19
    3244:	27 fd       	sbrc	r18, 7
    3246:	30 95       	com	r19
    3248:	82 17       	cp	r24, r18
    324a:	93 07       	cpc	r25, r19
    324c:	3c f0       	brlt	.+14     	; 0x325c <main+0x506>
				{
					transition_counter = Config.Transition_P1n;
    324e:	30 93 1c 05 	sts	0x051C, r19
    3252:	20 93 1b 05 	sts	0x051B, r18
					Transition_state = TRANS_P1n;
    3256:	94 e0       	ldi	r25, 0x04	; 4
    3258:	90 93 1a 05 	sts	0x051A, r25
				}
			}			
				
			// Handle timed transition between P1.n and P2
			if (Transition_state == TRANS_P2_to_P1n_start)
    325c:	80 91 1a 05 	lds	r24, 0x051A
    3260:	88 30       	cpi	r24, 0x08	; 8
    3262:	c1 f4       	brne	.+48     	; 0x3294 <main+0x53e>
			{
				transition_counter--;
    3264:	80 91 1b 05 	lds	r24, 0x051B
    3268:	90 91 1c 05 	lds	r25, 0x051C
    326c:	01 97       	sbiw	r24, 0x01	; 1
    326e:	90 93 1c 05 	sts	0x051C, r25
    3272:	80 93 1b 05 	sts	0x051B, r24
				if (transition_counter <= Config.Transition_P1n)
    3276:	20 91 d6 05 	lds	r18, 0x05D6
    327a:	33 27       	eor	r19, r19
    327c:	27 fd       	sbrc	r18, 7
    327e:	30 95       	com	r19
    3280:	28 17       	cp	r18, r24
    3282:	39 07       	cpc	r19, r25
    3284:	3c f0       	brlt	.+14     	; 0x3294 <main+0x53e>
				{
					transition_counter = Config.Transition_P1n;
    3286:	30 93 1c 05 	sts	0x051C, r19
    328a:	20 93 1b 05 	sts	0x051B, r18
					Transition_state = TRANS_P1n;
    328e:	e4 e0       	ldi	r30, 0x04	; 4
    3290:	e0 93 1a 05 	sts	0x051A, r30
				}
			}

			// Handle timed transition towards P2
			if ((Transition_state == TRANS_P1n_to_P2_start) || (Transition_state == TRANS_P1_to_P2_start))
    3294:	80 91 1a 05 	lds	r24, 0x051A
    3298:	8b 7f       	andi	r24, 0xFB	; 251
    329a:	83 30       	cpi	r24, 0x03	; 3
    329c:	a9 f4       	brne	.+42     	; 0x32c8 <main+0x572>
			{
				transition_counter++;
    329e:	80 91 1b 05 	lds	r24, 0x051B
    32a2:	90 91 1c 05 	lds	r25, 0x051C
    32a6:	01 96       	adiw	r24, 0x01	; 1
    32a8:	90 93 1c 05 	sts	0x051C, r25
    32ac:	80 93 1b 05 	sts	0x051B, r24
				if (transition_counter >= 100)
    32b0:	84 36       	cpi	r24, 0x64	; 100
    32b2:	91 05       	cpc	r25, r1
    32b4:	4c f0       	brlt	.+18     	; 0x32c8 <main+0x572>
				{
					transition_counter = 100;
    32b6:	24 e6       	ldi	r18, 0x64	; 100
    32b8:	30 e0       	ldi	r19, 0x00	; 0
    32ba:	30 93 1c 05 	sts	0x051C, r19
    32be:	20 93 1b 05 	sts	0x051B, r18
					Transition_state = TRANS_P2;
    32c2:	89 e0       	ldi	r24, 0x09	; 9
    32c4:	80 93 1a 05 	sts	0x051A, r24
		// Update state, values and transition_counter every Config.TransitionSpeed if not zero. 195 = 10ms
		if (((Config.TransitionSpeed != 0) && (Transition_timeout > (TRANSITION_TIMER * Config.TransitionSpeed))) ||
			// Update immediately
			TransitionUpdated)
		{
			Transition_timeout = 0;
    32c8:	81 2c       	mov	r8, r1
    32ca:	91 2c       	mov	r9, r1
			}

		} // Update transition_counter

		// Zero the I-terms of the opposite state so as to ensure a bump-less transition
		if ((Transition_state == TRANS_P1) || (transition == 0))
    32cc:	20 91 1a 05 	lds	r18, 0x051A
    32d0:	22 23       	and	r18, r18
    32d2:	31 f0       	breq	.+12     	; 0x32e0 <main+0x58a>
    32d4:	80 91 18 05 	lds	r24, 0x0518
    32d8:	90 91 19 05 	lds	r25, 0x0519
    32dc:	00 97       	sbiw	r24, 0x00	; 0
    32de:	21 f4       	brne	.+8      	; 0x32e8 <main+0x592>
		{
			// Clear P2 I-term while fully in P1
			memset(&IntegralGyro[P2][ROLL], 0, sizeof(int32_t) * NUMBEROFAXIS);
    32e0:	8c e0       	ldi	r24, 0x0C	; 12
    32e2:	e4 ea       	ldi	r30, 0xA4	; 164
    32e4:	f7 e0       	ldi	r31, 0x07	; 7
    32e6:	08 c0       	rjmp	.+16     	; 0x32f8 <main+0x5a2>
		}
		else if ((Transition_state == TRANS_P2) || (transition == 100))
    32e8:	29 30       	cpi	r18, 0x09	; 9
    32ea:	19 f0       	breq	.+6      	; 0x32f2 <main+0x59c>
    32ec:	84 36       	cpi	r24, 0x64	; 100
    32ee:	91 05       	cpc	r25, r1
    32f0:	31 f4       	brne	.+12     	; 0x32fe <main+0x5a8>
		{
			// Clear P1 I-term while fully in P2
			memset(&IntegralGyro[P1][ROLL], 0, sizeof(int32_t) * NUMBEROFAXIS);
    32f2:	8c e0       	ldi	r24, 0x0C	; 12
    32f4:	e8 e9       	ldi	r30, 0x98	; 152
    32f6:	f7 e0       	ldi	r31, 0x07	; 7
    32f8:	11 92       	st	Z+, r1
    32fa:	8a 95       	dec	r24
    32fc:	e9 f7       	brne	.-6      	; 0x32f8 <main+0x5a2>
		//************************************************************
		//* Update timers
		//************************************************************

		// Safely get current value of TCNT1
		Save_TCNT1 = TIM16_ReadTCNT1();
    32fe:	0e 94 e5 26 	call	0x4dca	; 0x4dca <TIM16_ReadTCNT1>
    3302:	9a 8f       	std	Y+26, r25	; 0x1a
    3304:	89 8f       	std	Y+25, r24	; 0x19
		
		// 32-bit timers (Max. 1718s measurement on T1, 220K seconds on T2)

		// Work out the current RC rate by measuring between incoming RC packets
		RC_Rate_Timer += (Save_TCNT1 - RC_Rate_TCNT1);
    3306:	2e 85       	ldd	r18, Y+14	; 0x0e
    3308:	3f 85       	ldd	r19, Y+15	; 0x0f
    330a:	82 1b       	sub	r24, r18
    330c:	93 0b       	sbc	r25, r19
    330e:	48 0e       	add	r4, r24
    3310:	59 1e       	adc	r5, r25
    3312:	61 1c       	adc	r6, r1
    3314:	71 1c       	adc	r7, r1
		RC_Rate_TCNT1 = Save_TCNT1;

		// Arm timer for timing stick hold
		Arm_timer += (uint8_t) (TCNT2 - Arm_TCNT2); 
    3316:	80 91 b2 00 	lds	r24, 0x00B2
    331a:	3c 89       	ldd	r19, Y+20	; 0x14
    331c:	83 1b       	sub	r24, r19
    331e:	c8 0e       	add	r12, r24
    3320:	d1 1c       	adc	r13, r1
    3322:	e1 1c       	adc	r14, r1
    3324:	f1 1c       	adc	r15, r1
		Arm_TCNT2 = TCNT2;
    3326:	40 91 b2 00 	lds	r20, 0x00B2
    332a:	4c 8b       	std	Y+20, r20	; 0x14

		// 16-bit timers (Max. 3.35s measurement on T2)
		// All TCNT2 timers increment at 19.531 kHz

		// Sets the desired SERVO_RATE by flagging ServoTick when PWM due
		Servo_Rate += (uint8_t) (TCNT2 - ServoRate_TCNT2);
    332c:	80 91 b2 00 	lds	r24, 0x00B2
    3330:	2f 89       	ldd	r18, Y+23	; 0x17
    3332:	82 1b       	sub	r24, r18
    3334:	4b 8d       	ldd	r20, Y+27	; 0x1b
    3336:	5c 8d       	ldd	r21, Y+28	; 0x1c
    3338:	48 0f       	add	r20, r24
    333a:	51 1d       	adc	r21, r1
    333c:	5c 8f       	std	Y+28, r21	; 0x1c
    333e:	4b 8f       	std	Y+27, r20	; 0x1b
		ServoRate_TCNT2 = TCNT2;
    3340:	20 91 b2 00 	lds	r18, 0x00B2
    3344:	2f 8b       	std	Y+23, r18	; 0x17
		
		// Signal RC overdue after RC_OVERDUE time (500ms)
		RC_Timeout += (uint8_t) (TCNT2 - Servo_TCNT2);
    3346:	80 91 b2 00 	lds	r24, 0x00B2
    334a:	3e 89       	ldd	r19, Y+22	; 0x16
    334c:	83 1b       	sub	r24, r19
    334e:	4d 81       	ldd	r20, Y+5	; 0x05
    3350:	5e 81       	ldd	r21, Y+6	; 0x06
    3352:	48 0f       	add	r20, r24
    3354:	51 1d       	adc	r21, r1
    3356:	5e 83       	std	Y+6, r21	; 0x06
    3358:	4d 83       	std	Y+5, r20	; 0x05
		Servo_TCNT2 = TCNT2;
    335a:	20 91 b2 00 	lds	r18, 0x00B2
    335e:	2e 8b       	std	Y+22, r18	; 0x16
		
		// Update transition timer
		Transition_timeout += (uint8_t) (TCNT2 - Transition_TCNT2);
    3360:	80 91 b2 00 	lds	r24, 0x00B2
    3364:	38 89       	ldd	r19, Y+16	; 0x10
    3366:	83 1b       	sub	r24, r19
    3368:	88 0e       	add	r8, r24
    336a:	91 1c       	adc	r9, r1
		Transition_TCNT2 = TCNT2;
    336c:	40 91 b2 00 	lds	r20, 0x00B2
    3370:	48 8b       	std	Y+16, r20	; 0x10

		// Update status timeout
		Status_timeout += (uint8_t) (TCNT2 - Status_TCNT2);
    3372:	80 91 b2 00 	lds	r24, 0x00B2
    3376:	29 89       	ldd	r18, Y+17	; 0x11
    3378:	82 1b       	sub	r24, r18
    337a:	49 81       	ldd	r20, Y+1	; 0x01
    337c:	5a 81       	ldd	r21, Y+2	; 0x02
    337e:	48 0f       	add	r20, r24
    3380:	51 1d       	adc	r21, r1
    3382:	5a 83       	std	Y+2, r21	; 0x02
    3384:	49 83       	std	Y+1, r20	; 0x01
		Status_TCNT2 = TCNT2;
    3386:	20 91 b2 00 	lds	r18, 0x00B2
    338a:	29 8b       	std	Y+17, r18	; 0x11
		
		// Status refresh timer
		UpdateStatus_timer += (uint8_t) (TCNT2 - Refresh_TCNT2);
    338c:	80 91 b2 00 	lds	r24, 0x00B2
    3390:	3a 89       	ldd	r19, Y+18	; 0x12
    3392:	83 1b       	sub	r24, r19
    3394:	4b 81       	ldd	r20, Y+3	; 0x03
    3396:	5c 81       	ldd	r21, Y+4	; 0x04
    3398:	48 0f       	add	r20, r24
    339a:	51 1d       	adc	r21, r1
    339c:	5c 83       	std	Y+4, r21	; 0x04
    339e:	4b 83       	std	Y+3, r20	; 0x03
		Refresh_TCNT2 = TCNT2;
    33a0:	20 91 b2 00 	lds	r18, 0x00B2
    33a4:	2a 8b       	std	Y+18, r18	; 0x12

		// Auto-disarm timer
		Disarm_timer += (uint8_t) (TCNT2 - Disarm_TCNT2);
    33a6:	80 91 b2 00 	lds	r24, 0x00B2
    33aa:	3b 89       	ldd	r19, Y+19	; 0x13
    33ac:	83 1b       	sub	r24, r19
    33ae:	28 0e       	add	r2, r24
    33b0:	31 1c       	adc	r3, r1
		Disarm_TCNT2 = TCNT2;
    33b2:	40 91 b2 00 	lds	r20, 0x00B2
    33b6:	4b 8b       	std	Y+19, r20	; 0x13

		// Timer for audible alarms
		Ticker_Count += (uint8_t) (TCNT2 - Ticker_TCNT2);
    33b8:	80 91 b2 00 	lds	r24, 0x00B2
    33bc:	2d 89       	ldd	r18, Y+21	; 0x15
    33be:	82 1b       	sub	r24, r18
    33c0:	4b 85       	ldd	r20, Y+11	; 0x0b
    33c2:	5c 85       	ldd	r21, Y+12	; 0x0c
    33c4:	48 0f       	add	r20, r24
    33c6:	51 1d       	adc	r21, r1
    33c8:	5c 87       	std	Y+12, r21	; 0x0c
    33ca:	4b 87       	std	Y+11, r20	; 0x0b
		Ticker_TCNT2 = TCNT2;
    33cc:	20 91 b2 00 	lds	r18, 0x00B2
    33d0:	2d 8b       	std	Y+21, r18	; 0x15

		//************************************************************
		//* Read sensors
		//************************************************************

		ReadGyros();
    33d2:	0e 94 89 1d 	call	0x3b12	; 0x3b12 <ReadGyros>
		ReadAcc();
    33d6:	0e 94 46 0f 	call	0x1e8c	; 0x1e8c <ReadAcc>
		// These two are concatenated to create a virtual timer that can measure up to 
		// 256 x 26.2ms = 6.7072s at which point the "period" is 16,768,000, a 24-bit number
		//************************************************************
		
		// Safely get current value of TCNT1
		Save_TCNT1 = TIM16_ReadTCNT1();
    33da:	0e 94 e5 26 	call	0x4dca	; 0x4dca <TIM16_ReadTCNT1>
		
		// Reset Timer0 count
		TCNT0 = 0;
    33de:	16 bc       	out	0x26, r1	; 38
		{
			ticker_16 = (65536 - LoopStartTCNT1) + Save_TCNT1;
		}
		else
		{
			ticker_16 = (Save_TCNT1 - LoopStartTCNT1);
    33e0:	20 91 10 05 	lds	r18, 0x0510
    33e4:	30 91 11 05 	lds	r19, 0x0511
    33e8:	ac 01       	movw	r20, r24
    33ea:	42 1b       	sub	r20, r18
    33ec:	53 0b       	sbc	r21, r19
		}
		
		// Store old TCNT for next measurement
		LoopStartTCNT1 = Save_TCNT1;
    33ee:	90 93 11 05 	sts	0x0511, r25
    33f2:	80 93 10 05 	sts	0x0510, r24
		
		// Handle both Timer1 under- and over-run cases
		// If TMR0_counter is less than 2, ICNT1 has not overflowed
		if (TMR0_counter < 2)
    33f6:	80 91 79 07 	lds	r24, 0x0779
    33fa:	90 91 7a 07 	lds	r25, 0x077A
    33fe:	60 e0       	ldi	r22, 0x00	; 0
    3400:	70 e0       	ldi	r23, 0x00	; 0
    3402:	02 97       	sbiw	r24, 0x02	; 2
    3404:	48 f4       	brcc	.+18     	; 0x3418 <main+0x6c2>
		{
			interval = ticker_16;
    3406:	40 93 4f 05 	sts	0x054F, r20
    340a:	50 93 50 05 	sts	0x0550, r21
    340e:	60 93 51 05 	sts	0x0551, r22
    3412:	70 93 52 05 	sts	0x0552, r23
    3416:	19 c0       	rjmp	.+50     	; 0x344a <main+0x6f4>
		// If TMR0_counter is 2 or more, then TCNT1 has overflowed
		// So we use chunks of TCNT0, counted during the loop interval
		// to work out the exact period.
		else
		{
			interval = ticker_16 + (TMR0_counter * 32768);
    3418:	80 91 79 07 	lds	r24, 0x0779
    341c:	90 91 7a 07 	lds	r25, 0x077A
    3420:	a0 e0       	ldi	r26, 0x00	; 0
    3422:	b0 e0       	ldi	r27, 0x00	; 0
    3424:	2f e0       	ldi	r18, 0x0F	; 15
    3426:	88 0f       	add	r24, r24
    3428:	99 1f       	adc	r25, r25
    342a:	aa 1f       	adc	r26, r26
    342c:	bb 1f       	adc	r27, r27
    342e:	2a 95       	dec	r18
    3430:	d1 f7       	brne	.-12     	; 0x3426 <main+0x6d0>
    3432:	84 0f       	add	r24, r20
    3434:	95 1f       	adc	r25, r21
    3436:	a6 1f       	adc	r26, r22
    3438:	b7 1f       	adc	r27, r23
    343a:	80 93 4f 05 	sts	0x054F, r24
    343e:	90 93 50 05 	sts	0x0550, r25
    3442:	a0 93 51 05 	sts	0x0551, r26
    3446:	b0 93 52 05 	sts	0x0552, r27
		}

		TMR0_counter = 0;
    344a:	10 92 7a 07 	sts	0x077A, r1
    344e:	10 92 79 07 	sts	0x0779, r1
				
		// Call IMU with interval
		simple_imu_update(interval);
    3452:	60 91 4f 05 	lds	r22, 0x054F
    3456:	70 91 50 05 	lds	r23, 0x0550
    345a:	80 91 51 05 	lds	r24, 0x0551
    345e:	90 91 52 05 	lds	r25, 0x0552
    3462:	0e 94 89 21 	call	0x4312	; 0x4312 <simple_imu_update>

		//************************************************************
		//* Update I-terms, average gyro values
		//************************************************************

		Sensor_PID();
    3466:	0e 94 03 38 	call	0x7006	; 0x7006 <Sensor_PID>
		//************************************************************
		//* Measure incoming RC rate and flag no signal
		//************************************************************

		// Check to see if the RC input is overdue (500ms)
		if (RC_Timeout > RC_OVERDUE)
    346a:	2d 81       	ldd	r18, Y+5	; 0x05
    346c:	3e 81       	ldd	r19, Y+6	; 0x06
    346e:	26 32       	cpi	r18, 0x26	; 38
    3470:	36 42       	sbci	r19, 0x26	; 38
    3472:	18 f0       	brcs	.+6      	; 0x347a <main+0x724>
		{
			Overdue = true;	// This results in a "No Signal" error
    3474:	81 e0       	ldi	r24, 0x01	; 1
    3476:	80 93 0f 05 	sts	0x050F, r24
		}

		if (Interrupted)
    347a:	80 91 76 07 	lds	r24, 0x0776
    347e:	88 23       	and	r24, r24
    3480:	89 f0       	breq	.+34     	; 0x34a4 <main+0x74e>
		{
			RC_Timeout = 0;					// Reset RC timeout
			Overdue = false;				// No longer overdue			
    3482:	10 92 0f 05 	sts	0x050F, r1
			
			// Measure incoming RC rate. Threshold is 60Hz.
			if (RC_Rate_Timer > SLOW_RC_RATE)
    3486:	21 e0       	ldi	r18, 0x01	; 1
    3488:	2a 87       	std	Y+10, r18	; 0x0a
    348a:	34 ec       	ldi	r19, 0xC4	; 196
    348c:	43 16       	cp	r4, r19
    348e:	32 ea       	ldi	r19, 0xA2	; 162
    3490:	53 06       	cpc	r5, r19
    3492:	61 04       	cpc	r6, r1
    3494:	71 04       	cpc	r7, r1
    3496:	08 f4       	brcc	.+2      	; 0x349a <main+0x744>
    3498:	1a 86       	std	Y+10, r1	; 0x0a
			Overdue = true;	// This results in a "No Signal" error
		}

		if (Interrupted)
		{
			RC_Timeout = 0;					// Reset RC timeout
    349a:	1e 82       	std	Y+6, r1	; 0x06
    349c:	1d 82       	std	Y+5, r1	; 0x05
			else
			{
				SlowRC = false;
			}

			RC_Rate_Timer = 0;
    349e:	41 2c       	mov	r4, r1
    34a0:	51 2c       	mov	r5, r1
    34a2:	32 01       	movw	r6, r4
		//* Manage desired output update rate when limited by
		//* the PWM rate set to "Low"
		//************************************************************

		// Flag update required based on SERVO_RATE_LOW (50Hz)
		if (Servo_Rate > SERVO_RATE_LOW)
    34a4:	4b 8d       	ldd	r20, Y+27	; 0x1b
    34a6:	5c 8d       	ldd	r21, Y+28	; 0x1c
    34a8:	47 38       	cpi	r20, 0x87	; 135
    34aa:	51 40       	sbci	r21, 0x01	; 1
    34ac:	20 f0       	brcs	.+8      	; 0x34b6 <main+0x760>
		{
			ServoTick = true; // Slow device is ready for output generation
			Servo_Rate = 0;
    34ae:	1c 8e       	std	Y+28, r1	; 0x1c
    34b0:	1b 8e       	std	Y+27, r1	; 0x1b
		//************************************************************

		// Flag update required based on SERVO_RATE_LOW (50Hz)
		if (Servo_Rate > SERVO_RATE_LOW)
		{
			ServoTick = true; // Slow device is ready for output generation
    34b2:	21 e0       	ldi	r18, 0x01	; 1
    34b4:	29 87       	std	Y+9, r18	; 0x09
		//************************************************************

		// Cases where we are ready to output
		if	(
				// Interrupted and LOW or SYNC
				Interrupted &&												// Only when interrupted (RC receive completed)
    34b6:	80 91 76 07 	lds	r24, 0x0776
		//* Output PWM to ESCs/Servos where required, 
		//* based on a very specific set of conditions
		//************************************************************

		// Cases where we are ready to output
		if	(
    34ba:	88 23       	and	r24, r24
    34bc:	f1 f0       	breq	.+60     	; 0x34fa <main+0x7a4>
				// Interrupted and LOW or SYNC
				Interrupted &&												// Only when interrupted (RC receive completed)
    34be:	3a 85       	ldd	r19, Y+10	; 0x0a
    34c0:	31 11       	cpse	r19, r1
    34c2:	03 c0       	rjmp	.+6      	; 0x34ca <main+0x774>
				(
					(SlowRC && (Config.Servo_rate == LOW)) || 				// Plan A (Run as fast as the incoming RC if slow RC detected with LOW selected)
    34c4:	49 85       	ldd	r20, Y+9	; 0x09
    34c6:	44 23       	and	r20, r20
    34c8:	21 f0       	breq	.+8      	; 0x34d2 <main+0x77c>
    34ca:	80 91 32 06 	lds	r24, 0x0632
    34ce:	88 23       	and	r24, r24
    34d0:	21 f0       	breq	.+8      	; 0x34da <main+0x784>
					(ServoTick && !SlowRC && (Config.Servo_rate == LOW)) ||	// Plan B (Run no faster than the preset rate (ServoTick) if fast RC detected with LOW selected)
    34d2:	80 91 32 06 	lds	r24, 0x0632
    34d6:	18 16       	cp	r1, r24
    34d8:	84 f4       	brge	.+32     	; 0x34fa <main+0x7a4>
					(Config.Servo_rate >= SYNC)								// Plan C (Run as fast as the incoming RC if in SYNC or MAX modes)
				)
			)
		{
			Interrupted = false;				// Reset interrupted flag
    34da:	10 92 76 07 	sts	0x0776, r1
			ServoTick = false;					// Reset output requested flag
			Servo_Rate = 0;						// Reset servo rate timer
			
			Calculate_PID();					// Calculate PID values
    34de:	0e 94 93 39 	call	0x7326	; 0x7326 <Calculate_PID>
			ProcessMixer();						// Do all the mixer tasks - can be very slow
    34e2:	0e 94 ef 31 	call	0x63de	; 0x63de <ProcessMixer>
			UpdateServos();						// Transfer Config.Channel[i].value data to ServoOut[i] and check servo limits
    34e6:	0e 94 9b 31 	call	0x6336	; 0x6336 <UpdateServos>
			output_servo_ppm();					// Output servo signal
    34ea:	0e 94 f1 3c 	call	0x79e2	; 0x79e2 <output_servo_ppm>
			
			LoopCount = 0;						// Reset loop counter for averaging accVert
    34ee:	10 92 0e 05 	sts	0x050E, r1
				)
			)
		{
			Interrupted = false;				// Reset interrupted flag
			ServoTick = false;					// Reset output requested flag
			Servo_Rate = 0;						// Reset servo rate timer
    34f2:	1c 8e       	std	Y+28, r1	; 0x1c
    34f4:	1b 8e       	std	Y+27, r1	; 0x1b
					(Config.Servo_rate >= SYNC)								// Plan C (Run as fast as the incoming RC if in SYNC or MAX modes)
				)
			)
		{
			Interrupted = false;				// Reset interrupted flag
			ServoTick = false;					// Reset output requested flag
    34f6:	19 86       	std	Y+9, r1	; 0x09
			Calculate_PID();					// Calculate PID values
			ProcessMixer();						// Do all the mixer tasks - can be very slow
			UpdateServos();						// Transfer Config.Channel[i].value data to ServoOut[i] and check servo limits
			output_servo_ppm();					// Output servo signal
			
			LoopCount = 0;						// Reset loop counter for averaging accVert
    34f8:	02 c0       	rjmp	.+4      	; 0x34fe <main+0x7a8>
		}

		// Not ready for output, so cancel the current interrupt and wait for the next one
		else
		{
			Interrupted = false;				// Reset interrupted flag
    34fa:	10 92 76 07 	sts	0x0776, r1
		//* Carefully update idle screen if error level changed
		//************************************************************	

		// Only update idle when error state has changed.
		// This prevents the continual updating of the LCD disrupting the FC
		if (old_alarms != General_error)
    34fe:	80 91 17 05 	lds	r24, 0x0517
    3502:	90 91 14 05 	lds	r25, 0x0514
    3506:	98 13       	cpse	r25, r24
		{
			// Force update of idle screen
			Menu_mode = STATUS_TIMEOUT;
    3508:	16 e0       	ldi	r17, 0x06	; 6
		}
			
		// Save current alarm state into old_alarms
		old_alarms = General_error;
    350a:	80 93 14 05 	sts	0x0514, r24
		//************************************************************
		//* Transition state handling
		//************************************************************

		// Update timed transition when changing flight modes
		if (Config.FlightSel != old_flight)
    350e:	0d 85       	ldd	r16, Y+13	; 0x0d
		
		// 32-bit timers (Max. 1718s measurement on T1, 220K seconds on T2)

		// Work out the current RC rate by measuring between incoming RC packets
		RC_Rate_Timer += (Save_TCNT1 - RC_Rate_TCNT1);
		RC_Rate_TCNT1 = Save_TCNT1;
    3510:	29 8d       	ldd	r18, Y+25	; 0x19
    3512:	3a 8d       	ldd	r19, Y+26	; 0x1a
    3514:	3f 87       	std	Y+15, r19	; 0x0f
    3516:	2e 87       	std	Y+14, r18	; 0x0e
		}
			
		// Save current alarm state into old_alarms
		old_alarms = General_error;
		
	} // while loop
    3518:	4d cc       	rjmp	.-1894   	; 0x2db4 <main+0x5e>
			// Trim lower end to zero (0 to 2250)
			if (temp1 < 0) temp1 = 0;

			// Convert 0 to 2250 to 0 to 125. Divide by 20
			// Round to avoid truncation errors
			transition = (temp1 + 10) / 20;
    351a:	70 93 19 05 	sts	0x0519, r23
    351e:	60 93 18 05 	sts	0x0518, r22

		// Always in the TRANSITIONING state when Config.TransitionSpeed is 0
		// This prevents state changes when controlled by a channel
		if (Config.TransitionSpeed == 0)
		{
			Transition_state = TRANSITIONING;
    3522:	45 e0       	ldi	r20, 0x05	; 5
    3524:	40 93 1a 05 	sts	0x051A, r20
    3528:	07 ce       	rjmp	.-1010   	; 0x3138 <main+0x3e2>

0000352a <spiwrite>:
const uint8_t pagemap[] PROGMEM 		= { 7, 6, 5, 4, 3, 2, 1, 0 }; 
const uint8_t lcd_commmands[] PROGMEM	= {0xAF,0x40,0xA0,0xA6,0xA4,0xA2,0xEE,0xC8,0x2F,0x24,0xAC,0x00,0xF8,0x00};	// LCD command string 14

// Software SPI write
inline void spiwrite(uint8_t c) 
{
    352a:	0f 93       	push	r16
    352c:	1f 93       	push	r17
    352e:	cf 93       	push	r28
    3530:	df 93       	push	r29
    3532:	c7 e0       	ldi	r28, 0x07	; 7
    3534:	d0 e0       	ldi	r29, 0x00	; 0
	int8_t i;
	for (i = 7; i >= 0; i--) 
	{
		LCD_SCL = 0;
		if (c & (1 << (i)))		// Bit set?
    3536:	08 2f       	mov	r16, r24
    3538:	10 e0       	ldi	r17, 0x00	; 0
inline void spiwrite(uint8_t c) 
{
	int8_t i;
	for (i = 7; i >= 0; i--) 
	{
		LCD_SCL = 0;
    353a:	5c 98       	cbi	0x0b, 4	; 11
		if (c & (1 << (i)))		// Bit set?
    353c:	c8 01       	movw	r24, r16
    353e:	0c 2e       	mov	r0, r28
    3540:	02 c0       	rjmp	.+4      	; 0x3546 <spiwrite+0x1c>
    3542:	95 95       	asr	r25
    3544:	87 95       	ror	r24
    3546:	0a 94       	dec	r0
    3548:	e2 f7       	brpl	.-8      	; 0x3542 <spiwrite+0x18>
    354a:	80 ff       	sbrs	r24, 0
    354c:	02 c0       	rjmp	.+4      	; 0x3552 <spiwrite+0x28>
		{
			LCD_SI = 1;
    354e:	59 9a       	sbi	0x0b, 1	; 11
    3550:	01 c0       	rjmp	.+2      	; 0x3554 <spiwrite+0x2a>
		}
		else					// Bit clear?
		{
			LCD_SI = 0;
    3552:	59 98       	cbi	0x0b, 1	; 11
		}
		
		LCD_SCL = 1;
    3554:	5c 9a       	sbi	0x0b, 4	; 11

		glcd_delay();			// 250ns
    3556:	0e 94 2d 0d 	call	0x1a5a	; 0x1a5a <glcd_delay>
    355a:	21 97       	sbiw	r28, 0x01	; 1
    355c:	70 f7       	brcc	.-36     	; 0x353a <spiwrite+0x10>
	}
}
    355e:	df 91       	pop	r29
    3560:	cf 91       	pop	r28
    3562:	1f 91       	pop	r17
    3564:	0f 91       	pop	r16
    3566:	08 95       	ret

00003568 <st7565_command>:

// Send command to LCD
void st7565_command(uint8_t c) 
{
	LCD_A0 = 0;
    3568:	5f 98       	cbi	0x0b, 7	; 11
	spiwrite(c);
    356a:	0e 94 95 1a 	call	0x352a	; 0x352a <spiwrite>
    356e:	08 95       	ret

00003570 <st7565_data>:
}

// Send data to LCD
void st7565_data(uint8_t c) 
{
	LCD_A0 = 1;
    3570:	5f 9a       	sbi	0x0b, 7	; 11
	spiwrite(c);
    3572:	0e 94 95 1a 	call	0x352a	; 0x352a <spiwrite>
    3576:	08 95       	ret

00003578 <st7565_set_brightness>:
}


// Set LCD brightness
void st7565_set_brightness(uint8_t val) 
{
    3578:	cf 93       	push	r28
    357a:	c8 2f       	mov	r28, r24
	st7565_command(CMD_SET_VOLUME_FIRST);					// 0x81
    357c:	81 e8       	ldi	r24, 0x81	; 129
    357e:	0e 94 b4 1a 	call	0x3568	; 0x3568 <st7565_command>
	st7565_command(val);
    3582:	8c 2f       	mov	r24, r28
    3584:	0e 94 b4 1a 	call	0x3568	; 0x3568 <st7565_command>
}
    3588:	cf 91       	pop	r28
    358a:	08 95       	ret

0000358c <st7565_init>:
	spiwrite(c);
}

// Initialise LCD
void st7565_init(void) 
{
    358c:	cf 93       	push	r28
    358e:	df 93       	push	r29
	// Toggle RST low to reset and CS low so it'll listen to us
	LCD_CSI = 0;
    3590:	5d 98       	cbi	0x0b, 5	; 11
	LCD_RES = 0;
    3592:	5e 98       	cbi	0x0b, 6	; 11
    3594:	87 e8       	ldi	r24, 0x87	; 135
    3596:	93 e1       	ldi	r25, 0x13	; 19
    3598:	01 97       	sbiw	r24, 0x01	; 1
    359a:	f1 f7       	brne	.-4      	; 0x3598 <st7565_init+0xc>
    359c:	00 c0       	rjmp	.+0      	; 0x359e <st7565_init+0x12>
    359e:	00 00       	nop
	_delay_ms(1); // Datasheet says 1us for 3.3V operation
	LCD_RES = 1;
    35a0:	5e 9a       	sbi	0x0b, 6	; 11
    35a2:	c8 ec       	ldi	r28, 0xC8	; 200
    35a4:	dd e0       	ldi	r29, 0x0D	; 13

	// Send command sequence
	for (int i = 0; i < 14; i++)
	{
		st7565_command((uint8_t)pgm_read_byte(&lcd_commmands[i]));
    35a6:	fe 01       	movw	r30, r28
    35a8:	84 91       	lpm	r24, Z
    35aa:	0e 94 b4 1a 	call	0x3568	; 0x3568 <st7565_command>
    35ae:	21 96       	adiw	r28, 0x01	; 1
	LCD_RES = 0;
	_delay_ms(1); // Datasheet says 1us for 3.3V operation
	LCD_RES = 1;

	// Send command sequence
	for (int i = 0; i < 14; i++)
    35b0:	fd e0       	ldi	r31, 0x0D	; 13
    35b2:	c6 3d       	cpi	r28, 0xD6	; 214
    35b4:	df 07       	cpc	r29, r31
    35b6:	b9 f7       	brne	.-18     	; 0x35a6 <st7565_init+0x1a>
	{
		st7565_command((uint8_t)pgm_read_byte(&lcd_commmands[i]));
	}

	st7565_set_brightness((uint8_t)Config.Contrast);	
    35b8:	80 91 2e 06 	lds	r24, 0x062E
    35bc:	0e 94 bc 1a 	call	0x3578	; 0x3578 <st7565_set_brightness>
	st7565_command(CMD_SET_COM_REVERSE); 		// For logo	0xC8
    35c0:	88 ec       	ldi	r24, 0xC8	; 200
    35c2:	0e 94 b4 1a 	call	0x3568	; 0x3568 <st7565_command>
}
    35c6:	df 91       	pop	r29
    35c8:	cf 91       	pop	r28
    35ca:	08 95       	ret

000035cc <write_buffer>:
	st7565_command(val);
}

// Write LCD buffer if type = 1 normal, 0 = logo.
void write_buffer(uint8_t *buffer, uint8_t type) 
{
    35cc:	a0 e0       	ldi	r26, 0x00	; 0
    35ce:	b0 e0       	ldi	r27, 0x00	; 0
    35d0:	ec ee       	ldi	r30, 0xEC	; 236
    35d2:	fa e1       	ldi	r31, 0x1A	; 26
    35d4:	0c 94 89 41 	jmp	0x8312	; 0x8312 <__prologue_saves__+0x16>
    35d8:	c6 ed       	ldi	r28, 0xD6	; 214
    35da:	dd e0       	ldi	r29, 0x0D	; 13
    35dc:	8c 01       	movw	r16, r24
	uint8_t c, p;
	for(p = 0; p < 8; p++) 
	{
		st7565_command(CMD_SET_PAGE | (uint8_t)pgm_read_byte(&pagemap[p]));		// Page 7 to 0
    35de:	fe 01       	movw	r30, r28
    35e0:	84 91       	lpm	r24, Z
    35e2:	80 6b       	ori	r24, 0xB0	; 176
    35e4:	0e 94 b4 1a 	call	0x3568	; 0x3568 <st7565_command>
		st7565_command(CMD_SET_COLUMN_LOWER | (0x0 & 0xf));						// Column 0
    35e8:	80 e0       	ldi	r24, 0x00	; 0
    35ea:	0e 94 b4 1a 	call	0x3568	; 0x3568 <st7565_command>
		st7565_command(CMD_SET_COLUMN_UPPER | ((0x0 >> 4) & 0xf));				// Column 0
    35ee:	80 e1       	ldi	r24, 0x10	; 16
    35f0:	0e 94 b4 1a 	call	0x3568	; 0x3568 <st7565_command>
		st7565_command(CMD_RMW);												// Sets auto-increment
    35f4:	80 ee       	ldi	r24, 0xE0	; 224
    35f6:	0e 94 b4 1a 	call	0x3568	; 0x3568 <st7565_command>
    35fa:	78 01       	movw	r14, r16

		for(c = 0; c < 128; c++) 
    35fc:	d1 2c       	mov	r13, r1
		{
			st7565_data(buffer[(128*p)+c]);
    35fe:	f7 01       	movw	r30, r14
    3600:	81 91       	ld	r24, Z+
    3602:	7f 01       	movw	r14, r30
    3604:	0e 94 b8 1a 	call	0x3570	; 0x3570 <st7565_data>
		st7565_command(CMD_SET_PAGE | (uint8_t)pgm_read_byte(&pagemap[p]));		// Page 7 to 0
		st7565_command(CMD_SET_COLUMN_LOWER | (0x0 & 0xf));						// Column 0
		st7565_command(CMD_SET_COLUMN_UPPER | ((0x0 >> 4) & 0xf));				// Column 0
		st7565_command(CMD_RMW);												// Sets auto-increment

		for(c = 0; c < 128; c++) 
    3608:	d3 94       	inc	r13
    360a:	f0 e8       	ldi	r31, 0x80	; 128
    360c:	df 12       	cpse	r13, r31
    360e:	f7 cf       	rjmp	.-18     	; 0x35fe <write_buffer+0x32>
    3610:	21 96       	adiw	r28, 0x01	; 1
    3612:	00 58       	subi	r16, 0x80	; 128
    3614:	1f 4f       	sbci	r17, 0xFF	; 255

// Write LCD buffer if type = 1 normal, 0 = logo.
void write_buffer(uint8_t *buffer, uint8_t type) 
{
	uint8_t c, p;
	for(p = 0; p < 8; p++) 
    3616:	8d e0       	ldi	r24, 0x0D	; 13
    3618:	ce 3d       	cpi	r28, 0xDE	; 222
    361a:	d8 07       	cpc	r29, r24
    361c:	01 f7       	brne	.-64     	; 0x35de <write_buffer+0x12>
		for(c = 0; c < 128; c++) 
		{
			st7565_data(buffer[(128*p)+c]);
		}
	}
}
    361e:	cd b7       	in	r28, 0x3d	; 61
    3620:	de b7       	in	r29, 0x3e	; 62
    3622:	e7 e0       	ldi	r30, 0x07	; 7
    3624:	0c 94 a5 41 	jmp	0x834a	; 0x834a <__epilogue_restores__+0x16>

00003628 <clear_buffer>:

// Clear buffer
void clear_buffer(uint8_t *buff) 
{
	memset(buff, 0, 1024);
    3628:	20 e0       	ldi	r18, 0x00	; 0
    362a:	34 e0       	ldi	r19, 0x04	; 4
    362c:	fc 01       	movw	r30, r24
    362e:	a9 01       	movw	r20, r18
    3630:	11 92       	st	Z+, r1
    3632:	41 50       	subi	r20, 0x01	; 1
    3634:	50 40       	sbci	r21, 0x00	; 0
    3636:	e1 f7       	brne	.-8      	; 0x3630 <clear_buffer+0x8>
    3638:	08 95       	ret

0000363a <clear_screen>:
}

#ifdef KK21
// Clear screen (does not clear buffer)
void clear_screen(void)
{
    363a:	cf 93       	push	r28
    363c:	df 93       	push	r29
	uint8_t p, c;

	for(p = 0; p < 8; p++)
    363e:	d0 e0       	ldi	r29, 0x00	; 0
	{
		st7565_command(CMD_SET_PAGE | p);								// Set page to p
    3640:	8d 2f       	mov	r24, r29
    3642:	80 6b       	ori	r24, 0xB0	; 176
    3644:	0e 94 b4 1a 	call	0x3568	; 0x3568 <st7565_command>
		for(c = 0; c < 128; c++) 										// Was 129, which I think is wrong...
    3648:	c0 e0       	ldi	r28, 0x00	; 0
		{
			st7565_command(CMD_SET_COLUMN_LOWER | (c & 0xf));
    364a:	8c 2f       	mov	r24, r28
    364c:	8f 70       	andi	r24, 0x0F	; 15
    364e:	0e 94 b4 1a 	call	0x3568	; 0x3568 <st7565_command>
			st7565_command(CMD_SET_COLUMN_UPPER | ((c >> 4) & 0xf));	// Set column to c
    3652:	8c 2f       	mov	r24, r28
    3654:	82 95       	swap	r24
    3656:	8f 70       	andi	r24, 0x0F	; 15
    3658:	80 61       	ori	r24, 0x10	; 16
    365a:	0e 94 b4 1a 	call	0x3568	; 0x3568 <st7565_command>
			st7565_data(0x00);											// Clear data
    365e:	80 e0       	ldi	r24, 0x00	; 0
    3660:	0e 94 b8 1a 	call	0x3570	; 0x3570 <st7565_data>
	uint8_t p, c;

	for(p = 0; p < 8; p++)
	{
		st7565_command(CMD_SET_PAGE | p);								// Set page to p
		for(c = 0; c < 128; c++) 										// Was 129, which I think is wrong...
    3664:	cf 5f       	subi	r28, 0xFF	; 255
    3666:	c0 38       	cpi	r28, 0x80	; 128
    3668:	81 f7       	brne	.-32     	; 0x364a <clear_screen+0x10>
// Clear screen (does not clear buffer)
void clear_screen(void)
{
	uint8_t p, c;

	for(p = 0; p < 8; p++)
    366a:	df 5f       	subi	r29, 0xFF	; 255
    366c:	d8 30       	cpi	r29, 0x08	; 8
    366e:	41 f7       	brne	.-48     	; 0x3640 <clear_screen+0x6>
			st7565_command(CMD_SET_COLUMN_LOWER | (c & 0xf));
			st7565_command(CMD_SET_COLUMN_UPPER | ((c >> 4) & 0xf));	// Set column to c
			st7565_data(0x00);											// Clear data
		}
	}
}
    3670:	df 91       	pop	r29
    3672:	cf 91       	pop	r28
    3674:	08 95       	ret

00003676 <setpixel>:
//***********************************************************

// Set a single pixel
void setpixel(uint8_t *buff, uint8_t x, uint8_t y, uint8_t color) 
{
	if ((x >= LCDWIDTH) || (y >= LCDHEIGHT))
    3676:	67 fd       	sbrc	r22, 7
    3678:	36 c0       	rjmp	.+108    	; 0x36e6 <setpixel+0x70>
    367a:	40 34       	cpi	r20, 0x40	; 64
    367c:	a0 f5       	brcc	.+104    	; 0x36e6 <setpixel+0x70>
    367e:	34 2f       	mov	r19, r20
    3680:	36 95       	lsr	r19
    3682:	36 95       	lsr	r19
    3684:	36 95       	lsr	r19
    3686:	e6 2f       	mov	r30, r22
    3688:	f0 e0       	ldi	r31, 0x00	; 0
    368a:	50 e0       	ldi	r21, 0x00	; 0
	{
		return;
	}
	// x is which column
	if (color)
    368c:	22 23       	and	r18, r18
    368e:	a9 f0       	breq	.+42     	; 0x36ba <setpixel+0x44>
	{
		buff[x+ (y/8)*128] |= (1 << (7-(y%8)));  
    3690:	20 e8       	ldi	r18, 0x80	; 128
    3692:	32 9f       	mul	r19, r18
    3694:	e0 0d       	add	r30, r0
    3696:	f1 1d       	adc	r31, r1
    3698:	11 24       	eor	r1, r1
    369a:	e8 0f       	add	r30, r24
    369c:	f9 1f       	adc	r31, r25
    369e:	40 95       	com	r20
    36a0:	50 95       	com	r21
    36a2:	47 70       	andi	r20, 0x07	; 7
    36a4:	55 27       	eor	r21, r21
    36a6:	81 e0       	ldi	r24, 0x01	; 1
    36a8:	90 e0       	ldi	r25, 0x00	; 0
    36aa:	04 2e       	mov	r0, r20
    36ac:	01 c0       	rjmp	.+2      	; 0x36b0 <setpixel+0x3a>
    36ae:	88 0f       	add	r24, r24
    36b0:	0a 94       	dec	r0
    36b2:	ea f7       	brpl	.-6      	; 0x36ae <setpixel+0x38>
    36b4:	90 81       	ld	r25, Z
    36b6:	98 2b       	or	r25, r24
    36b8:	15 c0       	rjmp	.+42     	; 0x36e4 <setpixel+0x6e>
	}
	else
	{
		buff[x+ (y/8)*128] &= ~(1 << (7-(y%8))); 
    36ba:	20 e8       	ldi	r18, 0x80	; 128
    36bc:	32 9f       	mul	r19, r18
    36be:	e0 0d       	add	r30, r0
    36c0:	f1 1d       	adc	r31, r1
    36c2:	11 24       	eor	r1, r1
    36c4:	e8 0f       	add	r30, r24
    36c6:	f9 1f       	adc	r31, r25
    36c8:	40 95       	com	r20
    36ca:	50 95       	com	r21
    36cc:	47 70       	andi	r20, 0x07	; 7
    36ce:	55 27       	eor	r21, r21
    36d0:	81 e0       	ldi	r24, 0x01	; 1
    36d2:	90 e0       	ldi	r25, 0x00	; 0
    36d4:	04 2e       	mov	r0, r20
    36d6:	01 c0       	rjmp	.+2      	; 0x36da <setpixel+0x64>
    36d8:	88 0f       	add	r24, r24
    36da:	0a 94       	dec	r0
    36dc:	ea f7       	brpl	.-6      	; 0x36d8 <setpixel+0x62>
    36de:	80 95       	com	r24
    36e0:	90 81       	ld	r25, Z
    36e2:	98 23       	and	r25, r24
    36e4:	90 83       	st	Z, r25
    36e6:	08 95       	ret

000036e8 <drawline>:
	}
}

// Bresenham's algorithm - From wikipedia
void drawline(uint8_t *buff, uint8_t x0, uint8_t y0, uint8_t x1, uint8_t y1, uint8_t color) 
{
    36e8:	a0 e0       	ldi	r26, 0x00	; 0
    36ea:	b0 e0       	ldi	r27, 0x00	; 0
    36ec:	ea e7       	ldi	r30, 0x7A	; 122
    36ee:	fb e1       	ldi	r31, 0x1B	; 27
    36f0:	0c 94 85 41 	jmp	0x830a	; 0x830a <__prologue_saves__+0xe>
    36f4:	ec 01       	movw	r28, r24
    36f6:	16 2f       	mov	r17, r22
    36f8:	f4 2e       	mov	r15, r20
    36fa:	d2 2e       	mov	r13, r18
	uint8_t steep = abs(y1 - y0) > abs(x1 - x0);
    36fc:	a0 2f       	mov	r26, r16
    36fe:	b0 e0       	ldi	r27, 0x00	; 0
    3700:	a4 1b       	sub	r26, r20
    3702:	b1 09       	sbc	r27, r1
    3704:	b7 ff       	sbrs	r27, 7
    3706:	03 c0       	rjmp	.+6      	; 0x370e <drawline+0x26>
    3708:	b1 95       	neg	r27
    370a:	a1 95       	neg	r26
    370c:	b1 09       	sbc	r27, r1
    370e:	ed 2d       	mov	r30, r13
    3710:	f0 e0       	ldi	r31, 0x00	; 0
    3712:	e1 1b       	sub	r30, r17
    3714:	f1 09       	sbc	r31, r1
    3716:	f7 ff       	sbrs	r31, 7
    3718:	03 c0       	rjmp	.+6      	; 0x3720 <drawline+0x38>
    371a:	f1 95       	neg	r31
    371c:	e1 95       	neg	r30
    371e:	f1 09       	sbc	r31, r1
    3720:	bb 24       	eor	r11, r11
    3722:	b3 94       	inc	r11
    3724:	ea 17       	cp	r30, r26
    3726:	fb 07       	cpc	r31, r27
    3728:	14 f0       	brlt	.+4      	; 0x372e <drawline+0x46>
    372a:	b1 2c       	mov	r11, r1
    372c:	06 c0       	rjmp	.+12     	; 0x373a <drawline+0x52>
    372e:	8d 2d       	mov	r24, r13
	if (steep) 
	{
		swap(x0, y0);
		swap(x1, y1);
    3730:	d0 2e       	mov	r13, r16
    3732:	08 2f       	mov	r16, r24
    3734:	81 2f       	mov	r24, r17
void drawline(uint8_t *buff, uint8_t x0, uint8_t y0, uint8_t x1, uint8_t y1, uint8_t color) 
{
	uint8_t steep = abs(y1 - y0) > abs(x1 - x0);
	if (steep) 
	{
		swap(x0, y0);
    3736:	1f 2d       	mov	r17, r15
    3738:	f8 2e       	mov	r15, r24
		swap(x1, y1);
	}

	if (x0 > x1) 
    373a:	d1 16       	cp	r13, r17
    373c:	30 f4       	brcc	.+12     	; 0x374a <drawline+0x62>
    373e:	8f 2d       	mov	r24, r15
	{
		swap(x0, x1);
		swap(y0, y1);
    3740:	f0 2e       	mov	r15, r16
    3742:	08 2f       	mov	r16, r24
    3744:	81 2f       	mov	r24, r17
    3746:	1d 2d       	mov	r17, r13
    3748:	d8 2e       	mov	r13, r24
	}

	uint8_t dx, dy;
	dx = x1 - x0;
    374a:	ad 2c       	mov	r10, r13
    374c:	a1 1a       	sub	r10, r17
	dy = abs(y1 - y0);
    374e:	e0 2f       	mov	r30, r16
    3750:	f0 e0       	ldi	r31, 0x00	; 0
    3752:	ef 19       	sub	r30, r15
    3754:	f1 09       	sbc	r31, r1
    3756:	f7 ff       	sbrs	r31, 7
    3758:	03 c0       	rjmp	.+6      	; 0x3760 <drawline+0x78>
    375a:	f1 95       	neg	r31
    375c:	e1 95       	neg	r30
    375e:	f1 09       	sbc	r31, r1
    3760:	9e 2e       	mov	r9, r30

	int8_t err = dx / 2;
    3762:	ca 2c       	mov	r12, r10
    3764:	c6 94       	lsr	r12
	int8_t ystep;

	if (y0 < y1) 
    3766:	f0 16       	cp	r15, r16
    3768:	10 f4       	brcc	.+4      	; 0x376e <drawline+0x86>
	{
		ystep = 1;
    376a:	01 e0       	ldi	r16, 0x01	; 1
    376c:	10 c0       	rjmp	.+32     	; 0x378e <drawline+0xa6>
	} 
	else 
	{
		ystep = -1;
    376e:	0f ef       	ldi	r16, 0xFF	; 255
    3770:	0e c0       	rjmp	.+28     	; 0x378e <drawline+0xa6>

	for (; x0<x1; x0++) 
	{
		if (steep) 
		{
			setpixel(buff, y0, x0, color);
    3772:	2e 2d       	mov	r18, r14
		ystep = -1;
	}

	for (; x0<x1; x0++) 
	{
		if (steep) 
    3774:	bb 20       	and	r11, r11
    3776:	71 f0       	breq	.+28     	; 0x3794 <drawline+0xac>
		{
			setpixel(buff, y0, x0, color);
    3778:	41 2f       	mov	r20, r17
    377a:	6f 2d       	mov	r22, r15
		} 
		else 
		{
			setpixel(buff, x0, y0, color);
    377c:	ce 01       	movw	r24, r28
    377e:	0e 94 3b 1b 	call	0x3676	; 0x3676 <setpixel>
		}
		err -= dy;
    3782:	c9 18       	sub	r12, r9
		if (err < 0) 
    3784:	c7 fe       	sbrs	r12, 7
    3786:	02 c0       	rjmp	.+4      	; 0x378c <drawline+0xa4>
		{
			y0 += ystep;
    3788:	f0 0e       	add	r15, r16
			err += dx;
    378a:	ca 0c       	add	r12, r10
	else 
	{
		ystep = -1;
	}

	for (; x0<x1; x0++) 
    378c:	1f 5f       	subi	r17, 0xFF	; 255
    378e:	1d 15       	cp	r17, r13
    3790:	80 f3       	brcs	.-32     	; 0x3772 <drawline+0x8a>
    3792:	03 c0       	rjmp	.+6      	; 0x379a <drawline+0xb2>
		{
			setpixel(buff, y0, x0, color);
		} 
		else 
		{
			setpixel(buff, x0, y0, color);
    3794:	4f 2d       	mov	r20, r15
    3796:	61 2f       	mov	r22, r17
    3798:	f1 cf       	rjmp	.-30     	; 0x377c <drawline+0x94>
		{
			y0 += ystep;
			err += dx;
		}
	}
}
    379a:	cd b7       	in	r28, 0x3d	; 61
    379c:	de b7       	in	r29, 0x3e	; 62
    379e:	eb e0       	ldi	r30, 0x0B	; 11
    37a0:	0c 94 a1 41 	jmp	0x8342	; 0x8342 <__epilogue_restores__+0xe>

000037a4 <fillrect>:

// Filled rectangle
void fillrect(uint8_t *buff, uint8_t x, uint8_t y, uint8_t w, uint8_t h, uint8_t color) 
{
    37a4:	a0 e0       	ldi	r26, 0x00	; 0
    37a6:	b0 e0       	ldi	r27, 0x00	; 0
    37a8:	e8 ed       	ldi	r30, 0xD8	; 216
    37aa:	fb e1       	ldi	r31, 0x1B	; 27
    37ac:	0c 94 86 41 	jmp	0x830c	; 0x830c <__prologue_saves__+0x10>
    37b0:	6c 01       	movw	r12, r24
    37b2:	a4 2e       	mov	r10, r20
	// Stupidest version - just pixels - but fast with internal buffer!
	for (uint8_t i=x; i<x+w; i++) 
    37b4:	f6 2e       	mov	r15, r22
    37b6:	c2 2f       	mov	r28, r18
    37b8:	d0 e0       	ldi	r29, 0x00	; 0
    37ba:	c6 0f       	add	r28, r22
    37bc:	d1 1d       	adc	r29, r1
	{
		for (uint8_t j=y; j<y+h; j++) 
    37be:	10 e0       	ldi	r17, 0x00	; 0
    37c0:	04 0f       	add	r16, r20
    37c2:	11 1d       	adc	r17, r1

// Filled rectangle
void fillrect(uint8_t *buff, uint8_t x, uint8_t y, uint8_t w, uint8_t h, uint8_t color) 
{
	// Stupidest version - just pixels - but fast with internal buffer!
	for (uint8_t i=x; i<x+w; i++) 
    37c4:	8f 2d       	mov	r24, r15
    37c6:	90 e0       	ldi	r25, 0x00	; 0
    37c8:	8c 17       	cp	r24, r28
    37ca:	9d 07       	cpc	r25, r29
    37cc:	84 f4       	brge	.+32     	; 0x37ee <fillrect+0x4a>
    37ce:	ba 2c       	mov	r11, r10
	{
		for (uint8_t j=y; j<y+h; j++) 
    37d0:	8b 2d       	mov	r24, r11
    37d2:	90 e0       	ldi	r25, 0x00	; 0
    37d4:	80 17       	cp	r24, r16
    37d6:	91 07       	cpc	r25, r17
    37d8:	44 f4       	brge	.+16     	; 0x37ea <fillrect+0x46>
		{
			setpixel(buff, i, j, color);
    37da:	2e 2d       	mov	r18, r14
    37dc:	4b 2d       	mov	r20, r11
    37de:	6f 2d       	mov	r22, r15
    37e0:	c6 01       	movw	r24, r12
    37e2:	0e 94 3b 1b 	call	0x3676	; 0x3676 <setpixel>
void fillrect(uint8_t *buff, uint8_t x, uint8_t y, uint8_t w, uint8_t h, uint8_t color) 
{
	// Stupidest version - just pixels - but fast with internal buffer!
	for (uint8_t i=x; i<x+w; i++) 
	{
		for (uint8_t j=y; j<y+h; j++) 
    37e6:	b3 94       	inc	r11
    37e8:	f3 cf       	rjmp	.-26     	; 0x37d0 <fillrect+0x2c>

// Filled rectangle
void fillrect(uint8_t *buff, uint8_t x, uint8_t y, uint8_t w, uint8_t h, uint8_t color) 
{
	// Stupidest version - just pixels - but fast with internal buffer!
	for (uint8_t i=x; i<x+w; i++) 
    37ea:	f3 94       	inc	r15
    37ec:	eb cf       	rjmp	.-42     	; 0x37c4 <fillrect+0x20>
		for (uint8_t j=y; j<y+h; j++) 
		{
			setpixel(buff, i, j, color);
		}
	}
}
    37ee:	cd b7       	in	r28, 0x3d	; 61
    37f0:	de b7       	in	r29, 0x3e	; 62
    37f2:	ea e0       	ldi	r30, 0x0A	; 10
    37f4:	0c 94 a2 41 	jmp	0x8344	; 0x8344 <__epilogue_restores__+0x10>

000037f8 <drawrect>:

// Draw a rectangle
void drawrect(uint8_t *buff, uint8_t x, uint8_t y, uint8_t w, uint8_t h, uint8_t color) 
{
    37f8:	a0 e0       	ldi	r26, 0x00	; 0
    37fa:	b0 e0       	ldi	r27, 0x00	; 0
    37fc:	e2 e0       	ldi	r30, 0x02	; 2
    37fe:	fc e1       	ldi	r31, 0x1C	; 28
    3800:	0c 94 85 41 	jmp	0x830a	; 0x830a <__prologue_saves__+0xe>
    3804:	ec 01       	movw	r28, r24
    3806:	f6 2e       	mov	r15, r22
    3808:	b4 2e       	mov	r11, r20
    380a:	92 2e       	mov	r9, r18
	// Stupidest version - just pixels - but fast with internal buffer!
	for (uint8_t i=x; i<x+w; i++) 
    380c:	16 2f       	mov	r17, r22
    380e:	c2 2e       	mov	r12, r18
    3810:	d1 2c       	mov	r13, r1
    3812:	c6 0e       	add	r12, r22
    3814:	d1 1c       	adc	r13, r1
	{
		setpixel(buff, i, y, color);
		setpixel(buff, i, y+h-1, color);
    3816:	aa 24       	eor	r10, r10
    3818:	aa 94       	dec	r10
    381a:	a0 0e       	add	r10, r16
    381c:	a4 0e       	add	r10, r20

// Draw a rectangle
void drawrect(uint8_t *buff, uint8_t x, uint8_t y, uint8_t w, uint8_t h, uint8_t color) 
{
	// Stupidest version - just pixels - but fast with internal buffer!
	for (uint8_t i=x; i<x+w; i++) 
    381e:	81 2f       	mov	r24, r17
    3820:	90 e0       	ldi	r25, 0x00	; 0
    3822:	8c 15       	cp	r24, r12
    3824:	9d 05       	cpc	r25, r13
    3826:	74 f4       	brge	.+28     	; 0x3844 <drawrect+0x4c>
	{
		setpixel(buff, i, y, color);
    3828:	2e 2d       	mov	r18, r14
    382a:	4b 2d       	mov	r20, r11
    382c:	61 2f       	mov	r22, r17
    382e:	ce 01       	movw	r24, r28
    3830:	0e 94 3b 1b 	call	0x3676	; 0x3676 <setpixel>
		setpixel(buff, i, y+h-1, color);
    3834:	2e 2d       	mov	r18, r14
    3836:	4a 2d       	mov	r20, r10
    3838:	61 2f       	mov	r22, r17
    383a:	ce 01       	movw	r24, r28
    383c:	0e 94 3b 1b 	call	0x3676	; 0x3676 <setpixel>

// Draw a rectangle
void drawrect(uint8_t *buff, uint8_t x, uint8_t y, uint8_t w, uint8_t h, uint8_t color) 
{
	// Stupidest version - just pixels - but fast with internal buffer!
	for (uint8_t i=x; i<x+w; i++) 
    3840:	1f 5f       	subi	r17, 0xFF	; 255
    3842:	ed cf       	rjmp	.-38     	; 0x381e <drawrect+0x26>
    3844:	db 2c       	mov	r13, r11
	{
		setpixel(buff, i, y, color);
		setpixel(buff, i, y+h-1, color);
	}
	for (uint8_t i=y; i<y+h; i++) 
    3846:	10 e0       	ldi	r17, 0x00	; 0
    3848:	0b 0d       	add	r16, r11
    384a:	11 1d       	adc	r17, r1
	{
		setpixel(buff, x, i, color);
		setpixel(buff, x+w-1, i, color);
    384c:	cc 24       	eor	r12, r12
    384e:	ca 94       	dec	r12
    3850:	c9 0c       	add	r12, r9
    3852:	cf 0c       	add	r12, r15
	for (uint8_t i=x; i<x+w; i++) 
	{
		setpixel(buff, i, y, color);
		setpixel(buff, i, y+h-1, color);
	}
	for (uint8_t i=y; i<y+h; i++) 
    3854:	8d 2d       	mov	r24, r13
    3856:	90 e0       	ldi	r25, 0x00	; 0
    3858:	80 17       	cp	r24, r16
    385a:	91 07       	cpc	r25, r17
    385c:	74 f4       	brge	.+28     	; 0x387a <drawrect+0x82>
	{
		setpixel(buff, x, i, color);
    385e:	2e 2d       	mov	r18, r14
    3860:	4d 2d       	mov	r20, r13
    3862:	6f 2d       	mov	r22, r15
    3864:	ce 01       	movw	r24, r28
    3866:	0e 94 3b 1b 	call	0x3676	; 0x3676 <setpixel>
		setpixel(buff, x+w-1, i, color);
    386a:	2e 2d       	mov	r18, r14
    386c:	4d 2d       	mov	r20, r13
    386e:	6c 2d       	mov	r22, r12
    3870:	ce 01       	movw	r24, r28
    3872:	0e 94 3b 1b 	call	0x3676	; 0x3676 <setpixel>
	for (uint8_t i=x; i<x+w; i++) 
	{
		setpixel(buff, i, y, color);
		setpixel(buff, i, y+h-1, color);
	}
	for (uint8_t i=y; i<y+h; i++) 
    3876:	d3 94       	inc	r13
    3878:	ed cf       	rjmp	.-38     	; 0x3854 <drawrect+0x5c>
	{
		setpixel(buff, x, i, color);
		setpixel(buff, x+w-1, i, color);
	} 
}
    387a:	cd b7       	in	r28, 0x3d	; 61
    387c:	de b7       	in	r29, 0x3e	; 62
    387e:	eb e0       	ldi	r30, 0x0B	; 11
    3880:	0c 94 a1 41 	jmp	0x8342	; 0x8342 <__epilogue_restores__+0xe>

00003884 <fillcircle>:

// Draw a filled circle
// Edge-clip bug fixed by D. Thompson - 3/2/2014
void fillcircle(uint8_t *buff, uint8_t x0, uint8_t y0, uint8_t r, uint8_t color) 
{
    3884:	a0 e0       	ldi	r26, 0x00	; 0
    3886:	b0 e0       	ldi	r27, 0x00	; 0
    3888:	e8 e4       	ldi	r30, 0x48	; 72
    388a:	fc e1       	ldi	r31, 0x1C	; 28
    388c:	0c 94 80 41 	jmp	0x8300	; 0x8300 <__prologue_saves__+0x4>
    3890:	ec 01       	movw	r28, r24
    3892:	96 2e       	mov	r9, r22
    3894:	a4 2e       	mov	r10, r20
	int8_t f = 1 - r;
    3896:	bb 24       	eor	r11, r11
    3898:	b3 94       	inc	r11
    389a:	b2 1a       	sub	r11, r18
	int8_t ddF_x = 1;
	int8_t ddF_y = -2 * r;
    389c:	82 2e       	mov	r8, r18
    389e:	81 94       	neg	r8
    38a0:	88 0c       	add	r8, r8
	int8_t x = 0;
	int8_t y = r;
    38a2:	12 2f       	mov	r17, r18
	int8_t i = 0;

	for (i=y0-r; i<=y0+r; i++) 
    38a4:	74 2e       	mov	r7, r20
    38a6:	72 1a       	sub	r7, r18
    38a8:	e4 2e       	mov	r14, r20
    38aa:	f1 2c       	mov	r15, r1
    38ac:	67 01       	movw	r12, r14
    38ae:	c2 0e       	add	r12, r18
    38b0:	d1 1c       	adc	r13, r1
    38b2:	87 2d       	mov	r24, r7
    38b4:	99 27       	eor	r25, r25
    38b6:	87 fd       	sbrc	r24, 7
    38b8:	90 95       	com	r25
    38ba:	c8 16       	cp	r12, r24
    38bc:	d9 06       	cpc	r13, r25
    38be:	44 f0       	brlt	.+16     	; 0x38d0 <fillcircle+0x4c>
	{
		setpixel(buff, x0, i, color);
    38c0:	20 2f       	mov	r18, r16
    38c2:	47 2d       	mov	r20, r7
    38c4:	69 2d       	mov	r22, r9
    38c6:	ce 01       	movw	r24, r28
    38c8:	0e 94 3b 1b 	call	0x3676	; 0x3676 <setpixel>
    38cc:	73 94       	inc	r7
    38ce:	f1 cf       	rjmp	.-30     	; 0x38b2 <fillcircle+0x2e>
	int8_t ddF_y = -2 * r;
	int8_t x = 0;
	int8_t y = r;
	int8_t i = 0;

	for (i=y0-r; i<=y0+r; i++) 
    38d0:	71 2c       	mov	r7, r1
	{
		setpixel(buff, x0, i, color);
	}

	while (x<y) 
    38d2:	71 16       	cp	r7, r17
    38d4:	0c f0       	brlt	.+2      	; 0x38d8 <fillcircle+0x54>
    38d6:	4c c0       	rjmp	.+152    	; 0x3970 <fillcircle+0xec>
	{
		if (f >= 0) 
    38d8:	b7 fc       	sbrc	r11, 7
    38da:	04 c0       	rjmp	.+8      	; 0x38e4 <fillcircle+0x60>
		{
			y--;
    38dc:	11 50       	subi	r17, 0x01	; 1
			ddF_y += 2;
    38de:	83 94       	inc	r8
    38e0:	83 94       	inc	r8
			f += ddF_y;
    38e2:	b8 0c       	add	r11, r8
    38e4:	73 94       	inc	r7
    38e6:	87 2d       	mov	r24, r7
    38e8:	88 0f       	add	r24, r24
    38ea:	8f 5f       	subi	r24, 0xFF	; 255
		}

		x++;
		ddF_x += 2;
		f += ddF_x;
    38ec:	b8 0e       	add	r11, r24

		for (i=y0-y; i<=y0+y; i++) 
    38ee:	6a 2c       	mov	r6, r10
    38f0:	61 1a       	sub	r6, r17
    38f2:	67 01       	movw	r12, r14
    38f4:	c1 0e       	add	r12, r17
    38f6:	d1 1c       	adc	r13, r1
    38f8:	17 fd       	sbrc	r17, 7
    38fa:	da 94       	dec	r13
    38fc:	47 2c       	mov	r4, r7
    38fe:	49 0c       	add	r4, r9
    3900:	59 2c       	mov	r5, r9
    3902:	57 18       	sub	r5, r7
    3904:	86 2d       	mov	r24, r6
    3906:	99 27       	eor	r25, r25
    3908:	87 fd       	sbrc	r24, 7
    390a:	90 95       	com	r25
    390c:	c8 16       	cp	r12, r24
    390e:	d9 06       	cpc	r13, r25
    3910:	74 f0       	brlt	.+28     	; 0x392e <fillcircle+0xaa>
		{
			setpixel(buff, x0+x, i, color);
    3912:	20 2f       	mov	r18, r16
    3914:	46 2d       	mov	r20, r6
    3916:	64 2d       	mov	r22, r4
    3918:	ce 01       	movw	r24, r28
    391a:	0e 94 3b 1b 	call	0x3676	; 0x3676 <setpixel>
			setpixel(buff, x0-x, i, color);
    391e:	20 2f       	mov	r18, r16
    3920:	46 2d       	mov	r20, r6
    3922:	65 2d       	mov	r22, r5
    3924:	ce 01       	movw	r24, r28
    3926:	0e 94 3b 1b 	call	0x3676	; 0x3676 <setpixel>
    392a:	63 94       	inc	r6
    392c:	eb cf       	rjmp	.-42     	; 0x3904 <fillcircle+0x80>
    392e:	6a 2c       	mov	r6, r10
    3930:	67 18       	sub	r6, r7
		} 
		for (i=y0-x; i<=y0+x; i++) 
    3932:	67 01       	movw	r12, r14
    3934:	c7 0c       	add	r12, r7
    3936:	d1 1c       	adc	r13, r1
    3938:	77 fc       	sbrc	r7, 7
    393a:	da 94       	dec	r13
		{
			setpixel(buff, x0+y, i, color);
    393c:	41 2e       	mov	r4, r17
    393e:	49 0c       	add	r4, r9
			setpixel(buff, x0-y, i, color);
    3940:	59 2c       	mov	r5, r9
    3942:	51 1a       	sub	r5, r17
		for (i=y0-y; i<=y0+y; i++) 
		{
			setpixel(buff, x0+x, i, color);
			setpixel(buff, x0-x, i, color);
		} 
		for (i=y0-x; i<=y0+x; i++) 
    3944:	86 2d       	mov	r24, r6
    3946:	99 27       	eor	r25, r25
    3948:	87 fd       	sbrc	r24, 7
    394a:	90 95       	com	r25
    394c:	c8 16       	cp	r12, r24
    394e:	d9 06       	cpc	r13, r25
    3950:	0c f4       	brge	.+2      	; 0x3954 <fillcircle+0xd0>
    3952:	bf cf       	rjmp	.-130    	; 0x38d2 <fillcircle+0x4e>
		{
			setpixel(buff, x0+y, i, color);
    3954:	20 2f       	mov	r18, r16
    3956:	46 2d       	mov	r20, r6
    3958:	64 2d       	mov	r22, r4
    395a:	ce 01       	movw	r24, r28
    395c:	0e 94 3b 1b 	call	0x3676	; 0x3676 <setpixel>
			setpixel(buff, x0-y, i, color);
    3960:	20 2f       	mov	r18, r16
    3962:	46 2d       	mov	r20, r6
    3964:	65 2d       	mov	r22, r5
    3966:	ce 01       	movw	r24, r28
    3968:	0e 94 3b 1b 	call	0x3676	; 0x3676 <setpixel>
    396c:	63 94       	inc	r6
    396e:	ea cf       	rjmp	.-44     	; 0x3944 <fillcircle+0xc0>
		}    
	}
}
    3970:	cd b7       	in	r28, 0x3d	; 61
    3972:	de b7       	in	r29, 0x3e	; 62
    3974:	e0 e1       	ldi	r30, 0x10	; 16
    3976:	0c 94 9c 41 	jmp	0x8338	; 0x8338 <__epilogue_restores__+0x4>

0000397a <LCD_Display_Text>:
//************************************************************

// Print Menuitem from Program memory at a particular location
void LCD_Display_Text (uint8_t menuitem, const unsigned char* font,uint16_t x, uint16_t y)
{
	gLCDprint_Menu_P((char*)pgm_read_word(&text_menu[menuitem]), font, x, y);
    397a:	e8 2f       	mov	r30, r24
    397c:	f0 e0       	ldi	r31, 0x00	; 0
    397e:	ee 0f       	add	r30, r30
    3980:	ff 1f       	adc	r31, r31
    3982:	e2 52       	subi	r30, 0x22	; 34
    3984:	f2 4f       	sbci	r31, 0xF2	; 242
    3986:	85 91       	lpm	r24, Z+
    3988:	94 91       	lpm	r25, Z
}

// Print a string from RAM at a particular location in a particular font
void gLCDprint_Menu_P(const char *s, const unsigned char* font,uint16_t x, uint16_t y)
{
	pgm_mugui_lcd_puts((const unsigned char*)s, font, x, y);
    398a:	0e 94 b8 37 	call	0x6f70	; 0x6f70 <pgm_mugui_lcd_puts>
    398e:	08 95       	ret

00003990 <gLCDprint_Menu_P>:
    3990:	0e 94 b8 37 	call	0x6f70	; 0x6f70 <pgm_mugui_lcd_puts>
    3994:	08 95       	ret

00003996 <idle_screen>:
}

// Pop up the Idle screen
void idle_screen(void)
{
	clear_buffer(buffer);
    3996:	80 e0       	ldi	r24, 0x00	; 0
    3998:	91 e0       	ldi	r25, 0x01	; 1
    399a:	0e 94 14 1b 	call	0x3628	; 0x3628 <clear_buffer>

	// Change Status screen depending on arm mode
	LCD_Display_Text(121,(const unsigned char*)Verdana14,41,3); 	// "Press"
    399e:	23 e0       	ldi	r18, 0x03	; 3
    39a0:	30 e0       	ldi	r19, 0x00	; 0
    39a2:	49 e2       	ldi	r20, 0x29	; 41
    39a4:	50 e0       	ldi	r21, 0x00	; 0
    39a6:	69 e4       	ldi	r22, 0x49	; 73
    39a8:	71 e0       	ldi	r23, 0x01	; 1
    39aa:	89 e7       	ldi	r24, 0x79	; 121
    39ac:	0e 94 bd 1c 	call	0x397a	; 0x397a <LCD_Display_Text>
	LCD_Display_Text(122,(const unsigned char*)Verdana14,24,23);	// "for status."
    39b0:	27 e1       	ldi	r18, 0x17	; 23
    39b2:	30 e0       	ldi	r19, 0x00	; 0
    39b4:	48 e1       	ldi	r20, 0x18	; 24
    39b6:	50 e0       	ldi	r21, 0x00	; 0
    39b8:	69 e4       	ldi	r22, 0x49	; 73
    39ba:	71 e0       	ldi	r23, 0x01	; 1
    39bc:	8a e7       	ldi	r24, 0x7A	; 122
    39be:	0e 94 bd 1c 	call	0x397a	; 0x397a <LCD_Display_Text>

#ifdef KK21
	// Display most important error
	if ((General_error & (1 << LVA_ALARM)) != 0)					// Low voltage
    39c2:	80 91 17 05 	lds	r24, 0x0517
	{
		LCD_Display_Text(134,(const unsigned char*)Verdana14,12,43);// "Battery"
    39c6:	2b e2       	ldi	r18, 0x2B	; 43
    39c8:	30 e0       	ldi	r19, 0x00	; 0
	LCD_Display_Text(121,(const unsigned char*)Verdana14,41,3); 	// "Press"
	LCD_Display_Text(122,(const unsigned char*)Verdana14,24,23);	// "for status."

#ifdef KK21
	// Display most important error
	if ((General_error & (1 << LVA_ALARM)) != 0)					// Low voltage
    39ca:	83 ff       	sbrs	r24, 3
    39cc:	0f c0       	rjmp	.+30     	; 0x39ec <idle_screen+0x56>
	{
		LCD_Display_Text(134,(const unsigned char*)Verdana14,12,43);// "Battery"
    39ce:	4c e0       	ldi	r20, 0x0C	; 12
    39d0:	50 e0       	ldi	r21, 0x00	; 0
    39d2:	69 e4       	ldi	r22, 0x49	; 73
    39d4:	71 e0       	ldi	r23, 0x01	; 1
    39d6:	86 e8       	ldi	r24, 0x86	; 134
    39d8:	0e 94 bd 1c 	call	0x397a	; 0x397a <LCD_Display_Text>
		LCD_Display_Text(73,(const unsigned char*)Verdana14,80,43); // "Low"
    39dc:	2b e2       	ldi	r18, 0x2B	; 43
    39de:	30 e0       	ldi	r19, 0x00	; 0
    39e0:	40 e5       	ldi	r20, 0x50	; 80
    39e2:	50 e0       	ldi	r21, 0x00	; 0
    39e4:	69 e4       	ldi	r22, 0x49	; 73
    39e6:	71 e0       	ldi	r23, 0x01	; 1
    39e8:	89 e4       	ldi	r24, 0x49	; 73
    39ea:	2f c0       	rjmp	.+94     	; 0x3a4a <idle_screen+0xb4>
	}
	
	else if ((General_error & (1 << NO_SIGNAL)) != 0)				// No signal
    39ec:	81 ff       	sbrs	r24, 1
    39ee:	0f c0       	rjmp	.+30     	; 0x3a0e <idle_screen+0x78>
	{
		LCD_Display_Text(75,(const unsigned char*)Verdana14,28,43); // "No"
    39f0:	4c e1       	ldi	r20, 0x1C	; 28
    39f2:	50 e0       	ldi	r21, 0x00	; 0
    39f4:	69 e4       	ldi	r22, 0x49	; 73
    39f6:	71 e0       	ldi	r23, 0x01	; 1
    39f8:	8b e4       	ldi	r24, 0x4B	; 75
    39fa:	0e 94 bd 1c 	call	0x397a	; 0x397a <LCD_Display_Text>
		LCD_Display_Text(76,(const unsigned char*)Verdana14,54,43); // "Signal"
    39fe:	2b e2       	ldi	r18, 0x2B	; 43
    3a00:	30 e0       	ldi	r19, 0x00	; 0
    3a02:	46 e3       	ldi	r20, 0x36	; 54
    3a04:	50 e0       	ldi	r21, 0x00	; 0
    3a06:	69 e4       	ldi	r22, 0x49	; 73
    3a08:	71 e0       	ldi	r23, 0x01	; 1
    3a0a:	8c e4       	ldi	r24, 0x4C	; 76
    3a0c:	1e c0       	rjmp	.+60     	; 0x3a4a <idle_screen+0xb4>
	}
	
	else if ((General_error & (1 << THROTTLE_HIGH)) != 0)			// Throttle high
    3a0e:	80 ff       	sbrs	r24, 0
    3a10:	0f c0       	rjmp	.+30     	; 0x3a30 <idle_screen+0x9a>
	{
		LCD_Display_Text(105,(const unsigned char*)Verdana14,10,43);// "Throttle"
    3a12:	4a e0       	ldi	r20, 0x0A	; 10
    3a14:	50 e0       	ldi	r21, 0x00	; 0
    3a16:	69 e4       	ldi	r22, 0x49	; 73
    3a18:	71 e0       	ldi	r23, 0x01	; 1
    3a1a:	89 e6       	ldi	r24, 0x69	; 105
    3a1c:	0e 94 bd 1c 	call	0x397a	; 0x397a <LCD_Display_Text>
		LCD_Display_Text(55,(const unsigned char*)Verdana14,81,43);	// "High"
    3a20:	2b e2       	ldi	r18, 0x2B	; 43
    3a22:	30 e0       	ldi	r19, 0x00	; 0
    3a24:	41 e5       	ldi	r20, 0x51	; 81
    3a26:	50 e0       	ldi	r21, 0x00	; 0
    3a28:	69 e4       	ldi	r22, 0x49	; 73
    3a2a:	71 e0       	ldi	r23, 0x01	; 1
    3a2c:	87 e3       	ldi	r24, 0x37	; 55
    3a2e:	0d c0       	rjmp	.+26     	; 0x3a4a <idle_screen+0xb4>
	}
	
	else if ((General_error & (1 << DISARMED)) != 0)				// Disarmed
    3a30:	82 ff       	sbrs	r24, 2
    3a32:	06 c0       	rjmp	.+12     	; 0x3a40 <idle_screen+0xaa>
	{
		LCD_Display_Text(139,(const unsigned char*)Verdana14,20,43);// "(Disarmed)"
    3a34:	44 e1       	ldi	r20, 0x14	; 20
    3a36:	50 e0       	ldi	r21, 0x00	; 0
    3a38:	69 e4       	ldi	r22, 0x49	; 73
    3a3a:	71 e0       	ldi	r23, 0x01	; 1
    3a3c:	8b e8       	ldi	r24, 0x8B	; 139
    3a3e:	05 c0       	rjmp	.+10     	; 0x3a4a <idle_screen+0xb4>
	}
	else
	{
		LCD_Display_Text(138,(const unsigned char*)Verdana14,28,43);// "(Armed)"
    3a40:	4c e1       	ldi	r20, 0x1C	; 28
    3a42:	50 e0       	ldi	r21, 0x00	; 0
    3a44:	69 e4       	ldi	r22, 0x49	; 73
    3a46:	71 e0       	ldi	r23, 0x01	; 1
    3a48:	8a e8       	ldi	r24, 0x8A	; 138
    3a4a:	0e 94 bd 1c 	call	0x397a	; 0x397a <LCD_Display_Text>
	{
		LCD_Display_Text(138,(const unsigned char*)Verdana14,28,43);// "(Armed)"
	}
#endif	

	write_buffer(buffer,1);
    3a4e:	61 e0       	ldi	r22, 0x01	; 1
    3a50:	80 e0       	ldi	r24, 0x00	; 0
    3a52:	91 e0       	ldi	r25, 0x01	; 1
    3a54:	0e 94 e6 1a 	call	0x35cc	; 0x35cc <write_buffer>
    3a58:	08 95       	ret

00003a5a <get_raw_gyros>:
		gyroADC[i] *= (int8_t)pgm_read_byte(&Gyro_Pol[Config.Orientation][i]);
	}
}

void get_raw_gyros(void)
{
    3a5a:	ac e0       	ldi	r26, 0x0C	; 12
    3a5c:	b0 e0       	ldi	r27, 0x00	; 0
    3a5e:	e3 e3       	ldi	r30, 0x33	; 51
    3a60:	fd e1       	ldi	r31, 0x1D	; 29
    3a62:	0c 94 8e 41 	jmp	0x831c	; 0x831c <__prologue_saves__+0x20>
#ifdef KK21
	uint8_t Gyros[6];
	int16_t temp1, temp2;

	// For KK2.1 boards, use the i2c data from the MPU6050
	readI2CbyteArray(MPU60X0_DEFAULT_ADDRESS,MPU60X0_RA_GYRO_XOUT_H,(uint8_t *)Gyros,6);
    3a66:	26 e0       	ldi	r18, 0x06	; 6
    3a68:	ae 01       	movw	r20, r28
    3a6a:	4f 5f       	subi	r20, 0xFF	; 255
    3a6c:	5f 4f       	sbci	r21, 0xFF	; 255
    3a6e:	63 e4       	ldi	r22, 0x43	; 67
    3a70:	80 ed       	ldi	r24, 0xD0	; 208
    3a72:	0e 94 ec 1e 	call	0x3dd8	; 0x3dd8 <readI2CbyteArray>

	// Reassemble data into gyroADC array and down-sample to reduce resolution and noise
	temp1 = Gyros[0] << 8;
    3a76:	89 81       	ldd	r24, Y+1	; 0x01
    3a78:	90 e0       	ldi	r25, 0x00	; 0
    3a7a:	98 2f       	mov	r25, r24
    3a7c:	88 27       	eor	r24, r24
	temp2 = Gyros[1];
    3a7e:	2a 81       	ldd	r18, Y+2	; 0x02
	RawADC[PITCH] = (temp1 + temp2) >> GYRODIV;
    3a80:	82 0f       	add	r24, r18
    3a82:	91 1d       	adc	r25, r1
    3a84:	34 e0       	ldi	r19, 0x04	; 4
    3a86:	95 95       	asr	r25
    3a88:	87 95       	ror	r24
    3a8a:	3a 95       	dec	r19
    3a8c:	e1 f7       	brne	.-8      	; 0x3a86 <get_raw_gyros+0x2c>
    3a8e:	9a 87       	std	Y+10, r25	; 0x0a
    3a90:	89 87       	std	Y+9, r24	; 0x09

	temp1 = Gyros[2] << 8;
    3a92:	8b 81       	ldd	r24, Y+3	; 0x03
    3a94:	90 e0       	ldi	r25, 0x00	; 0
    3a96:	98 2f       	mov	r25, r24
    3a98:	88 27       	eor	r24, r24
	temp2 = Gyros[3];
    3a9a:	2c 81       	ldd	r18, Y+4	; 0x04
	RawADC[ROLL] = (temp1 + temp2) >> GYRODIV;
    3a9c:	82 0f       	add	r24, r18
    3a9e:	91 1d       	adc	r25, r1
    3aa0:	54 e0       	ldi	r21, 0x04	; 4
    3aa2:	95 95       	asr	r25
    3aa4:	87 95       	ror	r24
    3aa6:	5a 95       	dec	r21
    3aa8:	e1 f7       	brne	.-8      	; 0x3aa2 <get_raw_gyros+0x48>
    3aaa:	98 87       	std	Y+8, r25	; 0x08
    3aac:	8f 83       	std	Y+7, r24	; 0x07

	temp1 = Gyros[4] << 8;
    3aae:	8d 81       	ldd	r24, Y+5	; 0x05
    3ab0:	90 e0       	ldi	r25, 0x00	; 0
    3ab2:	98 2f       	mov	r25, r24
    3ab4:	88 27       	eor	r24, r24
	temp2 = Gyros[5];
    3ab6:	2e 81       	ldd	r18, Y+6	; 0x06
	RawADC[YAW] = (temp1 + temp2) >> GYRODIV;
    3ab8:	82 0f       	add	r24, r18
    3aba:	91 1d       	adc	r25, r1
    3abc:	74 e0       	ldi	r23, 0x04	; 4
    3abe:	95 95       	asr	r25
    3ac0:	87 95       	ror	r24
    3ac2:	7a 95       	dec	r23
    3ac4:	e1 f7       	brne	.-8      	; 0x3abe <get_raw_gyros+0x64>
    3ac6:	9c 87       	std	Y+12, r25	; 0x0c
    3ac8:	8b 87       	std	Y+11, r24	; 0x0b

	// Reorient the data as per the board orientation	
	for (i=0; i<NUMBEROFAXIS; i++)
	{
		// Rearrange the sensors
		gyroADC[i] 	= RawADC[(int8_t)pgm_read_byte(&Gyro_RPY_Order[Config.Orientation][i])];
    3aca:	20 91 2d 06 	lds	r18, 0x062D
    3ace:	a3 e6       	ldi	r26, 0x63	; 99
    3ad0:	b5 e0       	ldi	r27, 0x05	; 5
    3ad2:	43 e0       	ldi	r20, 0x03	; 3
    3ad4:	24 02       	muls	r18, r20
    3ad6:	90 01       	movw	r18, r0
    3ad8:	11 24       	eor	r1, r1
    3ada:	80 e0       	ldi	r24, 0x00	; 0
    3adc:	90 e0       	ldi	r25, 0x00	; 0
    3ade:	24 5b       	subi	r18, 0xB4	; 180
    3ae0:	38 4e       	sbci	r19, 0xE8	; 232
    3ae2:	f9 01       	movw	r30, r18
    3ae4:	e8 0f       	add	r30, r24
    3ae6:	f9 1f       	adc	r31, r25
    3ae8:	e4 91       	lpm	r30, Z
    3aea:	ee 0f       	add	r30, r30
    3aec:	ff 0b       	sbc	r31, r31
    3aee:	41 e0       	ldi	r20, 0x01	; 1
    3af0:	50 e0       	ldi	r21, 0x00	; 0
    3af2:	4c 0f       	add	r20, r28
    3af4:	5d 1f       	adc	r21, r29
    3af6:	e4 0f       	add	r30, r20
    3af8:	f5 1f       	adc	r31, r21
    3afa:	46 81       	ldd	r20, Z+6	; 0x06
    3afc:	57 81       	ldd	r21, Z+7	; 0x07
    3afe:	4d 93       	st	X+, r20
    3b00:	5d 93       	st	X+, r21
    3b02:	01 96       	adiw	r24, 0x01	; 1
	read_adc(AIN_Z_GYRO);				// Read yaw gyro ADC2 (Yaw)
	RawADC[YAW] = ADCW;
#endif

	// Reorient the data as per the board orientation	
	for (i=0; i<NUMBEROFAXIS; i++)
    3b04:	83 30       	cpi	r24, 0x03	; 3
    3b06:	91 05       	cpc	r25, r1
    3b08:	61 f7       	brne	.-40     	; 0x3ae2 <get_raw_gyros+0x88>
	{
		// Rearrange the sensors
		gyroADC[i] 	= RawADC[(int8_t)pgm_read_byte(&Gyro_RPY_Order[Config.Orientation][i])];
	}
}
    3b0a:	2c 96       	adiw	r28, 0x0c	; 12
    3b0c:	e2 e0       	ldi	r30, 0x02	; 2
    3b0e:	0c 94 aa 41 	jmp	0x8354	; 0x8354 <__epilogue_restores__+0x20>

00003b12 <ReadGyros>:
//************************************************************

int16_t gyroADC[NUMBEROFAXIS];			// Holds Gyro ADCs

void ReadGyros(void)					// Conventional orientation
{
    3b12:	1f 93       	push	r17
    3b14:	cf 93       	push	r28
    3b16:	df 93       	push	r29
	uint8_t i;

	get_raw_gyros();					// Updates gyroADC[]
    3b18:	0e 94 2d 1d 	call	0x3a5a	; 0x3a5a <get_raw_gyros>
	{
		// Remove offsets from gyro outputs
		gyroADC[i] -= Config.gyroZero[i];

		// Change polarity
		gyroADC[i] *= (int8_t)pgm_read_byte(&Gyro_Pol[Config.Orientation][i]);
    3b1c:	20 91 2d 06 	lds	r18, 0x062D
    3b20:	c3 e5       	ldi	r28, 0x53	; 83
    3b22:	d7 e0       	ldi	r29, 0x07	; 7
    3b24:	a3 e6       	ldi	r26, 0x63	; 99
    3b26:	b5 e0       	ldi	r27, 0x05	; 5
    3b28:	83 e0       	ldi	r24, 0x03	; 3
    3b2a:	28 02       	muls	r18, r24
    3b2c:	90 01       	movw	r18, r0
    3b2e:	11 24       	eor	r1, r1
    3b30:	80 e0       	ldi	r24, 0x00	; 0
    3b32:	90 e0       	ldi	r25, 0x00	; 0
    3b34:	26 5c       	subi	r18, 0xC6	; 198
    3b36:	38 4e       	sbci	r19, 0xE8	; 232
	get_raw_gyros();					// Updates gyroADC[]

	for (i=0; i<NUMBEROFAXIS; i++)	
	{
		// Remove offsets from gyro outputs
		gyroADC[i] -= Config.gyroZero[i];
    3b38:	69 91       	ld	r22, Y+
    3b3a:	79 91       	ld	r23, Y+
    3b3c:	f9 01       	movw	r30, r18
    3b3e:	e8 0f       	add	r30, r24
    3b40:	f9 1f       	adc	r31, r25

		// Change polarity
		gyroADC[i] *= (int8_t)pgm_read_byte(&Gyro_Pol[Config.Orientation][i]);
    3b42:	14 91       	lpm	r17, Z
	get_raw_gyros();					// Updates gyroADC[]

	for (i=0; i<NUMBEROFAXIS; i++)	
	{
		// Remove offsets from gyro outputs
		gyroADC[i] -= Config.gyroZero[i];
    3b44:	4d 91       	ld	r20, X+
    3b46:	5c 91       	ld	r21, X
    3b48:	11 97       	sbiw	r26, 0x01	; 1
    3b4a:	46 1b       	sub	r20, r22
    3b4c:	57 0b       	sbc	r21, r23

		// Change polarity
		gyroADC[i] *= (int8_t)pgm_read_byte(&Gyro_Pol[Config.Orientation][i]);
    3b4e:	14 03       	mulsu	r17, r20
    3b50:	b0 01       	movw	r22, r0
    3b52:	15 9f       	mul	r17, r21
    3b54:	70 0d       	add	r23, r0
    3b56:	11 24       	eor	r1, r1
    3b58:	6d 93       	st	X+, r22
    3b5a:	7d 93       	st	X+, r23
    3b5c:	01 96       	adiw	r24, 0x01	; 1
{
	uint8_t i;

	get_raw_gyros();					// Updates gyroADC[]

	for (i=0; i<NUMBEROFAXIS; i++)	
    3b5e:	83 30       	cpi	r24, 0x03	; 3
    3b60:	91 05       	cpc	r25, r1
    3b62:	51 f7       	brne	.-44     	; 0x3b38 <ReadGyros+0x26>
		gyroADC[i] -= Config.gyroZero[i];

		// Change polarity
		gyroADC[i] *= (int8_t)pgm_read_byte(&Gyro_Pol[Config.Orientation][i]);
	}
}
    3b64:	df 91       	pop	r29
    3b66:	cf 91       	pop	r28
    3b68:	1f 91       	pop	r17
    3b6a:	08 95       	ret

00003b6c <CalibrateGyrosFast>:
//***************************************************************
// Calibration routines
//***************************************************************

void CalibrateGyrosFast(void)
{
    3b6c:	cf 93       	push	r28
	uint8_t i;

	// Clear gyro zeros
	memset(&Config.gyroZero[ROLL],0,(sizeof(int16_t) * NUMBEROFAXIS));
    3b6e:	86 e0       	ldi	r24, 0x06	; 6
    3b70:	e3 e5       	ldi	r30, 0x53	; 83
    3b72:	f7 e0       	ldi	r31, 0x07	; 7
    3b74:	df 01       	movw	r26, r30
    3b76:	1d 92       	st	X+, r1
    3b78:	8a 95       	dec	r24
    3b7a:	e9 f7       	brne	.-6      	; 0x3b76 <CalibrateGyrosFast+0xa>
    3b7c:	c0 e2       	ldi	r28, 0x20	; 32

	// Calculate average over 32 reads
	for (i=0; i<32; i++)
	{
		get_raw_gyros();				// Updates gyroADC[]
    3b7e:	0e 94 2d 1d 	call	0x3a5a	; 0x3a5a <get_raw_gyros>

		Config.gyroZero[ROLL] 	+= gyroADC[ROLL];						
    3b82:	40 91 53 07 	lds	r20, 0x0753
    3b86:	50 91 54 07 	lds	r21, 0x0754
    3b8a:	80 91 63 05 	lds	r24, 0x0563
    3b8e:	90 91 64 05 	lds	r25, 0x0564
    3b92:	48 0f       	add	r20, r24
    3b94:	59 1f       	adc	r21, r25
    3b96:	50 93 54 07 	sts	0x0754, r21
    3b9a:	40 93 53 07 	sts	0x0753, r20
		Config.gyroZero[PITCH] 	+= gyroADC[PITCH];	
    3b9e:	20 91 55 07 	lds	r18, 0x0755
    3ba2:	30 91 56 07 	lds	r19, 0x0756
    3ba6:	80 91 65 05 	lds	r24, 0x0565
    3baa:	90 91 66 05 	lds	r25, 0x0566
    3bae:	28 0f       	add	r18, r24
    3bb0:	39 1f       	adc	r19, r25
    3bb2:	30 93 56 07 	sts	0x0756, r19
    3bb6:	20 93 55 07 	sts	0x0755, r18
		Config.gyroZero[YAW] 	+= gyroADC[YAW];
    3bba:	80 91 57 07 	lds	r24, 0x0757
    3bbe:	90 91 58 07 	lds	r25, 0x0758
    3bc2:	60 91 67 05 	lds	r22, 0x0567
    3bc6:	70 91 68 05 	lds	r23, 0x0568
    3bca:	86 0f       	add	r24, r22
    3bcc:	97 1f       	adc	r25, r23
    3bce:	90 93 58 07 	sts	0x0758, r25
    3bd2:	80 93 57 07 	sts	0x0757, r24
    3bd6:	c1 50       	subi	r28, 0x01	; 1

	// Clear gyro zeros
	memset(&Config.gyroZero[ROLL],0,(sizeof(int16_t) * NUMBEROFAXIS));

	// Calculate average over 32 reads
	for (i=0; i<32; i++)
    3bd8:	91 f6       	brne	.-92     	; 0x3b7e <CalibrateGyrosFast+0x12>
	}

	// Average readings for all axis
	for (i=0; i<NUMBEROFAXIS; i++)
	{
		Config.gyroZero[i] 	= (Config.gyroZero[i] >> 5);	// Divide by 32	
    3bda:	e5 e0       	ldi	r30, 0x05	; 5
    3bdc:	55 95       	asr	r21
    3bde:	47 95       	ror	r20
    3be0:	ea 95       	dec	r30
    3be2:	e1 f7       	brne	.-8      	; 0x3bdc <CalibrateGyrosFast+0x70>
    3be4:	50 93 54 07 	sts	0x0754, r21
    3be8:	40 93 53 07 	sts	0x0753, r20
    3bec:	f5 e0       	ldi	r31, 0x05	; 5
    3bee:	35 95       	asr	r19
    3bf0:	27 95       	ror	r18
    3bf2:	fa 95       	dec	r31
    3bf4:	e1 f7       	brne	.-8      	; 0x3bee <CalibrateGyrosFast+0x82>
    3bf6:	30 93 56 07 	sts	0x0756, r19
    3bfa:	20 93 55 07 	sts	0x0755, r18
    3bfe:	a5 e0       	ldi	r26, 0x05	; 5
    3c00:	95 95       	asr	r25
    3c02:	87 95       	ror	r24
    3c04:	aa 95       	dec	r26
    3c06:	e1 f7       	brne	.-8      	; 0x3c00 <CalibrateGyrosFast+0x94>
    3c08:	90 93 58 07 	sts	0x0758, r25
    3c0c:	80 93 57 07 	sts	0x0757, r24
	}

	Save_Config_to_EEPROM();
    3c10:	0e 94 8c 16 	call	0x2d18	; 0x2d18 <Save_Config_to_EEPROM>
}
    3c14:	cf 91       	pop	r28
    3c16:	08 95       	ret

00003c18 <CalibrateGyrosSlow>:

bool CalibrateGyrosSlow(void)
{
    3c18:	a5 e1       	ldi	r26, 0x15	; 21
    3c1a:	b0 e0       	ldi	r27, 0x00	; 0
    3c1c:	e2 e1       	ldi	r30, 0x12	; 18
    3c1e:	fe e1       	ldi	r31, 0x1E	; 30
    3c20:	0c 94 7e 41 	jmp	0x82fc	; 0x82fc <__prologue_saves__>
	uint8_t		Gyro_TCNT2 = 0;
	bool		Gyros_Stable = false;

	// Populate Config.gyroZero[] with ballpark figures
	// This makes slow calibrate on KK2.0 much faster
	CalibrateGyrosFast();	
    3c24:	0e 94 b6 1d 	call	0x3b6c	; 0x3b6c <CalibrateGyrosFast>
	
	// Optimise starting point for each board
	for (axis = 0; axis < NUMBEROFAXIS; axis++)
	{
		GyroSmooth[axis] = Config.gyroZero[axis];			
    3c28:	60 91 53 07 	lds	r22, 0x0753
    3c2c:	70 91 54 07 	lds	r23, 0x0754
    3c30:	88 27       	eor	r24, r24
    3c32:	77 fd       	sbrc	r23, 7
    3c34:	80 95       	com	r24
    3c36:	98 2f       	mov	r25, r24
    3c38:	0e 94 c7 3f 	call	0x7f8e	; 0x7f8e <__floatsisf>
    3c3c:	69 83       	std	Y+1, r22	; 0x01
    3c3e:	7a 83       	std	Y+2, r23	; 0x02
    3c40:	8b 83       	std	Y+3, r24	; 0x03
    3c42:	9c 83       	std	Y+4, r25	; 0x04
    3c44:	60 91 55 07 	lds	r22, 0x0755
    3c48:	70 91 56 07 	lds	r23, 0x0756
    3c4c:	88 27       	eor	r24, r24
    3c4e:	77 fd       	sbrc	r23, 7
    3c50:	80 95       	com	r24
    3c52:	98 2f       	mov	r25, r24
    3c54:	0e 94 c7 3f 	call	0x7f8e	; 0x7f8e <__floatsisf>
    3c58:	6d 83       	std	Y+5, r22	; 0x05
    3c5a:	7e 83       	std	Y+6, r23	; 0x06
    3c5c:	8f 83       	std	Y+7, r24	; 0x07
    3c5e:	98 87       	std	Y+8, r25	; 0x08
    3c60:	60 91 57 07 	lds	r22, 0x0757
    3c64:	70 91 58 07 	lds	r23, 0x0758
    3c68:	88 27       	eor	r24, r24
    3c6a:	77 fd       	sbrc	r23, 7
    3c6c:	80 95       	com	r24
    3c6e:	98 2f       	mov	r25, r24
    3c70:	0e 94 c7 3f 	call	0x7f8e	; 0x7f8e <__floatsisf>
    3c74:	69 87       	std	Y+9, r22	; 0x09
    3c76:	7a 87       	std	Y+10, r23	; 0x0a
    3c78:	8b 87       	std	Y+11, r24	; 0x0b
    3c7a:	9c 87       	std	Y+12, r25	; 0x0c
    3c7c:	1d 8a       	std	Y+21, r1	; 0x15
    3c7e:	1b 8a       	std	Y+19, r1	; 0x13
    3c80:	e1 2c       	mov	r14, r1
    3c82:	f1 2c       	mov	r15, r1
    3c84:	00 e0       	ldi	r16, 0x00	; 0
    3c86:	10 e0       	ldi	r17, 0x00	; 0
	
	// Wait until gyros stable. Timeout after CAL_TIMEOUT seconds
	while (!Gyros_Stable && ((Gyro_seconds <= CAL_TIMEOUT)))
	{
		// Update status timeout
		Gyro_timeout += (uint8_t) (TCNT2 - Gyro_TCNT2);
    3c88:	80 91 b2 00 	lds	r24, 0x00B2
    3c8c:	9d 89       	ldd	r25, Y+21	; 0x15
    3c8e:	89 1b       	sub	r24, r25
    3c90:	e8 0e       	add	r14, r24
    3c92:	f1 1c       	adc	r15, r1
		Gyro_TCNT2 = TCNT2;
    3c94:	e0 91 b2 00 	lds	r30, 0x00B2
    3c98:	ed 8b       	std	Y+21, r30	; 0x15

		// Count elapsed seconds
		if (Gyro_timeout > SECOND_TIMER)
    3c9a:	fc e4       	ldi	r31, 0x4C	; 76
    3c9c:	ef 16       	cp	r14, r31
    3c9e:	ff 06       	cpc	r15, r31
    3ca0:	28 f0       	brcs	.+10     	; 0x3cac <CalibrateGyrosSlow+0x94>
		{
			Gyro_seconds++;
    3ca2:	8b 89       	ldd	r24, Y+19	; 0x13
    3ca4:	8f 5f       	subi	r24, 0xFF	; 255
    3ca6:	8b 8b       	std	Y+19, r24	; 0x13
			Gyro_timeout = 0;
    3ca8:	e1 2c       	mov	r14, r1
    3caa:	f1 2c       	mov	r15, r1
		}

		get_raw_gyros();
    3cac:	0e 94 2d 1d 	call	0x3a5a	; 0x3a5a <get_raw_gyros>
    3cb0:	fe 01       	movw	r30, r28
    3cb2:	31 96       	adiw	r30, 0x01	; 1
    3cb4:	6f 01       	movw	r12, r30
    3cb6:	b3 e6       	ldi	r27, 0x63	; 99
    3cb8:	2b 2e       	mov	r2, r27
    3cba:	b5 e0       	ldi	r27, 0x05	; 5
    3cbc:	3b 2e       	mov	r3, r27
    3cbe:	ce 01       	movw	r24, r28
    3cc0:	0d 96       	adiw	r24, 0x0d	; 13
    3cc2:	5c 01       	movw	r10, r24

		// Calculate very long rolling average
		for (axis = 0; axis < NUMBEROFAXIS; axis++) 
    3cc4:	1c 8a       	std	Y+20, r1	; 0x14
		{
			GyroSmooth[axis] = ((GyroSmooth[axis] * (float)999) + (float)(gyroADC[axis])) / (float)1000;
    3cc6:	f1 01       	movw	r30, r2
    3cc8:	81 90       	ld	r8, Z+
    3cca:	91 90       	ld	r9, Z+
    3ccc:	1f 01       	movw	r2, r30
    3cce:	20 e0       	ldi	r18, 0x00	; 0
    3cd0:	30 ec       	ldi	r19, 0xC0	; 192
    3cd2:	49 e7       	ldi	r20, 0x79	; 121
    3cd4:	54 e4       	ldi	r21, 0x44	; 68
    3cd6:	f6 01       	movw	r30, r12
    3cd8:	60 81       	ld	r22, Z
    3cda:	71 81       	ldd	r23, Z+1	; 0x01
    3cdc:	82 81       	ldd	r24, Z+2	; 0x02
    3cde:	93 81       	ldd	r25, Z+3	; 0x03
    3ce0:	0e 94 7b 40 	call	0x80f6	; 0x80f6 <__mulsf3>
    3ce4:	2b 01       	movw	r4, r22
    3ce6:	3c 01       	movw	r6, r24
    3ce8:	b4 01       	movw	r22, r8
    3cea:	88 27       	eor	r24, r24
    3cec:	77 fd       	sbrc	r23, 7
    3cee:	80 95       	com	r24
    3cf0:	98 2f       	mov	r25, r24
    3cf2:	0e 94 c7 3f 	call	0x7f8e	; 0x7f8e <__floatsisf>
    3cf6:	9b 01       	movw	r18, r22
    3cf8:	ac 01       	movw	r20, r24
    3cfa:	c3 01       	movw	r24, r6
    3cfc:	b2 01       	movw	r22, r4
    3cfe:	0e 94 c4 3e 	call	0x7d88	; 0x7d88 <__addsf3>
    3d02:	20 e0       	ldi	r18, 0x00	; 0
    3d04:	30 e0       	ldi	r19, 0x00	; 0
    3d06:	4a e7       	ldi	r20, 0x7A	; 122
    3d08:	54 e4       	ldi	r21, 0x44	; 68
    3d0a:	0e 94 2c 3f 	call	0x7e58	; 0x7e58 <__divsf3>
    3d0e:	f6 01       	movw	r30, r12
    3d10:	60 83       	st	Z, r22
    3d12:	71 83       	std	Z+1, r23	; 0x01
    3d14:	82 83       	std	Z+2, r24	; 0x02
    3d16:	93 83       	std	Z+3, r25	; 0x03
			
			// See if changing
			if (GyroOld[axis] != (int16_t)GyroSmooth[axis])
    3d18:	0e 94 94 3f 	call	0x7f28	; 0x7f28 <__fixsfsi>
    3d1c:	f5 01       	movw	r30, r10
    3d1e:	20 81       	ld	r18, Z
    3d20:	31 81       	ldd	r19, Z+1	; 0x01
    3d22:	26 17       	cp	r18, r22
    3d24:	37 07       	cpc	r19, r23
    3d26:	11 f0       	breq	.+4      	; 0x3d2c <CalibrateGyrosSlow+0x114>
			{
				Gyros_Stable = false;
				Stable_counter = 0;
    3d28:	00 e0       	ldi	r16, 0x00	; 0
    3d2a:	10 e0       	ldi	r17, 0x00	; 0
			}
		
			// Save old reading
			GyroOld[axis] = (int16_t)GyroSmooth[axis];
    3d2c:	f5 01       	movw	r30, r10
    3d2e:	61 93       	st	Z+, r22
    3d30:	71 93       	st	Z+, r23
    3d32:	5f 01       	movw	r10, r30
		}

		get_raw_gyros();

		// Calculate very long rolling average
		for (axis = 0; axis < NUMBEROFAXIS; axis++) 
    3d34:	fc 89       	ldd	r31, Y+20	; 0x14
    3d36:	ff 5f       	subi	r31, 0xFF	; 255
    3d38:	fc 8b       	std	Y+20, r31	; 0x14
    3d3a:	84 e0       	ldi	r24, 0x04	; 4
    3d3c:	c8 0e       	add	r12, r24
    3d3e:	d1 1c       	adc	r13, r1
    3d40:	f3 30       	cpi	r31, 0x03	; 3
    3d42:	09 f6       	brne	.-126    	; 0x3cc6 <CalibrateGyrosSlow+0xae>
			// Save old reading
			GyroOld[axis] = (int16_t)GyroSmooth[axis];
		}
		
		// Increment stable counter to measure how long we are still
		Stable_counter++;
    3d44:	0f 5f       	subi	r16, 0xFF	; 255
    3d46:	1f 4f       	sbci	r17, 0xFF	; 255
		
		// If stable for 5 seconds, do a quick calibrate
		if (Stable_counter > CAL_STABLE_TIME)
    3d48:	09 3c       	cpi	r16, 0xC9	; 201
    3d4a:	11 05       	cpc	r17, r1
    3d4c:	20 f0       	brcs	.+8      	; 0x3d56 <CalibrateGyrosSlow+0x13e>
		{
			Gyros_Stable = true;	
			CalibrateGyrosFast();		
    3d4e:	0e 94 b6 1d 	call	0x3b6c	; 0x3b6c <CalibrateGyrosFast>
		Stable_counter++;
		
		// If stable for 5 seconds, do a quick calibrate
		if (Stable_counter > CAL_STABLE_TIME)
		{
			Gyros_Stable = true;	
    3d52:	81 e0       	ldi	r24, 0x01	; 1
    3d54:	01 c0       	rjmp	.+2      	; 0x3d58 <CalibrateGyrosSlow+0x140>
    3d56:	80 e0       	ldi	r24, 0x00	; 0
    3d58:	e7 e8       	ldi	r30, 0x87	; 135
    3d5a:	f3 e1       	ldi	r31, 0x13	; 19
    3d5c:	31 97       	sbiw	r30, 0x01	; 1
    3d5e:	f1 f7       	brne	.-4      	; 0x3d5c <CalibrateGyrosSlow+0x144>
    3d60:	00 c0       	rjmp	.+0      	; 0x3d62 <CalibrateGyrosSlow+0x14a>
    3d62:	00 00       	nop
	{
		GyroSmooth[axis] = Config.gyroZero[axis];			
	}
	
	// Wait until gyros stable. Timeout after CAL_TIMEOUT seconds
	while (!Gyros_Stable && ((Gyro_seconds <= CAL_TIMEOUT)))
    3d64:	81 11       	cpse	r24, r1
    3d66:	04 c0       	rjmp	.+8      	; 0x3d70 <CalibrateGyrosSlow+0x158>
    3d68:	fb 89       	ldd	r31, Y+19	; 0x13
    3d6a:	f6 30       	cpi	r31, 0x06	; 6
    3d6c:	08 f4       	brcc	.+2      	; 0x3d70 <CalibrateGyrosSlow+0x158>
    3d6e:	8c cf       	rjmp	.-232    	; 0x3c88 <CalibrateGyrosSlow+0x70>
		// Otherwise the original saved values are used
	}
	
	// Return success or failure
	return(Gyros_Stable);
}
    3d70:	65 96       	adiw	r28, 0x15	; 21
    3d72:	e2 e1       	ldi	r30, 0x12	; 18
    3d74:	0c 94 9a 41 	jmp	0x8334	; 0x8334 <__epilogue_restores__>

00003d78 <init_i2c_gyros>:
//***************************************************************

void init_i2c_gyros(void)
{
	// First, configure the MPU6050
	writeI2Cbyte(MPU60X0_DEFAULT_ADDRESS, MPU60X0_RA_PWR_MGMT_1, 0x01); 			// Gyro X clock, awake
    3d78:	41 e0       	ldi	r20, 0x01	; 1
    3d7a:	6b e6       	ldi	r22, 0x6B	; 107
    3d7c:	80 ed       	ldi	r24, 0xD0	; 208
    3d7e:	0e 94 d4 1e 	call	0x3da8	; 0x3da8 <writeI2Cbyte>
	
	// Make INT pin open-drain so that we can connect it straight to the MPU
	writeI2Cbyte(MPU60X0_DEFAULT_ADDRESS, MPU60X0_RA_INT_PIN_CFG, 0x40);			// INT output is open-drain
    3d82:	40 e4       	ldi	r20, 0x40	; 64
    3d84:	67 e3       	ldi	r22, 0x37	; 55
    3d86:	80 ed       	ldi	r24, 0xD0	; 208
    3d88:	0e 94 d4 1e 	call	0x3da8	; 0x3da8 <writeI2Cbyte>
	
	// MPU6050's internal LPF. Values are 0x06 = 5Hz, (5)10Hz, (4)21Hz, (3)44Hz, (2)94Hz, (1)184Hz LPF, (0)260Hz
	// Software's values are 0 to 6 = 5Hz to 260Hz, so numbering is reversed here.
	writeI2Cbyte(MPU60X0_DEFAULT_ADDRESS, MPU60X0_RA_CONFIG, (6 - Config.MPU6050_LPF));
    3d8c:	46 e0       	ldi	r20, 0x06	; 6
    3d8e:	80 91 36 06 	lds	r24, 0x0636
    3d92:	48 1b       	sub	r20, r24
    3d94:	6a e1       	ldi	r22, 0x1A	; 26
    3d96:	80 ed       	ldi	r24, 0xD0	; 208
    3d98:	0e 94 d4 1e 	call	0x3da8	; 0x3da8 <writeI2Cbyte>
	
	// Now configure gyros
	writeI2Cbyte(MPU60X0_DEFAULT_ADDRESS, MPU60X0_RA_GYRO_CONFIG, GYROFS2000DEG);	// 2000 deg/sec
    3d9c:	48 e1       	ldi	r20, 0x18	; 24
    3d9e:	6b e1       	ldi	r22, 0x1B	; 27
    3da0:	80 ed       	ldi	r24, 0xD0	; 208
    3da2:	0e 94 d4 1e 	call	0x3da8	; 0x3da8 <writeI2Cbyte>
    3da6:	08 95       	ret

00003da8 <writeI2Cbyte>:
//************************************************************
// KK2.1 gyro-specifc code
//************************************************************

void writeI2Cbyte(uint8_t address, uint8_t location, uint8_t value)
{
    3da8:	a2 e0       	ldi	r26, 0x02	; 2
    3daa:	b0 e0       	ldi	r27, 0x00	; 0
    3dac:	ea ed       	ldi	r30, 0xDA	; 218
    3dae:	fe e1       	ldi	r31, 0x1E	; 30
    3db0:	0c 94 8e 41 	jmp	0x831c	; 0x831c <__prologue_saves__+0x20>
    i2c_start_wait(address+I2C_WRITE);				// Set up device address 
    3db4:	4a 83       	std	Y+2, r20	; 0x02
    3db6:	69 83       	std	Y+1, r22	; 0x01
    3db8:	0e 94 b1 3d 	call	0x7b62	; 0x7b62 <i2c_start_wait>
    i2c_write(location);							// Set up register address 
    3dbc:	69 81       	ldd	r22, Y+1	; 0x01
    3dbe:	86 2f       	mov	r24, r22
    3dc0:	0e 94 02 3e 	call	0x7c04	; 0x7c04 <i2c_write>
    i2c_write(value); 								// Write byte
    3dc4:	4a 81       	ldd	r20, Y+2	; 0x02
    3dc6:	84 2f       	mov	r24, r20
    3dc8:	0e 94 02 3e 	call	0x7c04	; 0x7c04 <i2c_write>
    i2c_stop();
    3dcc:	0e 94 f3 3d 	call	0x7be6	; 0x7be6 <i2c_stop>
}
    3dd0:	22 96       	adiw	r28, 0x02	; 2
    3dd2:	e2 e0       	ldi	r30, 0x02	; 2
    3dd4:	0c 94 aa 41 	jmp	0x8354	; 0x8354 <__epilogue_restores__+0x20>

00003dd8 <readI2CbyteArray>:

void readI2CbyteArray(uint8_t address, uint8_t location, uint8_t *array,uint8_t size)
{
    3dd8:	a3 e0       	ldi	r26, 0x03	; 3
    3dda:	b0 e0       	ldi	r27, 0x00	; 0
    3ddc:	e2 ef       	ldi	r30, 0xF2	; 242
    3dde:	fe e1       	ldi	r31, 0x1E	; 30
    3de0:	0c 94 88 41 	jmp	0x8310	; 0x8310 <__prologue_saves__+0x14>
    3de4:	18 2f       	mov	r17, r24
    3de6:	e2 2e       	mov	r14, r18
	int i=0;

    i2c_start_wait(address+I2C_WRITE);
    3de8:	4a 83       	std	Y+2, r20	; 0x02
    3dea:	5b 83       	std	Y+3, r21	; 0x03
    3dec:	69 83       	std	Y+1, r22	; 0x01
    3dee:	0e 94 b1 3d 	call	0x7b62	; 0x7b62 <i2c_start_wait>
    i2c_write(location);							// Set up register address 
    3df2:	69 81       	ldd	r22, Y+1	; 0x01
    3df4:	86 2f       	mov	r24, r22
    3df6:	0e 94 02 3e 	call	0x7c04	; 0x7c04 <i2c_write>
    i2c_rep_start(address+I2C_READ);
    3dfa:	81 e0       	ldi	r24, 0x01	; 1
    3dfc:	81 0f       	add	r24, r17
    3dfe:	0e 94 f0 3d 	call	0x7be0	; 0x7be0 <i2c_rep_start>
    3e02:	4a 81       	ldd	r20, Y+2	; 0x02
    3e04:	c4 2e       	mov	r12, r20
    3e06:	5b 81       	ldd	r21, Y+3	; 0x03
    3e08:	d5 2e       	mov	r13, r21
    i2c_stop();
}

void readI2CbyteArray(uint8_t address, uint8_t location, uint8_t *array,uint8_t size)
{
	int i=0;
    3e0a:	00 e0       	ldi	r16, 0x00	; 0
    3e0c:	10 e0       	ldi	r17, 0x00	; 0

    i2c_start_wait(address+I2C_WRITE);
    i2c_write(location);							// Set up register address 
    i2c_rep_start(address+I2C_READ);

	while (i < size)
    3e0e:	f1 2c       	mov	r15, r1
    3e10:	0e 15       	cp	r16, r14
    3e12:	1f 05       	cpc	r17, r15
    3e14:	84 f4       	brge	.+32     	; 0x3e36 <readI2CbyteArray+0x5e>
	{
		if ((i+1)!=size)
    3e16:	0f 5f       	subi	r16, 0xFF	; 255
    3e18:	1f 4f       	sbci	r17, 0xFF	; 255
    3e1a:	0e 15       	cp	r16, r14
    3e1c:	1f 05       	cpc	r17, r15
    3e1e:	19 f0       	breq	.+6      	; 0x3e26 <readI2CbyteArray+0x4e>
		{
			array[i]=i2c_readAck();
    3e20:	0e 94 22 3e 	call	0x7c44	; 0x7c44 <i2c_readAck>
    3e24:	02 c0       	rjmp	.+4      	; 0x3e2a <readI2CbyteArray+0x52>
		}
		else
		{
			array[i]=i2c_readNak(); 				// Read without ACK on last byte
    3e26:	0e 94 3b 3e 	call	0x7c76	; 0x7c76 <i2c_readNak>
    3e2a:	f6 01       	movw	r30, r12
    3e2c:	80 83       	st	Z, r24
    3e2e:	ff ef       	ldi	r31, 0xFF	; 255
    3e30:	cf 1a       	sub	r12, r31
    3e32:	df 0a       	sbc	r13, r31
    3e34:	ed cf       	rjmp	.-38     	; 0x3e10 <readI2CbyteArray+0x38>
		}
		i++;
	}

    i2c_stop();
    3e36:	0e 94 f3 3d 	call	0x7be6	; 0x7be6 <i2c_stop>
}
    3e3a:	23 96       	adiw	r28, 0x03	; 3
    3e3c:	e8 e0       	ldi	r30, 0x08	; 8
    3e3e:	0c 94 a4 41 	jmp	0x8348	; 0x8348 <__epilogue_restores__+0x14>

00003e42 <RotateVector>:
	VectorX = VectorNewA;
	VectorY = VectorNewB;
}

void RotateVector(float angle)
{
    3e42:	4f 92       	push	r4
    3e44:	5f 92       	push	r5
    3e46:	6f 92       	push	r6
    3e48:	7f 92       	push	r7
    3e4a:	8f 92       	push	r8
    3e4c:	9f 92       	push	r9
    3e4e:	af 92       	push	r10
    3e50:	bf 92       	push	r11
    3e52:	cf 92       	push	r12
    3e54:	df 92       	push	r13
    3e56:	ef 92       	push	r14
    3e58:	ff 92       	push	r15
    3e5a:	cf 93       	push	r28
    3e5c:	df 93       	push	r29
    3e5e:	cd b7       	in	r28, 0x3d	; 61
    3e60:	de b7       	in	r29, 0x3e	; 62
    3e62:	28 97       	sbiw	r28, 0x08	; 8
    3e64:	0f b6       	in	r0, 0x3f	; 63
    3e66:	f8 94       	cli
    3e68:	de bf       	out	0x3e, r29	; 62
    3e6a:	0f be       	out	0x3f, r0	; 63
    3e6c:	cd bf       	out	0x3d, r28	; 61
    3e6e:	6b 01       	movw	r12, r22
    3e70:	7c 01       	movw	r14, r24
	VectorNewA = VectorA * small_cos(angle) - VectorB * small_sine(angle);
    3e72:	80 90 9d 05 	lds	r8, 0x059D
    3e76:	90 90 9e 05 	lds	r9, 0x059E
    3e7a:	a0 90 9f 05 	lds	r10, 0x059F
    3e7e:	b0 90 a0 05 	lds	r11, 0x05A0
float small_cos(float angle)
{
	// cos(angle) = (1 - (angle^2 / 2))
	float temp;
	
	temp = (angle * angle) / 2;
    3e82:	9b 01       	movw	r18, r22
    3e84:	ac 01       	movw	r20, r24
    3e86:	0e 94 7b 40 	call	0x80f6	; 0x80f6 <__mulsf3>
    3e8a:	20 e0       	ldi	r18, 0x00	; 0
    3e8c:	30 e0       	ldi	r19, 0x00	; 0
    3e8e:	40 e0       	ldi	r20, 0x00	; 0
    3e90:	5f e3       	ldi	r21, 0x3F	; 63
    3e92:	0e 94 7b 40 	call	0x80f6	; 0x80f6 <__mulsf3>
    3e96:	9b 01       	movw	r18, r22
    3e98:	ac 01       	movw	r20, r24
	temp = 1 - temp;
    3e9a:	60 e0       	ldi	r22, 0x00	; 0
    3e9c:	70 e0       	ldi	r23, 0x00	; 0
    3e9e:	80 e8       	ldi	r24, 0x80	; 128
    3ea0:	9f e3       	ldi	r25, 0x3F	; 63
    3ea2:	0e 94 c3 3e 	call	0x7d86	; 0x7d86 <__subsf3>
    3ea6:	69 83       	std	Y+1, r22	; 0x01
    3ea8:	7a 83       	std	Y+2, r23	; 0x02
    3eaa:	8b 83       	std	Y+3, r24	; 0x03
    3eac:	9c 83       	std	Y+4, r25	; 0x04
	VectorY = VectorNewB;
}

void RotateVector(float angle)
{
	VectorNewA = VectorA * small_cos(angle) - VectorB * small_sine(angle);
    3eae:	40 90 a1 05 	lds	r4, 0x05A1
    3eb2:	50 90 a2 05 	lds	r5, 0x05A2
    3eb6:	60 90 a3 05 	lds	r6, 0x05A3
    3eba:	70 90 a4 05 	lds	r7, 0x05A4
    3ebe:	9b 01       	movw	r18, r22
    3ec0:	ac 01       	movw	r20, r24
    3ec2:	c5 01       	movw	r24, r10
    3ec4:	b4 01       	movw	r22, r8
    3ec6:	0e 94 7b 40 	call	0x80f6	; 0x80f6 <__mulsf3>
    3eca:	6d 83       	std	Y+5, r22	; 0x05
    3ecc:	7e 83       	std	Y+6, r23	; 0x06
    3ece:	8f 83       	std	Y+7, r24	; 0x07
    3ed0:	98 87       	std	Y+8, r25	; 0x08
    3ed2:	a7 01       	movw	r20, r14
    3ed4:	96 01       	movw	r18, r12
    3ed6:	c3 01       	movw	r24, r6
    3ed8:	b2 01       	movw	r22, r4
    3eda:	0e 94 7b 40 	call	0x80f6	; 0x80f6 <__mulsf3>
    3ede:	9b 01       	movw	r18, r22
    3ee0:	ac 01       	movw	r20, r24
    3ee2:	6d 81       	ldd	r22, Y+5	; 0x05
    3ee4:	7e 81       	ldd	r23, Y+6	; 0x06
    3ee6:	8f 81       	ldd	r24, Y+7	; 0x07
    3ee8:	98 85       	ldd	r25, Y+8	; 0x08
    3eea:	0e 94 c3 3e 	call	0x7d86	; 0x7d86 <__subsf3>
    3eee:	60 93 89 05 	sts	0x0589, r22
    3ef2:	70 93 8a 05 	sts	0x058A, r23
    3ef6:	80 93 8b 05 	sts	0x058B, r24
    3efa:	90 93 8c 05 	sts	0x058C, r25
	VectorNewB = VectorA * small_sine(angle) + VectorB * small_cos(angle);
    3efe:	a7 01       	movw	r20, r14
    3f00:	96 01       	movw	r18, r12
    3f02:	c5 01       	movw	r24, r10
    3f04:	b4 01       	movw	r22, r8
    3f06:	0e 94 7b 40 	call	0x80f6	; 0x80f6 <__mulsf3>
    3f0a:	6b 01       	movw	r12, r22
    3f0c:	7c 01       	movw	r14, r24
    3f0e:	29 81       	ldd	r18, Y+1	; 0x01
    3f10:	3a 81       	ldd	r19, Y+2	; 0x02
    3f12:	4b 81       	ldd	r20, Y+3	; 0x03
    3f14:	5c 81       	ldd	r21, Y+4	; 0x04
    3f16:	c3 01       	movw	r24, r6
    3f18:	b2 01       	movw	r22, r4
    3f1a:	0e 94 7b 40 	call	0x80f6	; 0x80f6 <__mulsf3>
    3f1e:	9b 01       	movw	r18, r22
    3f20:	ac 01       	movw	r20, r24
    3f22:	c7 01       	movw	r24, r14
    3f24:	b6 01       	movw	r22, r12
    3f26:	0e 94 c4 3e 	call	0x7d88	; 0x7d88 <__addsf3>
    3f2a:	60 93 69 05 	sts	0x0569, r22
    3f2e:	70 93 6a 05 	sts	0x056A, r23
    3f32:	80 93 6b 05 	sts	0x056B, r24
    3f36:	90 93 6c 05 	sts	0x056C, r25
}
    3f3a:	28 96       	adiw	r28, 0x08	; 8
    3f3c:	0f b6       	in	r0, 0x3f	; 63
    3f3e:	f8 94       	cli
    3f40:	de bf       	out	0x3e, r29	; 62
    3f42:	0f be       	out	0x3f, r0	; 63
    3f44:	cd bf       	out	0x3d, r28	; 61
    3f46:	df 91       	pop	r29
    3f48:	cf 91       	pop	r28
    3f4a:	ff 90       	pop	r15
    3f4c:	ef 90       	pop	r14
    3f4e:	df 90       	pop	r13
    3f50:	cf 90       	pop	r12
    3f52:	bf 90       	pop	r11
    3f54:	af 90       	pop	r10
    3f56:	9f 90       	pop	r9
    3f58:	8f 90       	pop	r8
    3f5a:	7f 90       	pop	r7
    3f5c:	6f 90       	pop	r6
    3f5e:	5f 90       	pop	r5
    3f60:	4f 90       	pop	r4
    3f62:	08 95       	ret

00003f64 <thetascale>:

void thetascale(float gyro, float interval)
{
    3f64:	cf 92       	push	r12
    3f66:	df 92       	push	r13
    3f68:	ef 92       	push	r14
    3f6a:	ff 92       	push	r15
    3f6c:	69 01       	movw	r12, r18
    3f6e:	7a 01       	movw	r14, r20
	// interval = time in seconds since last measurement
	// GYROSENSRADIANS = conversion from raw gyro data to rad/s
	// theta = actual number of radians moved

	theta = (gyro * GYROSENSRADIANS * interval);
    3f70:	25 ef       	ldi	r18, 0xF5	; 245
    3f72:	31 ea       	ldi	r19, 0xA1	; 161
    3f74:	4b e8       	ldi	r20, 0x8B	; 139
    3f76:	5c e3       	ldi	r21, 0x3C	; 60
    3f78:	0e 94 7b 40 	call	0x80f6	; 0x80f6 <__mulsf3>
    3f7c:	a7 01       	movw	r20, r14
    3f7e:	96 01       	movw	r18, r12
    3f80:	0e 94 7b 40 	call	0x80f6	; 0x80f6 <__mulsf3>
    3f84:	6b 01       	movw	r12, r22
    3f86:	7c 01       	movw	r14, r24
	
	// The sin() and cos() functions don't appreciate large 
	// input values. Limit the input values to +/-15 degrees. 
	
	if (theta > maxdeltaangle)
    3f88:	26 ea       	ldi	r18, 0xA6	; 166
    3f8a:	3a e0       	ldi	r19, 0x0A	; 10
    3f8c:	46 e8       	ldi	r20, 0x86	; 134
    3f8e:	5e e3       	ldi	r21, 0x3E	; 62
    3f90:	0e 94 77 40 	call	0x80ee	; 0x80ee <__gesf2>
    3f94:	18 16       	cp	r1, r24
    3f96:	4c f0       	brlt	.+18     	; 0x3faa <thetascale+0x46>
{
	// interval = time in seconds since last measurement
	// GYROSENSRADIANS = conversion from raw gyro data to rad/s
	// theta = actual number of radians moved

	theta = (gyro * GYROSENSRADIANS * interval);
    3f98:	c0 92 7d 05 	sts	0x057D, r12
    3f9c:	d0 92 7e 05 	sts	0x057E, r13
    3fa0:	e0 92 7f 05 	sts	0x057F, r14
    3fa4:	f0 92 80 05 	sts	0x0580, r15
    3fa8:	0c c0       	rjmp	.+24     	; 0x3fc2 <thetascale+0x5e>
	// The sin() and cos() functions don't appreciate large 
	// input values. Limit the input values to +/-15 degrees. 
	
	if (theta > maxdeltaangle)
	{
		theta = maxdeltaangle;
    3faa:	86 ea       	ldi	r24, 0xA6	; 166
    3fac:	9a e0       	ldi	r25, 0x0A	; 10
    3fae:	a6 e8       	ldi	r26, 0x86	; 134
    3fb0:	be e3       	ldi	r27, 0x3E	; 62
    3fb2:	80 93 7d 05 	sts	0x057D, r24
    3fb6:	90 93 7e 05 	sts	0x057E, r25
    3fba:	a0 93 7f 05 	sts	0x057F, r26
    3fbe:	b0 93 80 05 	sts	0x0580, r27
	}
	
	if (theta < -maxdeltaangle)
    3fc2:	26 ea       	ldi	r18, 0xA6	; 166
    3fc4:	3a e0       	ldi	r19, 0x0A	; 10
    3fc6:	46 e8       	ldi	r20, 0x86	; 134
    3fc8:	5e eb       	ldi	r21, 0xBE	; 190
    3fca:	60 91 7d 05 	lds	r22, 0x057D
    3fce:	70 91 7e 05 	lds	r23, 0x057E
    3fd2:	80 91 7f 05 	lds	r24, 0x057F
    3fd6:	90 91 80 05 	lds	r25, 0x0580
    3fda:	0e 94 28 3f 	call	0x7e50	; 0x7e50 <__cmpsf2>
    3fde:	87 ff       	sbrs	r24, 7
    3fe0:	0c c0       	rjmp	.+24     	; 0x3ffa <thetascale+0x96>
	{
		theta = -maxdeltaangle;
    3fe2:	86 ea       	ldi	r24, 0xA6	; 166
    3fe4:	9a e0       	ldi	r25, 0x0A	; 10
    3fe6:	a6 e8       	ldi	r26, 0x86	; 134
    3fe8:	be eb       	ldi	r27, 0xBE	; 190
    3fea:	80 93 7d 05 	sts	0x057D, r24
    3fee:	90 93 7e 05 	sts	0x057E, r25
    3ff2:	a0 93 7f 05 	sts	0x057F, r26
    3ff6:	b0 93 80 05 	sts	0x0580, r27
	}
}
    3ffa:	ff 90       	pop	r15
    3ffc:	ef 90       	pop	r14
    3ffe:	df 90       	pop	r13
    4000:	cf 90       	pop	r12
    4002:	08 95       	ret

00004004 <Rotate3dVector>:
	angle[ROLL] = (int16_t)(EulerAngleRoll * -100);
	angle[PITCH] = (int16_t)(EulerAnglePitch * -100);
}

void Rotate3dVector(void)
{
    4004:	a4 e0       	ldi	r26, 0x04	; 4
    4006:	b0 e0       	ldi	r27, 0x00	; 0
    4008:	e8 e0       	ldi	r30, 0x08	; 8
    400a:	f0 e2       	ldi	r31, 0x20	; 32
    400c:	0c 94 8e 41 	jmp	0x831c	; 0x831c <__prologue_saves__+0x20>
	// Rotate around X axis (pitch)
	thetascale(GyroPitchVC, interval);
    4010:	20 91 4f 05 	lds	r18, 0x054F
    4014:	30 91 50 05 	lds	r19, 0x0550
    4018:	40 91 51 05 	lds	r20, 0x0551
    401c:	50 91 52 05 	lds	r21, 0x0552
    4020:	60 91 79 05 	lds	r22, 0x0579
    4024:	70 91 7a 05 	lds	r23, 0x057A
    4028:	80 91 7b 05 	lds	r24, 0x057B
    402c:	90 91 7c 05 	lds	r25, 0x057C
    4030:	0e 94 b2 1f 	call	0x3f64	; 0x3f64 <thetascale>
	VectorA = VectorY;
    4034:	80 91 1d 05 	lds	r24, 0x051D
    4038:	90 91 1e 05 	lds	r25, 0x051E
    403c:	a0 91 1f 05 	lds	r26, 0x051F
    4040:	b0 91 20 05 	lds	r27, 0x0520
    4044:	80 93 9d 05 	sts	0x059D, r24
    4048:	90 93 9e 05 	sts	0x059E, r25
    404c:	a0 93 9f 05 	sts	0x059F, r26
    4050:	b0 93 a0 05 	sts	0x05A0, r27
	VectorB = VectorZ;
    4054:	80 91 00 05 	lds	r24, 0x0500
    4058:	90 91 01 05 	lds	r25, 0x0501
    405c:	a0 91 02 05 	lds	r26, 0x0502
    4060:	b0 91 03 05 	lds	r27, 0x0503
    4064:	80 93 a1 05 	sts	0x05A1, r24
    4068:	90 93 a2 05 	sts	0x05A2, r25
    406c:	a0 93 a3 05 	sts	0x05A3, r26
    4070:	b0 93 a4 05 	sts	0x05A4, r27
	RotateVector(theta);
    4074:	60 91 7d 05 	lds	r22, 0x057D
    4078:	70 91 7e 05 	lds	r23, 0x057E
    407c:	80 91 7f 05 	lds	r24, 0x057F
    4080:	90 91 80 05 	lds	r25, 0x0580
    4084:	0e 94 21 1f 	call	0x3e42	; 0x3e42 <RotateVector>
	VectorY = VectorNewA;
    4088:	80 91 89 05 	lds	r24, 0x0589
    408c:	90 91 8a 05 	lds	r25, 0x058A
    4090:	a0 91 8b 05 	lds	r26, 0x058B
    4094:	b0 91 8c 05 	lds	r27, 0x058C
    4098:	80 93 1d 05 	sts	0x051D, r24
    409c:	90 93 1e 05 	sts	0x051E, r25
    40a0:	a0 93 1f 05 	sts	0x051F, r26
    40a4:	b0 93 20 05 	sts	0x0520, r27
	VectorZ = VectorNewB;
    40a8:	80 91 69 05 	lds	r24, 0x0569
    40ac:	90 91 6a 05 	lds	r25, 0x056A
    40b0:	a0 91 6b 05 	lds	r26, 0x056B
    40b4:	b0 91 6c 05 	lds	r27, 0x056C
    40b8:	80 93 00 05 	sts	0x0500, r24
    40bc:	90 93 01 05 	sts	0x0501, r25
    40c0:	a0 93 02 05 	sts	0x0502, r26
    40c4:	b0 93 03 05 	sts	0x0503, r27

	// Rotate around Y axis (roll)
	thetascale (GyroRollVC, interval);
    40c8:	20 91 4f 05 	lds	r18, 0x054F
    40cc:	30 91 50 05 	lds	r19, 0x0550
    40d0:	40 91 51 05 	lds	r20, 0x0551
    40d4:	50 91 52 05 	lds	r21, 0x0552
    40d8:	60 91 81 05 	lds	r22, 0x0581
    40dc:	70 91 82 05 	lds	r23, 0x0582
    40e0:	80 91 83 05 	lds	r24, 0x0583
    40e4:	90 91 84 05 	lds	r25, 0x0584
    40e8:	0e 94 b2 1f 	call	0x3f64	; 0x3f64 <thetascale>
	VectorA = VectorX;
    40ec:	80 91 21 05 	lds	r24, 0x0521
    40f0:	90 91 22 05 	lds	r25, 0x0522
    40f4:	a0 91 23 05 	lds	r26, 0x0523
    40f8:	b0 91 24 05 	lds	r27, 0x0524
    40fc:	80 93 9d 05 	sts	0x059D, r24
    4100:	90 93 9e 05 	sts	0x059E, r25
    4104:	a0 93 9f 05 	sts	0x059F, r26
    4108:	b0 93 a0 05 	sts	0x05A0, r27
	VectorB = VectorZ;
    410c:	80 91 00 05 	lds	r24, 0x0500
    4110:	90 91 01 05 	lds	r25, 0x0501
    4114:	a0 91 02 05 	lds	r26, 0x0502
    4118:	b0 91 03 05 	lds	r27, 0x0503
    411c:	80 93 a1 05 	sts	0x05A1, r24
    4120:	90 93 a2 05 	sts	0x05A2, r25
    4124:	a0 93 a3 05 	sts	0x05A3, r26
    4128:	b0 93 a4 05 	sts	0x05A4, r27
	RotateVector(theta);
    412c:	60 91 7d 05 	lds	r22, 0x057D
    4130:	70 91 7e 05 	lds	r23, 0x057E
    4134:	80 91 7f 05 	lds	r24, 0x057F
    4138:	90 91 80 05 	lds	r25, 0x0580
    413c:	0e 94 21 1f 	call	0x3e42	; 0x3e42 <RotateVector>
	VectorX = VectorNewA;
    4140:	80 91 89 05 	lds	r24, 0x0589
    4144:	90 91 8a 05 	lds	r25, 0x058A
    4148:	a0 91 8b 05 	lds	r26, 0x058B
    414c:	b0 91 8c 05 	lds	r27, 0x058C
    4150:	80 93 21 05 	sts	0x0521, r24
    4154:	90 93 22 05 	sts	0x0522, r25
    4158:	a0 93 23 05 	sts	0x0523, r26
    415c:	b0 93 24 05 	sts	0x0524, r27
	VectorZ = VectorNewB;
    4160:	80 91 69 05 	lds	r24, 0x0569
    4164:	90 91 6a 05 	lds	r25, 0x056A
    4168:	a0 91 6b 05 	lds	r26, 0x056B
    416c:	b0 91 6c 05 	lds	r27, 0x056C
    4170:	80 93 00 05 	sts	0x0500, r24
    4174:	90 93 01 05 	sts	0x0501, r25
    4178:	a0 93 02 05 	sts	0x0502, r26
    417c:	b0 93 03 05 	sts	0x0503, r27

	// Rotate around Z axis (yaw)
	thetascale(gyroADC[YAW], interval);
    4180:	20 91 4f 05 	lds	r18, 0x054F
    4184:	30 91 50 05 	lds	r19, 0x0550
    4188:	40 91 51 05 	lds	r20, 0x0551
    418c:	50 91 52 05 	lds	r21, 0x0552
    4190:	60 91 67 05 	lds	r22, 0x0567
    4194:	70 91 68 05 	lds	r23, 0x0568
    4198:	88 27       	eor	r24, r24
    419a:	77 fd       	sbrc	r23, 7
    419c:	80 95       	com	r24
    419e:	98 2f       	mov	r25, r24
    41a0:	29 83       	std	Y+1, r18	; 0x01
    41a2:	3a 83       	std	Y+2, r19	; 0x02
    41a4:	4b 83       	std	Y+3, r20	; 0x03
    41a6:	5c 83       	std	Y+4, r21	; 0x04
    41a8:	0e 94 c7 3f 	call	0x7f8e	; 0x7f8e <__floatsisf>
    41ac:	29 81       	ldd	r18, Y+1	; 0x01
    41ae:	3a 81       	ldd	r19, Y+2	; 0x02
    41b0:	4b 81       	ldd	r20, Y+3	; 0x03
    41b2:	5c 81       	ldd	r21, Y+4	; 0x04
    41b4:	0e 94 b2 1f 	call	0x3f64	; 0x3f64 <thetascale>
	VectorA = VectorX;
    41b8:	80 91 21 05 	lds	r24, 0x0521
    41bc:	90 91 22 05 	lds	r25, 0x0522
    41c0:	a0 91 23 05 	lds	r26, 0x0523
    41c4:	b0 91 24 05 	lds	r27, 0x0524
    41c8:	80 93 9d 05 	sts	0x059D, r24
    41cc:	90 93 9e 05 	sts	0x059E, r25
    41d0:	a0 93 9f 05 	sts	0x059F, r26
    41d4:	b0 93 a0 05 	sts	0x05A0, r27
	VectorB = VectorY;
    41d8:	80 91 1d 05 	lds	r24, 0x051D
    41dc:	90 91 1e 05 	lds	r25, 0x051E
    41e0:	a0 91 1f 05 	lds	r26, 0x051F
    41e4:	b0 91 20 05 	lds	r27, 0x0520
    41e8:	80 93 a1 05 	sts	0x05A1, r24
    41ec:	90 93 a2 05 	sts	0x05A2, r25
    41f0:	a0 93 a3 05 	sts	0x05A3, r26
    41f4:	b0 93 a4 05 	sts	0x05A4, r27
	RotateVector(theta);
    41f8:	60 91 7d 05 	lds	r22, 0x057D
    41fc:	70 91 7e 05 	lds	r23, 0x057E
    4200:	80 91 7f 05 	lds	r24, 0x057F
    4204:	90 91 80 05 	lds	r25, 0x0580
    4208:	0e 94 21 1f 	call	0x3e42	; 0x3e42 <RotateVector>
	VectorX = VectorNewA;
    420c:	80 91 89 05 	lds	r24, 0x0589
    4210:	90 91 8a 05 	lds	r25, 0x058A
    4214:	a0 91 8b 05 	lds	r26, 0x058B
    4218:	b0 91 8c 05 	lds	r27, 0x058C
    421c:	80 93 21 05 	sts	0x0521, r24
    4220:	90 93 22 05 	sts	0x0522, r25
    4224:	a0 93 23 05 	sts	0x0523, r26
    4228:	b0 93 24 05 	sts	0x0524, r27
	VectorY = VectorNewB;
    422c:	80 91 69 05 	lds	r24, 0x0569
    4230:	90 91 6a 05 	lds	r25, 0x056A
    4234:	a0 91 6b 05 	lds	r26, 0x056B
    4238:	b0 91 6c 05 	lds	r27, 0x056C
    423c:	80 93 1d 05 	sts	0x051D, r24
    4240:	90 93 1e 05 	sts	0x051E, r25
    4244:	a0 93 1f 05 	sts	0x051F, r26
    4248:	b0 93 20 05 	sts	0x0520, r27
}
    424c:	24 96       	adiw	r28, 0x04	; 4
    424e:	e2 e0       	ldi	r30, 0x02	; 2
    4250:	0c 94 aa 41 	jmp	0x8354	; 0x8354 <__epilogue_restores__+0x20>

00004254 <ext2>:
	EulerAngleRoll = ext2(VectorX);
	EulerAnglePitch = ext2(VectorY);
}

float ext2(float Vector)
{
    4254:	cf 92       	push	r12
    4256:	df 92       	push	r13
    4258:	ef 92       	push	r14
    425a:	ff 92       	push	r15
	float temp;
	
	// Rough translation to Euler angles
	temp = Vector * 90;
    425c:	20 e0       	ldi	r18, 0x00	; 0
    425e:	30 e0       	ldi	r19, 0x00	; 0
    4260:	44 eb       	ldi	r20, 0xB4	; 180
    4262:	52 e4       	ldi	r21, 0x42	; 66
    4264:	0e 94 7b 40 	call	0x80f6	; 0x80f6 <__mulsf3>
    4268:	6b 01       	movw	r12, r22
    426a:	7c 01       	movw	r14, r24

	// Change 0-90-0 to 0-90-180 so that
	// swap happens at 100% inverted
	if (VectorZ < 0)
    426c:	20 e0       	ldi	r18, 0x00	; 0
    426e:	30 e0       	ldi	r19, 0x00	; 0
    4270:	a9 01       	movw	r20, r18
    4272:	60 91 00 05 	lds	r22, 0x0500
    4276:	70 91 01 05 	lds	r23, 0x0501
    427a:	80 91 02 05 	lds	r24, 0x0502
    427e:	90 91 03 05 	lds	r25, 0x0503
    4282:	0e 94 28 3f 	call	0x7e50	; 0x7e50 <__cmpsf2>
    4286:	87 ff       	sbrs	r24, 7
    4288:	18 c0       	rjmp	.+48     	; 0x42ba <ext2+0x66>
	{
		// CW rotations
		if (temp > 0)
    428a:	20 e0       	ldi	r18, 0x00	; 0
    428c:	30 e0       	ldi	r19, 0x00	; 0
    428e:	a9 01       	movw	r20, r18
    4290:	c7 01       	movw	r24, r14
    4292:	b6 01       	movw	r22, r12
    4294:	0e 94 77 40 	call	0x80ee	; 0x80ee <__gesf2>
		{
			temp = 180 - temp;
    4298:	a7 01       	movw	r20, r14
    429a:	96 01       	movw	r18, r12
	// Change 0-90-0 to 0-90-180 so that
	// swap happens at 100% inverted
	if (VectorZ < 0)
	{
		// CW rotations
		if (temp > 0)
    429c:	18 16       	cp	r1, r24
    429e:	2c f4       	brge	.+10     	; 0x42aa <ext2+0x56>
		{
			temp = 180 - temp;
    42a0:	60 e0       	ldi	r22, 0x00	; 0
    42a2:	70 e0       	ldi	r23, 0x00	; 0
    42a4:	84 e3       	ldi	r24, 0x34	; 52
    42a6:	93 e4       	ldi	r25, 0x43	; 67
    42a8:	04 c0       	rjmp	.+8      	; 0x42b2 <ext2+0x5e>
		}
		// CCW rotations
		else
		{
			temp = -180 - temp;
    42aa:	60 e0       	ldi	r22, 0x00	; 0
    42ac:	70 e0       	ldi	r23, 0x00	; 0
    42ae:	84 e3       	ldi	r24, 0x34	; 52
    42b0:	93 ec       	ldi	r25, 0xC3	; 195
    42b2:	0e 94 c3 3e 	call	0x7d86	; 0x7d86 <__subsf3>
    42b6:	6b 01       	movw	r12, r22
    42b8:	7c 01       	movw	r14, r24
		}
	}

	return (temp);
}
    42ba:	c7 01       	movw	r24, r14
    42bc:	b6 01       	movw	r22, r12
    42be:	ff 90       	pop	r15
    42c0:	ef 90       	pop	r14
    42c2:	df 90       	pop	r13
    42c4:	cf 90       	pop	r12
    42c6:	08 95       	ret

000042c8 <ExtractEulerAngles>:
	return temp;
}

void ExtractEulerAngles(void)
{
	EulerAngleRoll = ext2(VectorX);
    42c8:	60 91 21 05 	lds	r22, 0x0521
    42cc:	70 91 22 05 	lds	r23, 0x0522
    42d0:	80 91 23 05 	lds	r24, 0x0523
    42d4:	90 91 24 05 	lds	r25, 0x0524
    42d8:	0e 94 2a 21 	call	0x4254	; 0x4254 <ext2>
    42dc:	60 93 99 05 	sts	0x0599, r22
    42e0:	70 93 9a 05 	sts	0x059A, r23
    42e4:	80 93 9b 05 	sts	0x059B, r24
    42e8:	90 93 9c 05 	sts	0x059C, r25
	EulerAnglePitch = ext2(VectorY);
    42ec:	60 91 1d 05 	lds	r22, 0x051D
    42f0:	70 91 1e 05 	lds	r23, 0x051E
    42f4:	80 91 1f 05 	lds	r24, 0x051F
    42f8:	90 91 20 05 	lds	r25, 0x0520
    42fc:	0e 94 2a 21 	call	0x4254	; 0x4254 <ext2>
    4300:	60 93 6d 05 	sts	0x056D, r22
    4304:	70 93 6e 05 	sts	0x056E, r23
    4308:	80 93 6f 05 	sts	0x056F, r24
    430c:	90 93 70 05 	sts	0x0570, r25
    4310:	08 95       	ret

00004312 <simple_imu_update>:
//		* = swapped axis
//
//************************************************************

void simple_imu_update(uint32_t period)
{
    4312:	a8 e0       	ldi	r26, 0x08	; 8
    4314:	b0 e0       	ldi	r27, 0x00	; 0
    4316:	ef e8       	ldi	r30, 0x8F	; 143
    4318:	f1 e2       	ldi	r31, 0x21	; 33
    431a:	0c 94 80 41 	jmp	0x8300	; 0x8300 <__prologue_saves__+0x4>
	uint32_t	roll_sq, pitch_sq, yaw_sq;
	uint32_t 	AccMag = 0;
		
	// Work out interval in seconds
	// Convert (period) from units of 400ns (1/2500000) to seconds (1s/400ns = 2500000)
	tempf = period;						// Promote int16_t to float
    431e:	0e 94 c5 3f 	call	0x7f8a	; 0x7f8a <__floatunsisf>
	interval = tempf/2500000.0f;		// This gives the period in seconds
    4322:	20 e8       	ldi	r18, 0x80	; 128
    4324:	36 e9       	ldi	r19, 0x96	; 150
    4326:	48 e1       	ldi	r20, 0x18	; 24
    4328:	5a e4       	ldi	r21, 0x4A	; 74
    432a:	0e 94 2c 3f 	call	0x7e58	; 0x7e58 <__divsf3>
    432e:	60 93 4f 05 	sts	0x054F, r22
    4332:	70 93 50 05 	sts	0x0550, r23
    4336:	80 93 51 05 	sts	0x0551, r24
    433a:	90 93 52 05 	sts	0x0552, r25

	tempf = pgm_read_byte(&LPF_lookup[Config.Acc_LPF]); // Lookup actual LPF value and promote
    433e:	60 91 33 06 	lds	r22, 0x0633
    4342:	e6 2f       	mov	r30, r22
    4344:	ff 27       	eor	r31, r31
    4346:	e7 fd       	sbrc	r30, 7
    4348:	f0 95       	com	r31
    434a:	e2 5a       	subi	r30, 0xA2	; 162
    434c:	f8 4e       	sbci	r31, 0xE8	; 232
    434e:	64 91       	lpm	r22, Z
    4350:	70 e0       	ldi	r23, 0x00	; 0
    4352:	80 e0       	ldi	r24, 0x00	; 0
    4354:	90 e0       	ldi	r25, 0x00	; 0
    4356:	0e 94 c5 3f 	call	0x7f8a	; 0x7f8a <__floatunsisf>
    435a:	6b 01       	movw	r12, r22
    435c:	7c 01       	movw	r14, r24
    435e:	00 e3       	ldi	r16, 0x30	; 48
    4360:	15 e0       	ldi	r17, 0x05	; 5
    4362:	8d e8       	ldi	r24, 0x8D	; 141
    4364:	68 2e       	mov	r6, r24
    4366:	85 e0       	ldi	r24, 0x05	; 5
    4368:	78 2e       	mov	r7, r24
	
	// Smooth Acc signals - note that accSmooth is in [ROLL, PITCH, YAW] order
	for (axis = 0; axis < NUMBEROFAXIS; axis++)
	{
		accADCf = accADC[axis]; // Promote
    436a:	d8 01       	movw	r26, r16
    436c:	6d 91       	ld	r22, X+
    436e:	7d 91       	ld	r23, X+
    4370:	8d 01       	movw	r16, r26
    4372:	88 27       	eor	r24, r24
    4374:	77 fd       	sbrc	r23, 7
    4376:	80 95       	com	r24
    4378:	98 2f       	mov	r25, r24
    437a:	0e 94 c7 3f 	call	0x7f8e	; 0x7f8e <__floatsisf>
    437e:	4b 01       	movw	r8, r22
    4380:	5c 01       	movw	r10, r24
		
		// Acc LPF
		if (tempf > 1)
    4382:	20 e0       	ldi	r18, 0x00	; 0
    4384:	30 e0       	ldi	r19, 0x00	; 0
    4386:	40 e8       	ldi	r20, 0x80	; 128
    4388:	5f e3       	ldi	r21, 0x3F	; 63
    438a:	c7 01       	movw	r24, r14
    438c:	b6 01       	movw	r22, r12
    438e:	0e 94 77 40 	call	0x80ee	; 0x80ee <__gesf2>
    4392:	18 16       	cp	r1, r24
    4394:	f4 f4       	brge	.+60     	; 0x43d2 <simple_imu_update+0xc0>
		{
			// Acc LPF
			accSmooth[axis] = (accSmooth[axis] * (tempf - 1.0f) - accADCf) / tempf;
    4396:	20 e0       	ldi	r18, 0x00	; 0
    4398:	30 e0       	ldi	r19, 0x00	; 0
    439a:	40 e8       	ldi	r20, 0x80	; 128
    439c:	5f e3       	ldi	r21, 0x3F	; 63
    439e:	c7 01       	movw	r24, r14
    43a0:	b6 01       	movw	r22, r12
    43a2:	0e 94 c3 3e 	call	0x7d86	; 0x7d86 <__subsf3>
    43a6:	f3 01       	movw	r30, r6
    43a8:	20 81       	ld	r18, Z
    43aa:	31 81       	ldd	r19, Z+1	; 0x01
    43ac:	42 81       	ldd	r20, Z+2	; 0x02
    43ae:	53 81       	ldd	r21, Z+3	; 0x03
    43b0:	0e 94 7b 40 	call	0x80f6	; 0x80f6 <__mulsf3>
    43b4:	a5 01       	movw	r20, r10
    43b6:	94 01       	movw	r18, r8
    43b8:	0e 94 c3 3e 	call	0x7d86	; 0x7d86 <__subsf3>
    43bc:	a7 01       	movw	r20, r14
    43be:	96 01       	movw	r18, r12
    43c0:	0e 94 2c 3f 	call	0x7e58	; 0x7e58 <__divsf3>
    43c4:	d3 01       	movw	r26, r6
    43c6:	6d 93       	st	X+, r22
    43c8:	7d 93       	st	X+, r23
    43ca:	8d 93       	st	X+, r24
    43cc:	9c 93       	st	X, r25
    43ce:	13 97       	sbiw	r26, 0x03	; 3
    43d0:	09 c0       	rjmp	.+18     	; 0x43e4 <simple_imu_update+0xd2>
		}
		else
		{
			// Use raw accADC[axis] as source for acc values
			accSmooth[axis] =  -accADCf;
    43d2:	b7 fa       	bst	r11, 7
    43d4:	b0 94       	com	r11
    43d6:	b7 f8       	bld	r11, 7
    43d8:	b0 94       	com	r11
    43da:	f3 01       	movw	r30, r6
    43dc:	80 82       	st	Z, r8
    43de:	91 82       	std	Z+1, r9	; 0x01
    43e0:	a2 82       	std	Z+2, r10	; 0x02
    43e2:	b3 82       	std	Z+3, r11	; 0x03
    43e4:	f4 e0       	ldi	r31, 0x04	; 4
    43e6:	6f 0e       	add	r6, r31
    43e8:	71 1c       	adc	r7, r1
	interval = tempf/2500000.0f;		// This gives the period in seconds

	tempf = pgm_read_byte(&LPF_lookup[Config.Acc_LPF]); // Lookup actual LPF value and promote
	
	// Smooth Acc signals - note that accSmooth is in [ROLL, PITCH, YAW] order
	for (axis = 0; axis < NUMBEROFAXIS; axis++)
    43ea:	85 e0       	ldi	r24, 0x05	; 5
    43ec:	06 33       	cpi	r16, 0x36	; 54
    43ee:	18 07       	cpc	r17, r24
    43f0:	09 f0       	breq	.+2      	; 0x43f4 <simple_imu_update+0xe2>
    43f2:	bb cf       	rjmp	.-138    	; 0x436a <simple_imu_update+0x58>
			accSmooth[axis] =  -accADCf;
		}
	}
	
	// Add correction data to gyro inputs based on difference between Euler angles and acc angles
	AccAngleRoll = accSmooth[ROLL] * SMALLANGLEFACTOR;		// KK2 - AccYfilter
    43f4:	23 ec       	ldi	r18, 0xC3	; 195
    43f6:	35 ef       	ldi	r19, 0xF5	; 245
    43f8:	48 e2       	ldi	r20, 0x28	; 40
    43fa:	5f e3       	ldi	r21, 0x3F	; 63
    43fc:	60 91 8d 05 	lds	r22, 0x058D
    4400:	70 91 8e 05 	lds	r23, 0x058E
    4404:	80 91 8f 05 	lds	r24, 0x058F
    4408:	90 91 90 05 	lds	r25, 0x0590
    440c:	0e 94 7b 40 	call	0x80f6	; 0x80f6 <__mulsf3>
    4410:	69 83       	std	Y+1, r22	; 0x01
    4412:	7a 83       	std	Y+2, r23	; 0x02
    4414:	8b 83       	std	Y+3, r24	; 0x03
    4416:	9c 83       	std	Y+4, r25	; 0x04
    4418:	60 93 71 05 	sts	0x0571, r22
    441c:	70 93 72 05 	sts	0x0572, r23
    4420:	80 93 73 05 	sts	0x0573, r24
    4424:	90 93 74 05 	sts	0x0574, r25
	AccAnglePitch = accSmooth[PITCH] * SMALLANGLEFACTOR;
    4428:	23 ec       	ldi	r18, 0xC3	; 195
    442a:	35 ef       	ldi	r19, 0xF5	; 245
    442c:	48 e2       	ldi	r20, 0x28	; 40
    442e:	5f e3       	ldi	r21, 0x3F	; 63
    4430:	60 91 91 05 	lds	r22, 0x0591
    4434:	70 91 92 05 	lds	r23, 0x0592
    4438:	80 91 93 05 	lds	r24, 0x0593
    443c:	90 91 94 05 	lds	r25, 0x0594
    4440:	0e 94 7b 40 	call	0x80f6	; 0x80f6 <__mulsf3>
    4444:	6d 83       	std	Y+5, r22	; 0x05
    4446:	7e 83       	std	Y+6, r23	; 0x06
    4448:	8f 83       	std	Y+7, r24	; 0x07
    444a:	98 87       	std	Y+8, r25	; 0x08
    444c:	60 93 75 05 	sts	0x0575, r22
    4450:	70 93 76 05 	sts	0x0576, r23
    4454:	80 93 77 05 	sts	0x0577, r24
    4458:	90 93 78 05 	sts	0x0578, r25

	// Copy/promote gyro values for rotate
	GyroRollVC = gyroADC[ROLL];								// KK2 - GyroRoll
    445c:	60 91 63 05 	lds	r22, 0x0563
    4460:	70 91 64 05 	lds	r23, 0x0564
    4464:	88 27       	eor	r24, r24
    4466:	77 fd       	sbrc	r23, 7
    4468:	80 95       	com	r24
    446a:	98 2f       	mov	r25, r24
    446c:	0e 94 c7 3f 	call	0x7f8e	; 0x7f8e <__floatsisf>
    4470:	2b 01       	movw	r4, r22
    4472:	3c 01       	movw	r6, r24
    4474:	60 93 81 05 	sts	0x0581, r22
    4478:	70 93 82 05 	sts	0x0582, r23
    447c:	80 93 83 05 	sts	0x0583, r24
    4480:	90 93 84 05 	sts	0x0584, r25
	GyroPitchVC = gyroADC[PITCH];
    4484:	60 91 65 05 	lds	r22, 0x0565
    4488:	70 91 66 05 	lds	r23, 0x0566
    448c:	88 27       	eor	r24, r24
    448e:	77 fd       	sbrc	r23, 7
    4490:	80 95       	com	r24
    4492:	98 2f       	mov	r25, r24
    4494:	0e 94 c7 3f 	call	0x7f8e	; 0x7f8e <__floatsisf>
    4498:	6b 01       	movw	r12, r22
    449a:	7c 01       	movw	r14, r24
    449c:	60 93 79 05 	sts	0x0579, r22
    44a0:	70 93 7a 05 	sts	0x057A, r23
    44a4:	80 93 7b 05 	sts	0x057B, r24
    44a8:	90 93 7c 05 	sts	0x057C, r25

	// Calculate acceleration magnitude.
	roll_sq = (accADC[ROLL] * accADC[ROLL]);
    44ac:	20 91 30 05 	lds	r18, 0x0530
    44b0:	30 91 31 05 	lds	r19, 0x0531
	pitch_sq = (accADC[PITCH] * accADC[PITCH]);
    44b4:	40 91 32 05 	lds	r20, 0x0532
    44b8:	50 91 33 05 	lds	r21, 0x0533
	yaw_sq = (accADC[YAW] * accADC[YAW]);
    44bc:	e0 91 34 05 	lds	r30, 0x0534
    44c0:	f0 91 35 05 	lds	r31, 0x0535
	GyroRollVC = gyroADC[ROLL];								// KK2 - GyroRoll
	GyroPitchVC = gyroADC[PITCH];

	// Calculate acceleration magnitude.
	roll_sq = (accADC[ROLL] * accADC[ROLL]);
	pitch_sq = (accADC[PITCH] * accADC[PITCH]);
    44c4:	44 9f       	mul	r20, r20
    44c6:	40 01       	movw	r8, r0
    44c8:	45 9f       	mul	r20, r21
    44ca:	90 0c       	add	r9, r0
    44cc:	90 0c       	add	r9, r0
    44ce:	11 24       	eor	r1, r1
    44d0:	b4 01       	movw	r22, r8
    44d2:	88 27       	eor	r24, r24
    44d4:	77 fd       	sbrc	r23, 7
    44d6:	80 95       	com	r24
    44d8:	98 2f       	mov	r25, r24
	// Copy/promote gyro values for rotate
	GyroRollVC = gyroADC[ROLL];								// KK2 - GyroRoll
	GyroPitchVC = gyroADC[PITCH];

	// Calculate acceleration magnitude.
	roll_sq = (accADC[ROLL] * accADC[ROLL]);
    44da:	22 9f       	mul	r18, r18
    44dc:	a0 01       	movw	r20, r0
    44de:	23 9f       	mul	r18, r19
    44e0:	50 0d       	add	r21, r0
    44e2:	50 0d       	add	r21, r0
    44e4:	11 24       	eor	r1, r1
    44e6:	8a 01       	movw	r16, r20
    44e8:	22 27       	eor	r18, r18
    44ea:	17 fd       	sbrc	r17, 7
    44ec:	20 95       	com	r18
    44ee:	32 2f       	mov	r19, r18
	pitch_sq = (accADC[PITCH] * accADC[PITCH]);
	yaw_sq = (accADC[YAW] * accADC[YAW]);
	AccMag = roll_sq + pitch_sq + yaw_sq;
    44f0:	60 0f       	add	r22, r16
    44f2:	71 1f       	adc	r23, r17
    44f4:	82 1f       	adc	r24, r18
    44f6:	93 1f       	adc	r25, r19
	GyroPitchVC = gyroADC[PITCH];

	// Calculate acceleration magnitude.
	roll_sq = (accADC[ROLL] * accADC[ROLL]);
	pitch_sq = (accADC[PITCH] * accADC[PITCH]);
	yaw_sq = (accADC[YAW] * accADC[YAW]);
    44f8:	ee 9f       	mul	r30, r30
    44fa:	90 01       	movw	r18, r0
    44fc:	ef 9f       	mul	r30, r31
    44fe:	30 0d       	add	r19, r0
    4500:	30 0d       	add	r19, r0
    4502:	11 24       	eor	r1, r1
    4504:	89 01       	movw	r16, r18
    4506:	22 27       	eor	r18, r18
    4508:	17 fd       	sbrc	r17, 7
    450a:	20 95       	com	r18
    450c:	32 2f       	mov	r19, r18
	AccMag = roll_sq + pitch_sq + yaw_sq;
    450e:	60 0f       	add	r22, r16
    4510:	71 1f       	adc	r23, r17
    4512:	82 1f       	adc	r24, r18
    4514:	93 1f       	adc	r25, r19
	
	// Add acc correction if inside local acceleration bounds and not inverted according to VectorZ
	// This is actually a kind of Complementary Filter
	if	((AccMag > acc_0_85G_SQ) && (AccMag < acc_1_15G_SQ) && (VectorZ > 0.5))
    4516:	0e 94 c5 3f 	call	0x7f8a	; 0x7f8a <__floatunsisf>
    451a:	4b 01       	movw	r8, r22
    451c:	5c 01       	movw	r10, r24
    451e:	20 e0       	ldi	r18, 0x00	; 0
    4520:	34 ef       	ldi	r19, 0xF4	; 244
    4522:	48 e3       	ldi	r20, 0x38	; 56
    4524:	56 e4       	ldi	r21, 0x46	; 70
    4526:	0e 94 77 40 	call	0x80ee	; 0x80ee <__gesf2>
    452a:	18 16       	cp	r1, r24
    452c:	0c f0       	brlt	.+2      	; 0x4530 <simple_imu_update+0x21e>
    452e:	6b c0       	rjmp	.+214    	; 0x4606 <simple_imu_update+0x2f4>
    4530:	20 e0       	ldi	r18, 0x00	; 0
    4532:	38 e4       	ldi	r19, 0x48	; 72
    4534:	49 ea       	ldi	r20, 0xA9	; 169
    4536:	56 e4       	ldi	r21, 0x46	; 70
    4538:	c5 01       	movw	r24, r10
    453a:	b4 01       	movw	r22, r8
    453c:	0e 94 28 3f 	call	0x7e50	; 0x7e50 <__cmpsf2>
    4540:	87 ff       	sbrs	r24, 7
    4542:	61 c0       	rjmp	.+194    	; 0x4606 <simple_imu_update+0x2f4>
    4544:	20 e0       	ldi	r18, 0x00	; 0
    4546:	30 e0       	ldi	r19, 0x00	; 0
    4548:	40 e0       	ldi	r20, 0x00	; 0
    454a:	5f e3       	ldi	r21, 0x3F	; 63
    454c:	60 91 00 05 	lds	r22, 0x0500
    4550:	70 91 01 05 	lds	r23, 0x0501
    4554:	80 91 02 05 	lds	r24, 0x0502
    4558:	90 91 03 05 	lds	r25, 0x0503
    455c:	0e 94 77 40 	call	0x80ee	; 0x80ee <__gesf2>
    4560:	18 16       	cp	r1, r24
    4562:	0c f0       	brlt	.+2      	; 0x4566 <simple_imu_update+0x254>
    4564:	50 c0       	rjmp	.+160    	; 0x4606 <simple_imu_update+0x2f4>
	{
		tempf = (EulerAngleRoll - AccAngleRoll) / (11 - Config.CF_factor); // Default Config.CF_factor is 7
    4566:	80 91 35 06 	lds	r24, 0x0635
    456a:	6b e0       	ldi	r22, 0x0B	; 11
    456c:	70 e0       	ldi	r23, 0x00	; 0
    456e:	68 1b       	sub	r22, r24
    4570:	71 09       	sbc	r23, r1
    4572:	87 fd       	sbrc	r24, 7
    4574:	73 95       	inc	r23
    4576:	88 27       	eor	r24, r24
    4578:	77 fd       	sbrc	r23, 7
    457a:	80 95       	com	r24
    457c:	98 2f       	mov	r25, r24
    457e:	0e 94 c7 3f 	call	0x7f8e	; 0x7f8e <__floatsisf>
    4582:	4b 01       	movw	r8, r22
    4584:	5c 01       	movw	r10, r24
    4586:	29 81       	ldd	r18, Y+1	; 0x01
    4588:	3a 81       	ldd	r19, Y+2	; 0x02
    458a:	4b 81       	ldd	r20, Y+3	; 0x03
    458c:	5c 81       	ldd	r21, Y+4	; 0x04
    458e:	60 91 99 05 	lds	r22, 0x0599
    4592:	70 91 9a 05 	lds	r23, 0x059A
    4596:	80 91 9b 05 	lds	r24, 0x059B
    459a:	90 91 9c 05 	lds	r25, 0x059C
    459e:	0e 94 c3 3e 	call	0x7d86	; 0x7d86 <__subsf3>
    45a2:	a5 01       	movw	r20, r10
    45a4:	94 01       	movw	r18, r8
    45a6:	0e 94 2c 3f 	call	0x7e58	; 0x7e58 <__divsf3>
    45aa:	9b 01       	movw	r18, r22
    45ac:	ac 01       	movw	r20, r24
		GyroRollVC = GyroRollVC + tempf;
    45ae:	c3 01       	movw	r24, r6
    45b0:	b2 01       	movw	r22, r4
    45b2:	0e 94 c4 3e 	call	0x7d88	; 0x7d88 <__addsf3>
    45b6:	60 93 81 05 	sts	0x0581, r22
    45ba:	70 93 82 05 	sts	0x0582, r23
    45be:	80 93 83 05 	sts	0x0583, r24
    45c2:	90 93 84 05 	sts	0x0584, r25
		
		tempf = (EulerAnglePitch - AccAnglePitch) /(11 - Config.CF_factor);
    45c6:	2d 81       	ldd	r18, Y+5	; 0x05
    45c8:	3e 81       	ldd	r19, Y+6	; 0x06
    45ca:	4f 81       	ldd	r20, Y+7	; 0x07
    45cc:	58 85       	ldd	r21, Y+8	; 0x08
    45ce:	60 91 6d 05 	lds	r22, 0x056D
    45d2:	70 91 6e 05 	lds	r23, 0x056E
    45d6:	80 91 6f 05 	lds	r24, 0x056F
    45da:	90 91 70 05 	lds	r25, 0x0570
    45de:	0e 94 c3 3e 	call	0x7d86	; 0x7d86 <__subsf3>
    45e2:	a5 01       	movw	r20, r10
    45e4:	94 01       	movw	r18, r8
    45e6:	0e 94 2c 3f 	call	0x7e58	; 0x7e58 <__divsf3>
    45ea:	9b 01       	movw	r18, r22
    45ec:	ac 01       	movw	r20, r24
		GyroPitchVC = GyroPitchVC + tempf;
    45ee:	c7 01       	movw	r24, r14
    45f0:	b6 01       	movw	r22, r12
    45f2:	0e 94 c4 3e 	call	0x7d88	; 0x7d88 <__addsf3>
    45f6:	60 93 79 05 	sts	0x0579, r22
    45fa:	70 93 7a 05 	sts	0x057A, r23
    45fe:	80 93 7b 05 	sts	0x057B, r24
    4602:	90 93 7c 05 	sts	0x057C, r25
	}

	// Rotate up-direction 3D vector with gyro inputs
	Rotate3dVector();
    4606:	0e 94 02 20 	call	0x4004	; 0x4004 <Rotate3dVector>
	ExtractEulerAngles();
    460a:	0e 94 64 21 	call	0x42c8	; 0x42c8 <ExtractEulerAngles>
	
	// Upscale to 0.01 degrees resolution and copy to angle[] for display
	angle[ROLL] = (int16_t)(EulerAngleRoll * -100);
    460e:	20 e0       	ldi	r18, 0x00	; 0
    4610:	30 e0       	ldi	r19, 0x00	; 0
    4612:	48 ec       	ldi	r20, 0xC8	; 200
    4614:	52 ec       	ldi	r21, 0xC2	; 194
    4616:	60 91 99 05 	lds	r22, 0x0599
    461a:	70 91 9a 05 	lds	r23, 0x059A
    461e:	80 91 9b 05 	lds	r24, 0x059B
    4622:	90 91 9c 05 	lds	r25, 0x059C
    4626:	0e 94 7b 40 	call	0x80f6	; 0x80f6 <__mulsf3>
    462a:	0e 94 94 3f 	call	0x7f28	; 0x7f28 <__fixsfsi>
    462e:	70 93 86 05 	sts	0x0586, r23
    4632:	60 93 85 05 	sts	0x0585, r22
	angle[PITCH] = (int16_t)(EulerAnglePitch * -100);
    4636:	20 e0       	ldi	r18, 0x00	; 0
    4638:	30 e0       	ldi	r19, 0x00	; 0
    463a:	48 ec       	ldi	r20, 0xC8	; 200
    463c:	52 ec       	ldi	r21, 0xC2	; 194
    463e:	60 91 6d 05 	lds	r22, 0x056D
    4642:	70 91 6e 05 	lds	r23, 0x056E
    4646:	80 91 6f 05 	lds	r24, 0x056F
    464a:	90 91 70 05 	lds	r25, 0x0570
    464e:	0e 94 7b 40 	call	0x80f6	; 0x80f6 <__mulsf3>
    4652:	0e 94 94 3f 	call	0x7f28	; 0x7f28 <__fixsfsi>
    4656:	70 93 88 05 	sts	0x0588, r23
    465a:	60 93 87 05 	sts	0x0587, r22
}
    465e:	28 96       	adiw	r28, 0x08	; 8
    4660:	e0 e1       	ldi	r30, 0x10	; 16
    4662:	0c 94 9c 41 	jmp	0x8338	; 0x8338 <__epilogue_restores__+0x4>

00004666 <reset_IMU>:
}

void reset_IMU(void)
{
	// Initialise the vector to point straight up
	VectorX = 0;
    4666:	10 92 21 05 	sts	0x0521, r1
    466a:	10 92 22 05 	sts	0x0522, r1
    466e:	10 92 23 05 	sts	0x0523, r1
    4672:	10 92 24 05 	sts	0x0524, r1
	VectorY = 0;
    4676:	10 92 1d 05 	sts	0x051D, r1
    467a:	10 92 1e 05 	sts	0x051E, r1
    467e:	10 92 1f 05 	sts	0x051F, r1
    4682:	10 92 20 05 	sts	0x0520, r1
	VectorZ = 1;
    4686:	80 e0       	ldi	r24, 0x00	; 0
    4688:	90 e0       	ldi	r25, 0x00	; 0
    468a:	a0 e8       	ldi	r26, 0x80	; 128
    468c:	bf e3       	ldi	r27, 0x3F	; 63
    468e:	80 93 00 05 	sts	0x0500, r24
    4692:	90 93 01 05 	sts	0x0501, r25
    4696:	a0 93 02 05 	sts	0x0502, r26
    469a:	b0 93 03 05 	sts	0x0503, r27
	
	// Initialise internal vectors and attitude	
	VectorA = 0;
    469e:	10 92 9d 05 	sts	0x059D, r1
    46a2:	10 92 9e 05 	sts	0x059E, r1
    46a6:	10 92 9f 05 	sts	0x059F, r1
    46aa:	10 92 a0 05 	sts	0x05A0, r1
	VectorB = 0;
    46ae:	10 92 a1 05 	sts	0x05A1, r1
    46b2:	10 92 a2 05 	sts	0x05A2, r1
    46b6:	10 92 a3 05 	sts	0x05A3, r1
    46ba:	10 92 a4 05 	sts	0x05A4, r1
	EulerAngleRoll = 0;
    46be:	10 92 99 05 	sts	0x0599, r1
    46c2:	10 92 9a 05 	sts	0x059A, r1
    46c6:	10 92 9b 05 	sts	0x059B, r1
    46ca:	10 92 9c 05 	sts	0x059C, r1
	EulerAnglePitch = 0;
    46ce:	10 92 6d 05 	sts	0x056D, r1
    46d2:	10 92 6e 05 	sts	0x056E, r1
    46d6:	10 92 6f 05 	sts	0x056F, r1
    46da:	10 92 70 05 	sts	0x0570, r1

	// Reset loop count to zero
	TMR0_counter = 0;	// TMR0 overflow counter
    46de:	10 92 7a 07 	sts	0x077A, r1
    46e2:	10 92 79 07 	sts	0x0779, r1
	TCNT1 = 0;			// TCNT1 current time
    46e6:	10 92 85 00 	sts	0x0085, r1
    46ea:	10 92 84 00 	sts	0x0084, r1
	LoopStartTCNT1 = 0;	// TCNT1 last loop time
    46ee:	10 92 11 05 	sts	0x0511, r1
    46f2:	10 92 10 05 	sts	0x0510, r1
    46f6:	08 95       	ret

000046f8 <init_int>:
// Reconfigure interrupts
//***********************************************************

void init_int(void)
{
	cli();	// Disable interrupts
    46f8:	f8 94       	cli

	switch (Config.RxMode)
    46fa:	80 91 ce 05 	lds	r24, 0x05CE
    46fe:	81 30       	cpi	r24, 0x01	; 1
    4700:	a1 f0       	breq	.+40     	; 0x472a <init_int+0x32>
    4702:	44 f4       	brge	.+16     	; 0x4714 <init_int+0x1c>
    4704:	81 11       	cpse	r24, r1
    4706:	22 c0       	rjmp	.+68     	; 0x474c <init_int+0x54>
	{
		case CPPM_MODE:
			PCMSK1 = 0;							// Disable AUX
    4708:	10 92 6c 00 	sts	0x006C, r1
			PCMSK3 = 0;							// Disable THR
    470c:	10 92 73 00 	sts	0x0073, r1
			EIMSK = 0x04;						// Enable INT2 (Rudder/CPPM input)
    4710:	84 e0       	ldi	r24, 0x04	; 4
    4712:	16 c0       	rjmp	.+44     	; 0x4740 <init_int+0x48>

void init_int(void)
{
	cli();	// Disable interrupts

	switch (Config.RxMode)
    4714:	84 30       	cpi	r24, 0x04	; 4
    4716:	d4 f4       	brge	.+52     	; 0x474c <init_int+0x54>
			break;

		case SBUS:
		case SPEKTRUM:
			// Disable PWM input interrupts
			PCMSK1 = 0;							// Disable AUX
    4718:	10 92 6c 00 	sts	0x006C, r1
			PCMSK3 = 0;							// Disable THR
    471c:	10 92 73 00 	sts	0x0073, r1
			EIMSK  = 0;							// Disable INT0, 1 and 2 
    4720:	1d ba       	out	0x1d, r1	; 29

			// Enable serial interrupt
			UCSR0B |= (1 << RXCIE0);
    4722:	80 91 c1 00 	lds	r24, 0x00C1
    4726:	80 68       	ori	r24, 0x80	; 128
    4728:	0f c0       	rjmp	.+30     	; 0x4748 <init_int+0x50>
			EIMSK = 0x04;						// Enable INT2 (Rudder/CPPM input)
			UCSR0B &= ~(1 << RXCIE0);			// Disable serial interrupt
			break;

		case PWM:
			PCMSK1 |= (1 << PCINT8);			// PB0 (Aux pin change mask)
    472a:	80 91 6c 00 	lds	r24, 0x006C
    472e:	81 60       	ori	r24, 0x01	; 1
    4730:	80 93 6c 00 	sts	0x006C, r24
			PCMSK3 |= (1 << PCINT24);			// PD0 (Throttle pin change mask)
    4734:	80 91 73 00 	lds	r24, 0x0073
    4738:	81 60       	ori	r24, 0x01	; 1
    473a:	80 93 73 00 	sts	0x0073, r24
			EIMSK  = 0x07;						// Enable INT0, 1 and 2 
    473e:	87 e0       	ldi	r24, 0x07	; 7
    4740:	8d bb       	out	0x1d, r24	; 29
			UCSR0B &= ~(1 << RXCIE0);			// Disable serial interrupt
    4742:	80 91 c1 00 	lds	r24, 0x00C1
    4746:	8f 77       	andi	r24, 0x7F	; 127
			PCMSK1 = 0;							// Disable AUX
			PCMSK3 = 0;							// Disable THR
			EIMSK  = 0;							// Disable INT0, 1 and 2 

			// Enable serial interrupt
			UCSR0B |= (1 << RXCIE0);
    4748:	80 93 c1 00 	sts	0x00C1, r24

		default:
			break;	
	}	

	sei(); // Re-enable interrupts
    474c:	78 94       	sei
    474e:	08 95       	ret

00004750 <init>:
	// I/O setup
	//***********************************************************
	// Set port directions
	// KK2.0 and KK2.1 are different
#ifdef KK21
	DDRA		= 0x30;		// Port A
    4750:	80 e3       	ldi	r24, 0x30	; 48
    4752:	81 b9       	out	0x01, r24	; 1
	DDRC		= 0xFC;		// Port C
    4754:	8c ef       	ldi	r24, 0xFC	; 252
    4756:	87 b9       	out	0x07, r24	; 7
#else
	DDRA		= 0x00;		// Port A
	DDRC		= 0xFF;		// Port C
#endif
	DDRB		= 0x0A;		// Port B
    4758:	8a e0       	ldi	r24, 0x0A	; 10
    475a:	84 b9       	out	0x04, r24	; 4
	DDRD		= 0xF2;		// Port D
    475c:	82 ef       	ldi	r24, 0xF2	; 242
    475e:	8a b9       	out	0x0a, r24	; 10

	// Hold all PWM outputs low to stop glitches
	// M5 and M6 are on PortA for KK2.1
	MOTORS		= 0;
    4760:	18 b8       	out	0x08, r1	; 8
	M5			= 0;
    4762:	14 98       	cbi	0x02, 4	; 2
	M6			= 0;
    4764:	15 98       	cbi	0x02, 5	; 2

	// Preset I/O pins
	LED1 		= 0;		// LED1 off
    4766:	2b 98       	cbi	0x05, 3	; 5
	LVA 		= 0; 		// LVA alarm OFF
    4768:	29 98       	cbi	0x05, 1	; 5
	LCD_SCL		= 1;		// GLCD clock high
    476a:	5c 9a       	sbi	0x0b, 4	; 11

	// Set/clear pull-ups (1 = set, 0 = clear)
	PINB		= 0xF5;		// Set PB pull-ups
    476c:	85 ef       	ldi	r24, 0xF5	; 245
    476e:	83 b9       	out	0x03, r24	; 3
	PIND		= 0x0C;		// Set PD pull-ups (Don't pull up RX yet)
    4770:	8c e0       	ldi	r24, 0x0C	; 12
    4772:	89 b9       	out	0x09, r24	; 9
    4774:	2f e5       	ldi	r18, 0x5F	; 95
    4776:	48 ed       	ldi	r20, 0xD8	; 216
    4778:	83 e0       	ldi	r24, 0x03	; 3
    477a:	21 50       	subi	r18, 0x01	; 1
    477c:	40 40       	sbci	r20, 0x00	; 0
    477e:	80 40       	sbci	r24, 0x00	; 0
    4780:	e1 f7       	brne	.-8      	; 0x477a <init+0x2a>
    4782:	00 c0       	rjmp	.+0      	; 0x4784 <init+0x34>
    4784:	00 00       	nop
	_delay_ms(63);				// Pause while satellite wakes up	
								// and pull-ups have time to rise.
								// Tweak until bind pulses about 68ms after power-up

	// Bind as master if ONLY button 4 pressed
	if ((PINB & 0xf0) == 0xE0)
    4786:	83 b1       	in	r24, 0x03	; 3
    4788:	80 7f       	andi	r24, 0xF0	; 240
    478a:	80 3e       	cpi	r24, 0xE0	; 224
    478c:	21 f4       	brne	.+8      	; 0x4796 <init+0x46>
	{
		DDRD		= 0xF3;		// Switch PD0 to output
    478e:	83 ef       	ldi	r24, 0xF3	; 243
    4790:	8a b9       	out	0x0a, r24	; 10
		bind_master();
    4792:	0e 94 34 0d 	call	0x1a68	; 0x1a68 <bind_master>
	}

	DDRD		= 0xF2;			// Reset Port D directions
    4796:	82 ef       	ldi	r24, 0xF2	; 242
    4798:	8a b9       	out	0x0a, r24	; 10

	// Set/clear pull-ups (1 = set, 0 = clear)
	PIND		= 0x0D;			// Set PD pull-ups (now pull up RX as well)
    479a:	8d e0       	ldi	r24, 0x0D	; 13
    479c:	89 b9       	out	0x09, r24	; 9
	// Timers
	//***********************************************************

	// Timer0 (8bit) - run @ 20MHz / 1024 = 19.531kHz or 51.2us - max 13.1ms
	// Slow timer to extend Timer 1
	TCCR0A = 0;								// Normal operation
    479e:	14 bc       	out	0x24, r1	; 36
	TCCR0B = 0x05;							// Clk / 1024 = 19.531kHz or 51.2us - max 13.1ms
    47a0:	85 e0       	ldi	r24, 0x05	; 5
    47a2:	85 bd       	out	0x25, r24	; 37
	TIMSK0 |= (1 << TOIE0);					// Enable interrupts
    47a4:	80 91 6e 00 	lds	r24, 0x006E
    47a8:	81 60       	ori	r24, 0x01	; 1
    47aa:	80 93 6e 00 	sts	0x006E, r24
	TCNT0 = 0;								// Reset counter
    47ae:	16 bc       	out	0x26, r1	; 38
	
	// Timer1 (16bit) - run @ 2.5MHz (400ns) - max 26.2ms
	// Used to measure Rx Signals & control ESC/servo output rate
	TCCR1A = 0;
    47b0:	10 92 80 00 	sts	0x0080, r1
	TCCR1B |= (1 << CS11);					// Clk/8 = 2.5MHz
    47b4:	80 91 81 00 	lds	r24, 0x0081
    47b8:	82 60       	ori	r24, 0x02	; 2
    47ba:	80 93 81 00 	sts	0x0081, r24

	// Timer2 8bit - run @ 20MHz / 1024 = 19.531kHz or 51.2us - max 13.1ms
	// Used to time arm/disarm intervals
	TCCR2A = 0;	
    47be:	10 92 b0 00 	sts	0x00B0, r1
	TCCR2B = 0x07;							// Clk/1024 = 19.531kHz
    47c2:	87 e0       	ldi	r24, 0x07	; 7
    47c4:	80 93 b1 00 	sts	0x00B1, r24
	TIMSK2 = 0;
    47c8:	10 92 70 00 	sts	0x0070, r1
	TIFR2 = 0;
    47cc:	17 ba       	out	0x17, r1	; 23
	TCNT2 = 0;								// Reset counter
    47ce:	10 92 b2 00 	sts	0x00B2, r1
	//***********************************************************
	// Interrupts and pin function setup
	//***********************************************************

	// Pin change interrupt enables PCINT1, PCINT2 and PCINT3 (Throttle, AUX and CPPM input)
	PCICR  = 0x0A;							// PCINT8  to PCINT15 (PCINT1 group - AUX)
    47d2:	9a e0       	ldi	r25, 0x0A	; 10
    47d4:	90 93 68 00 	sts	0x0068, r25
											// PCINT24 to PCINT31 (PCINT3 group - THR)
	PCIFR  = 0x0F;							// Clear PCIF0 interrupt flag 
    47d8:	9f e0       	ldi	r25, 0x0F	; 15
    47da:	9b bb       	out	0x1b, r25	; 27
											// Clear PCIF1 interrupt flag 
											// Clear PCIF2 interrupt flag 
											// Clear PCIF3 interrupt flag 

	// External interrupts INT0 (Elevator) and INT1 (Aileron) and INT2 (Rudder)
	EICRA = 0x15;							// Any change INT0
    47dc:	95 e1       	ldi	r25, 0x15	; 21
    47de:	90 93 69 00 	sts	0x0069, r25
											// Any change INT1
											// Any change INT2
	EIFR  = 0x07; 							// Clear INT0 interrupt flag (Elevator)
    47e2:	8c bb       	out	0x1c, r24	; 28
	//***********************************************************
	// Start up
	//***********************************************************

	// Preset important flags
	Interrupted = false;						
    47e4:	10 92 76 07 	sts	0x0776, r1

	// Load EEPROM settings
	Initial_EEPROM_Config_Load(); // Config now contains valid values
    47e8:	0e 94 97 16 	call	0x2d2e	; 0x2d2e <Initial_EEPROM_Config_Load>
    47ec:	80 e0       	ldi	r24, 0x00	; 0
    47ee:	90 e0       	ldi	r25, 0x00	; 0
	//***********************************************************

	for (i = 0; i < MAX_RC_CHANNELS; i++)
	{
		
		RxChannel[i] = 3750;
    47f0:	26 ea       	ldi	r18, 0xA6	; 166
    47f2:	3e e0       	ldi	r19, 0x0E	; 14
    47f4:	fc 01       	movw	r30, r24
    47f6:	ee 0f       	add	r30, r30
    47f8:	ff 1f       	adc	r31, r31
    47fa:	ea 59       	subi	r30, 0x9A	; 154
    47fc:	f8 4f       	sbci	r31, 0xF8	; 248
    47fe:	31 83       	std	Z+1, r19	; 0x01
    4800:	20 83       	st	Z, r18
    4802:	01 96       	adiw	r24, 0x01	; 1
	// RX channel defaults for when no RC connected
	// Not doing this can result in the FC trying (unsuccessfully) to arm
	// and makes entry into the menus very hard
	//***********************************************************

	for (i = 0; i < MAX_RC_CHANNELS; i++)
    4804:	88 30       	cpi	r24, 0x08	; 8
    4806:	91 05       	cpc	r25, r1
    4808:	a9 f7       	brne	.-22     	; 0x47f4 <init+0xa4>
	{
		
		RxChannel[i] = 3750;
	}
	
	RxChannel[THROTTLE] = 2500; // Min throttle
    480a:	84 ec       	ldi	r24, 0xC4	; 196
    480c:	99 e0       	ldi	r25, 0x09	; 9
    480e:	90 93 67 07 	sts	0x0767, r25
    4812:	80 93 66 07 	sts	0x0766, r24
	//***********************************************************
	// GLCD initialisation
	//***********************************************************

	// Initialise the GLCD
	st7565_init();
    4816:	0e 94 c6 1a 	call	0x358c	; 0x358c <st7565_init>
	
#ifdef KK21
	// Make sure the LCD is blank without clearing buffer
	clear_screen();
    481a:	0e 94 1d 1b 	call	0x363a	; 0x363a <clear_screen>
	//***********************************************************
	// ESC calibration
	//***********************************************************
	
	// Calibrate ESCs if ONLY buttons 1 and 4 pressed
	if ((PINB & 0xf0) == 0x60)
    481e:	83 b1       	in	r24, 0x03	; 3
    4820:	80 7f       	andi	r24, 0xF0	; 240
    4822:	80 36       	cpi	r24, 0x60	; 96
    4824:	09 f0       	breq	.+2      	; 0x4828 <init+0xd8>
    4826:	63 c0       	rjmp	.+198    	; 0x48ee <init+0x19e>
	{
		// Display calibrating message
		st7565_command(CMD_SET_COM_NORMAL); 	// For text (not for logo)
    4828:	80 ec       	ldi	r24, 0xC0	; 192
    482a:	0e 94 b4 1a 	call	0x3568	; 0x3568 <st7565_command>
		clear_buffer(buffer);
    482e:	80 e0       	ldi	r24, 0x00	; 0
    4830:	91 e0       	ldi	r25, 0x01	; 1
    4832:	0e 94 14 1b 	call	0x3628	; 0x3628 <clear_buffer>
		LCD_Display_Text(59,(const unsigned char*)Verdana14,10,25);
    4836:	29 e1       	ldi	r18, 0x19	; 25
    4838:	30 e0       	ldi	r19, 0x00	; 0
    483a:	4a e0       	ldi	r20, 0x0A	; 10
    483c:	50 e0       	ldi	r21, 0x00	; 0
    483e:	69 e4       	ldi	r22, 0x49	; 73
    4840:	71 e0       	ldi	r23, 0x01	; 1
    4842:	8b e3       	ldi	r24, 0x3B	; 59
    4844:	0e 94 bd 1c 	call	0x397a	; 0x397a <LCD_Display_Text>
		write_buffer(buffer,1);
    4848:	61 e0       	ldi	r22, 0x01	; 1
    484a:	80 e0       	ldi	r24, 0x00	; 0
    484c:	91 e0       	ldi	r25, 0x01	; 1
    484e:	0e 94 e6 1a 	call	0x35cc	; 0x35cc <write_buffer>
		clear_buffer(buffer);
    4852:	80 e0       	ldi	r24, 0x00	; 0
    4854:	91 e0       	ldi	r25, 0x01	; 1
    4856:	0e 94 14 1b 	call	0x3628	; 0x3628 <clear_buffer>
    485a:	a8 ee       	ldi	r26, 0xE8	; 232
    485c:	b7 e0       	ldi	r27, 0x07	; 7
    485e:	e8 e4       	ldi	r30, 0x48	; 72
    4860:	f6 e0       	ldi	r31, 0x06	; 6
				// Set output to maximum pulse width
				ServoOut[i] = MOTOR_100;
			}
			else
			{
				ServoOut[i] = SERVO_CENTER;
    4862:	8c ed       	ldi	r24, 0xDC	; 220
    4864:	95 e0       	ldi	r25, 0x05	; 5
		{
			// Check for motor marker
			if ((Config.Channel[i].P1_sensors & (1 << MotorMarker)) != 0)
			{
				// Set output to maximum pulse width
				ServoOut[i] = MOTOR_100;
    4866:	2c e6       	ldi	r18, 0x6C	; 108
    4868:	37 e0       	ldi	r19, 0x07	; 7
				
		// For each output
		for (i = 0; i < MAX_OUTPUTS; i++)
		{
			// Check for motor marker
			if ((Config.Channel[i].P1_sensors & (1 << MotorMarker)) != 0)
    486a:	40 81       	ld	r20, Z
    486c:	46 ff       	sbrs	r20, 6
    486e:	04 c0       	rjmp	.+8      	; 0x4878 <init+0x128>
			{
				// Set output to maximum pulse width
				ServoOut[i] = MOTOR_100;
    4870:	11 96       	adiw	r26, 0x01	; 1
    4872:	3c 93       	st	X, r19
    4874:	2e 93       	st	-X, r18
    4876:	03 c0       	rjmp	.+6      	; 0x487e <init+0x12e>
			}
			else
			{
				ServoOut[i] = SERVO_CENTER;
    4878:	11 96       	adiw	r26, 0x01	; 1
    487a:	9c 93       	st	X, r25
    487c:	8e 93       	st	-X, r24
    487e:	7d 96       	adiw	r30, 0x1d	; 29
    4880:	12 96       	adiw	r26, 0x02	; 2
		LCD_Display_Text(59,(const unsigned char*)Verdana14,10,25);
		write_buffer(buffer,1);
		clear_buffer(buffer);
				
		// For each output
		for (i = 0; i < MAX_OUTPUTS; i++)
    4882:	47 e0       	ldi	r20, 0x07	; 7
    4884:	e0 33       	cpi	r30, 0x30	; 48
    4886:	f4 07       	cpc	r31, r20
    4888:	81 f7       	brne	.-32     	; 0x486a <init+0x11a>
				ServoOut[i] = SERVO_CENTER;
			}
		}
					
		// Output HIGH pulse (1.9ms) until buttons released
		while ((PINB & 0xf0) == 0x60)
    488a:	83 b1       	in	r24, 0x03	; 3
    488c:	80 7f       	andi	r24, 0xF0	; 240
    488e:	80 36       	cpi	r24, 0x60	; 96
    4890:	71 f4       	brne	.+28     	; 0x48ae <init+0x15e>
		{
			// Pass address of ServoOut array
			output_servo_ppm_asm(&ServoOut[0]);
    4892:	88 ee       	ldi	r24, 0xE8	; 232
    4894:	97 e0       	ldi	r25, 0x07	; 7
    4896:	0e 94 50 0d 	call	0x1aa0	; 0x1aa0 <output_servo_ppm_asm>
    489a:	8f e7       	ldi	r24, 0x7F	; 127
    489c:	98 e3       	ldi	r25, 0x38	; 56
    489e:	21 e0       	ldi	r18, 0x01	; 1
    48a0:	81 50       	subi	r24, 0x01	; 1
    48a2:	90 40       	sbci	r25, 0x00	; 0
    48a4:	20 40       	sbci	r18, 0x00	; 0
    48a6:	e1 f7       	brne	.-8      	; 0x48a0 <init+0x150>
    48a8:	00 c0       	rjmp	.+0      	; 0x48aa <init+0x15a>
    48aa:	00 00       	nop
    48ac:	ee cf       	rjmp	.-36     	; 0x488a <init+0x13a>
				ServoOut[i] = SERVO_CENTER;
			}
		}
					
		// Output HIGH pulse (1.9ms) until buttons released
		while ((PINB & 0xf0) == 0x60)
    48ae:	a8 ee       	ldi	r26, 0xE8	; 232
    48b0:	b7 e0       	ldi	r27, 0x07	; 7
    48b2:	e8 e4       	ldi	r30, 0x48	; 72
    48b4:	f6 e0       	ldi	r31, 0x06	; 6
		{
			// Check for motor marker
			if ((Config.Channel[i].P1_sensors & (1 << MotorMarker)) != 0)
			{
				// Set output to maximum pulse width
				ServoOut[i] = MOTOR_0;
    48b6:	8c e4       	ldi	r24, 0x4C	; 76
    48b8:	94 e0       	ldi	r25, 0x04	; 4
		// Output LOW pulse (1.1ms) after buttons released
		// For each output
		for (i = 0; i < MAX_OUTPUTS; i++)
		{
			// Check for motor marker
			if ((Config.Channel[i].P1_sensors & (1 << MotorMarker)) != 0)
    48ba:	20 81       	ld	r18, Z
    48bc:	26 ff       	sbrs	r18, 6
    48be:	03 c0       	rjmp	.+6      	; 0x48c6 <init+0x176>
			{
				// Set output to maximum pulse width
				ServoOut[i] = MOTOR_0;
    48c0:	11 96       	adiw	r26, 0x01	; 1
    48c2:	9c 93       	st	X, r25
    48c4:	8e 93       	st	-X, r24
    48c6:	7d 96       	adiw	r30, 0x1d	; 29
    48c8:	12 96       	adiw	r26, 0x02	; 2
			_delay_ms(20);			
		}

		// Output LOW pulse (1.1ms) after buttons released
		// For each output
		for (i = 0; i < MAX_OUTPUTS; i++)
    48ca:	47 e0       	ldi	r20, 0x07	; 7
    48cc:	e0 33       	cpi	r30, 0x30	; 48
    48ce:	f4 07       	cpc	r31, r20
    48d0:	a1 f7       	brne	.-24     	; 0x48ba <init+0x16a>

		// Loop forever here
		while(1)
		{
			// Pass address of ServoOut array
			output_servo_ppm_asm(&ServoOut[0]);
    48d2:	88 ee       	ldi	r24, 0xE8	; 232
    48d4:	97 e0       	ldi	r25, 0x07	; 7
    48d6:	0e 94 50 0d 	call	0x1aa0	; 0x1aa0 <output_servo_ppm_asm>
    48da:	8f e7       	ldi	r24, 0x7F	; 127
    48dc:	98 e3       	ldi	r25, 0x38	; 56
    48de:	21 e0       	ldi	r18, 0x01	; 1
    48e0:	81 50       	subi	r24, 0x01	; 1
    48e2:	90 40       	sbci	r25, 0x00	; 0
    48e4:	20 40       	sbci	r18, 0x00	; 0
    48e6:	e1 f7       	brne	.-8      	; 0x48e0 <init+0x190>
    48e8:	00 c0       	rjmp	.+0      	; 0x48ea <init+0x19a>
    48ea:	00 00       	nop
    48ec:	f2 cf       	rjmp	.-28     	; 0x48d2 <init+0x182>
    48ee:	4f e7       	ldi	r20, 0x7F	; 127
    48f0:	8f e4       	ldi	r24, 0x4F	; 79
    48f2:	92 e1       	ldi	r25, 0x12	; 18
    48f4:	41 50       	subi	r20, 0x01	; 1
    48f6:	80 40       	sbci	r24, 0x00	; 0
    48f8:	90 40       	sbci	r25, 0x00	; 0
    48fa:	e1 f7       	brne	.-8      	; 0x48f4 <init+0x1a4>
    48fc:	00 c0       	rjmp	.+0      	; 0x48fe <init+0x1ae>
    48fe:	00 00       	nop

	// This delay prevents the GLCD flashing up a ghost image of old data
	_delay_ms(300);

	// Reload default eeprom settings if middle two buttons are pressed
	if ((PINB & 0xf0) == 0x90)
    4900:	83 b1       	in	r24, 0x03	; 3
    4902:	80 7f       	andi	r24, 0xF0	; 240
    4904:	80 39       	cpi	r24, 0x90	; 144
    4906:	51 f5       	brne	.+84     	; 0x495c <init+0x20c>
	{
		// Display reset message
		st7565_command(CMD_SET_COM_NORMAL); 	// For text (not for logo)
    4908:	80 ec       	ldi	r24, 0xC0	; 192
    490a:	0e 94 b4 1a 	call	0x3568	; 0x3568 <st7565_command>
		clear_buffer(buffer);
    490e:	80 e0       	ldi	r24, 0x00	; 0
    4910:	91 e0       	ldi	r25, 0x01	; 1
    4912:	0e 94 14 1b 	call	0x3628	; 0x3628 <clear_buffer>
		LCD_Display_Text(1,(const unsigned char*)Verdana14,40,25); // "Reset"
    4916:	29 e1       	ldi	r18, 0x19	; 25
    4918:	30 e0       	ldi	r19, 0x00	; 0
    491a:	48 e2       	ldi	r20, 0x28	; 40
    491c:	50 e0       	ldi	r21, 0x00	; 0
    491e:	69 e4       	ldi	r22, 0x49	; 73
    4920:	71 e0       	ldi	r23, 0x01	; 1
    4922:	81 e0       	ldi	r24, 0x01	; 1
    4924:	0e 94 bd 1c 	call	0x397a	; 0x397a <LCD_Display_Text>
		write_buffer(buffer,1);
    4928:	61 e0       	ldi	r22, 0x01	; 1
    492a:	80 e0       	ldi	r24, 0x00	; 0
    492c:	91 e0       	ldi	r25, 0x01	; 1
    492e:	0e 94 e6 1a 	call	0x35cc	; 0x35cc <write_buffer>
		clear_buffer(buffer);
    4932:	80 e0       	ldi	r24, 0x00	; 0
    4934:	91 e0       	ldi	r25, 0x01	; 1
    4936:	0e 94 14 1b 	call	0x3628	; 0x3628 <clear_buffer>
		
		// Reset EEPROM settings
		Set_EEPROM_Default_Config();
    493a:	0e 94 ad 15 	call	0x2b5a	; 0x2b5a <Set_EEPROM_Default_Config>
		Save_Config_to_EEPROM();
    493e:	0e 94 8c 16 	call	0x2d18	; 0x2d18 <Save_Config_to_EEPROM>

		// Set contrast to the default value
		st7565_set_brightness((uint8_t)Config.Contrast);
    4942:	80 91 2e 06 	lds	r24, 0x062E
    4946:	0e 94 bc 1a 	call	0x3578	; 0x3578 <st7565_set_brightness>
    494a:	2f e7       	ldi	r18, 0x7F	; 127
    494c:	44 e8       	ldi	r20, 0x84	; 132
    494e:	8e e1       	ldi	r24, 0x1E	; 30
    4950:	21 50       	subi	r18, 0x01	; 1
    4952:	40 40       	sbci	r20, 0x00	; 0
    4954:	80 40       	sbci	r24, 0x00	; 0
    4956:	e1 f7       	brne	.-8      	; 0x4950 <init+0x200>
    4958:	00 c0       	rjmp	.+0      	; 0x495a <init+0x20a>
    495a:	00 00       	nop
	}

	// Display logo if KK2.1
#ifdef KK21
	// Write logo from buffer
	write_buffer(buffer,1);
    495c:	61 e0       	ldi	r22, 0x01	; 1
    495e:	80 e0       	ldi	r24, 0x00	; 0
    4960:	91 e0       	ldi	r25, 0x01	; 1
    4962:	0e 94 e6 1a 	call	0x35cc	; 0x35cc <write_buffer>
    4966:	9f ef       	ldi	r25, 0xFF	; 255
    4968:	28 e0       	ldi	r18, 0x08	; 8
    496a:	4d e3       	ldi	r20, 0x3D	; 61
    496c:	91 50       	subi	r25, 0x01	; 1
    496e:	20 40       	sbci	r18, 0x00	; 0
    4970:	40 40       	sbci	r20, 0x00	; 0
    4972:	e1 f7       	brne	.-8      	; 0x496c <init+0x21c>
    4974:	00 c0       	rjmp	.+0      	; 0x4976 <init+0x226>
    4976:	00 00       	nop
	_delay_ms(1000);

	st7565_init(); // Seems necessary for KK2 mini
    4978:	0e 94 c6 1a 	call	0x358c	; 0x358c <st7565_init>
	//***********************************************************
	// i2c init for KK2.1
	//***********************************************************	

#ifdef KK21
	i2c_init();
    497c:	0e 94 6e 3d 	call	0x7adc	; 0x7adc <i2c_init>
	init_i2c_gyros();
    4980:	0e 94 bc 1e 	call	0x3d78	; 0x3d78 <init_i2c_gyros>
	init_i2c_accs();
    4984:	0e 94 95 10 	call	0x212a	; 0x212a <init_i2c_accs>
	//***********************************************************
	// Remaining init tasks
	//***********************************************************

	// Display "Hold steady" message
	clear_buffer(buffer);
    4988:	80 e0       	ldi	r24, 0x00	; 0
    498a:	91 e0       	ldi	r25, 0x01	; 1
    498c:	0e 94 14 1b 	call	0x3628	; 0x3628 <clear_buffer>
	st7565_command(CMD_SET_COM_NORMAL); 	// For text (not for logo)
    4990:	80 ec       	ldi	r24, 0xC0	; 192
    4992:	0e 94 b4 1a 	call	0x3568	; 0x3568 <st7565_command>
	//clear_buffer(buffer);
	LCD_Display_Text(2,(const unsigned char*)Verdana14,18,25);	// "Hold steady"
    4996:	29 e1       	ldi	r18, 0x19	; 25
    4998:	30 e0       	ldi	r19, 0x00	; 0
    499a:	42 e1       	ldi	r20, 0x12	; 18
    499c:	50 e0       	ldi	r21, 0x00	; 0
    499e:	69 e4       	ldi	r22, 0x49	; 73
    49a0:	71 e0       	ldi	r23, 0x01	; 1
    49a2:	82 e0       	ldi	r24, 0x02	; 2
    49a4:	0e 94 bd 1c 	call	0x397a	; 0x397a <LCD_Display_Text>
	write_buffer(buffer,1);	
    49a8:	61 e0       	ldi	r22, 0x01	; 1
    49aa:	80 e0       	ldi	r24, 0x00	; 0
    49ac:	91 e0       	ldi	r25, 0x01	; 1
    49ae:	0e 94 e6 1a 	call	0x35cc	; 0x35cc <write_buffer>
	clear_buffer(buffer);
    49b2:	80 e0       	ldi	r24, 0x00	; 0
    49b4:	91 e0       	ldi	r25, 0x01	; 1
    49b6:	0e 94 14 1b 	call	0x3628	; 0x3628 <clear_buffer>
		
	// Do startup tasks
	UpdateLimits();							// Update travel limits	
    49ba:	0e 94 c2 30 	call	0x6184	; 0x6184 <UpdateLimits>
	Init_ADC();
    49be:	0e 94 a0 10 	call	0x2140	; 0x2140 <Init_ADC>
	init_int();								// Initialise interrupts based on RC input mode
    49c2:	0e 94 7c 23 	call	0x46f8	; 0x46f8 <init_int>
	init_uart();							// Initialise UART
    49c6:	0e 94 54 3e 	call	0x7ca8	; 0x7ca8 <init_uart>

	// Initial gyro calibration
	if (!CalibrateGyrosSlow())
    49ca:	0e 94 0c 1e 	call	0x3c18	; 0x3c18 <CalibrateGyrosSlow>
    49ce:	81 11       	cpse	r24, r1
    49d0:	28 c0       	rjmp	.+80     	; 0x4a22 <init+0x2d2>
	{
		clear_buffer(buffer);
    49d2:	80 e0       	ldi	r24, 0x00	; 0
    49d4:	91 e0       	ldi	r25, 0x01	; 1
    49d6:	0e 94 14 1b 	call	0x3628	; 0x3628 <clear_buffer>
		LCD_Display_Text(61,(const unsigned char*)Verdana14,25,25); // "Cal. failed"
    49da:	29 e1       	ldi	r18, 0x19	; 25
    49dc:	30 e0       	ldi	r19, 0x00	; 0
    49de:	49 e1       	ldi	r20, 0x19	; 25
    49e0:	50 e0       	ldi	r21, 0x00	; 0
    49e2:	69 e4       	ldi	r22, 0x49	; 73
    49e4:	71 e0       	ldi	r23, 0x01	; 1
    49e6:	8d e3       	ldi	r24, 0x3D	; 61
    49e8:	0e 94 bd 1c 	call	0x397a	; 0x397a <LCD_Display_Text>
		write_buffer(buffer,1);
    49ec:	61 e0       	ldi	r22, 0x01	; 1
    49ee:	80 e0       	ldi	r24, 0x00	; 0
    49f0:	91 e0       	ldi	r25, 0x01	; 1
    49f2:	0e 94 e6 1a 	call	0x35cc	; 0x35cc <write_buffer>
    49f6:	8f ef       	ldi	r24, 0xFF	; 255
    49f8:	98 e0       	ldi	r25, 0x08	; 8
    49fa:	2d e3       	ldi	r18, 0x3D	; 61
    49fc:	81 50       	subi	r24, 0x01	; 1
    49fe:	90 40       	sbci	r25, 0x00	; 0
    4a00:	20 40       	sbci	r18, 0x00	; 0
    4a02:	e1 f7       	brne	.-8      	; 0x49fc <init+0x2ac>
    4a04:	00 c0       	rjmp	.+0      	; 0x4a06 <init+0x2b6>
    4a06:	00 00       	nop
		_delay_ms(1000);
		
		// Reset
		cli();
    4a08:	f8 94       	cli
		wdt_enable(WDTO_15MS);				// Watchdog on, 15ms
    4a0a:	28 e0       	ldi	r18, 0x08	; 8
    4a0c:	88 e1       	ldi	r24, 0x18	; 24
    4a0e:	90 e0       	ldi	r25, 0x00	; 0
    4a10:	0f b6       	in	r0, 0x3f	; 63
    4a12:	f8 94       	cli
    4a14:	a8 95       	wdr
    4a16:	80 93 60 00 	sts	0x0060, r24
    4a1a:	0f be       	out	0x3f, r0	; 63
    4a1c:	20 93 60 00 	sts	0x0060, r18
    4a20:	ff cf       	rjmp	.-2      	; 0x4a20 <init+0x2d0>
		while(1);							// Wait for reboot
	}

	// Disarm on start-up if Armed setting is ARMABLE
	if (Config.ArmMode == ARMABLE)
    4a22:	80 91 2f 06 	lds	r24, 0x062F
    4a26:	81 30       	cpi	r24, 0x01	; 1
    4a28:	29 f4       	brne	.+10     	; 0x4a34 <init+0x2e4>
	{
		General_error |= (1 << DISARMED); 	// Set disarmed bit
    4a2a:	80 91 17 05 	lds	r24, 0x0517
    4a2e:	84 60       	ori	r24, 0x04	; 4
    4a30:	80 93 17 05 	sts	0x0517, r24
	}

	// Check to see that throttle is low if RC detected
	if (Interrupted)
    4a34:	80 91 76 07 	lds	r24, 0x0776
    4a38:	88 23       	and	r24, r24
    4a3a:	69 f0       	breq	.+26     	; 0x4a56 <init+0x306>
	{
		RxGetChannels();
    4a3c:	0e 94 18 3c 	call	0x7830	; 0x7830 <RxGetChannels>
		if (MonopolarThrottle > THROTTLEIDLE)
    4a40:	80 91 d4 07 	lds	r24, 0x07D4
    4a44:	90 91 d5 07 	lds	r25, 0x07D5
    4a48:	c3 97       	sbiw	r24, 0x33	; 51
    4a4a:	2c f0       	brlt	.+10     	; 0x4a56 <init+0x306>
		{
			General_error |= (1 << THROTTLE_HIGH); 	// Set throttle high error bit
    4a4c:	80 91 17 05 	lds	r24, 0x0517
    4a50:	81 60       	ori	r24, 0x01	; 1
    4a52:	80 93 17 05 	sts	0x0517, r24
		}
	}

	// Reset IMU
	reset_IMU();
    4a56:	0e 94 33 23 	call	0x4666	; 0x4666 <reset_IMU>

	// Beep that init is complete
	menu_beep(1);
    4a5a:	81 e0       	ldi	r24, 0x01	; 1
    4a5c:	0e 94 7a 2a 	call	0x54f4	; 0x54f4 <menu_beep>
    4a60:	08 95       	ret

00004a62 <__vector_18>:
//************************************************************
//* Timer 0 overflow handler for extending TMR1
//************************************************************

ISR(TIMER0_OVF_vect)
{
    4a62:	1f 92       	push	r1
    4a64:	0f 92       	push	r0
    4a66:	0f b6       	in	r0, 0x3f	; 63
    4a68:	0f 92       	push	r0
    4a6a:	11 24       	eor	r1, r1
    4a6c:	8f 93       	push	r24
    4a6e:	9f 93       	push	r25
	TMR0_counter++;
    4a70:	80 91 79 07 	lds	r24, 0x0779
    4a74:	90 91 7a 07 	lds	r25, 0x077A
    4a78:	01 96       	adiw	r24, 0x01	; 1
    4a7a:	90 93 7a 07 	sts	0x077A, r25
    4a7e:	80 93 79 07 	sts	0x0779, r24
}
    4a82:	9f 91       	pop	r25
    4a84:	8f 91       	pop	r24
    4a86:	0f 90       	pop	r0
    4a88:	0f be       	out	0x3f, r0	; 63
    4a8a:	0f 90       	pop	r0
    4a8c:	1f 90       	pop	r1
    4a8e:	18 95       	reti

00004a90 <__vector_2>:
//* Standard PWM mode
//* Sequential PWM inputs from a normal RC receiver
//************************************************************

ISR(INT1_vect)
{
    4a90:	1f 92       	push	r1
    4a92:	0f 92       	push	r0
    4a94:	0f b6       	in	r0, 0x3f	; 63
    4a96:	0f 92       	push	r0
    4a98:	11 24       	eor	r1, r1
    4a9a:	2f 93       	push	r18
    4a9c:	3f 93       	push	r19
    4a9e:	8f 93       	push	r24
    4aa0:	9f 93       	push	r25
	// Log interrupts that occur during PWM generation
	if (JitterGate)	JitterFlag = true;	
    4aa2:	80 91 90 07 	lds	r24, 0x0790
    4aa6:	88 23       	and	r24, r24
    4aa8:	19 f0       	breq	.+6      	; 0x4ab0 <__vector_2+0x20>
    4aaa:	81 e0       	ldi	r24, 0x01	; 1
    4aac:	80 93 91 07 	sts	0x0791, r24

	if (RX_ROLL)	// Rising
    4ab0:	4b 9b       	sbis	0x09, 3	; 9
    4ab2:	09 c0       	rjmp	.+18     	; 0x4ac6 <__vector_2+0x36>
	{
		RxChannelStart[AILERON] = TCNT1;
    4ab4:	80 91 84 00 	lds	r24, 0x0084
    4ab8:	90 91 85 00 	lds	r25, 0x0085
    4abc:	90 93 7e 07 	sts	0x077E, r25
    4ac0:	80 93 7d 07 	sts	0x077D, r24
    4ac4:	14 c0       	rjmp	.+40     	; 0x4aee <__vector_2+0x5e>
	} 
	else 
	{				// Falling
		RxChannel[AILERON] = TCNT1 - RxChannelStart[AILERON];
    4ac6:	80 91 84 00 	lds	r24, 0x0084
    4aca:	90 91 85 00 	lds	r25, 0x0085
    4ace:	20 91 7d 07 	lds	r18, 0x077D
    4ad2:	30 91 7e 07 	lds	r19, 0x077E
    4ad6:	82 1b       	sub	r24, r18
    4ad8:	93 0b       	sbc	r25, r19
    4ada:	90 93 69 07 	sts	0x0769, r25
    4ade:	80 93 68 07 	sts	0x0768, r24
		if (Config.PWM_Sync == AILERON) 
    4ae2:	80 91 cf 05 	lds	r24, 0x05CF
    4ae6:	81 30       	cpi	r24, 0x01	; 1
    4ae8:	11 f4       	brne	.+4      	; 0x4aee <__vector_2+0x5e>
		{
			Interrupted = true;						// Signal that interrupt block has finished
    4aea:	80 93 76 07 	sts	0x0776, r24
		}
	}
}
    4aee:	9f 91       	pop	r25
    4af0:	8f 91       	pop	r24
    4af2:	3f 91       	pop	r19
    4af4:	2f 91       	pop	r18
    4af6:	0f 90       	pop	r0
    4af8:	0f be       	out	0x3f, r0	; 63
    4afa:	0f 90       	pop	r0
    4afc:	1f 90       	pop	r1
    4afe:	18 95       	reti

00004b00 <__vector_1>:

ISR(INT0_vect)
{
    4b00:	1f 92       	push	r1
    4b02:	0f 92       	push	r0
    4b04:	0f b6       	in	r0, 0x3f	; 63
    4b06:	0f 92       	push	r0
    4b08:	11 24       	eor	r1, r1
    4b0a:	2f 93       	push	r18
    4b0c:	3f 93       	push	r19
    4b0e:	8f 93       	push	r24
    4b10:	9f 93       	push	r25
	if (JitterGate)	JitterFlag = true;	
    4b12:	80 91 90 07 	lds	r24, 0x0790
    4b16:	88 23       	and	r24, r24
    4b18:	19 f0       	breq	.+6      	; 0x4b20 <__vector_1+0x20>
    4b1a:	81 e0       	ldi	r24, 0x01	; 1
    4b1c:	80 93 91 07 	sts	0x0791, r24

	if (RX_PITCH)	// Rising 
    4b20:	4a 9b       	sbis	0x09, 2	; 9
    4b22:	09 c0       	rjmp	.+18     	; 0x4b36 <__vector_1+0x36>
	{
		RxChannelStart[ELEVATOR] = TCNT1;
    4b24:	80 91 84 00 	lds	r24, 0x0084
    4b28:	90 91 85 00 	lds	r25, 0x0085
    4b2c:	90 93 80 07 	sts	0x0780, r25
    4b30:	80 93 7f 07 	sts	0x077F, r24
    4b34:	15 c0       	rjmp	.+42     	; 0x4b60 <__vector_1+0x60>
	} 
	else 
	{				// Falling
		RxChannel[ELEVATOR] = TCNT1 - RxChannelStart[ELEVATOR];
    4b36:	80 91 84 00 	lds	r24, 0x0084
    4b3a:	90 91 85 00 	lds	r25, 0x0085
    4b3e:	20 91 7f 07 	lds	r18, 0x077F
    4b42:	30 91 80 07 	lds	r19, 0x0780
    4b46:	82 1b       	sub	r24, r18
    4b48:	93 0b       	sbc	r25, r19
    4b4a:	90 93 6b 07 	sts	0x076B, r25
    4b4e:	80 93 6a 07 	sts	0x076A, r24
		if (Config.PWM_Sync == ELEVATOR) 
    4b52:	80 91 cf 05 	lds	r24, 0x05CF
    4b56:	82 30       	cpi	r24, 0x02	; 2
    4b58:	19 f4       	brne	.+6      	; 0x4b60 <__vector_1+0x60>
		{
			Interrupted = true;						// Signal that interrupt block has finished
    4b5a:	81 e0       	ldi	r24, 0x01	; 1
    4b5c:	80 93 76 07 	sts	0x0776, r24
		}
	}
}
    4b60:	9f 91       	pop	r25
    4b62:	8f 91       	pop	r24
    4b64:	3f 91       	pop	r19
    4b66:	2f 91       	pop	r18
    4b68:	0f 90       	pop	r0
    4b6a:	0f be       	out	0x3f, r0	; 63
    4b6c:	0f 90       	pop	r0
    4b6e:	1f 90       	pop	r1
    4b70:	18 95       	reti

00004b72 <__vector_7>:

ISR(PCINT3_vect)
{
    4b72:	1f 92       	push	r1
    4b74:	0f 92       	push	r0
    4b76:	0f b6       	in	r0, 0x3f	; 63
    4b78:	0f 92       	push	r0
    4b7a:	11 24       	eor	r1, r1
    4b7c:	2f 93       	push	r18
    4b7e:	3f 93       	push	r19
    4b80:	8f 93       	push	r24
    4b82:	9f 93       	push	r25
	if (JitterGate)	JitterFlag = true;	
    4b84:	80 91 90 07 	lds	r24, 0x0790
    4b88:	88 23       	and	r24, r24
    4b8a:	19 f0       	breq	.+6      	; 0x4b92 <__vector_7+0x20>
    4b8c:	81 e0       	ldi	r24, 0x01	; 1
    4b8e:	80 93 91 07 	sts	0x0791, r24
		
	if (RX_COLL)	// Rising
    4b92:	48 9b       	sbis	0x09, 0	; 9
    4b94:	09 c0       	rjmp	.+18     	; 0x4ba8 <__vector_7+0x36>
	{
		RxChannelStart[THROTTLE] = TCNT1;
    4b96:	80 91 84 00 	lds	r24, 0x0084
    4b9a:	90 91 85 00 	lds	r25, 0x0085
    4b9e:	90 93 7c 07 	sts	0x077C, r25
    4ba2:	80 93 7b 07 	sts	0x077B, r24
    4ba6:	15 c0       	rjmp	.+42     	; 0x4bd2 <__vector_7+0x60>
	} 
	else 
	{				// Falling
		RxChannel[THROTTLE] = TCNT1 - RxChannelStart[THROTTLE];
    4ba8:	80 91 84 00 	lds	r24, 0x0084
    4bac:	90 91 85 00 	lds	r25, 0x0085
    4bb0:	20 91 7b 07 	lds	r18, 0x077B
    4bb4:	30 91 7c 07 	lds	r19, 0x077C
    4bb8:	82 1b       	sub	r24, r18
    4bba:	93 0b       	sbc	r25, r19
    4bbc:	90 93 67 07 	sts	0x0767, r25
    4bc0:	80 93 66 07 	sts	0x0766, r24
		if (Config.PWM_Sync == THROTTLE) 
    4bc4:	80 91 cf 05 	lds	r24, 0x05CF
    4bc8:	81 11       	cpse	r24, r1
    4bca:	03 c0       	rjmp	.+6      	; 0x4bd2 <__vector_7+0x60>
		{
			Interrupted = true;						// Signal that interrupt block has finished
    4bcc:	81 e0       	ldi	r24, 0x01	; 1
    4bce:	80 93 76 07 	sts	0x0776, r24
		}
	}
}
    4bd2:	9f 91       	pop	r25
    4bd4:	8f 91       	pop	r24
    4bd6:	3f 91       	pop	r19
    4bd8:	2f 91       	pop	r18
    4bda:	0f 90       	pop	r0
    4bdc:	0f be       	out	0x3f, r0	; 63
    4bde:	0f 90       	pop	r0
    4be0:	1f 90       	pop	r1
    4be2:	18 95       	reti

00004be4 <__vector_5>:


ISR(PCINT1_vect)
{
    4be4:	1f 92       	push	r1
    4be6:	0f 92       	push	r0
    4be8:	0f b6       	in	r0, 0x3f	; 63
    4bea:	0f 92       	push	r0
    4bec:	11 24       	eor	r1, r1
    4bee:	2f 93       	push	r18
    4bf0:	3f 93       	push	r19
    4bf2:	8f 93       	push	r24
    4bf4:	9f 93       	push	r25
	if (JitterGate)	JitterFlag = true;
    4bf6:	80 91 90 07 	lds	r24, 0x0790
    4bfa:	88 23       	and	r24, r24
    4bfc:	19 f0       	breq	.+6      	; 0x4c04 <__vector_5+0x20>
    4bfe:	81 e0       	ldi	r24, 0x01	; 1
    4c00:	80 93 91 07 	sts	0x0791, r24

	if (RX_AUX)	// Rising
    4c04:	18 9b       	sbis	0x03, 0	; 3
    4c06:	09 c0       	rjmp	.+18     	; 0x4c1a <__vector_5+0x36>
	{
		RxChannelStart[GEAR] = TCNT1;
    4c08:	80 91 84 00 	lds	r24, 0x0084
    4c0c:	90 91 85 00 	lds	r25, 0x0085
    4c10:	90 93 84 07 	sts	0x0784, r25
    4c14:	80 93 83 07 	sts	0x0783, r24
    4c18:	15 c0       	rjmp	.+42     	; 0x4c44 <__vector_5+0x60>
	} 
	else 
	{				// Falling
		RxChannel[GEAR] = TCNT1 - RxChannelStart[GEAR];
    4c1a:	80 91 84 00 	lds	r24, 0x0084
    4c1e:	90 91 85 00 	lds	r25, 0x0085
    4c22:	20 91 83 07 	lds	r18, 0x0783
    4c26:	30 91 84 07 	lds	r19, 0x0784
    4c2a:	82 1b       	sub	r24, r18
    4c2c:	93 0b       	sbc	r25, r19
    4c2e:	90 93 6f 07 	sts	0x076F, r25
    4c32:	80 93 6e 07 	sts	0x076E, r24
		if (Config.PWM_Sync == GEAR) 
    4c36:	80 91 cf 05 	lds	r24, 0x05CF
    4c3a:	84 30       	cpi	r24, 0x04	; 4
    4c3c:	19 f4       	brne	.+6      	; 0x4c44 <__vector_5+0x60>
		{
			Interrupted = true;						// Signal that interrupt block has finished
    4c3e:	81 e0       	ldi	r24, 0x01	; 1
    4c40:	80 93 76 07 	sts	0x0776, r24
		}
	}
}
    4c44:	9f 91       	pop	r25
    4c46:	8f 91       	pop	r24
    4c48:	3f 91       	pop	r19
    4c4a:	2f 91       	pop	r18
    4c4c:	0f 90       	pop	r0
    4c4e:	0f be       	out	0x3f, r0	; 63
    4c50:	0f 90       	pop	r0
    4c52:	1f 90       	pop	r1
    4c54:	18 95       	reti

00004c56 <__vector_3>:
// Compacted CPPM RX code thanks to Edgar
//
//************************************************************

ISR(INT2_vect)
{
    4c56:	1f 92       	push	r1
    4c58:	0f 92       	push	r0
    4c5a:	0f b6       	in	r0, 0x3f	; 63
    4c5c:	0f 92       	push	r0
    4c5e:	11 24       	eor	r1, r1
    4c60:	2f 93       	push	r18
    4c62:	3f 93       	push	r19
    4c64:	4f 93       	push	r20
    4c66:	5f 93       	push	r21
    4c68:	8f 93       	push	r24
    4c6a:	9f 93       	push	r25
    4c6c:	af 93       	push	r26
    4c6e:	bf 93       	push	r27
    4c70:	ef 93       	push	r30
    4c72:	ff 93       	push	r31
	if (JitterGate)	JitterFlag = true;	
    4c74:	80 91 90 07 	lds	r24, 0x0790
    4c78:	88 23       	and	r24, r24
    4c7a:	19 f0       	breq	.+6      	; 0x4c82 <__vector_3+0x2c>
    4c7c:	81 e0       	ldi	r24, 0x01	; 1
    4c7e:	80 93 91 07 	sts	0x0791, r24

    // Backup TCNT1
    uint16_t tCount;
    tCount = TCNT1;
    4c82:	80 91 84 00 	lds	r24, 0x0084
    4c86:	90 91 85 00 	lds	r25, 0x0085

	uint8_t curChannel;
	uint8_t prevChannel;

	if (Config.RxMode != CPPM_MODE)
    4c8a:	20 91 ce 05 	lds	r18, 0x05CE
    4c8e:	22 23       	and	r18, r18
    4c90:	d1 f0       	breq	.+52     	; 0x4cc6 <__vector_3+0x70>
	{
		if (RX_YAW)	// Rising
    4c92:	1a 9b       	sbis	0x03, 2	; 3
    4c94:	05 c0       	rjmp	.+10     	; 0x4ca0 <__vector_3+0x4a>
		{
			RxChannelStart[RUDDER] = tCount;
    4c96:	90 93 82 07 	sts	0x0782, r25
    4c9a:	80 93 81 07 	sts	0x0781, r24
    4c9e:	86 c0       	rjmp	.+268    	; 0x4dac <__vector_3+0x156>
		} 
		else 
		{			// Falling
			RxChannel[RUDDER] = tCount - RxChannelStart[RUDDER];
    4ca0:	20 91 81 07 	lds	r18, 0x0781
    4ca4:	30 91 82 07 	lds	r19, 0x0782
    4ca8:	82 1b       	sub	r24, r18
    4caa:	93 0b       	sbc	r25, r19
    4cac:	90 93 6d 07 	sts	0x076D, r25
    4cb0:	80 93 6c 07 	sts	0x076C, r24
			if (Config.PWM_Sync == RUDDER) 
    4cb4:	80 91 cf 05 	lds	r24, 0x05CF
    4cb8:	83 30       	cpi	r24, 0x03	; 3
    4cba:	09 f0       	breq	.+2      	; 0x4cbe <__vector_3+0x68>
    4cbc:	77 c0       	rjmp	.+238    	; 0x4dac <__vector_3+0x156>
			{
				Interrupted = true;					// Signal that interrupt block has finished
    4cbe:	81 e0       	ldi	r24, 0x01	; 1
    4cc0:	80 93 76 07 	sts	0x0776, r24
    4cc4:	73 c0       	rjmp	.+230    	; 0x4dac <__vector_3+0x156>
	// CPPM receivers.
	//************************************************************
	else
	{
		// Only respond to negative-going interrupts
		if (CPPM) return;
    4cc6:	1a 99       	sbic	0x03, 2	; 3
    4cc8:	71 c0       	rjmp	.+226    	; 0x4dac <__vector_3+0x156>

		// Check to see if previous period was a sync pulse or too small to be valid
		// If so, reset the channel number
		if (((tCount - PPMSyncStart) > SYNCPULSEWIDTH) || ((tCount - PPMSyncStart) < MINPULSEWIDTH))
    4cca:	20 91 8e 07 	lds	r18, 0x078E
    4cce:	30 91 8f 07 	lds	r19, 0x078F
    4cd2:	ac 01       	movw	r20, r24
    4cd4:	42 1b       	sub	r20, r18
    4cd6:	53 0b       	sbc	r21, r19
    4cd8:	9a 01       	movw	r18, r20
    4cda:	2f 35       	cpi	r18, 0x5F	; 95
    4cdc:	3a 41       	sbci	r19, 0x1A	; 26
    4cde:	58 f4       	brcc	.+22     	; 0x4cf6 <__vector_3+0xa0>
    4ce0:	20 91 8e 07 	lds	r18, 0x078E
    4ce4:	30 91 8f 07 	lds	r19, 0x078F
    4ce8:	ac 01       	movw	r20, r24
    4cea:	42 1b       	sub	r20, r18
    4cec:	53 0b       	sbc	r21, r19
    4cee:	9a 01       	movw	r18, r20
    4cf0:	2e 3e       	cpi	r18, 0xEE	; 238
    4cf2:	32 40       	sbci	r19, 0x02	; 2
    4cf4:	10 f4       	brcc	.+4      	; 0x4cfa <__vector_3+0xa4>
		{
			ch_num = 0;
    4cf6:	10 92 8d 07 	sts	0x078D, r1
		}

		// Update PPMSyncStart with current value
		PPMSyncStart = tCount;
    4cfa:	90 93 8f 07 	sts	0x078F, r25
    4cfe:	80 93 8e 07 	sts	0x078E, r24

		// Get the channel number of the current channel in the requested channel order
        curChannel = Config.ChannelOrder[ch_num];
    4d02:	e0 91 8d 07 	lds	r30, 0x078D
    4d06:	f0 e0       	ldi	r31, 0x00	; 0
    4d08:	eb 55       	subi	r30, 0x5B	; 91
    4d0a:	fa 4f       	sbci	r31, 0xFA	; 250
    4d0c:	e1 81       	ldd	r30, Z+1	; 0x01

		// Set up previous channel number based on the requested channel order
		if (ch_num > 0)
    4d0e:	20 91 8d 07 	lds	r18, 0x078D
    4d12:	22 23       	and	r18, r18
    4d14:	39 f0       	breq	.+14     	; 0x4d24 <__vector_3+0xce>
		{
			prevChannel = Config.ChannelOrder[ch_num-1];
    4d16:	a0 91 8d 07 	lds	r26, 0x078D
    4d1a:	b0 e0       	ldi	r27, 0x00	; 0
    4d1c:	ab 55       	subi	r26, 0x5B	; 91
    4d1e:	ba 4f       	sbci	r27, 0xFA	; 250
    4d20:	2c 91       	ld	r18, X
    4d22:	01 c0       	rjmp	.+2      	; 0x4d26 <__vector_3+0xd0>
		}
		else
		{
			prevChannel = 0;
    4d24:	20 e0       	ldi	r18, 0x00	; 0
		}

		// Measure the channel data only for the first MAX_CPPM_CHANNELS (currently 8)
		// Prevent code from over-running RxChannelStart[]
        if (ch_num < MAX_CPPM_CHANNELS)
    4d26:	30 91 8d 07 	lds	r19, 0x078D
    4d2a:	38 30       	cpi	r19, 0x08	; 8
    4d2c:	38 f4       	brcc	.+14     	; 0x4d3c <__vector_3+0xe6>
		{
            RxChannelStart[curChannel] = tCount;
    4d2e:	f0 e0       	ldi	r31, 0x00	; 0
    4d30:	ee 0f       	add	r30, r30
    4d32:	ff 1f       	adc	r31, r31
    4d34:	e5 58       	subi	r30, 0x85	; 133
    4d36:	f8 4f       	sbci	r31, 0xF8	; 248
    4d38:	91 83       	std	Z+1, r25	; 0x01
    4d3a:	80 83       	st	Z, r24
		}

		// When ch_num = 0, the first channel has not yet been measured.
		// That only occurs at the second pulse. Prevent code from over-running RxChannel[]
        if ((ch_num > 0) && (ch_num <= MAX_CPPM_CHANNELS))
    4d3c:	30 91 8d 07 	lds	r19, 0x078D
    4d40:	33 23       	and	r19, r19
    4d42:	99 f0       	breq	.+38     	; 0x4d6a <__vector_3+0x114>
    4d44:	30 91 8d 07 	lds	r19, 0x078D
    4d48:	39 30       	cpi	r19, 0x09	; 9
    4d4a:	78 f4       	brcc	.+30     	; 0x4d6a <__vector_3+0x114>
        {
		   RxChannel[prevChannel] = tCount - RxChannelStart[prevChannel];
    4d4c:	30 e0       	ldi	r19, 0x00	; 0
    4d4e:	22 0f       	add	r18, r18
    4d50:	33 1f       	adc	r19, r19
    4d52:	f9 01       	movw	r30, r18
    4d54:	e5 58       	subi	r30, 0x85	; 133
    4d56:	f8 4f       	sbci	r31, 0xF8	; 248
    4d58:	40 81       	ld	r20, Z
    4d5a:	51 81       	ldd	r21, Z+1	; 0x01
    4d5c:	84 1b       	sub	r24, r20
    4d5e:	95 0b       	sbc	r25, r21
    4d60:	f9 01       	movw	r30, r18
    4d62:	ea 59       	subi	r30, 0x9A	; 154
    4d64:	f8 4f       	sbci	r31, 0xF8	; 248
    4d66:	91 83       	std	Z+1, r25	; 0x01
    4d68:	80 83       	st	Z, r24
		}

        // Increment to the next channel
		ch_num++;
    4d6a:	80 91 8d 07 	lds	r24, 0x078D
    4d6e:	8f 5f       	subi	r24, 0xFF	; 255
    4d70:	80 93 8d 07 	sts	0x078D, r24

		// Work out the highest channel number automatically.
		// Update the maximum channel seen so far.
		if (ch_num > max_chan) 
    4d74:	90 91 8d 07 	lds	r25, 0x078D
    4d78:	80 91 77 07 	lds	r24, 0x0777
    4d7c:	89 17       	cp	r24, r25
    4d7e:	28 f4       	brcc	.+10     	; 0x4d8a <__vector_3+0x134>
		{
			max_chan = ch_num;					// Update max channel number
    4d80:	80 91 8d 07 	lds	r24, 0x078D
    4d84:	80 93 77 07 	sts	0x0777, r24
    4d88:	09 c0       	rjmp	.+18     	; 0x4d9c <__vector_3+0x146>
		}
		// If the current channel is the highest channel, CPPM is complete
		else if (ch_num == max_chan)
    4d8a:	90 91 8d 07 	lds	r25, 0x078D
    4d8e:	80 91 77 07 	lds	r24, 0x0777
    4d92:	98 13       	cpse	r25, r24
    4d94:	03 c0       	rjmp	.+6      	; 0x4d9c <__vector_3+0x146>
		{
			Interrupted = true;					// Signal that interrupt block has finished
    4d96:	81 e0       	ldi	r24, 0x01	; 1
    4d98:	80 93 76 07 	sts	0x0776, r24
		}
	
		// If the signal is ever lost, reset measured max channel number
		// and force a recalculation
		if (Overdue)
    4d9c:	80 91 0f 05 	lds	r24, 0x050F
    4da0:	88 23       	and	r24, r24
    4da2:	21 f0       	breq	.+8      	; 0x4dac <__vector_3+0x156>
		{
			max_chan = 0;
    4da4:	10 92 77 07 	sts	0x0777, r1
			Overdue = false;
    4da8:	10 92 0f 05 	sts	0x050F, r1
		}
	}
} // ISR(INT2_vect)
    4dac:	ff 91       	pop	r31
    4dae:	ef 91       	pop	r30
    4db0:	bf 91       	pop	r27
    4db2:	af 91       	pop	r26
    4db4:	9f 91       	pop	r25
    4db6:	8f 91       	pop	r24
    4db8:	5f 91       	pop	r21
    4dba:	4f 91       	pop	r20
    4dbc:	3f 91       	pop	r19
    4dbe:	2f 91       	pop	r18
    4dc0:	0f 90       	pop	r0
    4dc2:	0f be       	out	0x3f, r0	; 63
    4dc4:	0f 90       	pop	r0
    4dc6:	1f 90       	pop	r1
    4dc8:	18 95       	reti

00004dca <TIM16_ReadTCNT1>:
{
	uint8_t sreg;
	uint16_t i;
	
	/* Save global interrupt flag */
	sreg = SREG;
    4dca:	2f b7       	in	r18, 0x3f	; 63
	
	/* Disable interrupts */
	cli();
    4dcc:	f8 94       	cli
	
	/* Read TCNTn into i */
	i = TCNT1;
    4dce:	80 91 84 00 	lds	r24, 0x0084
    4dd2:	90 91 85 00 	lds	r25, 0x0085
	
	/* Restore global interrupt flag */
	SREG = sreg;
    4dd6:	2f bf       	out	0x3f, r18	; 63
	return i;
}
    4dd8:	08 95       	ret

00004dda <__vector_20>:

// Interrupts from both UART0 and UART1 RX will come here
ISR(USART1_RX_vect, ISR_ALIASOF(USART0_RX_vect));

ISR(USART0_RX_vect)
{
    4dda:	1f 92       	push	r1
    4ddc:	0f 92       	push	r0
    4dde:	0f b6       	in	r0, 0x3f	; 63
    4de0:	0f 92       	push	r0
    4de2:	11 24       	eor	r1, r1
    4de4:	2f 93       	push	r18
    4de6:	3f 93       	push	r19
    4de8:	4f 93       	push	r20
    4dea:	5f 93       	push	r21
    4dec:	6f 93       	push	r22
    4dee:	7f 93       	push	r23
    4df0:	8f 93       	push	r24
    4df2:	9f 93       	push	r25
    4df4:	af 93       	push	r26
    4df6:	bf 93       	push	r27
    4df8:	cf 93       	push	r28
    4dfa:	ef 93       	push	r30
    4dfc:	ff 93       	push	r31
	//************************************************************
	//* Common entry code
	//************************************************************

	// Read byte first
	temp = UDR0;
    4dfe:	c0 91 c6 00 	lds	r28, 0x00C6

	// Save current time stamp
	Save_TCNT1 = TIM16_ReadTCNT1();
    4e02:	0e 94 e5 26 	call	0x4dca	; 0x4dca <TIM16_ReadTCNT1>
	CurrentPeriod = Save_TCNT1 - PPMSyncStart;
    4e06:	20 91 8e 07 	lds	r18, 0x078E
    4e0a:	30 91 8f 07 	lds	r19, 0x078F
    4e0e:	ac 01       	movw	r20, r24
    4e10:	42 1b       	sub	r20, r18
    4e12:	53 0b       	sbc	r21, r19
    4e14:	9a 01       	movw	r18, r20

	// Handle start of new packet
	if (CurrentPeriod > PACKET_TIMER)
    4e16:	25 3c       	cpi	r18, 0xC5	; 197
    4e18:	39 40       	sbci	r19, 0x09	; 9
    4e1a:	80 f0       	brcs	.+32     	; 0x4e3c <__vector_20+0x62>
	{
		// Reset variables
		Interrupted = false;
    4e1c:	10 92 76 07 	sts	0x0776, r1
		rcindex = 0;
    4e20:	10 92 65 07 	sts	0x0765, r1
		bytecount = 0;
    4e24:	10 92 78 07 	sts	0x0778, r1
		ch_num = 0;
    4e28:	10 92 8d 07 	sts	0x078D, r1
		checksum = 0;
    4e2c:	10 92 93 07 	sts	0x0793, r1
    4e30:	10 92 92 07 	sts	0x0792, r1
		chanmask16 = 0;
    4e34:	10 92 8c 07 	sts	0x078C, r1
    4e38:	10 92 8b 07 	sts	0x078B, r1
	}

	// Timestamp this interrupt
	PPMSyncStart = Save_TCNT1;
    4e3c:	90 93 8f 07 	sts	0x078F, r25
    4e40:	80 93 8e 07 	sts	0x078E, r24
	
	// Put received byte in buffer if space available
	if (rcindex < SBUFFER_SIZE)
    4e44:	80 91 65 07 	lds	r24, 0x0765
    4e48:	89 31       	cpi	r24, 0x19	; 25
    4e4a:	50 f4       	brcc	.+20     	; 0x4e60 <__vector_20+0x86>
	{
		sBuffer[rcindex++] = temp;			
    4e4c:	e0 91 65 07 	lds	r30, 0x0765
    4e50:	81 e0       	ldi	r24, 0x01	; 1
    4e52:	8e 0f       	add	r24, r30
    4e54:	80 93 65 07 	sts	0x0765, r24
    4e58:	f0 e0       	ldi	r31, 0x00	; 0
    4e5a:	ea 5c       	subi	r30, 0xCA	; 202
    4e5c:	fa 4f       	sbci	r31, 0xFA	; 250
    4e5e:	c0 83       	st	Z, r28
	//* 	bit0 = n/a
	//* 24 endbyte = 00000000b (SBUS) or (data % 0xCF) (SBUS2)
	//*
	//************************************************************

	if (Config.RxMode == SBUS)
    4e60:	80 91 ce 05 	lds	r24, 0x05CE
    4e64:	82 30       	cpi	r24, 0x02	; 2
    4e66:	09 f0       	breq	.+2      	; 0x4e6a <__vector_20+0x90>
    4e68:	92 c0       	rjmp	.+292    	; 0x4f8e <__vector_20+0x1b4>
	{
		// Flag that packet has completed
		if ((bytecount == 24) && ((temp == 0x00) || ((temp % 0xCF) == 0x04)))
    4e6a:	80 91 78 07 	lds	r24, 0x0778
    4e6e:	88 31       	cpi	r24, 0x18	; 24
    4e70:	09 f0       	breq	.+2      	; 0x4e74 <__vector_20+0x9a>
    4e72:	00 c1       	rjmp	.+512    	; 0x5074 <__vector_20+0x29a>
    4e74:	cc 23       	and	r28, r28
    4e76:	59 f0       	breq	.+22     	; 0x4e8e <__vector_20+0xb4>
    4e78:	81 e0       	ldi	r24, 0x01	; 1
    4e7a:	cf 3c       	cpi	r28, 0xCF	; 207
    4e7c:	08 f4       	brcc	.+2      	; 0x4e80 <__vector_20+0xa6>
    4e7e:	80 e0       	ldi	r24, 0x00	; 0
    4e80:	91 e3       	ldi	r25, 0x31	; 49
    4e82:	89 9f       	mul	r24, r25
    4e84:	c0 0d       	add	r28, r0
    4e86:	11 24       	eor	r1, r1
    4e88:	c4 30       	cpi	r28, 0x04	; 4
    4e8a:	09 f0       	breq	.+2      	; 0x4e8e <__vector_20+0xb4>
    4e8c:	f3 c0       	rjmp	.+486    	; 0x5074 <__vector_20+0x29a>
		{
			// If frame lost, ignore packet
			if ((sBuffer[23] & 0x20) == 0)
    4e8e:	80 91 4d 05 	lds	r24, 0x054D
    4e92:	85 fd       	sbrc	r24, 5
    4e94:	ef c0       	rjmp	.+478    	; 0x5074 <__vector_20+0x29a>
			{
				// RC sync established
				Interrupted = true;
    4e96:	81 e0       	ldi	r24, 0x01	; 1
    4e98:	80 93 76 07 	sts	0x0776, r24
				FirstInterrupted = true;				
    4e9c:	80 93 94 07 	sts	0x0794, r24
    4ea0:	80 e0       	ldi	r24, 0x00	; 0
    4ea2:	90 e0       	ldi	r25, 0x00	; 0

				// Clear channel data
				for (j = 0; j < MAX_RC_CHANNELS; j++)
				{
					RxChannel[j] = 0;
    4ea4:	fc 01       	movw	r30, r24
    4ea6:	ee 0f       	add	r30, r30
    4ea8:	ff 1f       	adc	r31, r31
    4eaa:	ea 59       	subi	r30, 0x9A	; 154
    4eac:	f8 4f       	sbci	r31, 0xF8	; 248
    4eae:	11 82       	std	Z+1, r1	; 0x01
    4eb0:	10 82       	st	Z, r1
    4eb2:	01 96       	adiw	r24, 0x01	; 1
				// RC sync established
				Interrupted = true;
				FirstInterrupted = true;				

				// Clear channel data
				for (j = 0; j < MAX_RC_CHANNELS; j++)
    4eb4:	88 30       	cpi	r24, 0x08	; 8
    4eb6:	91 05       	cpc	r25, r1
    4eb8:	a9 f7       	brne	.-22     	; 0x4ea4 <__vector_20+0xca>
    4eba:	a8 e5       	ldi	r26, 0x58	; 88
    4ebc:	70 e0       	ldi	r23, 0x00	; 0
    4ebe:	c0 e0       	ldi	r28, 0x00	; 0
    4ec0:	60 e0       	ldi	r22, 0x00	; 0
    4ec2:	b1 e0       	ldi	r27, 0x01	; 1
                for (j = 0; j < 88; j++)
                {
                    if (sBuffer[sindex] & (1<<chan_mask))
                    {
						// Place the RC data into the correct channel order for the transmitted system
						RxChannel[Config.ChannelOrder[chan_shift]] |= (1<<data_mask);
    4ec4:	21 e0       	ldi	r18, 0x01	; 1
    4ec6:	30 e0       	ldi	r19, 0x00	; 0

                // Deconstruct S-Bus data
				// 8 channels * 11 bits = 88 bits
                for (j = 0; j < 88; j++)
                {
                    if (sBuffer[sindex] & (1<<chan_mask))
    4ec8:	eb 2f       	mov	r30, r27
    4eca:	f0 e0       	ldi	r31, 0x00	; 0
    4ecc:	ea 5c       	subi	r30, 0xCA	; 202
    4ece:	fa 4f       	sbci	r31, 0xFA	; 250
    4ed0:	80 81       	ld	r24, Z
    4ed2:	90 e0       	ldi	r25, 0x00	; 0
    4ed4:	06 2e       	mov	r0, r22
    4ed6:	02 c0       	rjmp	.+4      	; 0x4edc <__vector_20+0x102>
    4ed8:	95 95       	asr	r25
    4eda:	87 95       	ror	r24
    4edc:	0a 94       	dec	r0
    4ede:	e2 f7       	brpl	.-8      	; 0x4ed8 <__vector_20+0xfe>
    4ee0:	80 ff       	sbrs	r24, 0
    4ee2:	17 c0       	rjmp	.+46     	; 0x4f12 <__vector_20+0x138>
                    {
						// Place the RC data into the correct channel order for the transmitted system
						RxChannel[Config.ChannelOrder[chan_shift]] |= (1<<data_mask);
    4ee4:	ec 2f       	mov	r30, r28
    4ee6:	f0 e0       	ldi	r31, 0x00	; 0
    4ee8:	eb 55       	subi	r30, 0x5B	; 91
    4eea:	fa 4f       	sbci	r31, 0xFA	; 250
    4eec:	e1 81       	ldd	r30, Z+1	; 0x01
    4eee:	f0 e0       	ldi	r31, 0x00	; 0
    4ef0:	ee 0f       	add	r30, r30
    4ef2:	ff 1f       	adc	r31, r31
    4ef4:	ea 59       	subi	r30, 0x9A	; 154
    4ef6:	f8 4f       	sbci	r31, 0xF8	; 248
    4ef8:	80 81       	ld	r24, Z
    4efa:	91 81       	ldd	r25, Z+1	; 0x01
    4efc:	a9 01       	movw	r20, r18
    4efe:	07 2e       	mov	r0, r23
    4f00:	02 c0       	rjmp	.+4      	; 0x4f06 <__vector_20+0x12c>
    4f02:	44 0f       	add	r20, r20
    4f04:	55 1f       	adc	r21, r21
    4f06:	0a 94       	dec	r0
    4f08:	e2 f7       	brpl	.-8      	; 0x4f02 <__vector_20+0x128>
    4f0a:	84 2b       	or	r24, r20
    4f0c:	95 2b       	or	r25, r21
    4f0e:	91 83       	std	Z+1, r25	; 0x01
    4f10:	80 83       	st	Z, r24
                    }

                    chan_mask++;
    4f12:	6f 5f       	subi	r22, 0xFF	; 255
                    data_mask++;
    4f14:	7f 5f       	subi	r23, 0xFF	; 255

                    // If we have done 8 bits, move to next byte in buffer
					if (chan_mask == 8)
    4f16:	68 30       	cpi	r22, 0x08	; 8
    4f18:	11 f4       	brne	.+4      	; 0x4f1e <__vector_20+0x144>
                    {
                        chan_mask =0;
                        sindex++;
    4f1a:	bf 5f       	subi	r27, 0xFF	; 255
                    data_mask++;

                    // If we have done 8 bits, move to next byte in buffer
					if (chan_mask == 8)
                    {
                        chan_mask =0;
    4f1c:	60 e0       	ldi	r22, 0x00	; 0
                        sindex++;
                    }

                    // If we have reconstructed all 11 bits of one channel's data (2047)
					// increment the channel number
					if (data_mask == 11)
    4f1e:	7b 30       	cpi	r23, 0x0B	; 11
    4f20:	11 f4       	brne	.+4      	; 0x4f26 <__vector_20+0x14c>
                    {
                        data_mask =0;
                        chan_shift++;
    4f22:	cf 5f       	subi	r28, 0xFF	; 255

                    // If we have reconstructed all 11 bits of one channel's data (2047)
					// increment the channel number
					if (data_mask == 11)
                    {
                        data_mask =0;
    4f24:	70 e0       	ldi	r23, 0x00	; 0
    4f26:	a1 50       	subi	r26, 0x01	; 1
				// Start from second byte
				sindex = 1;

                // Deconstruct S-Bus data
				// 8 channels * 11 bits = 88 bits
                for (j = 0; j < 88; j++)
    4f28:	79 f6       	brne	.-98     	; 0x4ec8 <__vector_20+0xee>
    4f2a:	40 e0       	ldi	r20, 0x00	; 0
    4f2c:	50 e0       	ldi	r21, 0x00	; 0

				// Convert to  OpenAero2 values (0~2047 -> 2500~4999)
				for (j = 0; j < MAX_RC_CHANNELS; j++)
				{
					// Subtract weird-ass Futaba offset
					itemp16= RxChannel[j] - 1024;	
    4f2e:	fa 01       	movw	r30, r20
    4f30:	ee 0f       	add	r30, r30
    4f32:	ff 1f       	adc	r31, r31
    4f34:	ea 59       	subi	r30, 0x9A	; 154
    4f36:	f8 4f       	sbci	r31, 0xF8	; 248
    4f38:	20 81       	ld	r18, Z
    4f3a:	31 81       	ldd	r19, Z+1	; 0x01
    4f3c:	34 50       	subi	r19, 0x04	; 4
					
					// Expand into OpenAero2 units							
					itemp16 = itemp16 + (itemp16 >> 2) + (itemp16 >> 3) + (itemp16 >> 4) + (itemp16 >> 5); 	// Quick multiply by 1.469 :)
    4f3e:	c9 01       	movw	r24, r18
    4f40:	95 95       	asr	r25
    4f42:	87 95       	ror	r24
    4f44:	95 95       	asr	r25
    4f46:	87 95       	ror	r24
    4f48:	82 0f       	add	r24, r18
    4f4a:	93 1f       	adc	r25, r19
    4f4c:	b9 01       	movw	r22, r18
    4f4e:	a3 e0       	ldi	r26, 0x03	; 3
    4f50:	75 95       	asr	r23
    4f52:	67 95       	ror	r22
    4f54:	aa 95       	dec	r26
    4f56:	e1 f7       	brne	.-8      	; 0x4f50 <__vector_20+0x176>
    4f58:	86 0f       	add	r24, r22
    4f5a:	97 1f       	adc	r25, r23
    4f5c:	b9 01       	movw	r22, r18
    4f5e:	b4 e0       	ldi	r27, 0x04	; 4
    4f60:	75 95       	asr	r23
    4f62:	67 95       	ror	r22
    4f64:	ba 95       	dec	r27
    4f66:	e1 f7       	brne	.-8      	; 0x4f60 <__vector_20+0x186>
    4f68:	86 0f       	add	r24, r22
    4f6a:	97 1f       	adc	r25, r23
    4f6c:	c5 e0       	ldi	r28, 0x05	; 5
    4f6e:	35 95       	asr	r19
    4f70:	27 95       	ror	r18
    4f72:	ca 95       	dec	r28
    4f74:	e1 f7       	brne	.-8      	; 0x4f6e <__vector_20+0x194>
    4f76:	82 0f       	add	r24, r18
    4f78:	93 1f       	adc	r25, r19
					//itemp16 = itemp16 + (itemp16 >> 1); // Quicker mulitply by 1.5

					// Add back in OpenAero2 offset
					RxChannel[j] = itemp16 + 3750;				
    4f7a:	8a 55       	subi	r24, 0x5A	; 90
    4f7c:	91 4f       	sbci	r25, 0xF1	; 241
    4f7e:	91 83       	std	Z+1, r25	; 0x01
    4f80:	80 83       	st	Z, r24
    4f82:	4f 5f       	subi	r20, 0xFF	; 255
    4f84:	5f 4f       	sbci	r21, 0xFF	; 255
                        chan_shift++;
                    }
                }

				// Convert to  OpenAero2 values (0~2047 -> 2500~4999)
				for (j = 0; j < MAX_RC_CHANNELS; j++)
    4f86:	48 30       	cpi	r20, 0x08	; 8
    4f88:	51 05       	cpc	r21, r1
    4f8a:	89 f6       	brne	.-94     	; 0x4f2e <__vector_20+0x154>
    4f8c:	73 c0       	rjmp	.+230    	; 0x5074 <__vector_20+0x29a>
	//* 0 = 750us, 1023/2047 = 2250us
	//*
	//************************************************************

	// Handle Spektrum format
	if (Config.RxMode == SPEKTRUM)
    4f8e:	83 30       	cpi	r24, 0x03	; 3
    4f90:	09 f0       	breq	.+2      	; 0x4f94 <__vector_20+0x1ba>
    4f92:	70 c0       	rjmp	.+224    	; 0x5074 <__vector_20+0x29a>
	{
		// Process data when all packets received
		if (bytecount >= 15)
    4f94:	80 91 78 07 	lds	r24, 0x0778
    4f98:	8f 30       	cpi	r24, 0x0F	; 15
    4f9a:	08 f4       	brcc	.+2      	; 0x4f9e <__vector_20+0x1c4>
    4f9c:	6b c0       	rjmp	.+214    	; 0x5074 <__vector_20+0x29a>
		{
			Interrupted = true;	
    4f9e:	81 e0       	ldi	r24, 0x01	; 1
    4fa0:	80 93 76 07 	sts	0x0776, r24
			FirstInterrupted = true;
    4fa4:	80 93 94 07 	sts	0x0794, r24

			// Ahem... ah... just stick the last byte into the buffer manually...(hides)
			sBuffer[15] = temp;
    4fa8:	c0 93 45 05 	sts	0x0545, r28

			// Set start of channel data per format
			sindex = 2; // Channel data from byte 3

			// Work out if this is 10 or 11 bit data
			if (sBuffer[1] & 0x10) 	// 0 for 10 bit resolution 1 for 11 bit resolution
    4fac:	80 91 37 05 	lds	r24, 0x0537
    4fb0:	84 ff       	sbrs	r24, 4
    4fb2:	04 c0       	rjmp	.+8      	; 0x4fbc <__vector_20+0x1e2>
			{
				chan_mask = 0x78;	// 11 bit (2048)
				data_mask = 0x07;
    4fb4:	c7 e0       	ldi	r28, 0x07	; 7
				chan_shift = 0x03;
    4fb6:	63 e0       	ldi	r22, 0x03	; 3
			sindex = 2; // Channel data from byte 3

			// Work out if this is 10 or 11 bit data
			if (sBuffer[1] & 0x10) 	// 0 for 10 bit resolution 1 for 11 bit resolution
			{
				chan_mask = 0x78;	// 11 bit (2048)
    4fb8:	78 e7       	ldi	r23, 0x78	; 120
    4fba:	03 c0       	rjmp	.+6      	; 0x4fc2 <__vector_20+0x1e8>
				chan_shift = 0x03;
			}
			else
			{
				chan_mask = 0x3C;	// 10 bit (1024)
				data_mask = 0x03;
    4fbc:	c3 e0       	ldi	r28, 0x03	; 3
				chan_shift = 0x02;
    4fbe:	62 e0       	ldi	r22, 0x02	; 2
				data_mask = 0x07;
				chan_shift = 0x03;
			}
			else
			{
				chan_mask = 0x3C;	// 10 bit (1024)
    4fc0:	7c e3       	ldi	r23, 0x3C	; 60
    4fc2:	e9 e3       	ldi	r30, 0x39	; 57
    4fc4:	f5 e0       	ldi	r31, 0x05	; 5
    4fc6:	df 01       	movw	r26, r30
    4fc8:	11 97       	sbiw	r26, 0x01	; 1
			// Work out which channel the data is intended for from the channel number data
			// Channels can also be in the second packet. Spektrum has 7 channels per packet.
			for (j = 0; j < 7; j++)
			{
				// Extract channel number
				ch_num = (sBuffer[sindex] & chan_mask) >> chan_shift;
    4fca:	2c 91       	ld	r18, X
    4fcc:	82 2f       	mov	r24, r18
    4fce:	87 23       	and	r24, r23
    4fd0:	90 e0       	ldi	r25, 0x00	; 0
    4fd2:	06 2e       	mov	r0, r22
    4fd4:	02 c0       	rjmp	.+4      	; 0x4fda <__vector_20+0x200>
    4fd6:	95 95       	asr	r25
    4fd8:	87 95       	ror	r24
    4fda:	0a 94       	dec	r0
    4fdc:	e2 f7       	brpl	.-8      	; 0x4fd6 <__vector_20+0x1fc>
    4fde:	80 93 8d 07 	sts	0x078D, r24

				// Reconstruct channel data
				temp16 = ((sBuffer[sindex] & data_mask) << 8) + sBuffer[sindex + 1];
    4fe2:	80 81       	ld	r24, Z

				// Expand to OpenAero2 units if a valid channel
				// Blank channels have the channel number of 16
				if (ch_num < MAX_RC_CHANNELS)
    4fe4:	90 91 8d 07 	lds	r25, 0x078D
    4fe8:	98 30       	cpi	r25, 0x08	; 8
    4fea:	f0 f5       	brcc	.+124    	; 0x5068 <__vector_20+0x28e>
			{
				// Extract channel number
				ch_num = (sBuffer[sindex] & chan_mask) >> chan_shift;

				// Reconstruct channel data
				temp16 = ((sBuffer[sindex] & data_mask) << 8) + sBuffer[sindex + 1];
    4fec:	2c 23       	and	r18, r28
    4fee:	30 e0       	ldi	r19, 0x00	; 0
    4ff0:	32 2f       	mov	r19, r18
    4ff2:	22 27       	eor	r18, r18
    4ff4:	28 0f       	add	r18, r24
    4ff6:	31 1d       	adc	r19, r1
				// Expand to OpenAero2 units if a valid channel
				// Blank channels have the channel number of 16
				if (ch_num < MAX_RC_CHANNELS)
				{
					// Subtract Spektrum center offset
					if (chan_shift == 0x03) // 11-bit
    4ff8:	63 30       	cpi	r22, 0x03	; 3
    4ffa:	11 f4       	brne	.+4      	; 0x5000 <__vector_20+0x226>
					{
						itemp16 = temp16 - 1024;
    4ffc:	34 50       	subi	r19, 0x04	; 4
    4ffe:	01 c0       	rjmp	.+2      	; 0x5002 <__vector_20+0x228>
					}
					else
					{
						itemp16 = temp16 - 512;	
    5000:	32 50       	subi	r19, 0x02	; 2
					}					

					// Quick multiply by 2.93
					itemp16 = (itemp16 << 1) + (itemp16 >> 1) + (itemp16 >> 2) + (itemp16 >> 3) + (itemp16 >> 4); 
    5002:	c9 01       	movw	r24, r18
    5004:	88 0f       	add	r24, r24
    5006:	99 1f       	adc	r25, r25
    5008:	a9 01       	movw	r20, r18
    500a:	55 95       	asr	r21
    500c:	47 95       	ror	r20
    500e:	84 0f       	add	r24, r20
    5010:	95 1f       	adc	r25, r21
    5012:	a9 01       	movw	r20, r18
    5014:	55 95       	asr	r21
    5016:	47 95       	ror	r20
    5018:	55 95       	asr	r21
    501a:	47 95       	ror	r20
    501c:	84 0f       	add	r24, r20
    501e:	95 1f       	adc	r25, r21
    5020:	a9 01       	movw	r20, r18
    5022:	a3 e0       	ldi	r26, 0x03	; 3
    5024:	55 95       	asr	r21
    5026:	47 95       	ror	r20
    5028:	aa 95       	dec	r26
    502a:	e1 f7       	brne	.-8      	; 0x5024 <__vector_20+0x24a>
    502c:	84 0f       	add	r24, r20
    502e:	95 1f       	adc	r25, r21
    5030:	b4 e0       	ldi	r27, 0x04	; 4
    5032:	35 95       	asr	r19
    5034:	27 95       	ror	r18
    5036:	ba 95       	dec	r27
    5038:	e1 f7       	brne	.-8      	; 0x5032 <__vector_20+0x258>
    503a:	82 0f       	add	r24, r18
    503c:	93 1f       	adc	r25, r19

					if (chan_shift == 0x03) // 11-bit
    503e:	63 30       	cpi	r22, 0x03	; 3
    5040:	11 f4       	brne	.+4      	; 0x5046 <__vector_20+0x26c>
					{
						// Divide in case of 11-bit value
						itemp16 = itemp16 >> 1;								
    5042:	95 95       	asr	r25
    5044:	87 95       	ror	r24
					}

					// Add back in OpenAero2 offset
					itemp16 += 3750;										

					RxChannel[Config.ChannelOrder[ch_num]] = itemp16;
    5046:	a0 91 8d 07 	lds	r26, 0x078D
    504a:	b0 e0       	ldi	r27, 0x00	; 0
    504c:	ab 55       	subi	r26, 0x5B	; 91
    504e:	ba 4f       	sbci	r27, 0xFA	; 250
    5050:	11 96       	adiw	r26, 0x01	; 1
    5052:	ac 91       	ld	r26, X
    5054:	b0 e0       	ldi	r27, 0x00	; 0
						// Divide in case of 11-bit value
						itemp16 = itemp16 >> 1;								
					}

					// Add back in OpenAero2 offset
					itemp16 += 3750;										
    5056:	8a 55       	subi	r24, 0x5A	; 90
    5058:	91 4f       	sbci	r25, 0xF1	; 241

					RxChannel[Config.ChannelOrder[ch_num]] = itemp16;
    505a:	aa 0f       	add	r26, r26
    505c:	bb 1f       	adc	r27, r27
    505e:	aa 59       	subi	r26, 0x9A	; 154
    5060:	b8 4f       	sbci	r27, 0xF8	; 248
    5062:	11 96       	adiw	r26, 0x01	; 1
    5064:	9c 93       	st	X, r25
    5066:	8e 93       	st	-X, r24
    5068:	32 96       	adiw	r30, 0x02	; 2
				chan_shift = 0x02;
			}

			// Work out which channel the data is intended for from the channel number data
			// Channels can also be in the second packet. Spektrum has 7 channels per packet.
			for (j = 0; j < 7; j++)
    506a:	45 e0       	ldi	r20, 0x05	; 5
    506c:	e7 34       	cpi	r30, 0x47	; 71
    506e:	f4 07       	cpc	r31, r20
    5070:	09 f0       	breq	.+2      	; 0x5074 <__vector_20+0x29a>
    5072:	a9 cf       	rjmp	.-174    	; 0x4fc6 <__vector_20+0x1ec>
	//************************************************************
	//* Common exit code
	//************************************************************

	// Increment byte count
	bytecount++;
    5074:	80 91 78 07 	lds	r24, 0x0778
    5078:	8f 5f       	subi	r24, 0xFF	; 255
    507a:	80 93 78 07 	sts	0x0778, r24
}
    507e:	ff 91       	pop	r31
    5080:	ef 91       	pop	r30
    5082:	cf 91       	pop	r28
    5084:	bf 91       	pop	r27
    5086:	af 91       	pop	r26
    5088:	9f 91       	pop	r25
    508a:	8f 91       	pop	r24
    508c:	7f 91       	pop	r23
    508e:	6f 91       	pop	r22
    5090:	5f 91       	pop	r21
    5092:	4f 91       	pop	r20
    5094:	3f 91       	pop	r19
    5096:	2f 91       	pop	r18
    5098:	0f 90       	pop	r0
    509a:	0f be       	out	0x3f, r0	; 63
    509c:	0f 90       	pop	r0
    509e:	1f 90       	pop	r1
    50a0:	18 95       	reti

000050a2 <print_menu_frame>:
// style = menu style (0 = main, 1 = sub)
//************************************************************
void print_menu_frame(uint8_t style)
{
	// Print bottom markers
	if (style == 0)
    50a2:	81 11       	cpse	r24, r1
    50a4:	23 c0       	rjmp	.+70     	; 0x50ec <print_menu_frame+0x4a>
	{
		LCD_Display_Text(12, (const unsigned char*)Wingdings, 0, 57); 	// Left
    50a6:	29 e3       	ldi	r18, 0x39	; 57
    50a8:	30 e0       	ldi	r19, 0x00	; 0
    50aa:	40 e0       	ldi	r20, 0x00	; 0
    50ac:	50 e0       	ldi	r21, 0x00	; 0
    50ae:	6f ed       	ldi	r22, 0xDF	; 223
    50b0:	70 e0       	ldi	r23, 0x00	; 0
    50b2:	8c e0       	ldi	r24, 0x0C	; 12
    50b4:	0e 94 bd 1c 	call	0x397a	; 0x397a <LCD_Display_Text>
		LCD_Display_Text(10, (const unsigned char*)Wingdings, 38, 59); 	// Up
    50b8:	2b e3       	ldi	r18, 0x3B	; 59
    50ba:	30 e0       	ldi	r19, 0x00	; 0
    50bc:	46 e2       	ldi	r20, 0x26	; 38
    50be:	50 e0       	ldi	r21, 0x00	; 0
    50c0:	6f ed       	ldi	r22, 0xDF	; 223
    50c2:	70 e0       	ldi	r23, 0x00	; 0
    50c4:	8a e0       	ldi	r24, 0x0A	; 10
    50c6:	0e 94 bd 1c 	call	0x397a	; 0x397a <LCD_Display_Text>
		LCD_Display_Text(9, (const unsigned char*)Wingdings, 80, 59); 	// Down
    50ca:	2b e3       	ldi	r18, 0x3B	; 59
    50cc:	30 e0       	ldi	r19, 0x00	; 0
    50ce:	40 e5       	ldi	r20, 0x50	; 80
    50d0:	50 e0       	ldi	r21, 0x00	; 0
    50d2:	6f ed       	ldi	r22, 0xDF	; 223
    50d4:	70 e0       	ldi	r23, 0x00	; 0
    50d6:	89 e0       	ldi	r24, 0x09	; 9
    50d8:	0e 94 bd 1c 	call	0x397a	; 0x397a <LCD_Display_Text>
		LCD_Display_Text(11, (const unsigned char*)Wingdings, 120, 57); // Right
    50dc:	29 e3       	ldi	r18, 0x39	; 57
    50de:	30 e0       	ldi	r19, 0x00	; 0
    50e0:	48 e7       	ldi	r20, 0x78	; 120
    50e2:	50 e0       	ldi	r21, 0x00	; 0
    50e4:	6f ed       	ldi	r22, 0xDF	; 223
    50e6:	70 e0       	ldi	r23, 0x00	; 0
    50e8:	8b e0       	ldi	r24, 0x0B	; 11
    50ea:	22 c0       	rjmp	.+68     	; 0x5130 <print_menu_frame+0x8e>
	}
	else
	{
		LCD_Display_Text(16, (const unsigned char*)Verdana8, 0, 54); 	// Clear
    50ec:	26 e3       	ldi	r18, 0x36	; 54
    50ee:	30 e0       	ldi	r19, 0x00	; 0
    50f0:	40 e0       	ldi	r20, 0x00	; 0
    50f2:	50 e0       	ldi	r21, 0x00	; 0
    50f4:	67 ef       	ldi	r22, 0xF7	; 247
    50f6:	79 e0       	ldi	r23, 0x09	; 9
    50f8:	80 e1       	ldi	r24, 0x10	; 16
    50fa:	0e 94 bd 1c 	call	0x397a	; 0x397a <LCD_Display_Text>
		LCD_Display_Text(10, (const unsigned char*)Wingdings, 38, 59);	// Up
    50fe:	2b e3       	ldi	r18, 0x3B	; 59
    5100:	30 e0       	ldi	r19, 0x00	; 0
    5102:	46 e2       	ldi	r20, 0x26	; 38
    5104:	50 e0       	ldi	r21, 0x00	; 0
    5106:	6f ed       	ldi	r22, 0xDF	; 223
    5108:	70 e0       	ldi	r23, 0x00	; 0
    510a:	8a e0       	ldi	r24, 0x0A	; 10
    510c:	0e 94 bd 1c 	call	0x397a	; 0x397a <LCD_Display_Text>
		LCD_Display_Text(9, (const unsigned char*)Wingdings, 80, 59);	// Down
    5110:	2b e3       	ldi	r18, 0x3B	; 59
    5112:	30 e0       	ldi	r19, 0x00	; 0
    5114:	40 e5       	ldi	r20, 0x50	; 80
    5116:	50 e0       	ldi	r21, 0x00	; 0
    5118:	6f ed       	ldi	r22, 0xDF	; 223
    511a:	70 e0       	ldi	r23, 0x00	; 0
    511c:	89 e0       	ldi	r24, 0x09	; 9
    511e:	0e 94 bd 1c 	call	0x397a	; 0x397a <LCD_Display_Text>
		LCD_Display_Text(17, (const unsigned char*)Verdana8, 103, 54);	// Save
    5122:	26 e3       	ldi	r18, 0x36	; 54
    5124:	30 e0       	ldi	r19, 0x00	; 0
    5126:	47 e6       	ldi	r20, 0x67	; 103
    5128:	50 e0       	ldi	r21, 0x00	; 0
    512a:	67 ef       	ldi	r22, 0xF7	; 247
    512c:	79 e0       	ldi	r23, 0x09	; 9
    512e:	81 e1       	ldi	r24, 0x11	; 17
    5130:	0e 94 bd 1c 	call	0x397a	; 0x397a <LCD_Display_Text>
	}

	// Write from buffer
	write_buffer(buffer,1);
    5134:	61 e0       	ldi	r22, 0x01	; 1
    5136:	80 e0       	ldi	r24, 0x00	; 0
    5138:	91 e0       	ldi	r25, 0x01	; 1
    513a:	0e 94 e6 1a 	call	0x35cc	; 0x35cc <write_buffer>
    513e:	08 95       	ret

00005140 <get_menu_range>:
//************************************************************
// get_menu_range - Get range info from PROGMEM for a specific item
//************************************************************

menu_range_t get_menu_range(const unsigned char* menu_ranges, uint8_t menuitem)
{
    5140:	aa e0       	ldi	r26, 0x0A	; 10
    5142:	b0 e0       	ldi	r27, 0x00	; 0
    5144:	e6 ea       	ldi	r30, 0xA6	; 166
    5146:	f8 e2       	ldi	r31, 0x28	; 40
    5148:	0c 94 8e 41 	jmp	0x831c	; 0x831c <__prologue_saves__+0x20>
	menu_range_t	range;
	memcpy_P(&range, &menu_ranges[menuitem * sizeof(range)], sizeof(range));
    514c:	25 e0       	ldi	r18, 0x05	; 5
    514e:	62 9f       	mul	r22, r18
    5150:	80 0d       	add	r24, r0
    5152:	91 1d       	adc	r25, r1
    5154:	11 24       	eor	r1, r1
    5156:	bc 01       	movw	r22, r24
    5158:	45 e0       	ldi	r20, 0x05	; 5
    515a:	50 e0       	ldi	r21, 0x00	; 0
    515c:	ce 01       	movw	r24, r28
    515e:	06 96       	adiw	r24, 0x06	; 6
    5160:	0e 94 b5 41 	call	0x836a	; 0x836a <memcpy_P>
	return (range);
    5164:	85 e0       	ldi	r24, 0x05	; 5
    5166:	fe 01       	movw	r30, r28
    5168:	36 96       	adiw	r30, 0x06	; 6
    516a:	de 01       	movw	r26, r28
    516c:	11 96       	adiw	r26, 0x01	; 1
    516e:	01 90       	ld	r0, Z+
    5170:	0d 92       	st	X+, r0
    5172:	8a 95       	dec	r24
    5174:	e1 f7       	brne	.-8      	; 0x516e <get_menu_range+0x2e>
    5176:	29 81       	ldd	r18, Y+1	; 0x01
    5178:	3a 81       	ldd	r19, Y+2	; 0x02
    517a:	4b 81       	ldd	r20, Y+3	; 0x03
    517c:	5c 81       	ldd	r21, Y+4	; 0x04
    517e:	6d 81       	ldd	r22, Y+5	; 0x05
}
    5180:	70 e0       	ldi	r23, 0x00	; 0
    5182:	80 e0       	ldi	r24, 0x00	; 0
    5184:	90 e0       	ldi	r25, 0x00	; 0
    5186:	2a 96       	adiw	r28, 0x0a	; 10
    5188:	e2 e0       	ldi	r30, 0x02	; 2
    518a:	0c 94 aa 41 	jmp	0x8354	; 0x8354 <__epilogue_restores__+0x20>

0000518e <print_menu_text>:
// x = horizontal location on screen
// y = vertical location on screen
//************************************************************

void print_menu_text(int16_t values, uint8_t style, uint8_t text_link, uint8_t x, uint8_t y)
{
    518e:	0f 93       	push	r16
    5190:	1f 93       	push	r17
    5192:	cf 93       	push	r28
    5194:	df 93       	push	r29
    5196:	e4 2f       	mov	r30, r20
    5198:	10 e0       	ldi	r17, 0x00	; 0
    519a:	c2 2f       	mov	r28, r18
    519c:	d0 e0       	ldi	r29, 0x00	; 0
	if (style == 0) // Numeral
    519e:	61 11       	cpse	r22, r1
    51a0:	0c c0       	rjmp	.+24     	; 0x51ba <print_menu_text+0x2c>
    51a2:	4a e0       	ldi	r20, 0x0A	; 10
    51a4:	63 e5       	ldi	r22, 0x53	; 83
    51a6:	75 e0       	ldi	r23, 0x05	; 5
    51a8:	0e 94 be 41 	call	0x837c	; 0x837c <__itoa_ncheck>
	{
		mugui_lcd_puts(itoa(values,pBuffer,10),(const unsigned char*)Verdana8,x,y);
    51ac:	98 01       	movw	r18, r16
    51ae:	ae 01       	movw	r20, r28
    51b0:	67 ef       	ldi	r22, 0xF7	; 247
    51b2:	79 e0       	ldi	r23, 0x09	; 9
    51b4:	0e 94 dc 37 	call	0x6fb8	; 0x6fb8 <mugui_lcd_puts>
    51b8:	07 c0       	rjmp	.+14     	; 0x51c8 <print_menu_text+0x3a>
	}
	else
	{
		LCD_Display_Text(text_link, (const unsigned char*)Verdana8,x,y);
    51ba:	98 01       	movw	r18, r16
    51bc:	ae 01       	movw	r20, r28
    51be:	67 ef       	ldi	r22, 0xF7	; 247
    51c0:	79 e0       	ldi	r23, 0x09	; 9
    51c2:	8e 2f       	mov	r24, r30
    51c4:	0e 94 bd 1c 	call	0x397a	; 0x397a <LCD_Display_Text>
	}
}
    51c8:	df 91       	pop	r29
    51ca:	cf 91       	pop	r28
    51cc:	1f 91       	pop	r17
    51ce:	0f 91       	pop	r16
    51d0:	08 95       	ret

000051d2 <poll_buttons>:
// Poll buttons, wait until something pressed, debounce and 
// return button info.
//************************************************************

uint8_t poll_buttons(bool acceleration)
{
    51d2:	68 2f       	mov	r22, r24
	static uint8_t button_count = 0;
	uint8_t buttons = 0;

	button = (PINB & 0xf0); // button is global, buttons is local
    51d4:	93 b1       	in	r25, 0x03	; 3
    51d6:	90 7f       	andi	r25, 0xF0	; 240
    51d8:	90 93 95 07 	sts	0x0795, r25
//************************************************************

uint8_t poll_buttons(bool acceleration)
{
	static uint8_t button_count = 0;
	uint8_t buttons = 0;
    51dc:	80 e0       	ldi	r24, 0x00	; 0
			button = buttons;
		}

		// Reset button acceleration
		button_count = 0;
		button_multiplier = 1;
    51de:	71 e0       	ldi	r23, 0x01	; 1
	static uint8_t button_count = 0;
	uint8_t buttons = 0;

	button = (PINB & 0xf0); // button is global, buttons is local

	while (button == NONE)					
    51e0:	90 91 95 07 	lds	r25, 0x0795
    51e4:	90 3f       	cpi	r25, 0xF0	; 240
    51e6:	c9 f4       	brne	.+50     	; 0x521a <poll_buttons+0x48>
	{
		buttons = (PINB & 0xf0);	
    51e8:	83 b1       	in	r24, 0x03	; 3
    51ea:	80 7f       	andi	r24, 0xF0	; 240
    51ec:	ef e4       	ldi	r30, 0x4F	; 79
    51ee:	f3 ec       	ldi	r31, 0xC3	; 195
    51f0:	31 97       	sbiw	r30, 0x01	; 1
    51f2:	f1 f7       	brne	.-4      	; 0x51f0 <poll_buttons+0x1e>
    51f4:	00 c0       	rjmp	.+0      	; 0x51f6 <poll_buttons+0x24>
    51f6:	00 00       	nop
		_delay_ms(10);

		if (buttons != (PINB & 0xf0))
    51f8:	23 b1       	in	r18, 0x03	; 3
    51fa:	48 2f       	mov	r20, r24
    51fc:	50 e0       	ldi	r21, 0x00	; 0
    51fe:	20 7f       	andi	r18, 0xF0	; 240
    5200:	30 e0       	ldi	r19, 0x00	; 0
    5202:	42 17       	cp	r20, r18
    5204:	53 07       	cpc	r21, r19
    5206:	19 f4       	brne	.+6      	; 0x520e <poll_buttons+0x3c>
		{
			buttons = 0; // Buttons different
		}
		else // Buttons the same - update global
		{
			button = buttons;
    5208:	80 93 95 07 	sts	0x0795, r24
    520c:	01 c0       	rjmp	.+2      	; 0x5210 <poll_buttons+0x3e>
		buttons = (PINB & 0xf0);	
		_delay_ms(10);

		if (buttons != (PINB & 0xf0))
		{
			buttons = 0; // Buttons different
    520e:	80 e0       	ldi	r24, 0x00	; 0
		{
			button = buttons;
		}

		// Reset button acceleration
		button_count = 0;
    5210:	10 92 25 05 	sts	0x0525, r1
		button_multiplier = 1;
    5214:	70 93 96 07 	sts	0x0796, r23
    5218:	e3 cf       	rjmp	.-58     	; 0x51e0 <poll_buttons+0xe>
	}

	// Check for buttons being held down if requested
	if ((button != NONE) && (acceleration))
    521a:	66 23       	and	r22, r22
    521c:	71 f0       	breq	.+28     	; 0x523a <poll_buttons+0x68>
	{
		// Count the number of times incremented
		button_count++; 
    521e:	90 91 25 05 	lds	r25, 0x0525
    5222:	9f 5f       	subi	r25, 0xFF	; 255
    5224:	90 93 25 05 	sts	0x0525, r25
		if (button_count >= 10)
    5228:	9a 30       	cpi	r25, 0x0A	; 10
    522a:	38 f0       	brcs	.+14     	; 0x523a <poll_buttons+0x68>
		{
			button_count = 0;
    522c:	10 92 25 05 	sts	0x0525, r1
			button_multiplier ++;
    5230:	90 91 96 07 	lds	r25, 0x0796
    5234:	9f 5f       	subi	r25, 0xFF	; 255
    5236:	90 93 96 07 	sts	0x0796, r25
		}
	}

	return buttons;
}
    523a:	08 95       	ret

0000523c <do_menu_item>:
// servo_enable = Enable real-time updating of servo position
// servo_number = Servo number to update
//************************************************************

void do_menu_item(uint8_t menuitem, int8_t *values, uint8_t mult, menu_range_t range, int8_t offset, uint8_t text_link, bool servo_enable, int16_t servo_number)
{
    523c:	a8 e1       	ldi	r26, 0x18	; 24
    523e:	b0 e0       	ldi	r27, 0x00	; 0
    5240:	e4 e2       	ldi	r30, 0x24	; 36
    5242:	f9 e2       	ldi	r31, 0x29	; 41
    5244:	0c 94 7e 41 	jmp	0x82fc	; 0x82fc <__prologue_saves__>
    5248:	98 2e       	mov	r9, r24
    524a:	79 8b       	std	Y+17, r23	; 0x11
    524c:	68 8b       	std	Y+16, r22	; 0x10
    524e:	b4 2e       	mov	r11, r20
    5250:	ed 82       	std	Y+5, r14	; 0x05
    5252:	fe 82       	std	Y+6, r15	; 0x06
    5254:	0f 83       	std	Y+7, r16	; 0x07
    5256:	18 87       	std	Y+8, r17	; 0x08
    5258:	29 87       	std	Y+9, r18	; 0x09
    525a:	4e 2d       	mov	r20, r14
    525c:	3f 2d       	mov	r19, r15
    525e:	0d 87       	std	Y+13, r16	; 0x0d
    5260:	1a 87       	std	Y+10, r17	; 0x0a
	mugui_size16_t size;
	int16_t temp16;
	int16_t value = (int8_t)*values;
    5262:	fb 01       	movw	r30, r22
    5264:	20 81       	ld	r18, Z
    5266:	62 2e       	mov	r6, r18
    5268:	77 24       	eor	r7, r7
    526a:	67 fc       	sbrc	r6, 7
    526c:	70 94       	com	r7
	uint8_t button_inc = 0;
	bool	button_lock = false;
	bool	first_time = true;

	// Multiply value for display only if style is 2
	if (range.style == 2)
    526e:	12 30       	cpi	r17, 0x02	; 2
    5270:	29 f4       	brne	.+10     	; 0x527c <do_menu_item+0x40>
	{
		value = value * mult;
    5272:	5b 2d       	mov	r21, r11
    5274:	25 03       	mulsu	r18, r21
    5276:	30 01       	movw	r6, r0
    5278:	11 24       	eor	r1, r1
    527a:	02 c0       	rjmp	.+4      	; 0x5280 <do_menu_item+0x44>
	}
	else mult = 1;
    527c:	bb 24       	eor	r11, r11
    527e:	b3 94       	inc	r11

	button = NONE;
    5280:	20 ef       	ldi	r18, 0xF0	; 240
    5282:	20 93 95 07 	sts	0x0795, r18
		{
			value = (range.default_value * mult);
		}

		// Limit values to set ranges
		if (value < (range.lower * mult)) 
    5286:	8b 2d       	mov	r24, r11
    5288:	90 e0       	ldi	r25, 0x00	; 0
    528a:	9b 8b       	std	Y+19, r25	; 0x13
    528c:	8a 8b       	std	Y+18, r24	; 0x12
    528e:	2b 2d       	mov	r18, r11
    5290:	42 03       	mulsu	r20, r18
    5292:	10 01       	movw	r2, r0
    5294:	11 24       	eor	r1, r1
		{
			value = range.lower * mult;
		}
		
		if (value > (range.upper * mult)) 
    5296:	32 03       	mulsu	r19, r18
    5298:	a0 01       	movw	r20, r0
    529a:	11 24       	eor	r1, r1
    529c:	5f 87       	std	Y+15, r21	; 0x0f
    529e:	4e 87       	std	Y+14, r20	; 0x0e
	uint8_t display_update = 0;
	uint8_t servo_update = 0;
	uint8_t button_update = 0;
	uint8_t button_inc = 0;
	bool	button_lock = false;
	bool	first_time = true;
    52a0:	91 e0       	ldi	r25, 0x01	; 1
	int16_t value = (int8_t)*values;
	uint8_t display_update = 0;
	uint8_t servo_update = 0;
	uint8_t button_update = 0;
	uint8_t button_inc = 0;
	bool	button_lock = false;
    52a2:	51 2c       	mov	r5, r1
	mugui_size16_t size;
	int16_t temp16;
	int16_t value = (int8_t)*values;
	uint8_t display_update = 0;
	uint8_t servo_update = 0;
	uint8_t button_update = 0;
    52a4:	d1 2c       	mov	r13, r1
{
	mugui_size16_t size;
	int16_t temp16;
	int16_t value = (int8_t)*values;
	uint8_t display_update = 0;
	uint8_t servo_update = 0;
    52a6:	41 2c       	mov	r4, r1
void do_menu_item(uint8_t menuitem, int8_t *values, uint8_t mult, menu_range_t range, int8_t offset, uint8_t text_link, bool servo_enable, int16_t servo_number)
{
	mugui_size16_t size;
	int16_t temp16;
	int16_t value = (int8_t)*values;
	uint8_t display_update = 0;
    52a8:	f1 2c       	mov	r15, r1
			first_time = false;

			clear_buffer(buffer);

			// Print title
			gLCDprint_Menu_P((char*)pgm_read_word(&text_menu[menuitem]), (const unsigned char*)Verdana14, 0, 0);
    52aa:	09 2d       	mov	r16, r9
    52ac:	10 e0       	ldi	r17, 0x00	; 0
    52ae:	00 0f       	add	r16, r16
    52b0:	11 1f       	adc	r17, r17
    52b2:	02 52       	subi	r16, 0x22	; 34
    52b4:	12 4f       	sbci	r17, 0xF2	; 242

			// Print value
			if ((range.style == 0) || (range.style == 2)) // numeric and numeric * 4
    52b6:	8a 85       	ldd	r24, Y+10	; 0x0a
    52b8:	8d 7f       	andi	r24, 0xFD	; 253
    52ba:	8c 8b       	std	Y+20, r24	; 0x14
			}
			else // text
			{
				// Write text, centered on screen
				// NB: pBuffer obviously has to be larger than the longest text string printed... duh...
				pgm_mugui_scopy((char*)pgm_read_word(&text_menu[text_link + value])); // Copy string to pBuffer
    52bc:	ea 2d       	mov	r30, r10
    52be:	f0 e0       	ldi	r31, 0x00	; 0
    52c0:	fe 8b       	std	Y+22, r31	; 0x16
    52c2:	ed 8b       	std	Y+21, r30	; 0x15
			// Print value
			if ((range.style == 0) || (range.style == 2)) // numeric and numeric * 4
			{
				// Write numeric value, centered on screen
				mugui_text_sizestring(itoa(value,pBuffer,10), (const unsigned char*)Verdana14, &size);
				mugui_lcd_puts(itoa(value,pBuffer,10),(const unsigned char*)Verdana14,((128-size.x)/2)+offset,25);
    52c4:	2c 2d       	mov	r18, r12
    52c6:	33 27       	eor	r19, r19
    52c8:	27 fd       	sbrc	r18, 7
    52ca:	30 95       	com	r19
    52cc:	38 8f       	std	Y+24, r19	; 0x18
    52ce:	2f 8b       	std	Y+23, r18	; 0x17
		}

		// Set servo position if required and update every 4 * 5ms = 20ms
		// Ignore if the output is marked as a motor
		if (((servo_enable) && (servo_update >= 4)) &&
			((Config.Channel[servo_number].P1_sensors & (1 << MotorMarker)) == 0))
    52d0:	8d e1       	ldi	r24, 0x1D	; 29
    52d2:	ed a5       	ldd	r30, Y+45	; 0x2d
    52d4:	fe a5       	ldd	r31, Y+46	; 0x2e
    52d6:	8e 9f       	mul	r24, r30
    52d8:	a0 01       	movw	r20, r0
    52da:	8f 9f       	mul	r24, r31
    52dc:	50 0d       	add	r21, r0
    52de:	11 24       	eor	r1, r1
    52e0:	48 5b       	subi	r20, 0xB8	; 184
    52e2:	59 4f       	sbci	r21, 0xF9	; 249
    52e4:	5c 87       	std	Y+12, r21	; 0x0c
    52e6:	4b 87       	std	Y+11, r20	; 0x0b
	button = NONE;

	// This is a loop that cycles until Button 4 is pressed (Save)
	// The GLCD updating slows servo updates down too much so only update the GLCD periodically
	// When not updating the GLCD the servo should be updated at 50Hz (20ms)
	while (button != ENTER)
    52e8:	80 91 95 07 	lds	r24, 0x0795
    52ec:	80 3e       	cpi	r24, 0xE0	; 224
    52ee:	09 f4       	brne	.+2      	; 0x52f2 <do_menu_item+0xb6>
    52f0:	ee c0       	rjmp	.+476    	; 0x54ce <do_menu_item+0x292>
	{
		// Increment loopcount so that we can time various things
		display_update++;
		servo_update++;
    52f2:	43 94       	inc	r4

		// Vary the button increment delay depending on the function
		if (servo_enable)
    52f4:	88 20       	and	r8, r8
    52f6:	11 f0       	breq	.+4      	; 0x52fc <do_menu_item+0xc0>
		{
			button_inc = 20; // For servos
    52f8:	24 e1       	ldi	r18, 0x14	; 20
    52fa:	01 c0       	rjmp	.+2      	; 0x52fe <do_menu_item+0xc2>
		}
		else
		{
			button_inc = 1;	// For everything else (numbers)
    52fc:	21 e0       	ldi	r18, 0x01	; 1
		}

		// Increment button timer when pressed
		if (button != NONE)
    52fe:	80 3f       	cpi	r24, 0xF0	; 240
    5300:	19 f0       	breq	.+6      	; 0x5308 <do_menu_item+0xcc>
		{
			button_update++;
    5302:	d3 94       	inc	r13

			// Release button lock after button_inc loops
			if (button_update > button_inc)
    5304:	2d 15       	cp	r18, r13
    5306:	10 f4       	brcc	.+4      	; 0x530c <do_menu_item+0xd0>
		}
		// Remove lock when not pressed
		else 
		{
			button_update = 0;
			button_lock = false;
    5308:	51 2c       	mov	r5, r1
			} 
		}
		// Remove lock when not pressed
		else 
		{
			button_update = 0;
    530a:	d1 2c       	mov	r13, r1
			button_lock = false;
		}

		// Display update
		if 	(!servo_enable || 									// Non-servo value or
    530c:	88 20       	and	r8, r8
    530e:	49 f0       	breq	.+18     	; 0x5322 <do_menu_item+0xe6>
	// The GLCD updating slows servo updates down too much so only update the GLCD periodically
	// When not updating the GLCD the servo should be updated at 50Hz (20ms)
	while (button != ENTER)
	{
		// Increment loopcount so that we can time various things
		display_update++;
    5310:	f3 94       	inc	r15
			button_update = 0;
			button_lock = false;
		}

		// Display update
		if 	(!servo_enable || 									// Non-servo value or
    5312:	ff e1       	ldi	r31, 0x1F	; 31
    5314:	ff 15       	cp	r31, r15
    5316:	10 f4       	brcc	.+4      	; 0x531c <do_menu_item+0xe0>
			((display_update >= 32) && (button != NONE)) || 	// Servo value and 32 cycles passed but only with a button pressed or...
    5318:	80 3f       	cpi	r24, 0xF0	; 240
    531a:	19 f4       	brne	.+6      	; 0x5322 <do_menu_item+0xe6>
    531c:	99 23       	and	r25, r25
    531e:	09 f4       	brne	.+2      	; 0x5322 <do_menu_item+0xe6>
    5320:	6a c0       	rjmp	.+212    	; 0x53f6 <do_menu_item+0x1ba>
			 (first_time))										// First time into routine
		{
			display_update = 0;
			first_time = false;

			clear_buffer(buffer);
    5322:	80 e0       	ldi	r24, 0x00	; 0
    5324:	91 e0       	ldi	r25, 0x01	; 1
    5326:	0e 94 14 1b 	call	0x3628	; 0x3628 <clear_buffer>

			// Print title
			gLCDprint_Menu_P((char*)pgm_read_word(&text_menu[menuitem]), (const unsigned char*)Verdana14, 0, 0);
    532a:	f8 01       	movw	r30, r16
    532c:	85 91       	lpm	r24, Z+
    532e:	94 91       	lpm	r25, Z
    5330:	20 e0       	ldi	r18, 0x00	; 0
    5332:	30 e0       	ldi	r19, 0x00	; 0
    5334:	40 e0       	ldi	r20, 0x00	; 0
    5336:	50 e0       	ldi	r21, 0x00	; 0
    5338:	69 e4       	ldi	r22, 0x49	; 73
    533a:	71 e0       	ldi	r23, 0x01	; 1
    533c:	0e 94 c8 1c 	call	0x3990	; 0x3990 <gLCDprint_Menu_P>

			// Print value
			if ((range.style == 0) || (range.style == 2)) // numeric and numeric * 4
    5340:	2c 89       	ldd	r18, Y+20	; 0x14
    5342:	21 11       	cpse	r18, r1
    5344:	28 c0       	rjmp	.+80     	; 0x5396 <do_menu_item+0x15a>
    5346:	4a e0       	ldi	r20, 0x0A	; 10
    5348:	63 e5       	ldi	r22, 0x53	; 83
    534a:	75 e0       	ldi	r23, 0x05	; 5
    534c:	c3 01       	movw	r24, r6
    534e:	0e 94 be 41 	call	0x837c	; 0x837c <__itoa_ncheck>
			{
				// Write numeric value, centered on screen
				mugui_text_sizestring(itoa(value,pBuffer,10), (const unsigned char*)Verdana14, &size);
    5352:	ae 01       	movw	r20, r28
    5354:	4f 5f       	subi	r20, 0xFF	; 255
    5356:	5f 4f       	sbci	r21, 0xFF	; 255
    5358:	69 e4       	ldi	r22, 0x49	; 73
    535a:	71 e0       	ldi	r23, 0x01	; 1
    535c:	0e 94 c4 36 	call	0x6d88	; 0x6d88 <mugui_text_sizestring>
				mugui_lcd_puts(itoa(value,pBuffer,10),(const unsigned char*)Verdana14,((128-size.x)/2)+offset,25);
    5360:	89 81       	ldd	r24, Y+1	; 0x01
    5362:	9a 81       	ldd	r25, Y+2	; 0x02
    5364:	70 e8       	ldi	r23, 0x80	; 128
    5366:	e7 2e       	mov	r14, r23
    5368:	f1 2c       	mov	r15, r1
    536a:	e8 1a       	sub	r14, r24
    536c:	f9 0a       	sbc	r15, r25
    536e:	f6 94       	lsr	r15
    5370:	e7 94       	ror	r14
    5372:	4f 89       	ldd	r20, Y+23	; 0x17
    5374:	58 8d       	ldd	r21, Y+24	; 0x18
    5376:	e4 0e       	add	r14, r20
    5378:	f5 1e       	adc	r15, r21
    537a:	4a e0       	ldi	r20, 0x0A	; 10
    537c:	63 e5       	ldi	r22, 0x53	; 83
    537e:	75 e0       	ldi	r23, 0x05	; 5
    5380:	c3 01       	movw	r24, r6
    5382:	0e 94 be 41 	call	0x837c	; 0x837c <__itoa_ncheck>
    5386:	29 e1       	ldi	r18, 0x19	; 25
    5388:	30 e0       	ldi	r19, 0x00	; 0
    538a:	a7 01       	movw	r20, r14
    538c:	69 e4       	ldi	r22, 0x49	; 73
    538e:	71 e0       	ldi	r23, 0x01	; 1
    5390:	0e 94 dc 37 	call	0x6fb8	; 0x6fb8 <mugui_lcd_puts>
    5394:	25 c0       	rjmp	.+74     	; 0x53e0 <do_menu_item+0x1a4>
			}
			else // text
			{
				// Write text, centered on screen
				// NB: pBuffer obviously has to be larger than the longest text string printed... duh...
				pgm_mugui_scopy((char*)pgm_read_word(&text_menu[text_link + value])); // Copy string to pBuffer
    5396:	ed 89       	ldd	r30, Y+21	; 0x15
    5398:	fe 89       	ldd	r31, Y+22	; 0x16
    539a:	e6 0d       	add	r30, r6
    539c:	f7 1d       	adc	r31, r7
    539e:	ee 0f       	add	r30, r30
    53a0:	ff 1f       	adc	r31, r31
    53a2:	e2 52       	subi	r30, 0x22	; 34
    53a4:	f2 4f       	sbci	r31, 0xF2	; 242
    53a6:	85 91       	lpm	r24, Z+
    53a8:	94 91       	lpm	r25, Z
    53aa:	0e 94 0e 37 	call	0x6e1c	; 0x6e1c <pgm_mugui_scopy>

				mugui_text_sizestring((char*)pBuffer, (const unsigned char*)Verdana14, &size);
    53ae:	ae 01       	movw	r20, r28
    53b0:	4f 5f       	subi	r20, 0xFF	; 255
    53b2:	5f 4f       	sbci	r21, 0xFF	; 255
    53b4:	69 e4       	ldi	r22, 0x49	; 73
    53b6:	71 e0       	ldi	r23, 0x01	; 1
    53b8:	83 e5       	ldi	r24, 0x53	; 83
    53ba:	95 e0       	ldi	r25, 0x05	; 5
    53bc:	0e 94 c4 36 	call	0x6d88	; 0x6d88 <mugui_text_sizestring>
				LCD_Display_Text(text_link + value, (const unsigned char*)Verdana14,((128-size.x)/2),25);
    53c0:	89 81       	ldd	r24, Y+1	; 0x01
    53c2:	9a 81       	ldd	r25, Y+2	; 0x02
    53c4:	40 e8       	ldi	r20, 0x80	; 128
    53c6:	50 e0       	ldi	r21, 0x00	; 0
    53c8:	48 1b       	sub	r20, r24
    53ca:	59 0b       	sbc	r21, r25
    53cc:	56 95       	lsr	r21
    53ce:	47 95       	ror	r20
    53d0:	29 e1       	ldi	r18, 0x19	; 25
    53d2:	30 e0       	ldi	r19, 0x00	; 0
    53d4:	69 e4       	ldi	r22, 0x49	; 73
    53d6:	71 e0       	ldi	r23, 0x01	; 1
    53d8:	8a 2d       	mov	r24, r10
    53da:	86 0d       	add	r24, r6
    53dc:	0e 94 bd 1c 	call	0x397a	; 0x397a <LCD_Display_Text>
			}

			// Print bottom markers
			print_menu_frame(1);
    53e0:	81 e0       	ldi	r24, 0x01	; 1
    53e2:	0e 94 51 28 	call	0x50a2	; 0x50a2 <print_menu_frame>

			// Write from buffer
			write_buffer(buffer,1);
    53e6:	61 e0       	ldi	r22, 0x01	; 1
    53e8:	80 e0       	ldi	r24, 0x00	; 0
    53ea:	91 e0       	ldi	r25, 0x01	; 1
    53ec:	0e 94 e6 1a 	call	0x35cc	; 0x35cc <write_buffer>
		}

		// Poll buttons when idle
		// Don't use button acceleration when moving servos
		// And don't block the code with poll_buttons()
		if (servo_enable)
    53f0:	88 20       	and	r8, r8
    53f2:	49 f0       	breq	.+18     	; 0x5406 <do_menu_item+0x1ca>
		// Display update
		if 	(!servo_enable || 									// Non-servo value or
			((display_update >= 32) && (button != NONE)) || 	// Servo value and 32 cycles passed but only with a button pressed or...
			 (first_time))										// First time into routine
		{
			display_update = 0;
    53f4:	f1 2c       	mov	r15, r1
		// Poll buttons when idle
		// Don't use button acceleration when moving servos
		// And don't block the code with poll_buttons()
		if (servo_enable)
		{
			button = (PINB & 0xf0);	
    53f6:	83 b1       	in	r24, 0x03	; 3
    53f8:	80 7f       	andi	r24, 0xF0	; 240
    53fa:	80 93 95 07 	sts	0x0795, r24
			button_multiplier = 1;
    53fe:	81 e0       	ldi	r24, 0x01	; 1
    5400:	80 93 96 07 	sts	0x0796, r24
    5404:	04 c0       	rjmp	.+8      	; 0x540e <do_menu_item+0x1d2>
		}
		else
		{
			poll_buttons(true);
    5406:	81 e0       	ldi	r24, 0x01	; 1
    5408:	0e 94 e9 28 	call	0x51d2	; 0x51d2 <poll_buttons>
		// Display update
		if 	(!servo_enable || 									// Non-servo value or
			((display_update >= 32) && (button != NONE)) || 	// Servo value and 32 cycles passed but only with a button pressed or...
			 (first_time))										// First time into routine
		{
			display_update = 0;
    540c:	f1 2c       	mov	r15, r1
		{
			poll_buttons(true);
		}

		// Handle cursor Up/Down limits
		if (button == DOWN)
    540e:	80 91 95 07 	lds	r24, 0x0795
    5412:	80 3d       	cpi	r24, 0xD0	; 208
    5414:	51 f4       	brne	.+20     	; 0x542a <do_menu_item+0x1ee>
		{
			if (button_lock == false)
    5416:	51 10       	cpse	r5, r1
    5418:	6a c0       	rjmp	.+212    	; 0x54ee <do_menu_item+0x2b2>
			{
				button_lock = true;
				value = value - (range.increment * button_multiplier);
    541a:	80 91 96 07 	lds	r24, 0x0796
    541e:	5d 85       	ldd	r21, Y+13	; 0x0d
    5420:	58 9f       	mul	r21, r24
    5422:	60 18       	sub	r6, r0
    5424:	71 08       	sbc	r7, r1
    5426:	11 24       	eor	r1, r1
    5428:	0b c0       	rjmp	.+22     	; 0x5440 <do_menu_item+0x204>
				button_update = 0;
			}
		}

		if (button == UP)
    542a:	80 3b       	cpi	r24, 0xB0	; 176
    542c:	59 f4       	brne	.+22     	; 0x5444 <do_menu_item+0x208>
		{
			if (button_lock == false)
    542e:	51 10       	cpse	r5, r1
    5430:	5e c0       	rjmp	.+188    	; 0x54ee <do_menu_item+0x2b2>
			{
				button_lock = true;
				value = value + (range.increment * button_multiplier);
    5432:	80 91 96 07 	lds	r24, 0x0796
    5436:	9d 85       	ldd	r25, Y+13	; 0x0d
    5438:	98 9f       	mul	r25, r24
    543a:	60 0c       	add	r6, r0
    543c:	71 1c       	adc	r7, r1
    543e:	11 24       	eor	r1, r1
				button_update = 0;
    5440:	d1 2c       	mov	r13, r1
    5442:	55 c0       	rjmp	.+170    	; 0x54ee <do_menu_item+0x2b2>
			}
		}

		if (button == BACK)	
    5444:	80 37       	cpi	r24, 0x70	; 112
    5446:	29 f4       	brne	.+10     	; 0x5452 <do_menu_item+0x216>
		{
			value = (range.default_value * mult);
    5448:	29 85       	ldd	r18, Y+9	; 0x09
    544a:	3b 2d       	mov	r19, r11
    544c:	23 03       	mulsu	r18, r19
    544e:	30 01       	movw	r6, r0
    5450:	11 24       	eor	r1, r1
    5452:	62 14       	cp	r6, r2
    5454:	73 04       	cpc	r7, r3
    5456:	0c f4       	brge	.+2      	; 0x545a <do_menu_item+0x21e>
    5458:	31 01       	movw	r6, r2
    545a:	4e 85       	ldd	r20, Y+14	; 0x0e
    545c:	5f 85       	ldd	r21, Y+15	; 0x0f
    545e:	46 15       	cp	r20, r6
    5460:	57 05       	cpc	r21, r7
    5462:	0c f4       	brge	.+2      	; 0x5466 <do_menu_item+0x22a>
    5464:	3a 01       	movw	r6, r20
		{
			value = range.upper * mult;
		}

		// Update contrast setting
		if (menuitem == CONTRAST)
    5466:	5f e9       	ldi	r21, 0x9F	; 159
    5468:	95 12       	cpse	r9, r21
    546a:	03 c0       	rjmp	.+6      	; 0x5472 <do_menu_item+0x236>
		{
			st7565_set_brightness(value);
    546c:	86 2d       	mov	r24, r6
    546e:	0e 94 bc 1a 	call	0x3578	; 0x3578 <st7565_set_brightness>
		}

		// Set servo position if required and update every 4 * 5ms = 20ms
		// Ignore if the output is marked as a motor
		if (((servo_enable) && (servo_update >= 4)) &&
    5472:	88 20       	and	r8, r8
    5474:	c9 f0       	breq	.+50     	; 0x54a8 <do_menu_item+0x26c>
    5476:	83 e0       	ldi	r24, 0x03	; 3
    5478:	84 15       	cp	r24, r4
    547a:	b0 f4       	brcc	.+44     	; 0x54a8 <do_menu_item+0x26c>
			((Config.Channel[servo_number].P1_sensors & (1 << MotorMarker)) == 0))
    547c:	eb 85       	ldd	r30, Y+11	; 0x0b
    547e:	fc 85       	ldd	r31, Y+12	; 0x0c
    5480:	80 81       	ld	r24, Z
			st7565_set_brightness(value);
		}

		// Set servo position if required and update every 4 * 5ms = 20ms
		// Ignore if the output is marked as a motor
		if (((servo_enable) && (servo_update >= 4)) &&
    5482:	86 fd       	sbrc	r24, 6
    5484:	11 c0       	rjmp	.+34     	; 0x54a8 <do_menu_item+0x26c>
			((Config.Channel[servo_number].P1_sensors & (1 << MotorMarker)) == 0))
		{
			servo_update = 0;

			temp16 = scale_percent(value);	// Convert to servo position (from %)
    5486:	86 2d       	mov	r24, r6
    5488:	0e 94 bd 36 	call	0x6d7a	; 0x6d7a <scale_percent>

			// Scale servo from 2500~5000 to 875~2125
			temp16 = ((temp16 - (int16_t)3750) >> 1) + (int16_t)1500; 
    548c:	86 5a       	subi	r24, 0xA6	; 166
    548e:	9e 40       	sbci	r25, 0x0E	; 14
    5490:	95 95       	asr	r25
    5492:	87 95       	ror	r24

			cli();
    5494:	f8 94       	cli
			servo_update = 0;

			temp16 = scale_percent(value);	// Convert to servo position (from %)

			// Scale servo from 2500~5000 to 875~2125
			temp16 = ((temp16 - (int16_t)3750) >> 1) + (int16_t)1500; 
    5496:	bc 01       	movw	r22, r24
    5498:	64 52       	subi	r22, 0x24	; 36
    549a:	7a 4f       	sbci	r23, 0xFA	; 250

			cli();
			output_servo_ppm_asm3(servo_number, temp16);
    549c:	8d a5       	ldd	r24, Y+45	; 0x2d
    549e:	9e a5       	ldd	r25, Y+46	; 0x2e
    54a0:	0e 94 6f 0e 	call	0x1cde	; 0x1cde <output_servo_ppm_asm3>
			sei();
    54a4:	78 94       	sei
		// Set servo position if required and update every 4 * 5ms = 20ms
		// Ignore if the output is marked as a motor
		if (((servo_enable) && (servo_update >= 4)) &&
			((Config.Channel[servo_number].P1_sensors & (1 << MotorMarker)) == 0))
		{
			servo_update = 0;
    54a6:	41 2c       	mov	r4, r1
			output_servo_ppm_asm3(servo_number, temp16);
			sei();
		}

		// Slow the loop rate for text items		
		 if (range.style == 1)
    54a8:	fa 85       	ldd	r31, Y+10	; 0x0a
    54aa:	f1 30       	cpi	r31, 0x01	; 1
    54ac:	41 f4       	brne	.+16     	; 0x54be <do_menu_item+0x282>
    54ae:	2f e7       	ldi	r18, 0x7F	; 127
    54b0:	3a e1       	ldi	r19, 0x1A	; 26
    54b2:	46 e0       	ldi	r20, 0x06	; 6
    54b4:	21 50       	subi	r18, 0x01	; 1
    54b6:	30 40       	sbci	r19, 0x00	; 0
    54b8:	40 40       	sbci	r20, 0x00	; 0
    54ba:	e1 f7       	brne	.-8      	; 0x54b4 <do_menu_item+0x278>
    54bc:	04 c0       	rjmp	.+8      	; 0x54c6 <do_menu_item+0x28a>
    54be:	87 ea       	ldi	r24, 0xA7	; 167
    54c0:	91 e6       	ldi	r25, 0x61	; 97
    54c2:	01 97       	sbiw	r24, 0x01	; 1
    54c4:	f1 f7       	brne	.-4      	; 0x54c2 <do_menu_item+0x286>
    54c6:	00 c0       	rjmp	.+0      	; 0x54c8 <do_menu_item+0x28c>
    54c8:	00 00       	nop
    54ca:	90 e0       	ldi	r25, 0x00	; 0
    54cc:	0d cf       	rjmp	.-486    	; 0x52e8 <do_menu_item+0xac>

	// Exit
	button = ENTER;

	// Divide value from that displayed if style = 2
	if (range.style == 2)
    54ce:	9a 85       	ldd	r25, Y+10	; 0x0a
    54d0:	92 30       	cpi	r25, 0x02	; 2
    54d2:	31 f4       	brne	.+12     	; 0x54e0 <do_menu_item+0x2a4>
	{
		value = value / mult;
    54d4:	c3 01       	movw	r24, r6
    54d6:	6a 89       	ldd	r22, Y+18	; 0x12
    54d8:	7b 89       	ldd	r23, Y+19	; 0x13
    54da:	0e 94 f2 40 	call	0x81e4	; 0x81e4 <__divmodhi4>
    54de:	3b 01       	movw	r6, r22
	}

	*values = (int8_t)value;
    54e0:	e8 89       	ldd	r30, Y+16	; 0x10
    54e2:	f9 89       	ldd	r31, Y+17	; 0x11
    54e4:	60 82       	st	Z, r6
}
    54e6:	68 96       	adiw	r28, 0x18	; 24
    54e8:	e2 e1       	ldi	r30, 0x12	; 18
    54ea:	0c 94 9a 41 	jmp	0x8334	; 0x8334 <__epilogue_restores__>
		// Display update
		if 	(!servo_enable || 									// Non-servo value or
			((display_update >= 32) && (button != NONE)) || 	// Servo value and 32 cycles passed but only with a button pressed or...
			 (first_time))										// First time into routine
		{
			display_update = 0;
    54ee:	55 24       	eor	r5, r5
    54f0:	53 94       	inc	r5
    54f2:	af cf       	rjmp	.-162    	; 0x5452 <do_menu_item+0x216>

000054f4 <menu_beep>:

void menu_beep(uint8_t beeps)
{
	uint8_t i;

	for (i=0; i < beeps; i++)
    54f4:	90 e0       	ldi	r25, 0x00	; 0
    54f6:	98 17       	cp	r25, r24
    54f8:	b1 f0       	breq	.+44     	; 0x5526 <menu_beep+0x32>
	{ 
		LVA = 1;
    54fa:	29 9a       	sbi	0x05, 1	; 5
    54fc:	2f e9       	ldi	r18, 0x9F	; 159
    54fe:	36 e8       	ldi	r19, 0x86	; 134
    5500:	41 e0       	ldi	r20, 0x01	; 1
    5502:	21 50       	subi	r18, 0x01	; 1
    5504:	30 40       	sbci	r19, 0x00	; 0
    5506:	40 40       	sbci	r20, 0x00	; 0
    5508:	e1 f7       	brne	.-8      	; 0x5502 <menu_beep+0xe>
    550a:	00 c0       	rjmp	.+0      	; 0x550c <menu_beep+0x18>
    550c:	00 00       	nop
		_delay_ms(25);
		LVA = 0;
    550e:	29 98       	cbi	0x05, 1	; 5
    5510:	2f e9       	ldi	r18, 0x9F	; 159
    5512:	36 e8       	ldi	r19, 0x86	; 134
    5514:	41 e0       	ldi	r20, 0x01	; 1
    5516:	21 50       	subi	r18, 0x01	; 1
    5518:	30 40       	sbci	r19, 0x00	; 0
    551a:	40 40       	sbci	r20, 0x00	; 0
    551c:	e1 f7       	brne	.-8      	; 0x5516 <menu_beep+0x22>
    551e:	00 c0       	rjmp	.+0      	; 0x5520 <menu_beep+0x2c>
    5520:	00 00       	nop

void menu_beep(uint8_t beeps)
{
	uint8_t i;

	for (i=0; i < beeps; i++)
    5522:	9f 5f       	subi	r25, 0xFF	; 255
    5524:	e8 cf       	rjmp	.-48     	; 0x54f6 <menu_beep+0x2>
		LVA = 1;
		_delay_ms(25);
		LVA = 0;
		_delay_ms(25);
	}
}
    5526:	08 95       	ret

00005528 <update_menu>:
// top*		= Item number currently on top line
// temp*	= Currently selected item number
//************************************************************

void update_menu(uint8_t items, uint8_t start, uint8_t offset, uint8_t button, uint8_t* cursor, uint8_t* top, uint8_t* temp)
{
    5528:	a3 e0       	ldi	r26, 0x03	; 3
    552a:	b0 e0       	ldi	r27, 0x00	; 0
    552c:	ea e9       	ldi	r30, 0x9A	; 154
    552e:	fa e2       	ldi	r31, 0x2A	; 42
    5530:	0c 94 88 41 	jmp	0x8310	; 0x8310 <__prologue_saves__+0x14>
    5534:	58 2f       	mov	r21, r24
    5536:	f6 01       	movw	r30, r12
	// Temporarily add in offset :(
	*top = *top + offset;
    5538:	d7 01       	movw	r26, r14
    553a:	9c 91       	ld	r25, X
    553c:	94 0f       	add	r25, r20
    553e:	9c 93       	st	X, r25
	start = start + offset;
    5540:	64 0f       	add	r22, r20

	// Calculate which function has been requested
	if (button == ENTER)
    5542:	20 3e       	cpi	r18, 0xE0	; 224
    5544:	a1 f4       	brne	.+40     	; 0x556e <update_menu+0x46>
	{
		switch(*cursor) 
    5546:	d8 01       	movw	r26, r16
    5548:	8c 91       	ld	r24, X
    554a:	8f 30       	cpi	r24, 0x0F	; 15
    554c:	59 f0       	breq	.+22     	; 0x5564 <update_menu+0x3c>
    554e:	18 f4       	brcc	.+6      	; 0x5556 <update_menu+0x2e>
    5550:	83 30       	cpi	r24, 0x03	; 3
    5552:	49 f0       	breq	.+18     	; 0x5566 <update_menu+0x3e>
    5554:	4b c0       	rjmp	.+150    	; 0x55ec <update_menu+0xc4>
    5556:	8b 31       	cpi	r24, 0x1B	; 27
    5558:	41 f0       	breq	.+16     	; 0x556a <update_menu+0x42>
    555a:	87 32       	cpi	r24, 0x27	; 39
    555c:	09 f0       	breq	.+2      	; 0x5560 <update_menu+0x38>
    555e:	46 c0       	rjmp	.+140    	; 0x55ec <update_menu+0xc4>
				break;	
			case LINE2:
				*temp = *top + 2;
				break;
			case LINE3:
				*temp = *top + 3;
    5560:	9d 5f       	subi	r25, 0xFD	; 253
    5562:	01 c0       	rjmp	.+2      	; 0x5566 <update_menu+0x3e>
		{
			case LINE0:
				*temp = *top;
				break;
			case LINE1:
				*temp = *top + 1;
    5564:	9f 5f       	subi	r25, 0xFF	; 255
    5566:	90 83       	st	Z, r25
				break;	
    5568:	41 c0       	rjmp	.+130    	; 0x55ec <update_menu+0xc4>
			case LINE2:
				*temp = *top + 2;
    556a:	9e 5f       	subi	r25, 0xFE	; 254
    556c:	fc cf       	rjmp	.-8      	; 0x5566 <update_menu+0x3e>
				break;
		}
	}

	// Handle cursor Up/Down limits
	if (button == DOWN)	
    556e:	20 3d       	cpi	r18, 0xD0	; 208
    5570:	f9 f4       	brne	.+62     	; 0x55b0 <update_menu+0x88>
	{
		switch(*cursor) 
    5572:	f8 01       	movw	r30, r16
    5574:	80 81       	ld	r24, Z
    5576:	8f 30       	cpi	r24, 0x0F	; 15
    5578:	69 f0       	breq	.+26     	; 0x5594 <update_menu+0x6c>
    557a:	18 f4       	brcc	.+6      	; 0x5582 <update_menu+0x5a>
    557c:	83 30       	cpi	r24, 0x03	; 3
    557e:	31 f0       	breq	.+12     	; 0x558c <update_menu+0x64>
    5580:	15 c0       	rjmp	.+42     	; 0x55ac <update_menu+0x84>
    5582:	8b 31       	cpi	r24, 0x1B	; 27
    5584:	59 f0       	breq	.+22     	; 0x559c <update_menu+0x74>
    5586:	87 32       	cpi	r24, 0x27	; 39
    5588:	69 f0       	breq	.+26     	; 0x55a4 <update_menu+0x7c>
    558a:	10 c0       	rjmp	.+32     	; 0x55ac <update_menu+0x84>
		{
			case LINE0:
				if (items > 1) *cursor = LINE1;
    558c:	52 30       	cpi	r21, 0x02	; 2
    558e:	70 f1       	brcs	.+92     	; 0x55ec <update_menu+0xc4>
    5590:	8f e0       	ldi	r24, 0x0F	; 15
    5592:	27 c0       	rjmp	.+78     	; 0x55e2 <update_menu+0xba>
				break;	
			case LINE1:
				if (items > 2) *cursor = LINE2;
    5594:	53 30       	cpi	r21, 0x03	; 3
    5596:	50 f1       	brcs	.+84     	; 0x55ec <update_menu+0xc4>
    5598:	8b e1       	ldi	r24, 0x1B	; 27
    559a:	1f c0       	rjmp	.+62     	; 0x55da <update_menu+0xb2>
				break;	
			case LINE2:
				if (items > 3) *cursor = LINE3;
    559c:	54 30       	cpi	r21, 0x04	; 4
    559e:	30 f1       	brcs	.+76     	; 0x55ec <update_menu+0xc4>
    55a0:	87 e2       	ldi	r24, 0x27	; 39
    55a2:	1f c0       	rjmp	.+62     	; 0x55e2 <update_menu+0xba>
				break;
			case LINE3:
				if (items > 4) *cursor = NEXTLINE;
    55a4:	55 30       	cpi	r21, 0x05	; 5
    55a6:	10 f1       	brcs	.+68     	; 0x55ec <update_menu+0xc4>
    55a8:	88 e2       	ldi	r24, 0x28	; 40
    55aa:	17 c0       	rjmp	.+46     	; 0x55da <update_menu+0xb2>
				break;
			default:
				*cursor = NEXTLINE;
    55ac:	88 e2       	ldi	r24, 0x28	; 40
    55ae:	19 c0       	rjmp	.+50     	; 0x55e2 <update_menu+0xba>
				break;
		}
	}

	if (button == UP)	
    55b0:	20 3b       	cpi	r18, 0xB0	; 176
    55b2:	d1 f4       	brne	.+52     	; 0x55e8 <update_menu+0xc0>
	{
		switch(*cursor) 
    55b4:	f8 01       	movw	r30, r16
    55b6:	80 81       	ld	r24, Z
    55b8:	8f 30       	cpi	r24, 0x0F	; 15
    55ba:	69 f0       	breq	.+26     	; 0x55d6 <update_menu+0xae>
    55bc:	20 f4       	brcc	.+8      	; 0x55c6 <update_menu+0x9e>
    55be:	83 30       	cpi	r24, 0x03	; 3
    55c0:	79 f4       	brne	.+30     	; 0x55e0 <update_menu+0xb8>
				break;
			case LINE1:
				*cursor = LINE0;
				break;
			case LINE0:
				*cursor = PREVLINE;
    55c2:	82 e0       	ldi	r24, 0x02	; 2
    55c4:	0a c0       	rjmp	.+20     	; 0x55da <update_menu+0xb2>
		}
	}

	if (button == UP)	
	{
		switch(*cursor) 
    55c6:	8b 31       	cpi	r24, 0x1B	; 27
    55c8:	21 f0       	breq	.+8      	; 0x55d2 <update_menu+0xaa>
    55ca:	87 32       	cpi	r24, 0x27	; 39
    55cc:	49 f4       	brne	.+18     	; 0x55e0 <update_menu+0xb8>
		{
			case LINE3:
				*cursor = LINE2;
    55ce:	8b e1       	ldi	r24, 0x1B	; 27
    55d0:	08 c0       	rjmp	.+16     	; 0x55e2 <update_menu+0xba>
				break;	
			case LINE2:
				*cursor = LINE1;
    55d2:	8f e0       	ldi	r24, 0x0F	; 15
    55d4:	02 c0       	rjmp	.+4      	; 0x55da <update_menu+0xb2>
				break;
			case LINE1:
				*cursor = LINE0;
    55d6:	83 e0       	ldi	r24, 0x03	; 3
    55d8:	04 c0       	rjmp	.+8      	; 0x55e2 <update_menu+0xba>
				break;
			case LINE0:
				*cursor = PREVLINE;
    55da:	f8 01       	movw	r30, r16
    55dc:	80 83       	st	Z, r24
				break;
    55de:	06 c0       	rjmp	.+12     	; 0x55ec <update_menu+0xc4>
			default:
				*cursor = PREVLINE;
    55e0:	82 e0       	ldi	r24, 0x02	; 2
    55e2:	d8 01       	movw	r26, r16
    55e4:	8c 93       	st	X, r24
				break;
    55e6:	02 c0       	rjmp	.+4      	; 0x55ec <update_menu+0xc4>
		}
	}

	if (button != NONE)	
    55e8:	20 3f       	cpi	r18, 0xF0	; 240
    55ea:	91 f0       	breq	.+36     	; 0x5610 <update_menu+0xe8>
	{
		menu_beep(1);
    55ec:	81 e0       	ldi	r24, 0x01	; 1
    55ee:	4b 83       	std	Y+3, r20	; 0x03
    55f0:	5a 83       	std	Y+2, r21	; 0x02
    55f2:	69 83       	std	Y+1, r22	; 0x01
    55f4:	0e 94 7a 2a 	call	0x54f4	; 0x54f4 <menu_beep>
    55f8:	bf ef       	ldi	r27, 0xFF	; 255
    55fa:	e4 e3       	ldi	r30, 0x34	; 52
    55fc:	fc e0       	ldi	r31, 0x0C	; 12
    55fe:	b1 50       	subi	r27, 0x01	; 1
    5600:	e0 40       	sbci	r30, 0x00	; 0
    5602:	f0 40       	sbci	r31, 0x00	; 0
    5604:	e1 f7       	brne	.-8      	; 0x55fe <update_menu+0xd6>
    5606:	00 c0       	rjmp	.+0      	; 0x5608 <update_menu+0xe0>
    5608:	00 00       	nop
    560a:	69 81       	ldd	r22, Y+1	; 0x01
    560c:	5a 81       	ldd	r21, Y+2	; 0x02
    560e:	4b 81       	ldd	r20, Y+3	; 0x03
		_delay_ms(200);
	}

	// When cursor is at limits and button pressed
	if (*cursor == PREVLINE)								// Up				
    5610:	d8 01       	movw	r26, r16
    5612:	8c 91       	ld	r24, X
    5614:	82 30       	cpi	r24, 0x02	; 2
    5616:	41 f4       	brne	.+16     	; 0x5628 <update_menu+0x100>
	{
		*cursor  = LINE0;
    5618:	83 e0       	ldi	r24, 0x03	; 3
    561a:	8c 93       	st	X, r24
		if (*top > start) *top = *top - 1;					// Shuffle list up
    561c:	f7 01       	movw	r30, r14
    561e:	80 81       	ld	r24, Z
    5620:	68 17       	cp	r22, r24
    5622:	10 f4       	brcc	.+4      	; 0x5628 <update_menu+0x100>
    5624:	81 50       	subi	r24, 0x01	; 1
    5626:	80 83       	st	Z, r24
	}
	if (*cursor == NEXTLINE)								// Down
    5628:	d8 01       	movw	r26, r16
    562a:	8c 91       	ld	r24, X
    562c:	88 32       	cpi	r24, 0x28	; 40
    562e:	91 f4       	brne	.+36     	; 0x5654 <update_menu+0x12c>
	{
		*cursor  = LINE3;
    5630:	87 e2       	ldi	r24, 0x27	; 39
    5632:	8c 93       	st	X, r24
		if ((*top+3) < ((start + items)-1)) *top = *top + 1;// Shuffle list down
    5634:	f7 01       	movw	r30, r14
    5636:	70 81       	ld	r23, Z
    5638:	27 2f       	mov	r18, r23
    563a:	30 e0       	ldi	r19, 0x00	; 0
    563c:	2d 5f       	subi	r18, 0xFD	; 253
    563e:	3f 4f       	sbci	r19, 0xFF	; 255
    5640:	85 2f       	mov	r24, r21
    5642:	90 e0       	ldi	r25, 0x00	; 0
    5644:	86 0f       	add	r24, r22
    5646:	91 1d       	adc	r25, r1
    5648:	01 97       	sbiw	r24, 0x01	; 1
    564a:	28 17       	cp	r18, r24
    564c:	39 07       	cpc	r19, r25
    564e:	14 f4       	brge	.+4      	; 0x5654 <update_menu+0x12c>
    5650:	7f 5f       	subi	r23, 0xFF	; 255
    5652:	70 83       	st	Z, r23
	}

	// Remove temporary offset
	*top = *top - offset;
    5654:	d7 01       	movw	r26, r14
    5656:	8c 91       	ld	r24, X
    5658:	84 1b       	sub	r24, r20
    565a:	8c 93       	st	X, r24
}
    565c:	23 96       	adiw	r28, 0x03	; 3
    565e:	e8 e0       	ldi	r30, 0x08	; 8
    5660:	0c 94 a4 41 	jmp	0x8348	; 0x8348 <__epilogue_restores__+0x14>

00005664 <print_cursor>:
// Print cursor on specified line
//************************************************************

void print_cursor(uint8_t line)
{
	LCD_Display_Text(13, (const unsigned char*)Wingdings, CURSOROFFSET, line);
    5664:	28 2f       	mov	r18, r24
    5666:	30 e0       	ldi	r19, 0x00	; 0
    5668:	43 e0       	ldi	r20, 0x03	; 3
    566a:	50 e0       	ldi	r21, 0x00	; 0
    566c:	6f ed       	ldi	r22, 0xDF	; 223
    566e:	70 e0       	ldi	r23, 0x00	; 0
    5670:	8d e0       	ldi	r24, 0x0D	; 13
    5672:	0e 94 bd 1c 	call	0x397a	; 0x397a <LCD_Display_Text>
    5676:	08 95       	ret

00005678 <print_menu_items>:
// MenuOffsets = originally an array, now just a fixed horizontal offset for the value text
// text_link = pointer to the text list for the values if not numeric
// cursor = cursor position
//**********************************************************************
void print_menu_items(uint8_t top, uint8_t start, int8_t values[], const unsigned char* menu_ranges, uint8_t rangetype, uint8_t MenuOffsets, const unsigned char* text_link, uint8_t cursor)
{
    5678:	a9 e0       	ldi	r26, 0x09	; 9
    567a:	b0 e0       	ldi	r27, 0x00	; 0
    567c:	e2 e4       	ldi	r30, 0x42	; 66
    567e:	fb e2       	ldi	r31, 0x2B	; 43
    5680:	0c 94 7e 41 	jmp	0x82fc	; 0x82fc <__prologue_saves__>
    5684:	18 2f       	mov	r17, r24
    5686:	4a 01       	movw	r8, r20
    5688:	39 01       	movw	r6, r18
    568a:	30 2e       	mov	r3, r16
    568c:	2e 2c       	mov	r2, r14
    568e:	a8 86       	std	Y+8, r10	; 0x08
	menu_range_t	range1;
		
	// Clear buffer before each update
	clear_buffer(buffer);
    5690:	80 e0       	ldi	r24, 0x00	; 0
    5692:	91 e0       	ldi	r25, 0x01	; 1
    5694:	69 87       	std	Y+9, r22	; 0x09
    5696:	0e 94 14 1b 	call	0x3628	; 0x3628 <clear_buffer>
	print_menu_frame(0);
    569a:	80 e0       	ldi	r24, 0x00	; 0
    569c:	0e 94 51 28 	call	0x50a2	; 0x50a2 <print_menu_frame>
    56a0:	21 2f       	mov	r18, r17
    56a2:	30 e0       	ldi	r19, 0x00	; 0
    56a4:	69 85       	ldd	r22, Y+9	; 0x09
    56a6:	86 2f       	mov	r24, r22
    56a8:	90 e0       	ldi	r25, 0x00	; 0
    56aa:	53 01       	movw	r10, r6
    56ac:	45 e0       	ldi	r20, 0x05	; 5
    56ae:	64 9f       	mul	r22, r20
    56b0:	a0 18       	sub	r10, r0
    56b2:	b1 08       	sbc	r11, r1
    56b4:	11 24       	eor	r1, r1
    56b6:	e5 e0       	ldi	r30, 0x05	; 5
    56b8:	1e 9f       	mul	r17, r30
    56ba:	a0 0c       	add	r10, r0
    56bc:	b1 1c       	adc	r11, r1
    56be:	11 24       	eor	r1, r1
    56c0:	41 2c       	mov	r4, r1
    56c2:	51 2c       	mov	r5, r1
    56c4:	e1 2c       	mov	r14, r1
    56c6:	f1 2c       	mov	r15, r1
    56c8:	c8 1a       	sub	r12, r24
    56ca:	d9 0a       	sbc	r13, r25
    56cc:	c2 0e       	add	r12, r18
    56ce:	d3 1e       	adc	r13, r19
    56d0:	28 1b       	sub	r18, r24
    56d2:	39 0b       	sbc	r19, r25
    56d4:	82 0e       	add	r8, r18
    56d6:	93 1e       	adc	r9, r19
    56d8:	c7 01       	movw	r24, r14
    56da:	8b 59       	subi	r24, 0x9B	; 155
    56dc:	98 4e       	sbci	r25, 0xE8	; 232
    56de:	9f 83       	std	Y+7, r25	; 0x07
    56e0:	8e 83       	std	Y+6, r24	; 0x06
	
	// Print each line
	for (uint8_t i = 0; i < 4; i++)
	{
		LCD_Display_Text(top+i,(const unsigned char*)Verdana8,ITEMOFFSET,(uint8_t)pgm_read_byte(&lines[i]));
    56e2:	fc 01       	movw	r30, r24
    56e4:	24 91       	lpm	r18, Z
    56e6:	30 e0       	ldi	r19, 0x00	; 0
    56e8:	4a e0       	ldi	r20, 0x0A	; 10
    56ea:	50 e0       	ldi	r21, 0x00	; 0
    56ec:	67 ef       	ldi	r22, 0xF7	; 247
    56ee:	79 e0       	ldi	r23, 0x09	; 9
    56f0:	81 2f       	mov	r24, r17
    56f2:	8e 0d       	add	r24, r14
    56f4:	0e 94 bd 1c 	call	0x397a	; 0x397a <LCD_Display_Text>

		// Handle unique or copied ranges (to reduce space)
		if (rangetype == 0)
		{
			// Use each unique entry
			memcpy_P(&range1, &menu_ranges[(top+i - start)* sizeof(range1)], sizeof(range1));
    56f8:	45 e0       	ldi	r20, 0x05	; 5
    56fa:	50 e0       	ldi	r21, 0x00	; 0
	for (uint8_t i = 0; i < 4; i++)
	{
		LCD_Display_Text(top+i,(const unsigned char*)Verdana8,ITEMOFFSET,(uint8_t)pgm_read_byte(&lines[i]));

		// Handle unique or copied ranges (to reduce space)
		if (rangetype == 0)
    56fc:	31 10       	cpse	r3, r1
    56fe:	04 c0       	rjmp	.+8      	; 0x5708 <print_menu_items+0x90>
		{
			// Use each unique entry
			memcpy_P(&range1, &menu_ranges[(top+i - start)* sizeof(range1)], sizeof(range1));
    5700:	b2 01       	movw	r22, r4
    5702:	6a 0d       	add	r22, r10
    5704:	7b 1d       	adc	r23, r11
    5706:	01 c0       	rjmp	.+2      	; 0x570a <print_menu_items+0x92>
		}
		else
		{
			// Use just the first entry in array for all 
			memcpy_P(&range1, &menu_ranges[0], sizeof(range1));
    5708:	b3 01       	movw	r22, r6
    570a:	ce 01       	movw	r24, r28
    570c:	01 96       	adiw	r24, 0x01	; 1
    570e:	0e 94 b5 41 	call	0x836a	; 0x836a <memcpy_P>
		}

		print_menu_text((values[top+i - start]), range1.style, (pgm_read_byte(&text_link[top+i - start]) + values[top+i - start]), MenuOffsets, (uint8_t)pgm_read_byte(&lines[i]));
    5712:	ee 81       	ldd	r30, Y+6	; 0x06
    5714:	ff 81       	ldd	r31, Y+7	; 0x07
    5716:	04 91       	lpm	r16, Z
    5718:	f6 01       	movw	r30, r12
    571a:	ee 0d       	add	r30, r14
    571c:	ff 1d       	adc	r31, r15
    571e:	44 91       	lpm	r20, Z
    5720:	d4 01       	movw	r26, r8
    5722:	ae 0d       	add	r26, r14
    5724:	bf 1d       	adc	r27, r15
    5726:	8c 91       	ld	r24, X
    5728:	48 0f       	add	r20, r24
    572a:	22 2d       	mov	r18, r2
    572c:	6c 81       	ldd	r22, Y+4	; 0x04
    572e:	99 27       	eor	r25, r25
    5730:	87 fd       	sbrc	r24, 7
    5732:	90 95       	com	r25
    5734:	0e 94 c7 28 	call	0x518e	; 0x518e <print_menu_text>
    5738:	ff ef       	ldi	r31, 0xFF	; 255
    573a:	ef 1a       	sub	r14, r31
    573c:	ff 0a       	sbc	r15, r31
    573e:	45 e0       	ldi	r20, 0x05	; 5
    5740:	44 0e       	add	r4, r20
    5742:	51 1c       	adc	r5, r1
	// Clear buffer before each update
	clear_buffer(buffer);
	print_menu_frame(0);
	
	// Print each line
	for (uint8_t i = 0; i < 4; i++)
    5744:	84 e0       	ldi	r24, 0x04	; 4
    5746:	e8 16       	cp	r14, r24
    5748:	f1 04       	cpc	r15, r1
    574a:	09 f0       	breq	.+2      	; 0x574e <print_menu_items+0xd6>
    574c:	c5 cf       	rjmp	.-118    	; 0x56d8 <print_menu_items+0x60>
		}

		print_menu_text((values[top+i - start]), range1.style, (pgm_read_byte(&text_link[top+i - start]) + values[top+i - start]), MenuOffsets, (uint8_t)pgm_read_byte(&lines[i]));
	}

	print_cursor(cursor);	// Cursor
    574e:	88 85       	ldd	r24, Y+8	; 0x08
    5750:	0e 94 32 2b 	call	0x5664	; 0x5664 <print_cursor>
	write_buffer(buffer,1);
    5754:	61 e0       	ldi	r22, 0x01	; 1
    5756:	80 e0       	ldi	r24, 0x00	; 0
    5758:	91 e0       	ldi	r25, 0x01	; 1
    575a:	0e 94 e6 1a 	call	0x35cc	; 0x35cc <write_buffer>
	poll_buttons(true);
    575e:	81 e0       	ldi	r24, 0x01	; 1
    5760:	0e 94 e9 28 	call	0x51d2	; 0x51d2 <poll_buttons>
}
    5764:	29 96       	adiw	r28, 0x09	; 9
    5766:	e2 e1       	ldi	r30, 0x12	; 18
    5768:	0c 94 9a 41 	jmp	0x8334	; 0x8334 <__epilogue_restores__>

0000576c <menu_flight>:
//************************************************************
// Main menu-specific setup
//************************************************************

void menu_flight(uint8_t mode)
{
    576c:	6f 92       	push	r6
    576e:	7f 92       	push	r7
    5770:	8f 92       	push	r8
    5772:	af 92       	push	r10
    5774:	cf 92       	push	r12
    5776:	df 92       	push	r13
    5778:	ef 92       	push	r14
    577a:	ff 92       	push	r15
    577c:	0f 93       	push	r16
    577e:	1f 93       	push	r17
    5780:	cf 93       	push	r28
    5782:	df 93       	push	r29
    5784:	00 d0       	rcall	.+0      	; 0x5786 <menu_flight+0x1a>
    5786:	00 d0       	rcall	.+0      	; 0x5788 <menu_flight+0x1c>
    5788:	1f 92       	push	r1
    578a:	cd b7       	in	r28, 0x3d	; 61
    578c:	de b7       	in	r29, 0x3e	; 62
	int8_t *value_ptr;
	menu_range_t range;
	uint8_t text_link;

	// If sub-menu item has changed, reset sub-menu positions
	if (menu_flag)
    578e:	90 91 97 07 	lds	r25, 0x0797
    5792:	99 23       	and	r25, r25
    5794:	29 f0       	breq	.+10     	; 0x57a0 <menu_flight+0x34>
	{
		sub_top = FLIGHTSTART;
    5796:	9a ea       	ldi	r25, 0xAA	; 170
    5798:	90 93 29 05 	sts	0x0529, r25
		menu_flag = 0;
    579c:	10 92 97 07 	sts	0x0797, r1
	}

	while(button != BACK)
	{
		value_ptr = &Config.FlightMode[mode].Roll_P_mult;
    57a0:	92 e1       	ldi	r25, 0x12	; 18
    57a2:	89 9f       	mul	r24, r25
    57a4:	30 01       	movw	r6, r0
    57a6:	11 24       	eor	r1, r1
    57a8:	c3 01       	movw	r24, r6
    57aa:	89 52       	subi	r24, 0x29	; 41
    57ac:	9a 4f       	sbci	r25, 0xFA	; 250
    57ae:	3c 01       	movw	r6, r24
	{
		sub_top = FLIGHTSTART;
		menu_flag = 0;
	}

	while(button != BACK)
    57b0:	80 91 95 07 	lds	r24, 0x0795
    57b4:	80 37       	cpi	r24, 0x70	; 112
    57b6:	09 f4       	brne	.+2      	; 0x57ba <menu_flight+0x4e>
    57b8:	59 c0       	rjmp	.+178    	; 0x586c <menu_flight+0x100>
	{
		value_ptr = &Config.FlightMode[mode].Roll_P_mult;

		// Print menu
		print_menu_items(sub_top, FLIGHTSTART, value_ptr, (const unsigned char*)flight_menu_ranges, 0, FLIGHTOFFSET, (const unsigned char*)FlightMenuText, cursor);
    57ba:	a0 90 04 05 	lds	r10, 0x0504
    57be:	83 ec       	ldi	r24, 0xC3	; 195
    57c0:	c8 2e       	mov	r12, r24
    57c2:	87 e1       	ldi	r24, 0x17	; 23
    57c4:	d8 2e       	mov	r13, r24
    57c6:	9f e4       	ldi	r25, 0x4F	; 79
    57c8:	e9 2e       	mov	r14, r25
    57ca:	00 e0       	ldi	r16, 0x00	; 0
    57cc:	29 e6       	ldi	r18, 0x69	; 105
    57ce:	37 e1       	ldi	r19, 0x17	; 23
    57d0:	a3 01       	movw	r20, r6
    57d2:	6a ea       	ldi	r22, 0xAA	; 170
    57d4:	80 91 29 05 	lds	r24, 0x0529
    57d8:	0e 94 3c 2b 	call	0x5678	; 0x5678 <print_menu_items>

		// Handle menu changes
		update_menu(FLIGHTITEMS, FLIGHTSTART, 0, button, &cursor, &sub_top, &menu_temp);
    57dc:	26 e2       	ldi	r18, 0x26	; 38
    57de:	c2 2e       	mov	r12, r18
    57e0:	25 e0       	ldi	r18, 0x05	; 5
    57e2:	d2 2e       	mov	r13, r18
    57e4:	39 e2       	ldi	r19, 0x29	; 41
    57e6:	e3 2e       	mov	r14, r19
    57e8:	35 e0       	ldi	r19, 0x05	; 5
    57ea:	f3 2e       	mov	r15, r19
    57ec:	04 e0       	ldi	r16, 0x04	; 4
    57ee:	15 e0       	ldi	r17, 0x05	; 5
    57f0:	20 91 95 07 	lds	r18, 0x0795
    57f4:	40 e0       	ldi	r20, 0x00	; 0
    57f6:	6a ea       	ldi	r22, 0xAA	; 170
    57f8:	82 e1       	ldi	r24, 0x12	; 18
    57fa:	0e 94 94 2a 	call	0x5528	; 0x5528 <update_menu>
		range = get_menu_range ((const unsigned char*)flight_menu_ranges, (menu_temp - FLIGHTSTART));
    57fe:	60 91 26 05 	lds	r22, 0x0526
    5802:	6a 5a       	subi	r22, 0xAA	; 170
    5804:	89 e6       	ldi	r24, 0x69	; 105
    5806:	97 e1       	ldi	r25, 0x17	; 23
    5808:	0e 94 a0 28 	call	0x5140	; 0x5140 <get_menu_range>
    580c:	29 83       	std	Y+1, r18	; 0x01
    580e:	3a 83       	std	Y+2, r19	; 0x02
    5810:	4b 83       	std	Y+3, r20	; 0x03
    5812:	5c 83       	std	Y+4, r21	; 0x04
    5814:	6d 83       	std	Y+5, r22	; 0x05

		if (button == ENTER)
    5816:	80 91 95 07 	lds	r24, 0x0795
    581a:	80 3e       	cpi	r24, 0xE0	; 224
    581c:	d9 f4       	brne	.+54     	; 0x5854 <menu_flight+0xe8>
		{
			text_link = pgm_read_byte(&FlightMenuText[menu_temp - FLIGHTSTART]);
    581e:	80 91 26 05 	lds	r24, 0x0526
    5822:	e8 2f       	mov	r30, r24
    5824:	f0 e0       	ldi	r31, 0x00	; 0
    5826:	e7 5e       	subi	r30, 0xE7	; 231
    5828:	f8 4e       	sbci	r31, 0xE8	; 232
    582a:	a4 90       	lpm	r10, Z
			do_menu_item(menu_temp, value_ptr + (menu_temp - FLIGHTSTART), 1, range, 0, text_link, false, 0);
    582c:	68 2f       	mov	r22, r24
    582e:	70 e0       	ldi	r23, 0x00	; 0
    5830:	6a 5a       	subi	r22, 0xAA	; 170
    5832:	71 09       	sbc	r23, r1
    5834:	66 0d       	add	r22, r6
    5836:	77 1d       	adc	r23, r7
    5838:	1f 92       	push	r1
    583a:	1f 92       	push	r1
    583c:	81 2c       	mov	r8, r1
    583e:	c1 2c       	mov	r12, r1
    5840:	e9 80       	ldd	r14, Y+1	; 0x01
    5842:	fa 80       	ldd	r15, Y+2	; 0x02
    5844:	0b 81       	ldd	r16, Y+3	; 0x03
    5846:	1c 81       	ldd	r17, Y+4	; 0x04
    5848:	2d 81       	ldd	r18, Y+5	; 0x05
    584a:	41 e0       	ldi	r20, 0x01	; 1
    584c:	0e 94 1e 29 	call	0x523c	; 0x523c <do_menu_item>
    5850:	0f 90       	pop	r0
    5852:	0f 90       	pop	r0
		}

		// Update limits when exiting
		if (button == ENTER)
    5854:	80 91 95 07 	lds	r24, 0x0795
    5858:	80 3e       	cpi	r24, 0xE0	; 224
    585a:	09 f0       	breq	.+2      	; 0x585e <menu_flight+0xf2>
    585c:	a9 cf       	rjmp	.-174    	; 0x57b0 <menu_flight+0x44>
		{
			UpdateLimits();			 // Update I-term limits and triggers based on percentages
    585e:	0e 94 c2 30 	call	0x6184	; 0x6184 <UpdateLimits>
			Save_Config_to_EEPROM(); // Save value and return
    5862:	0e 94 8c 16 	call	0x2d18	; 0x2d18 <Save_Config_to_EEPROM>
			Wait_BUTTON4();			 // Wait for user's finger off the button
    5866:	0e 94 fe 2c 	call	0x59fc	; 0x59fc <Wait_BUTTON4>
    586a:	a2 cf       	rjmp	.-188    	; 0x57b0 <menu_flight+0x44>
		}
	}
}
    586c:	0f 90       	pop	r0
    586e:	0f 90       	pop	r0
    5870:	0f 90       	pop	r0
    5872:	0f 90       	pop	r0
    5874:	0f 90       	pop	r0
    5876:	df 91       	pop	r29
    5878:	cf 91       	pop	r28
    587a:	1f 91       	pop	r17
    587c:	0f 91       	pop	r16
    587e:	ff 90       	pop	r15
    5880:	ef 90       	pop	r14
    5882:	df 90       	pop	r13
    5884:	cf 90       	pop	r12
    5886:	af 90       	pop	r10
    5888:	8f 90       	pop	r8
    588a:	7f 90       	pop	r7
    588c:	6f 90       	pop	r6
    588e:	08 95       	ret

00005890 <do_main_menu_item>:
	}
}

void do_main_menu_item(uint8_t menuitem)
{
	switch(menuitem) 
    5890:	90 e0       	ldi	r25, 0x00	; 0
    5892:	fc 01       	movw	r30, r24
    5894:	ed 54       	subi	r30, 0x4D	; 77
    5896:	f1 09       	sbc	r31, r1
    5898:	e3 31       	cpi	r30, 0x13	; 19
    589a:	f1 05       	cpc	r31, r1
    589c:	a8 f5       	brcc	.+106    	; 0x5908 <do_main_menu_item+0x78>
    589e:	e2 5c       	subi	r30, 0xC2	; 194
    58a0:	ff 4f       	sbci	r31, 0xFF	; 255
    58a2:	0c 94 47 41 	jmp	0x828e	; 0x828e <__tablejump2__>
	{
		case MAINSTART:
			menu_rc_setup(2); 		// 1.General
    58a6:	82 e0       	ldi	r24, 0x02	; 2
    58a8:	01 c0       	rjmp	.+2      	; 0x58ac <do_main_menu_item+0x1c>
			break;
		case MAINSTART+1:
			menu_rc_setup(1); 		// 2.RX setup	
    58aa:	81 e0       	ldi	r24, 0x01	; 1
    58ac:	0e 94 03 30 	call	0x6006	; 0x6006 <menu_rc_setup>
			break;
    58b0:	08 95       	ret
		case MAINSTART+2:
			Display_rcinput();		// 3.RX inputs
    58b2:	0e 94 54 11 	call	0x22a8	; 0x22a8 <Display_rcinput>
			break;
    58b6:	08 95       	ret
		case MAINSTART+3:
			Display_sticks(); 		// 4.Stick polarity	
    58b8:	0e 94 d4 14 	call	0x29a8	; 0x29a8 <Display_sticks>
			break;
    58bc:	08 95       	ret
		case MAINSTART+4:
			Display_sensors();		// 5.Sensor calibration
    58be:	0e 94 48 12 	call	0x2490	; 0x2490 <Display_sensors>
			break;
    58c2:	08 95       	ret
		case MAINSTART+5:
			Display_balance();		// 6.Level meter
    58c4:	0e 94 b0 10 	call	0x2160	; 0x2160 <Display_balance>
			break;
    58c8:	08 95       	ret
		case MAINSTART+6:
			menu_flight(0);			// 7.Flight profile 1
    58ca:	80 e0       	ldi	r24, 0x00	; 0
    58cc:	01 c0       	rjmp	.+2      	; 0x58d0 <do_main_menu_item+0x40>
			break;
		case MAINSTART+7:
			menu_flight(1); 		// 8.Flight profile 2
    58ce:	81 e0       	ldi	r24, 0x01	; 1
    58d0:	0e 94 b6 2b 	call	0x576c	; 0x576c <menu_flight>
			break;
    58d4:	08 95       	ret
		case MAINSTART+8:
			menu_mixer(0);			// 9.OUT1 Mixer
    58d6:	80 e0       	ldi	r24, 0x00	; 0
    58d8:	0d c0       	rjmp	.+26     	; 0x58f4 <do_main_menu_item+0x64>
			break;
		case MAINSTART+9:
			menu_mixer(1);			// 10.OUT2 Mixer
    58da:	81 e0       	ldi	r24, 0x01	; 1
    58dc:	0b c0       	rjmp	.+22     	; 0x58f4 <do_main_menu_item+0x64>
			break;
		case MAINSTART+10:
			menu_mixer(2);			// 11.OUT3 Mixer
    58de:	82 e0       	ldi	r24, 0x02	; 2
    58e0:	09 c0       	rjmp	.+18     	; 0x58f4 <do_main_menu_item+0x64>
			break;
		case MAINSTART+11:
			menu_mixer(3);			// 12.OUT4 Mixer
    58e2:	83 e0       	ldi	r24, 0x03	; 3
    58e4:	07 c0       	rjmp	.+14     	; 0x58f4 <do_main_menu_item+0x64>
			break;
		case MAINSTART+12:
			menu_mixer(4);			// 13.OUT5 Mixer
    58e6:	84 e0       	ldi	r24, 0x04	; 4
    58e8:	05 c0       	rjmp	.+10     	; 0x58f4 <do_main_menu_item+0x64>
			break;
		case MAINSTART+13:
			menu_mixer(5);			// 14.OUT6 Mixer
    58ea:	85 e0       	ldi	r24, 0x05	; 5
    58ec:	03 c0       	rjmp	.+6      	; 0x58f4 <do_main_menu_item+0x64>
			break;
		case MAINSTART+14:
			menu_mixer(6);			// 15.OUT7 Mixer
    58ee:	86 e0       	ldi	r24, 0x06	; 6
    58f0:	01 c0       	rjmp	.+2      	; 0x58f4 <do_main_menu_item+0x64>
			break;
		case MAINSTART+15:
			menu_mixer(7);			// 16.OUT8 Mixer
    58f2:	87 e0       	ldi	r24, 0x07	; 7
    58f4:	0e 94 0b 2d 	call	0x5a16	; 0x5a16 <menu_mixer>
			break;
    58f8:	08 95       	ret
		case MAINSTART+16:
			menu_servo_setup(1);	// 17.Servo direction
    58fa:	81 e0       	ldi	r24, 0x01	; 1
    58fc:	03 c0       	rjmp	.+6      	; 0x5904 <do_main_menu_item+0x74>
			break;
		case MAINSTART+17:
			menu_servo_setup(2); 	// 18.Neg. Servo trvl. (%)
    58fe:	82 e0       	ldi	r24, 0x02	; 2
    5900:	01 c0       	rjmp	.+2      	; 0x5904 <do_main_menu_item+0x74>
			break;
		case MAINSTART+18:
			menu_servo_setup(3); 	// 19.Pos. Servo trvl. (%)
    5902:	83 e0       	ldi	r24, 0x03	; 3
    5904:	0e 94 42 2f 	call	0x5e84	; 0x5e84 <menu_servo_setup>
    5908:	08 95       	ret

0000590a <Wait_BUTTON1>:
	} // Switch
}

void Wait_BUTTON1(void)
{
	while(BUTTON1 == 0)
    590a:	1f 99       	sbic	0x03, 7	; 3
    590c:	0a c0       	rjmp	.+20     	; 0x5922 <Wait_BUTTON1+0x18>
    590e:	2f e3       	ldi	r18, 0x3F	; 63
    5910:	8d e0       	ldi	r24, 0x0D	; 13
    5912:	93 e0       	ldi	r25, 0x03	; 3
    5914:	21 50       	subi	r18, 0x01	; 1
    5916:	80 40       	sbci	r24, 0x00	; 0
    5918:	90 40       	sbci	r25, 0x00	; 0
    591a:	e1 f7       	brne	.-8      	; 0x5914 <Wait_BUTTON1+0xa>
    591c:	00 c0       	rjmp	.+0      	; 0x591e <Wait_BUTTON1+0x14>
    591e:	00 00       	nop
    5920:	f4 cf       	rjmp	.-24     	; 0x590a <Wait_BUTTON1>
	{
		_delay_ms(50);
	}
}
    5922:	08 95       	ret

00005924 <menu_main>:
uint8_t main_top = MAINSTART;
uint8_t sub_top = 0;
uint8_t menu_flag;

void menu_main(void)
{
    5924:	a0 e0       	ldi	r26, 0x00	; 0
    5926:	b0 e0       	ldi	r27, 0x00	; 0
    5928:	e8 e9       	ldi	r30, 0x98	; 152
    592a:	fc e2       	ldi	r31, 0x2C	; 44
    592c:	0c 94 86 41 	jmp	0x830c	; 0x830c <__prologue_saves__+0x10>
	static uint8_t main_cursor = LINE0;	// These are now static so as to remember the main menu position
	static uint8_t main_temp = 0;
	static uint8_t old_menu = 0;

	button = NONE;
    5930:	80 ef       	ldi	r24, 0xF0	; 240
    5932:	80 93 95 07 	sts	0x0795, r24

	// Wait until user's finger is off button 1
	Wait_BUTTON1();
    5936:	0e 94 85 2c 	call	0x590a	; 0x590a <Wait_BUTTON1>

		// If main menu item has changed, reset sub-menu positions
		// and flag to sub-menus that positions need to be reset
		if (main_temp != old_menu)
		{
			cursor = LINE0;
    593a:	23 e0       	ldi	r18, 0x03	; 3
    593c:	b2 2e       	mov	r11, r18

		// If ENTER pressed, jump to menu 
		if (button == ENTER)
		{
			do_main_menu_item(main_temp);
			button = NONE;
    593e:	30 ef       	ldi	r19, 0xF0	; 240
    5940:	a3 2e       	mov	r10, r19
	button = NONE;

	// Wait until user's finger is off button 1
	Wait_BUTTON1();
	
	while(button != BACK)
    5942:	80 91 95 07 	lds	r24, 0x0795
    5946:	80 37       	cpi	r24, 0x70	; 112
    5948:	09 f4       	brne	.+2      	; 0x594c <menu_main+0x28>
    594a:	53 c0       	rjmp	.+166    	; 0x59f2 <menu_main+0xce>
	{
		// Clear buffer before each update
		clear_buffer(buffer);	
    594c:	80 e0       	ldi	r24, 0x00	; 0
    594e:	91 e0       	ldi	r25, 0x01	; 1
    5950:	0e 94 14 1b 	call	0x3628	; 0x3628 <clear_buffer>

		// Print menu
		print_menu_frame(0);													// Frame
    5954:	80 e0       	ldi	r24, 0x00	; 0
    5956:	0e 94 51 28 	call	0x50a2	; 0x50a2 <print_menu_frame>
    595a:	c0 e0       	ldi	r28, 0x00	; 0
    595c:	d0 e0       	ldi	r29, 0x00	; 0
    595e:	fe 01       	movw	r30, r28
    5960:	eb 59       	subi	r30, 0x9B	; 155
    5962:	f8 4e       	sbci	r31, 0xE8	; 232
		
		for (uint8_t i = 0; i < 4; i++)
		{
			LCD_Display_Text(main_top+i,(const unsigned char*)Verdana8,ITEMOFFSET,(uint8_t)pgm_read_byte(&lines[i]));	// Lines
    5964:	24 91       	lpm	r18, Z
    5966:	30 e0       	ldi	r19, 0x00	; 0
    5968:	80 91 06 05 	lds	r24, 0x0506
    596c:	4a e0       	ldi	r20, 0x0A	; 10
    596e:	50 e0       	ldi	r21, 0x00	; 0
    5970:	67 ef       	ldi	r22, 0xF7	; 247
    5972:	79 e0       	ldi	r23, 0x09	; 9
    5974:	8c 0f       	add	r24, r28
    5976:	0e 94 bd 1c 	call	0x397a	; 0x397a <LCD_Display_Text>
    597a:	21 96       	adiw	r28, 0x01	; 1
		clear_buffer(buffer);	

		// Print menu
		print_menu_frame(0);													// Frame
		
		for (uint8_t i = 0; i < 4; i++)
    597c:	c4 30       	cpi	r28, 0x04	; 4
    597e:	d1 05       	cpc	r29, r1
    5980:	71 f7       	brne	.-36     	; 0x595e <menu_main+0x3a>
		{
			LCD_Display_Text(main_top+i,(const unsigned char*)Verdana8,ITEMOFFSET,(uint8_t)pgm_read_byte(&lines[i]));	// Lines
		}

		print_cursor(main_cursor);												// Cursor
    5982:	80 91 05 05 	lds	r24, 0x0505
    5986:	0e 94 32 2b 	call	0x5664	; 0x5664 <print_cursor>
		write_buffer(buffer,1);
    598a:	61 e0       	ldi	r22, 0x01	; 1
    598c:	80 e0       	ldi	r24, 0x00	; 0
    598e:	91 e0       	ldi	r25, 0x01	; 1
    5990:	0e 94 e6 1a 	call	0x35cc	; 0x35cc <write_buffer>

		// Poll buttons when idle
		poll_buttons(true);
    5994:	81 e0       	ldi	r24, 0x01	; 1
    5996:	0e 94 e9 28 	call	0x51d2	; 0x51d2 <poll_buttons>

		// Handle menu changes
		update_menu(MAINITEMS, MAINSTART, 0, button, &main_cursor, &main_top, &main_temp);
    599a:	88 e2       	ldi	r24, 0x28	; 40
    599c:	c8 2e       	mov	r12, r24
    599e:	85 e0       	ldi	r24, 0x05	; 5
    59a0:	d8 2e       	mov	r13, r24
    59a2:	96 e0       	ldi	r25, 0x06	; 6
    59a4:	e9 2e       	mov	r14, r25
    59a6:	95 e0       	ldi	r25, 0x05	; 5
    59a8:	f9 2e       	mov	r15, r25
    59aa:	05 e0       	ldi	r16, 0x05	; 5
    59ac:	15 e0       	ldi	r17, 0x05	; 5
    59ae:	20 91 95 07 	lds	r18, 0x0795
    59b2:	40 e0       	ldi	r20, 0x00	; 0
    59b4:	6d e4       	ldi	r22, 0x4D	; 77
    59b6:	83 e1       	ldi	r24, 0x13	; 19
    59b8:	0e 94 94 2a 	call	0x5528	; 0x5528 <update_menu>

		// If main menu item has changed, reset sub-menu positions
		// and flag to sub-menus that positions need to be reset
		if (main_temp != old_menu)
    59bc:	80 91 28 05 	lds	r24, 0x0528
    59c0:	90 91 27 05 	lds	r25, 0x0527
    59c4:	89 17       	cp	r24, r25
    59c6:	49 f0       	breq	.+18     	; 0x59da <menu_main+0xb6>
		{
			cursor = LINE0;
    59c8:	b0 92 04 05 	sts	0x0504, r11
			menu_temp = 0;
    59cc:	10 92 26 05 	sts	0x0526, r1
			old_menu = main_temp;
    59d0:	80 93 27 05 	sts	0x0527, r24
			menu_flag = 1;
    59d4:	91 e0       	ldi	r25, 0x01	; 1
    59d6:	90 93 97 07 	sts	0x0797, r25
		}

		// If ENTER pressed, jump to menu 
		if (button == ENTER)
    59da:	90 91 95 07 	lds	r25, 0x0795
    59de:	90 3e       	cpi	r25, 0xE0	; 224
    59e0:	09 f0       	breq	.+2      	; 0x59e4 <menu_main+0xc0>
    59e2:	af cf       	rjmp	.-162    	; 0x5942 <menu_main+0x1e>
		{
			do_main_menu_item(main_temp);
    59e4:	0e 94 48 2c 	call	0x5890	; 0x5890 <do_main_menu_item>
			button = NONE;
    59e8:	a0 92 95 07 	sts	0x0795, r10

			// Wait until user's finger is off button 1
			Wait_BUTTON1();
    59ec:	0e 94 85 2c 	call	0x590a	; 0x590a <Wait_BUTTON1>
    59f0:	a8 cf       	rjmp	.-176    	; 0x5942 <menu_main+0x1e>
		}
	}
}
    59f2:	cd b7       	in	r28, 0x3d	; 61
    59f4:	de b7       	in	r29, 0x3e	; 62
    59f6:	ea e0       	ldi	r30, 0x0A	; 10
    59f8:	0c 94 a2 41 	jmp	0x8344	; 0x8344 <__epilogue_restores__+0x10>

000059fc <Wait_BUTTON4>:
	}
}

void Wait_BUTTON4(void)
{
	while(BUTTON4 == 0)
    59fc:	1c 99       	sbic	0x03, 4	; 3
    59fe:	0a c0       	rjmp	.+20     	; 0x5a14 <Wait_BUTTON4+0x18>
    5a00:	2f e3       	ldi	r18, 0x3F	; 63
    5a02:	8d e0       	ldi	r24, 0x0D	; 13
    5a04:	93 e0       	ldi	r25, 0x03	; 3
    5a06:	21 50       	subi	r18, 0x01	; 1
    5a08:	80 40       	sbci	r24, 0x00	; 0
    5a0a:	90 40       	sbci	r25, 0x00	; 0
    5a0c:	e1 f7       	brne	.-8      	; 0x5a06 <Wait_BUTTON4+0xa>
    5a0e:	00 c0       	rjmp	.+0      	; 0x5a10 <Wait_BUTTON4+0x14>
    5a10:	00 00       	nop
    5a12:	f4 cf       	rjmp	.-24     	; 0x59fc <Wait_BUTTON4>
	{
		_delay_ms(50);
	}
    5a14:	08 95       	ret

00005a16 <menu_mixer>:
//************************************************************
// Main menu-specific setup
//************************************************************

void menu_mixer(uint8_t i)
{
    5a16:	2f 92       	push	r2
    5a18:	3f 92       	push	r3
    5a1a:	4f 92       	push	r4
    5a1c:	5f 92       	push	r5
    5a1e:	6f 92       	push	r6
    5a20:	7f 92       	push	r7
    5a22:	8f 92       	push	r8
    5a24:	af 92       	push	r10
    5a26:	cf 92       	push	r12
    5a28:	df 92       	push	r13
    5a2a:	ef 92       	push	r14
    5a2c:	ff 92       	push	r15
    5a2e:	0f 93       	push	r16
    5a30:	1f 93       	push	r17
    5a32:	cf 93       	push	r28
    5a34:	df 93       	push	r29
    5a36:	cd b7       	in	r28, 0x3d	; 61
    5a38:	de b7       	in	r29, 0x3e	; 62
    5a3a:	af 97       	sbiw	r28, 0x2f	; 47
    5a3c:	0f b6       	in	r0, 0x3f	; 63
    5a3e:	f8 94       	cli
    5a40:	de bf       	out	0x3e, r29	; 62
    5a42:	0f be       	out	0x3f, r0	; 63
    5a44:	cd bf       	out	0x3d, r28	; 61
	int8_t values[MIXERITEMS];
	menu_range_t range;
	uint8_t text_link = 0;

	// If submenu item has changed, reset submenu positions
	if (menu_flag)
    5a46:	90 91 97 07 	lds	r25, 0x0797
    5a4a:	99 23       	and	r25, r25
    5a4c:	29 f0       	breq	.+10     	; 0x5a58 <menu_mixer+0x42>
	{
		sub_top = MIXERSTART;
    5a4e:	9e eb       	ldi	r25, 0xBE	; 190
    5a50:	90 93 29 05 	sts	0x0529, r25
		menu_flag = 0;
    5a54:	10 92 97 07 	sts	0x0797, r1
	while(button != BACK)
	{
		value_ptr = &values[0];

		// Expand sensor bit values into values array
		if ((Config.Channel[i].P1_sensors & (1 << MotorMarker)) != 0)
    5a58:	2d e1       	ldi	r18, 0x1D	; 29
    5a5a:	82 9f       	mul	r24, r18
    5a5c:	c0 01       	movw	r24, r0
    5a5e:	11 24       	eor	r1, r1
    5a60:	fc 01       	movw	r30, r24
    5a62:	eb 55       	subi	r30, 0x5B	; 91
    5a64:	fa 4f       	sbci	r31, 0xFA	; 250
    5a66:	fb a7       	std	Y+43, r31	; 0x2b
    5a68:	ea a7       	std	Y+42, r30	; 0x2a
    5a6a:	1f 01       	movw	r2, r30
    5a6c:	f3 ea       	ldi	r31, 0xA3	; 163
    5a6e:	2f 0e       	add	r2, r31
    5a70:	31 1c       	adc	r3, r1
		}

		// P1 roll gyro
		if ((Config.Channel[i].P1_sensors & (1 << RollGyro)) != 0)
		{
			if ((Config.Channel[i].P1_scale & (1 << RollScale)) != 0)
    5a72:	4a a4       	ldd	r4, Y+42	; 0x2a
    5a74:	5b a4       	ldd	r5, Y+43	; 0x2b
    5a76:	25 ea       	ldi	r18, 0xA5	; 165
    5a78:	42 0e       	add	r4, r18
    5a7a:	51 1c       	adc	r5, r1
		{
			values[25] = OFF;
		}

		// Assemble remaining byte data for P1n_position to P2_rudder_volume into array
		memcpy(&values[1],&Config.Channel[i].P1_offset, 13);
    5a7c:	fc 01       	movw	r30, r24
    5a7e:	e5 5c       	subi	r30, 0xC5	; 197
    5a80:	f9 4f       	sbci	r31, 0xF9	; 249
    5a82:	fd a7       	std	Y+45, r31	; 0x2d
    5a84:	ec a7       	std	Y+44, r30	; 0x2c
		// Assemble remaining byte data for P1_source_a to P2_source_b_volume into array
		memcpy(&values[26],&Config.Channel[i].P1_source_a, 8);
    5a86:	9c 01       	movw	r18, r24
    5a88:	24 5b       	subi	r18, 0xB4	; 180
    5a8a:	39 4f       	sbci	r19, 0xF9	; 249
    5a8c:	3f a7       	std	Y+47, r19	; 0x2f
    5a8e:	2e a7       	std	Y+46, r18	; 0x2e
		{
			values[14] = OFF;
		}

		// P2 roll gyro
		if ((Config.Channel[i].P2_sensors & (1 << RollGyro)) != 0)
    5a90:	2a a5       	ldd	r18, Y+42	; 0x2a
    5a92:	3b a5       	ldd	r19, Y+43	; 0x2b
    5a94:	2c 55       	subi	r18, 0x5C	; 92
    5a96:	3f 4f       	sbci	r19, 0xFF	; 255
    5a98:	39 a7       	std	Y+41, r19	; 0x29
    5a9a:	28 a7       	std	Y+40, r18	; 0x28
		{
			if ((Config.Channel[i].P2_scale & (1 << RollScale)) != 0)
    5a9c:	6a a4       	ldd	r6, Y+42	; 0x2a
    5a9e:	7b a4       	ldd	r7, Y+43	; 0x2b
    5aa0:	36 ea       	ldi	r19, 0xA6	; 166
    5aa2:	63 0e       	add	r6, r19
    5aa4:	71 1c       	adc	r7, r1
	{
		sub_top = MIXERSTART;
		menu_flag = 0;
	}

	while(button != BACK)
    5aa6:	80 91 95 07 	lds	r24, 0x0795
    5aaa:	80 37       	cpi	r24, 0x70	; 112
    5aac:	09 f4       	brne	.+2      	; 0x5ab0 <menu_mixer+0x9a>
    5aae:	d3 c1       	rjmp	.+934    	; 0x5e56 <menu_mixer+0x440>
	{
		value_ptr = &values[0];

		// Expand sensor bit values into values array
		if ((Config.Channel[i].P1_sensors & (1 << MotorMarker)) != 0)
    5ab0:	f1 01       	movw	r30, r2
    5ab2:	80 81       	ld	r24, Z
    5ab4:	86 ff       	sbrs	r24, 6
    5ab6:	03 c0       	rjmp	.+6      	; 0x5abe <menu_mixer+0xa8>
		{
			values[0] = ON;
    5ab8:	91 e0       	ldi	r25, 0x01	; 1
    5aba:	99 83       	std	Y+1, r25	; 0x01
    5abc:	01 c0       	rjmp	.+2      	; 0x5ac0 <menu_mixer+0xaa>
		}
		else
		{
			values[0] = OFF;
    5abe:	19 82       	std	Y+1, r1	; 0x01
		}

		// P1 roll gyro
		if ((Config.Channel[i].P1_sensors & (1 << RollGyro)) != 0)
    5ac0:	80 ff       	sbrs	r24, 0
    5ac2:	09 c0       	rjmp	.+18     	; 0x5ad6 <menu_mixer+0xc0>
		{
			if ((Config.Channel[i].P1_scale & (1 << RollScale)) != 0)
    5ac4:	f2 01       	movw	r30, r4
    5ac6:	90 81       	ld	r25, Z
    5ac8:	90 ff       	sbrs	r25, 0
    5aca:	02 c0       	rjmp	.+4      	; 0x5ad0 <menu_mixer+0xba>
			{	
				values[14] = SCALE;
    5acc:	92 e0       	ldi	r25, 0x02	; 2
    5ace:	01 c0       	rjmp	.+2      	; 0x5ad2 <menu_mixer+0xbc>
			}
			else
			{
				values[14] = ON;
    5ad0:	91 e0       	ldi	r25, 0x01	; 1
    5ad2:	9f 87       	std	Y+15, r25	; 0x0f
    5ad4:	01 c0       	rjmp	.+2      	; 0x5ad8 <menu_mixer+0xc2>
			}
		}
		else
		{
			values[14] = OFF;
    5ad6:	1f 86       	std	Y+15, r1	; 0x0f
		}

		// P2 roll gyro
		if ((Config.Channel[i].P2_sensors & (1 << RollGyro)) != 0)
    5ad8:	e8 a5       	ldd	r30, Y+40	; 0x28
    5ada:	f9 a5       	ldd	r31, Y+41	; 0x29
    5adc:	90 81       	ld	r25, Z
    5ade:	90 ff       	sbrs	r25, 0
    5ae0:	09 c0       	rjmp	.+18     	; 0x5af4 <menu_mixer+0xde>
		{
			if ((Config.Channel[i].P2_scale & (1 << RollScale)) != 0)
    5ae2:	f3 01       	movw	r30, r6
    5ae4:	20 81       	ld	r18, Z
    5ae6:	20 ff       	sbrs	r18, 0
    5ae8:	02 c0       	rjmp	.+4      	; 0x5aee <menu_mixer+0xd8>
			{	
				values[15] = SCALE;
    5aea:	22 e0       	ldi	r18, 0x02	; 2
    5aec:	01 c0       	rjmp	.+2      	; 0x5af0 <menu_mixer+0xda>
			}
			else
			{
				values[15] = ON;
    5aee:	21 e0       	ldi	r18, 0x01	; 1
    5af0:	28 8b       	std	Y+16, r18	; 0x10
    5af2:	01 c0       	rjmp	.+2      	; 0x5af6 <menu_mixer+0xe0>
			}
		}
		else
		{
			values[15] = OFF;
    5af4:	18 8a       	std	Y+16, r1	; 0x10
		}

		// P1 pitch gyro
		if ((Config.Channel[i].P1_sensors & (1 << PitchGyro)) != 0)
    5af6:	81 ff       	sbrs	r24, 1
    5af8:	09 c0       	rjmp	.+18     	; 0x5b0c <menu_mixer+0xf6>
		{
			if ((Config.Channel[i].P1_scale & (1 << PitchScale)) != 0)
    5afa:	f2 01       	movw	r30, r4
    5afc:	20 81       	ld	r18, Z
    5afe:	21 ff       	sbrs	r18, 1
    5b00:	02 c0       	rjmp	.+4      	; 0x5b06 <menu_mixer+0xf0>
			{	
				values[16] = SCALE;
    5b02:	22 e0       	ldi	r18, 0x02	; 2
    5b04:	01 c0       	rjmp	.+2      	; 0x5b08 <menu_mixer+0xf2>
			}
			else
			{
				values[16] = ON;
    5b06:	21 e0       	ldi	r18, 0x01	; 1
    5b08:	29 8b       	std	Y+17, r18	; 0x11
    5b0a:	01 c0       	rjmp	.+2      	; 0x5b0e <menu_mixer+0xf8>
			}
		}
		else
		{
			values[16] = OFF;
    5b0c:	19 8a       	std	Y+17, r1	; 0x11
		}

		// P2 pitch gyro
		if ((Config.Channel[i].P2_sensors & (1 << PitchGyro)) != 0)
    5b0e:	91 ff       	sbrs	r25, 1
    5b10:	09 c0       	rjmp	.+18     	; 0x5b24 <menu_mixer+0x10e>
		{
			if ((Config.Channel[i].P2_scale & (1 << PitchScale)) != 0)
    5b12:	f3 01       	movw	r30, r6
    5b14:	20 81       	ld	r18, Z
    5b16:	21 ff       	sbrs	r18, 1
    5b18:	02 c0       	rjmp	.+4      	; 0x5b1e <menu_mixer+0x108>
			{	
				values[17] = SCALE;
    5b1a:	22 e0       	ldi	r18, 0x02	; 2
    5b1c:	01 c0       	rjmp	.+2      	; 0x5b20 <menu_mixer+0x10a>
			}
			else
			{
				values[17] = ON;
    5b1e:	21 e0       	ldi	r18, 0x01	; 1
    5b20:	2a 8b       	std	Y+18, r18	; 0x12
    5b22:	01 c0       	rjmp	.+2      	; 0x5b26 <menu_mixer+0x110>
			}
		}
		else
		{
			values[17] = OFF;
    5b24:	1a 8a       	std	Y+18, r1	; 0x12
		}

		// P1 yaw_gyro
		if ((Config.Channel[i].P1_sensors & (1 << YawGyro)) != 0)
    5b26:	82 ff       	sbrs	r24, 2
    5b28:	09 c0       	rjmp	.+18     	; 0x5b3c <menu_mixer+0x126>
		{
			if ((Config.Channel[i].P1_scale & (1 << YawScale)) != 0)
    5b2a:	f2 01       	movw	r30, r4
    5b2c:	20 81       	ld	r18, Z
    5b2e:	22 ff       	sbrs	r18, 2
    5b30:	02 c0       	rjmp	.+4      	; 0x5b36 <menu_mixer+0x120>
			{	
				values[18] = SCALE;
    5b32:	22 e0       	ldi	r18, 0x02	; 2
    5b34:	01 c0       	rjmp	.+2      	; 0x5b38 <menu_mixer+0x122>
			}
			else
			{
				values[18] = ON;
    5b36:	21 e0       	ldi	r18, 0x01	; 1
    5b38:	2b 8b       	std	Y+19, r18	; 0x13
    5b3a:	01 c0       	rjmp	.+2      	; 0x5b3e <menu_mixer+0x128>
			}
		}
		else
		{
			values[18] = OFF;
    5b3c:	1b 8a       	std	Y+19, r1	; 0x13
		}

		// P2 yaw gyro
		if ((Config.Channel[i].P2_sensors & (1 << YawGyro)) != 0)
    5b3e:	92 ff       	sbrs	r25, 2
    5b40:	09 c0       	rjmp	.+18     	; 0x5b54 <menu_mixer+0x13e>
		{
			if ((Config.Channel[i].P2_scale & (1 << YawScale)) != 0)
    5b42:	f3 01       	movw	r30, r6
    5b44:	20 81       	ld	r18, Z
    5b46:	22 ff       	sbrs	r18, 2
    5b48:	02 c0       	rjmp	.+4      	; 0x5b4e <menu_mixer+0x138>
			{	
				values[19] = SCALE;
    5b4a:	22 e0       	ldi	r18, 0x02	; 2
    5b4c:	01 c0       	rjmp	.+2      	; 0x5b50 <menu_mixer+0x13a>
			}
			else
			{
				values[19] = ON;
    5b4e:	21 e0       	ldi	r18, 0x01	; 1
    5b50:	2c 8b       	std	Y+20, r18	; 0x14
    5b52:	01 c0       	rjmp	.+2      	; 0x5b56 <menu_mixer+0x140>
			}
		}
		else
		{
			values[19] = OFF;
    5b54:	1c 8a       	std	Y+20, r1	; 0x14
		}

		// P1 roll acc
		if ((Config.Channel[i].P1_sensors & (1 << RollAcc)) != 0)
    5b56:	83 ff       	sbrs	r24, 3
    5b58:	09 c0       	rjmp	.+18     	; 0x5b6c <menu_mixer+0x156>
		{
			if ((Config.Channel[i].P1_scale & (1 << AccRollScale)) != 0)
    5b5a:	f2 01       	movw	r30, r4
    5b5c:	20 81       	ld	r18, Z
    5b5e:	23 ff       	sbrs	r18, 3
    5b60:	02 c0       	rjmp	.+4      	; 0x5b66 <menu_mixer+0x150>
			{	
				values[20] = SCALE;
    5b62:	22 e0       	ldi	r18, 0x02	; 2
    5b64:	01 c0       	rjmp	.+2      	; 0x5b68 <menu_mixer+0x152>
			}
			else
			{
				values[20] = ON;
    5b66:	21 e0       	ldi	r18, 0x01	; 1
    5b68:	2d 8b       	std	Y+21, r18	; 0x15
    5b6a:	01 c0       	rjmp	.+2      	; 0x5b6e <menu_mixer+0x158>
			}
		}
		else
		{
			values[20] = OFF;
    5b6c:	1d 8a       	std	Y+21, r1	; 0x15
		}

		// P2 roll acc
		if ((Config.Channel[i].P2_sensors & (1 << RollAcc)) != 0)
    5b6e:	93 ff       	sbrs	r25, 3
    5b70:	09 c0       	rjmp	.+18     	; 0x5b84 <menu_mixer+0x16e>
		{
			if ((Config.Channel[i].P2_scale & (1 << AccRollScale)) != 0)
    5b72:	f3 01       	movw	r30, r6
    5b74:	20 81       	ld	r18, Z
    5b76:	23 ff       	sbrs	r18, 3
    5b78:	02 c0       	rjmp	.+4      	; 0x5b7e <menu_mixer+0x168>
			{	
				values[21] = SCALE;
    5b7a:	22 e0       	ldi	r18, 0x02	; 2
    5b7c:	01 c0       	rjmp	.+2      	; 0x5b80 <menu_mixer+0x16a>
			}
			else
			{
				values[21] = ON;
    5b7e:	21 e0       	ldi	r18, 0x01	; 1
    5b80:	2e 8b       	std	Y+22, r18	; 0x16
    5b82:	01 c0       	rjmp	.+2      	; 0x5b86 <menu_mixer+0x170>
			}
		}
		else
		{
			values[21] = OFF;
    5b84:	1e 8a       	std	Y+22, r1	; 0x16
		}

		// P1 pitch acc
		if ((Config.Channel[i].P1_sensors & (1 << PitchAcc)) != 0)
    5b86:	84 ff       	sbrs	r24, 4
    5b88:	09 c0       	rjmp	.+18     	; 0x5b9c <menu_mixer+0x186>
		{
			if ((Config.Channel[i].P1_scale & (1 << AccPitchScale)) != 0)
    5b8a:	f2 01       	movw	r30, r4
    5b8c:	20 81       	ld	r18, Z
    5b8e:	24 ff       	sbrs	r18, 4
    5b90:	02 c0       	rjmp	.+4      	; 0x5b96 <menu_mixer+0x180>
			{	
				values[22] = SCALE;
    5b92:	22 e0       	ldi	r18, 0x02	; 2
    5b94:	01 c0       	rjmp	.+2      	; 0x5b98 <menu_mixer+0x182>
			}
			else
			{
				values[22] = ON;
    5b96:	21 e0       	ldi	r18, 0x01	; 1
    5b98:	2f 8b       	std	Y+23, r18	; 0x17
    5b9a:	01 c0       	rjmp	.+2      	; 0x5b9e <menu_mixer+0x188>
			}
		}
		else
		{
			values[22] = OFF;
    5b9c:	1f 8a       	std	Y+23, r1	; 0x17
		}

		// P2 pitch acc
		if ((Config.Channel[i].P2_sensors & (1 << PitchAcc)) != 0)
    5b9e:	94 ff       	sbrs	r25, 4
    5ba0:	09 c0       	rjmp	.+18     	; 0x5bb4 <menu_mixer+0x19e>
		{
			if ((Config.Channel[i].P2_scale & (1 << AccPitchScale)) != 0)
    5ba2:	f3 01       	movw	r30, r6
    5ba4:	20 81       	ld	r18, Z
    5ba6:	24 ff       	sbrs	r18, 4
    5ba8:	02 c0       	rjmp	.+4      	; 0x5bae <menu_mixer+0x198>
			{	
				values[23] = SCALE;
    5baa:	22 e0       	ldi	r18, 0x02	; 2
    5bac:	01 c0       	rjmp	.+2      	; 0x5bb0 <menu_mixer+0x19a>
			}
			else
			{
				values[23] = ON;
    5bae:	21 e0       	ldi	r18, 0x01	; 1
    5bb0:	28 8f       	std	Y+24, r18	; 0x18
    5bb2:	01 c0       	rjmp	.+2      	; 0x5bb6 <menu_mixer+0x1a0>
			}
		}
		else
		{
			values[23] = OFF;
    5bb4:	18 8e       	std	Y+24, r1	; 0x18
		}

		// P1 Z delta acc
		if ((Config.Channel[i].P1_sensors & (1 << ZDeltaAcc)) != 0)
    5bb6:	85 ff       	sbrs	r24, 5
    5bb8:	09 c0       	rjmp	.+18     	; 0x5bcc <menu_mixer+0x1b6>
		{
			if ((Config.Channel[i].P1_scale & (1 << AccZScale)) != 0)
    5bba:	f2 01       	movw	r30, r4
    5bbc:	80 81       	ld	r24, Z
    5bbe:	85 ff       	sbrs	r24, 5
    5bc0:	02 c0       	rjmp	.+4      	; 0x5bc6 <menu_mixer+0x1b0>
			{	
				values[24] = SCALE;
    5bc2:	82 e0       	ldi	r24, 0x02	; 2
    5bc4:	01 c0       	rjmp	.+2      	; 0x5bc8 <menu_mixer+0x1b2>
			}
			else
			{
				values[24] = ON;
    5bc6:	81 e0       	ldi	r24, 0x01	; 1
    5bc8:	89 8f       	std	Y+25, r24	; 0x19
    5bca:	01 c0       	rjmp	.+2      	; 0x5bce <menu_mixer+0x1b8>
			}
		}
		else
		{
			values[24] = OFF;
    5bcc:	19 8e       	std	Y+25, r1	; 0x19
		}

		// P2 Z delta acc
		if ((Config.Channel[i].P2_sensors & (1 << ZDeltaAcc)) != 0)
    5bce:	95 ff       	sbrs	r25, 5
    5bd0:	09 c0       	rjmp	.+18     	; 0x5be4 <menu_mixer+0x1ce>
		{
			if ((Config.Channel[i].P2_scale & (1 << AccZScale)) != 0)
    5bd2:	f3 01       	movw	r30, r6
    5bd4:	80 81       	ld	r24, Z
    5bd6:	85 ff       	sbrs	r24, 5
    5bd8:	02 c0       	rjmp	.+4      	; 0x5bde <menu_mixer+0x1c8>
			{	
				values[25] = SCALE;
    5bda:	82 e0       	ldi	r24, 0x02	; 2
    5bdc:	01 c0       	rjmp	.+2      	; 0x5be0 <menu_mixer+0x1ca>
			}
			else
			{
				values[25] = ON;
    5bde:	81 e0       	ldi	r24, 0x01	; 1
    5be0:	8a 8f       	std	Y+26, r24	; 0x1a
    5be2:	01 c0       	rjmp	.+2      	; 0x5be6 <menu_mixer+0x1d0>
			}
		}
		else
		{
			values[25] = OFF;
    5be4:	1a 8e       	std	Y+26, r1	; 0x1a
		}

		// Assemble remaining byte data for P1n_position to P2_rudder_volume into array
		memcpy(&values[1],&Config.Channel[i].P1_offset, 13);
    5be6:	8d e0       	ldi	r24, 0x0D	; 13
    5be8:	ec a5       	ldd	r30, Y+44	; 0x2c
    5bea:	fd a5       	ldd	r31, Y+45	; 0x2d
    5bec:	de 01       	movw	r26, r28
    5bee:	12 96       	adiw	r26, 0x02	; 2
    5bf0:	01 90       	ld	r0, Z+
    5bf2:	0d 92       	st	X+, r0
    5bf4:	8a 95       	dec	r24
    5bf6:	e1 f7       	brne	.-8      	; 0x5bf0 <menu_mixer+0x1da>
		// Assemble remaining byte data for P1_source_a to P2_source_b_volume into array
		memcpy(&values[26],&Config.Channel[i].P1_source_a, 8);
    5bf8:	88 e0       	ldi	r24, 0x08	; 8
    5bfa:	ee a5       	ldd	r30, Y+46	; 0x2e
    5bfc:	ff a5       	ldd	r31, Y+47	; 0x2f
    5bfe:	de 01       	movw	r26, r28
    5c00:	5b 96       	adiw	r26, 0x1b	; 27
    5c02:	01 90       	ld	r0, Z+
    5c04:	0d 92       	st	X+, r0
    5c06:	8a 95       	dec	r24
    5c08:	e1 f7       	brne	.-8      	; 0x5c02 <menu_mixer+0x1ec>

		// Print menu
		print_menu_items(sub_top, MIXERSTART, value_ptr, (const unsigned char*)mixer_menu_ranges, 0, MIXOFFSET, (const unsigned char*)MixerMenuText, cursor);
    5c0a:	a0 90 04 05 	lds	r10, 0x0504
    5c0e:	8f e7       	ldi	r24, 0x7F	; 127
    5c10:	c8 2e       	mov	r12, r24
    5c12:	88 e1       	ldi	r24, 0x18	; 24
    5c14:	d8 2e       	mov	r13, r24
    5c16:	99 e5       	ldi	r25, 0x59	; 89
    5c18:	e9 2e       	mov	r14, r25
    5c1a:	00 e0       	ldi	r16, 0x00	; 0
    5c1c:	25 ed       	ldi	r18, 0xD5	; 213
    5c1e:	37 e1       	ldi	r19, 0x17	; 23
    5c20:	ae 01       	movw	r20, r28
    5c22:	4f 5f       	subi	r20, 0xFF	; 255
    5c24:	5f 4f       	sbci	r21, 0xFF	; 255
    5c26:	6e eb       	ldi	r22, 0xBE	; 190
    5c28:	80 91 29 05 	lds	r24, 0x0529
    5c2c:	0e 94 3c 2b 	call	0x5678	; 0x5678 <print_menu_items>

		// Handle menu changes
		update_menu(MIXERITEMS, MIXERSTART, 0, button, &cursor, &sub_top, &menu_temp);
    5c30:	26 e2       	ldi	r18, 0x26	; 38
    5c32:	c2 2e       	mov	r12, r18
    5c34:	25 e0       	ldi	r18, 0x05	; 5
    5c36:	d2 2e       	mov	r13, r18
    5c38:	39 e2       	ldi	r19, 0x29	; 41
    5c3a:	e3 2e       	mov	r14, r19
    5c3c:	35 e0       	ldi	r19, 0x05	; 5
    5c3e:	f3 2e       	mov	r15, r19
    5c40:	04 e0       	ldi	r16, 0x04	; 4
    5c42:	15 e0       	ldi	r17, 0x05	; 5
    5c44:	20 91 95 07 	lds	r18, 0x0795
    5c48:	40 e0       	ldi	r20, 0x00	; 0
    5c4a:	6e eb       	ldi	r22, 0xBE	; 190
    5c4c:	82 e2       	ldi	r24, 0x22	; 34
    5c4e:	0e 94 94 2a 	call	0x5528	; 0x5528 <update_menu>
		range = get_menu_range ((const unsigned char*)mixer_menu_ranges, menu_temp - MIXERSTART);
    5c52:	60 91 26 05 	lds	r22, 0x0526
    5c56:	6e 5b       	subi	r22, 0xBE	; 190
    5c58:	85 ed       	ldi	r24, 0xD5	; 213
    5c5a:	97 e1       	ldi	r25, 0x17	; 23
    5c5c:	0e 94 a0 28 	call	0x5140	; 0x5140 <get_menu_range>
    5c60:	2b a3       	std	Y+35, r18	; 0x23
    5c62:	3c a3       	std	Y+36, r19	; 0x24
    5c64:	4d a3       	std	Y+37, r20	; 0x25
    5c66:	5e a3       	std	Y+38, r21	; 0x26
    5c68:	6f a3       	std	Y+39, r22	; 0x27

		if (button == ENTER)
    5c6a:	80 91 95 07 	lds	r24, 0x0795
    5c6e:	80 3e       	cpi	r24, 0xE0	; 224
    5c70:	f9 f4       	brne	.+62     	; 0x5cb0 <menu_mixer+0x29a>
		{
			text_link = pgm_read_byte(&MixerMenuText[menu_temp - MIXERSTART]);
    5c72:	80 91 26 05 	lds	r24, 0x0526
    5c76:	e8 2f       	mov	r30, r24
    5c78:	f0 e0       	ldi	r31, 0x00	; 0
    5c7a:	ef 53       	subi	r30, 0x3F	; 63
    5c7c:	f8 4e       	sbci	r31, 0xE8	; 232
    5c7e:	a4 90       	lpm	r10, Z
			do_menu_item(menu_temp, value_ptr + (menu_temp - MIXERSTART), 1, range, 0, text_link, false, 0);
    5c80:	68 2f       	mov	r22, r24
    5c82:	70 e0       	ldi	r23, 0x00	; 0
    5c84:	6e 5b       	subi	r22, 0xBE	; 190
    5c86:	71 09       	sbc	r23, r1
    5c88:	21 e0       	ldi	r18, 0x01	; 1
    5c8a:	30 e0       	ldi	r19, 0x00	; 0
    5c8c:	2c 0f       	add	r18, r28
    5c8e:	3d 1f       	adc	r19, r29
    5c90:	62 0f       	add	r22, r18
    5c92:	73 1f       	adc	r23, r19
    5c94:	1f 92       	push	r1
    5c96:	1f 92       	push	r1
    5c98:	81 2c       	mov	r8, r1
    5c9a:	c1 2c       	mov	r12, r1
    5c9c:	eb a0       	ldd	r14, Y+35	; 0x23
    5c9e:	fc a0       	ldd	r15, Y+36	; 0x24
    5ca0:	0d a1       	ldd	r16, Y+37	; 0x25
    5ca2:	1e a1       	ldd	r17, Y+38	; 0x26
    5ca4:	2f a1       	ldd	r18, Y+39	; 0x27
    5ca6:	41 e0       	ldi	r20, 0x01	; 1
    5ca8:	0e 94 1e 29 	call	0x523c	; 0x523c <do_menu_item>
    5cac:	0f 90       	pop	r0
    5cae:	0f 90       	pop	r0
		}

		// Save modified byte data for P1 offset to P2_rudder_volume back to Config
		memcpy(&Config.Channel[i].P1_offset,&values[1], 13);
    5cb0:	8d e0       	ldi	r24, 0x0D	; 13
    5cb2:	fe 01       	movw	r30, r28
    5cb4:	32 96       	adiw	r30, 0x02	; 2
    5cb6:	ac a5       	ldd	r26, Y+44	; 0x2c
    5cb8:	bd a5       	ldd	r27, Y+45	; 0x2d
    5cba:	01 90       	ld	r0, Z+
    5cbc:	0d 92       	st	X+, r0
    5cbe:	8a 95       	dec	r24
    5cc0:	e1 f7       	brne	.-8      	; 0x5cba <menu_mixer+0x2a4>
		// Save modified byte data for P1_source_a to P2_source_b_volume back to Config
		memcpy(&Config.Channel[i].P1_source_a,&values[26], 8);
    5cc2:	88 e0       	ldi	r24, 0x08	; 8
    5cc4:	fe 01       	movw	r30, r28
    5cc6:	7b 96       	adiw	r30, 0x1b	; 27
    5cc8:	ae a5       	ldd	r26, Y+46	; 0x2e
    5cca:	bf a5       	ldd	r27, Y+47	; 0x2f
    5ccc:	01 90       	ld	r0, Z+
    5cce:	0d 92       	st	X+, r0
    5cd0:	8a 95       	dec	r24
    5cd2:	e1 f7       	brne	.-8      	; 0x5ccc <menu_mixer+0x2b6>

		// Clear flags before reconstruction
		Config.Channel[i].P1_sensors = 0;
    5cd4:	f1 01       	movw	r30, r2
    5cd6:	10 82       	st	Z, r1
		Config.Channel[i].P2_sensors = 0;
    5cd8:	e8 a5       	ldd	r30, Y+40	; 0x28
    5cda:	f9 a5       	ldd	r31, Y+41	; 0x29
    5cdc:	10 82       	st	Z, r1
		Config.Channel[i].P1_scale = 0;
    5cde:	f2 01       	movw	r30, r4
    5ce0:	10 82       	st	Z, r1
		Config.Channel[i].P2_scale = 0;
    5ce2:	f3 01       	movw	r30, r6
    5ce4:	10 82       	st	Z, r1

		// Recompress byte data for servos back into bit values for the sensors byte
		if (values[0] == ON)
    5ce6:	89 81       	ldd	r24, Y+1	; 0x01
    5ce8:	81 30       	cpi	r24, 0x01	; 1
    5cea:	29 f4       	brne	.+10     	; 0x5cf6 <menu_mixer+0x2e0>
		{
			Config.Channel[i].P1_sensors |= (1 << MotorMarker);
    5cec:	80 e0       	ldi	r24, 0x00	; 0
    5cee:	80 64       	ori	r24, 0x40	; 64
    5cf0:	f1 01       	movw	r30, r2
    5cf2:	80 83       	st	Z, r24
    5cf4:	02 c0       	rjmp	.+4      	; 0x5cfa <menu_mixer+0x2e4>
		}
		else
		{
			Config.Channel[i].P1_sensors &= ~(1 << MotorMarker);	
    5cf6:	f1 01       	movw	r30, r2
    5cf8:	10 82       	st	Z, r1
		}

		// P1 roll gyro
		switch (values[14])
    5cfa:	8f 85       	ldd	r24, Y+15	; 0x0f
    5cfc:	81 30       	cpi	r24, 0x01	; 1
    5cfe:	31 f0       	breq	.+12     	; 0x5d0c <menu_mixer+0x2f6>
    5d00:	82 30       	cpi	r24, 0x02	; 2
    5d02:	41 f4       	brne	.+16     	; 0x5d14 <menu_mixer+0x2fe>
		{
			case OFF:
				break;
			case SCALE:
				Config.Channel[i].P1_scale |= (1 << RollScale);
    5d04:	f2 01       	movw	r30, r4
    5d06:	80 81       	ld	r24, Z
    5d08:	81 60       	ori	r24, 0x01	; 1
    5d0a:	80 83       	st	Z, r24
			case ON:
				Config.Channel[i].P1_sensors |= (1 << RollGyro);
    5d0c:	f1 01       	movw	r30, r2
    5d0e:	80 81       	ld	r24, Z
    5d10:	81 60       	ori	r24, 0x01	; 1
    5d12:	80 83       	st	Z, r24
				break;
		}
		// P2 roll gyro
		switch (values[15])
    5d14:	88 89       	ldd	r24, Y+16	; 0x10
    5d16:	81 30       	cpi	r24, 0x01	; 1
    5d18:	31 f0       	breq	.+12     	; 0x5d26 <menu_mixer+0x310>
    5d1a:	82 30       	cpi	r24, 0x02	; 2
    5d1c:	49 f4       	brne	.+18     	; 0x5d30 <menu_mixer+0x31a>
		{
			case OFF:
				break;
			case SCALE:
				Config.Channel[i].P2_scale |= (1 << RollScale);
    5d1e:	f3 01       	movw	r30, r6
    5d20:	80 81       	ld	r24, Z
    5d22:	81 60       	ori	r24, 0x01	; 1
    5d24:	80 83       	st	Z, r24
			case ON:
				Config.Channel[i].P2_sensors |= (1 << RollGyro);
    5d26:	e8 a5       	ldd	r30, Y+40	; 0x28
    5d28:	f9 a5       	ldd	r31, Y+41	; 0x29
    5d2a:	80 81       	ld	r24, Z
    5d2c:	81 60       	ori	r24, 0x01	; 1
    5d2e:	80 83       	st	Z, r24
				break;
		}
		// P1 pitch gyro
		switch (values[16])
    5d30:	89 89       	ldd	r24, Y+17	; 0x11
    5d32:	81 30       	cpi	r24, 0x01	; 1
    5d34:	31 f0       	breq	.+12     	; 0x5d42 <menu_mixer+0x32c>
    5d36:	82 30       	cpi	r24, 0x02	; 2
    5d38:	41 f4       	brne	.+16     	; 0x5d4a <menu_mixer+0x334>
		{
			case OFF:
				break;
			case SCALE:
				Config.Channel[i].P1_scale |= (1 << PitchScale);
    5d3a:	f2 01       	movw	r30, r4
    5d3c:	80 81       	ld	r24, Z
    5d3e:	82 60       	ori	r24, 0x02	; 2
    5d40:	80 83       	st	Z, r24
			case ON:
				Config.Channel[i].P1_sensors |= (1 << PitchGyro);
    5d42:	f1 01       	movw	r30, r2
    5d44:	80 81       	ld	r24, Z
    5d46:	82 60       	ori	r24, 0x02	; 2
    5d48:	80 83       	st	Z, r24
				break;
		}
		// P2 pitch gyro
		switch (values[17])
    5d4a:	8a 89       	ldd	r24, Y+18	; 0x12
    5d4c:	81 30       	cpi	r24, 0x01	; 1
    5d4e:	31 f0       	breq	.+12     	; 0x5d5c <menu_mixer+0x346>
    5d50:	82 30       	cpi	r24, 0x02	; 2
    5d52:	49 f4       	brne	.+18     	; 0x5d66 <menu_mixer+0x350>
		{
			case OFF:
				break;
			case SCALE:
				Config.Channel[i].P2_scale |= (1 << PitchScale);
    5d54:	f3 01       	movw	r30, r6
    5d56:	80 81       	ld	r24, Z
    5d58:	82 60       	ori	r24, 0x02	; 2
    5d5a:	80 83       	st	Z, r24
			case ON:
				Config.Channel[i].P2_sensors |= (1 << PitchGyro);
    5d5c:	e8 a5       	ldd	r30, Y+40	; 0x28
    5d5e:	f9 a5       	ldd	r31, Y+41	; 0x29
    5d60:	80 81       	ld	r24, Z
    5d62:	82 60       	ori	r24, 0x02	; 2
    5d64:	80 83       	st	Z, r24
				break;
		}
		// P1 yaw gyro
		switch (values[18])
    5d66:	8b 89       	ldd	r24, Y+19	; 0x13
    5d68:	81 30       	cpi	r24, 0x01	; 1
    5d6a:	31 f0       	breq	.+12     	; 0x5d78 <menu_mixer+0x362>
    5d6c:	82 30       	cpi	r24, 0x02	; 2
    5d6e:	41 f4       	brne	.+16     	; 0x5d80 <menu_mixer+0x36a>
		{
			case OFF:
				break;
			case SCALE:
				Config.Channel[i].P1_scale |= (1 << YawScale);
    5d70:	f2 01       	movw	r30, r4
    5d72:	80 81       	ld	r24, Z
    5d74:	84 60       	ori	r24, 0x04	; 4
    5d76:	80 83       	st	Z, r24
			case ON:
				Config.Channel[i].P1_sensors |= (1 << YawGyro);
    5d78:	f1 01       	movw	r30, r2
    5d7a:	80 81       	ld	r24, Z
    5d7c:	84 60       	ori	r24, 0x04	; 4
    5d7e:	80 83       	st	Z, r24
				break;
		}
		// P2 yaw gyro
		switch (values[19])
    5d80:	8c 89       	ldd	r24, Y+20	; 0x14
    5d82:	81 30       	cpi	r24, 0x01	; 1
    5d84:	31 f0       	breq	.+12     	; 0x5d92 <menu_mixer+0x37c>
    5d86:	82 30       	cpi	r24, 0x02	; 2
    5d88:	49 f4       	brne	.+18     	; 0x5d9c <menu_mixer+0x386>
		{
			case OFF:
				break;
			case SCALE:
				Config.Channel[i].P2_scale |= (1 << YawScale);
    5d8a:	f3 01       	movw	r30, r6
    5d8c:	80 81       	ld	r24, Z
    5d8e:	84 60       	ori	r24, 0x04	; 4
    5d90:	80 83       	st	Z, r24
			case ON:
				Config.Channel[i].P2_sensors |= (1 << YawGyro);
    5d92:	e8 a5       	ldd	r30, Y+40	; 0x28
    5d94:	f9 a5       	ldd	r31, Y+41	; 0x29
    5d96:	80 81       	ld	r24, Z
    5d98:	84 60       	ori	r24, 0x04	; 4
    5d9a:	80 83       	st	Z, r24
				break;
		}
		// P1 roll acc
		switch (values[20])
    5d9c:	8d 89       	ldd	r24, Y+21	; 0x15
    5d9e:	81 30       	cpi	r24, 0x01	; 1
    5da0:	31 f0       	breq	.+12     	; 0x5dae <menu_mixer+0x398>
    5da2:	82 30       	cpi	r24, 0x02	; 2
    5da4:	41 f4       	brne	.+16     	; 0x5db6 <menu_mixer+0x3a0>
		{
			case OFF:
				break;
			case SCALE:
				Config.Channel[i].P1_scale |= (1 << AccRollScale);
    5da6:	f2 01       	movw	r30, r4
    5da8:	80 81       	ld	r24, Z
    5daa:	88 60       	ori	r24, 0x08	; 8
    5dac:	80 83       	st	Z, r24
			case ON:
				Config.Channel[i].P1_sensors |= (1 << RollAcc);
    5dae:	f1 01       	movw	r30, r2
    5db0:	80 81       	ld	r24, Z
    5db2:	88 60       	ori	r24, 0x08	; 8
    5db4:	80 83       	st	Z, r24
				break;
		}
		// P2 roll acc
		switch (values[21])
    5db6:	8e 89       	ldd	r24, Y+22	; 0x16
    5db8:	81 30       	cpi	r24, 0x01	; 1
    5dba:	31 f0       	breq	.+12     	; 0x5dc8 <menu_mixer+0x3b2>
    5dbc:	82 30       	cpi	r24, 0x02	; 2
    5dbe:	49 f4       	brne	.+18     	; 0x5dd2 <menu_mixer+0x3bc>
		{
			case OFF:
				break;
			case SCALE:
				Config.Channel[i].P2_scale |= (1 << AccRollScale);
    5dc0:	f3 01       	movw	r30, r6
    5dc2:	80 81       	ld	r24, Z
    5dc4:	88 60       	ori	r24, 0x08	; 8
    5dc6:	80 83       	st	Z, r24
			case ON:
				Config.Channel[i].P2_sensors |= (1 << RollAcc);
    5dc8:	e8 a5       	ldd	r30, Y+40	; 0x28
    5dca:	f9 a5       	ldd	r31, Y+41	; 0x29
    5dcc:	80 81       	ld	r24, Z
    5dce:	88 60       	ori	r24, 0x08	; 8
    5dd0:	80 83       	st	Z, r24
				break;
		}
		// P1 pitch acc
		switch (values[22])
    5dd2:	8f 89       	ldd	r24, Y+23	; 0x17
    5dd4:	81 30       	cpi	r24, 0x01	; 1
    5dd6:	31 f0       	breq	.+12     	; 0x5de4 <menu_mixer+0x3ce>
    5dd8:	82 30       	cpi	r24, 0x02	; 2
    5dda:	41 f4       	brne	.+16     	; 0x5dec <menu_mixer+0x3d6>
		{
			case OFF:
				break;
			case SCALE:
				Config.Channel[i].P1_scale |= (1 << AccPitchScale);
    5ddc:	f2 01       	movw	r30, r4
    5dde:	80 81       	ld	r24, Z
    5de0:	80 61       	ori	r24, 0x10	; 16
    5de2:	80 83       	st	Z, r24
			case ON:
				Config.Channel[i].P1_sensors |= (1 << PitchAcc);
    5de4:	f1 01       	movw	r30, r2
    5de6:	80 81       	ld	r24, Z
    5de8:	80 61       	ori	r24, 0x10	; 16
    5dea:	80 83       	st	Z, r24
				break;
		}

		// P2 pitch acc
		switch (values[23])
    5dec:	88 8d       	ldd	r24, Y+24	; 0x18
    5dee:	81 30       	cpi	r24, 0x01	; 1
    5df0:	31 f0       	breq	.+12     	; 0x5dfe <menu_mixer+0x3e8>
    5df2:	82 30       	cpi	r24, 0x02	; 2
    5df4:	49 f4       	brne	.+18     	; 0x5e08 <menu_mixer+0x3f2>
		{
			case OFF:
				break;
			case SCALE:
				Config.Channel[i].P2_scale |= (1 << AccPitchScale);
    5df6:	f3 01       	movw	r30, r6
    5df8:	80 81       	ld	r24, Z
    5dfa:	80 61       	ori	r24, 0x10	; 16
    5dfc:	80 83       	st	Z, r24
			case ON:
				Config.Channel[i].P2_sensors |= (1 << PitchAcc);
    5dfe:	e8 a5       	ldd	r30, Y+40	; 0x28
    5e00:	f9 a5       	ldd	r31, Y+41	; 0x29
    5e02:	80 81       	ld	r24, Z
    5e04:	80 61       	ori	r24, 0x10	; 16
    5e06:	80 83       	st	Z, r24
				break;
		}
		// P1 Z delta acc
		switch (values[24])
    5e08:	89 8d       	ldd	r24, Y+25	; 0x19
    5e0a:	81 30       	cpi	r24, 0x01	; 1
    5e0c:	31 f0       	breq	.+12     	; 0x5e1a <menu_mixer+0x404>
    5e0e:	82 30       	cpi	r24, 0x02	; 2
    5e10:	41 f4       	brne	.+16     	; 0x5e22 <menu_mixer+0x40c>
		{
			case OFF:
				break;
			case SCALE:
				Config.Channel[i].P1_scale |= (1 << AccZScale);
    5e12:	f2 01       	movw	r30, r4
    5e14:	80 81       	ld	r24, Z
    5e16:	80 62       	ori	r24, 0x20	; 32
    5e18:	80 83       	st	Z, r24
			case ON:
				Config.Channel[i].P1_sensors |= (1 << ZDeltaAcc);
    5e1a:	f1 01       	movw	r30, r2
    5e1c:	80 81       	ld	r24, Z
    5e1e:	80 62       	ori	r24, 0x20	; 32
    5e20:	80 83       	st	Z, r24
				break;
		}
		// P2 Z delta acc
		switch (values[25])
    5e22:	8a 8d       	ldd	r24, Y+26	; 0x1a
    5e24:	81 30       	cpi	r24, 0x01	; 1
    5e26:	31 f0       	breq	.+12     	; 0x5e34 <menu_mixer+0x41e>
    5e28:	82 30       	cpi	r24, 0x02	; 2
    5e2a:	49 f4       	brne	.+18     	; 0x5e3e <menu_mixer+0x428>
		{
			case OFF:
				break;
			case SCALE:
				Config.Channel[i].P2_scale |= (1 << AccZScale);
    5e2c:	f3 01       	movw	r30, r6
    5e2e:	80 81       	ld	r24, Z
    5e30:	80 62       	ori	r24, 0x20	; 32
    5e32:	80 83       	st	Z, r24
			case ON:
				Config.Channel[i].P2_sensors |= (1 << ZDeltaAcc);
    5e34:	e8 a5       	ldd	r30, Y+40	; 0x28
    5e36:	f9 a5       	ldd	r31, Y+41	; 0x29
    5e38:	80 81       	ld	r24, Z
    5e3a:	80 62       	ori	r24, 0x20	; 32
    5e3c:	80 83       	st	Z, r24
				break;
		}

		// Save and exit
		if (button == ENTER)
    5e3e:	80 91 95 07 	lds	r24, 0x0795
    5e42:	80 3e       	cpi	r24, 0xE0	; 224
    5e44:	09 f0       	breq	.+2      	; 0x5e48 <menu_mixer+0x432>
    5e46:	2f ce       	rjmp	.-930    	; 0x5aa6 <menu_mixer+0x90>
		{
			UpdateLimits();			 // Update travel limits based on percentages
    5e48:	0e 94 c2 30 	call	0x6184	; 0x6184 <UpdateLimits>
			Save_Config_to_EEPROM(); // Save value and return
    5e4c:	0e 94 8c 16 	call	0x2d18	; 0x2d18 <Save_Config_to_EEPROM>
			Wait_BUTTON4();			 // Wait for users finger off the button
    5e50:	0e 94 fe 2c 	call	0x59fc	; 0x59fc <Wait_BUTTON4>
    5e54:	1d ce       	rjmp	.-966    	; 0x5a90 <menu_mixer+0x7a>
		}

	} // while(button != BACK)

}
    5e56:	af 96       	adiw	r28, 0x2f	; 47
    5e58:	0f b6       	in	r0, 0x3f	; 63
    5e5a:	f8 94       	cli
    5e5c:	de bf       	out	0x3e, r29	; 62
    5e5e:	0f be       	out	0x3f, r0	; 63
    5e60:	cd bf       	out	0x3d, r28	; 61
    5e62:	df 91       	pop	r29
    5e64:	cf 91       	pop	r28
    5e66:	1f 91       	pop	r17
    5e68:	0f 91       	pop	r16
    5e6a:	ff 90       	pop	r15
    5e6c:	ef 90       	pop	r14
    5e6e:	df 90       	pop	r13
    5e70:	cf 90       	pop	r12
    5e72:	af 90       	pop	r10
    5e74:	8f 90       	pop	r8
    5e76:	7f 90       	pop	r7
    5e78:	6f 90       	pop	r6
    5e7a:	5f 90       	pop	r5
    5e7c:	4f 90       	pop	r4
    5e7e:	3f 90       	pop	r3
    5e80:	2f 90       	pop	r2
    5e82:	08 95       	ret

00005e84 <menu_servo_setup>:
//************************************************************
// Main menu-specific setup
//************************************************************

void menu_servo_setup(uint8_t section)
{
    5e84:	a7 e0       	ldi	r26, 0x07	; 7
    5e86:	b0 e0       	ldi	r27, 0x00	; 0
    5e88:	e8 e4       	ldi	r30, 0x48	; 72
    5e8a:	ff e2       	ldi	r31, 0x2F	; 47
    5e8c:	0c 94 7e 41 	jmp	0x82fc	; 0x82fc <__prologue_saves__>
    5e90:	b8 2e       	mov	r11, r24
	uint8_t i = 0;
	bool	servo_enable = false;
	bool	zero_setting = false;

	// If submenu item has changed, reset submenu positions
	if (menu_flag)
    5e92:	80 91 97 07 	lds	r24, 0x0797
    5e96:	88 23       	and	r24, r24
    5e98:	29 f0       	breq	.+10     	; 0x5ea4 <menu_servo_setup+0x20>
	{
		sub_top = SERVOSTART;
    5e9a:	86 ee       	ldi	r24, 0xE6	; 230
    5e9c:	80 93 29 05 	sts	0x0529, r24
		menu_flag = 0;
    5ea0:	10 92 97 07 	sts	0x0797, r1
			}

			// Do not allow servo enable for throttle if in CPPM mode
			if ((Config.Channel[menu_temp - SERVOSTART].P1_source_a == THROTTLE) && (Config.RxMode == CPPM_MODE))
			{
				servo_enable = false;
    5ea4:	91 2c       	mov	r9, r1
    5ea6:	5f e1       	ldi	r21, 0x1F	; 31
    5ea8:	65 2e       	mov	r6, r21
    5eaa:	57 e0       	ldi	r21, 0x07	; 7
    5eac:	75 2e       	mov	r7, r21
					break;
			}
		}

		// Print menu
		print_menu_items(sub_top, SERVOSTART, value_ptr, (const unsigned char*)servo_menu_ranges[section - 1], 1, SERVOOFFSET, (const unsigned char*)ServoMenuText[section - 1], cursor);
    5eae:	2b 2c       	mov	r2, r11
    5eb0:	31 2c       	mov	r3, r1
    5eb2:	81 e0       	ldi	r24, 0x01	; 1
    5eb4:	28 1a       	sub	r2, r24
    5eb6:	31 08       	sbc	r3, r1
    5eb8:	85 e0       	ldi	r24, 0x05	; 5
    5eba:	82 9d       	mul	r24, r2
    5ebc:	20 01       	movw	r4, r0
    5ebe:	83 9d       	mul	r24, r3
    5ec0:	50 0c       	add	r5, r0
    5ec2:	11 24       	eor	r1, r1
    5ec4:	c2 01       	movw	r24, r4
    5ec6:	8f 55       	subi	r24, 0x5F	; 95
    5ec8:	97 4e       	sbci	r25, 0xE7	; 231
    5eca:	2c 01       	movw	r4, r24
    5ecc:	63 e0       	ldi	r22, 0x03	; 3
    5ece:	22 0c       	add	r2, r2
    5ed0:	33 1c       	adc	r3, r3
    5ed2:	6a 95       	dec	r22
    5ed4:	e1 f7       	brne	.-8      	; 0x5ece <menu_servo_setup+0x4a>
    5ed6:	c1 01       	movw	r24, r2
    5ed8:	80 55       	subi	r24, 0x50	; 80
    5eda:	97 4e       	sbci	r25, 0xE7	; 231
    5edc:	9f 83       	std	Y+7, r25	; 0x07
    5ede:	8e 83       	std	Y+6, r24	; 0x06
		menu_flag = 0;
	}

	// Get menu offsets
	// 1 = Reverse, 2 = Min, 3 = Max
	while(button != BACK)
    5ee0:	80 91 95 07 	lds	r24, 0x0795
    5ee4:	80 37       	cpi	r24, 0x70	; 112
    5ee6:	09 f4       	brne	.+2      	; 0x5eea <menu_servo_setup+0x66>
    5ee8:	8a c0       	rjmp	.+276    	; 0x5ffe <menu_servo_setup+0x17a>
    5eea:	88 e0       	ldi	r24, 0x08	; 8
    5eec:	81 2c       	mov	r8, r1
	{
		// Load values from eeprom
		for (i = 0; i < SERVOITEMS; i++)
		{
			switch(section)
    5eee:	92 e0       	ldi	r25, 0x02	; 2
    5ef0:	b9 16       	cp	r11, r25
    5ef2:	61 f0       	breq	.+24     	; 0x5f0c <menu_servo_setup+0x88>
    5ef4:	93 e0       	ldi	r25, 0x03	; 3
    5ef6:	b9 12       	cpse	r11, r25
    5ef8:	11 c0       	rjmp	.+34     	; 0x5f1c <menu_servo_setup+0x98>
					zero_setting = true;
					break;
				case 3:
					value_ptr = &Config.max_travel[0];
					servo_enable = true;
					zero_setting = true;
    5efa:	99 24       	eor	r9, r9
    5efc:	93 94       	inc	r9
					servo_enable = true;
					zero_setting = true;
					break;
				case 3:
					value_ptr = &Config.max_travel[0];
					servo_enable = true;
    5efe:	88 24       	eor	r8, r8
    5f00:	83 94       	inc	r8
					value_ptr = &Config.min_travel[0];
					servo_enable = true;
					zero_setting = true;
					break;
				case 3:
					value_ptr = &Config.max_travel[0];
    5f02:	3f e2       	ldi	r19, 0x2F	; 47
    5f04:	63 2e       	mov	r6, r19
    5f06:	37 e0       	ldi	r19, 0x07	; 7
    5f08:	73 2e       	mov	r7, r19
					servo_enable = true;
					zero_setting = true;
					break;
    5f0a:	08 c0       	rjmp	.+16     	; 0x5f1c <menu_servo_setup+0x98>
				case 1:
					break;
				case 2:
					value_ptr = &Config.min_travel[0];
					servo_enable = true;
					zero_setting = true;
    5f0c:	99 24       	eor	r9, r9
    5f0e:	93 94       	inc	r9
			{
				case 1:
					break;
				case 2:
					value_ptr = &Config.min_travel[0];
					servo_enable = true;
    5f10:	88 24       	eor	r8, r8
    5f12:	83 94       	inc	r8
			switch(section)
			{
				case 1:
					break;
				case 2:
					value_ptr = &Config.min_travel[0];
    5f14:	47 e2       	ldi	r20, 0x27	; 39
    5f16:	64 2e       	mov	r6, r20
    5f18:	47 e0       	ldi	r20, 0x07	; 7
    5f1a:	74 2e       	mov	r7, r20
    5f1c:	81 50       	subi	r24, 0x01	; 1
	// Get menu offsets
	// 1 = Reverse, 2 = Min, 3 = Max
	while(button != BACK)
	{
		// Load values from eeprom
		for (i = 0; i < SERVOITEMS; i++)
    5f1e:	39 f7       	brne	.-50     	; 0x5eee <menu_servo_setup+0x6a>
					break;
			}
		}

		// Print menu
		print_menu_items(sub_top, SERVOSTART, value_ptr, (const unsigned char*)servo_menu_ranges[section - 1], 1, SERVOOFFSET, (const unsigned char*)ServoMenuText[section - 1], cursor);
    5f20:	a0 90 04 05 	lds	r10, 0x0504
    5f24:	ce 80       	ldd	r12, Y+6	; 0x06
    5f26:	df 80       	ldd	r13, Y+7	; 0x07
    5f28:	80 e5       	ldi	r24, 0x50	; 80
    5f2a:	e8 2e       	mov	r14, r24
    5f2c:	01 e0       	ldi	r16, 0x01	; 1
    5f2e:	92 01       	movw	r18, r4
    5f30:	a3 01       	movw	r20, r6
    5f32:	66 ee       	ldi	r22, 0xE6	; 230
    5f34:	80 91 29 05 	lds	r24, 0x0529
    5f38:	0e 94 3c 2b 	call	0x5678	; 0x5678 <print_menu_items>

		// Handle menu changes
		update_menu(SERVOITEMS, SERVOSTART, 0, button, &cursor, &sub_top, &menu_temp);
    5f3c:	96 e2       	ldi	r25, 0x26	; 38
    5f3e:	c9 2e       	mov	r12, r25
    5f40:	95 e0       	ldi	r25, 0x05	; 5
    5f42:	d9 2e       	mov	r13, r25
    5f44:	29 e2       	ldi	r18, 0x29	; 41
    5f46:	e2 2e       	mov	r14, r18
    5f48:	25 e0       	ldi	r18, 0x05	; 5
    5f4a:	f2 2e       	mov	r15, r18
    5f4c:	04 e0       	ldi	r16, 0x04	; 4
    5f4e:	15 e0       	ldi	r17, 0x05	; 5
    5f50:	20 91 95 07 	lds	r18, 0x0795
    5f54:	40 e0       	ldi	r20, 0x00	; 0
    5f56:	66 ee       	ldi	r22, 0xE6	; 230
    5f58:	88 e0       	ldi	r24, 0x08	; 8
    5f5a:	0e 94 94 2a 	call	0x5528	; 0x5528 <update_menu>
		range = get_menu_range ((const unsigned char*)servo_menu_ranges[section - 1], 0);
    5f5e:	60 e0       	ldi	r22, 0x00	; 0
    5f60:	c2 01       	movw	r24, r4
    5f62:	0e 94 a0 28 	call	0x5140	; 0x5140 <get_menu_range>
    5f66:	29 83       	std	Y+1, r18	; 0x01
    5f68:	3a 83       	std	Y+2, r19	; 0x02
    5f6a:	4b 83       	std	Y+3, r20	; 0x03
    5f6c:	5c 83       	std	Y+4, r21	; 0x04
    5f6e:	6d 83       	std	Y+5, r22	; 0x05

		if (button == ENTER)
    5f70:	80 91 95 07 	lds	r24, 0x0795
    5f74:	80 3e       	cpi	r24, 0xE0	; 224
    5f76:	b9 f5       	brne	.+110    	; 0x5fe6 <menu_servo_setup+0x162>
		{
			text_link = pgm_read_byte(&ServoMenuText[section - 1][menu_temp - SERVOSTART]);
    5f78:	80 91 26 05 	lds	r24, 0x0526
    5f7c:	28 2f       	mov	r18, r24
    5f7e:	30 e0       	ldi	r19, 0x00	; 0
    5f80:	26 5e       	subi	r18, 0xE6	; 230
    5f82:	31 09       	sbc	r19, r1
    5f84:	f9 01       	movw	r30, r18
    5f86:	e2 0d       	add	r30, r2
    5f88:	f3 1d       	adc	r31, r3
    5f8a:	e0 55       	subi	r30, 0x50	; 80
    5f8c:	f7 4e       	sbci	r31, 0xE7	; 231
    5f8e:	a4 90       	lpm	r10, Z
    5f90:	68 2f       	mov	r22, r24
    5f92:	70 e0       	ldi	r23, 0x00	; 0

			// Zero limits if adjusting
			if (zero_setting)
    5f94:	99 20       	and	r9, r9
    5f96:	31 f0       	breq	.+12     	; 0x5fa4 <menu_servo_setup+0x120>
			{
				value_ptr[menu_temp - SERVOSTART] = 0;
    5f98:	d3 01       	movw	r26, r6
    5f9a:	a6 0f       	add	r26, r22
    5f9c:	b7 1f       	adc	r27, r23
    5f9e:	a6 5e       	subi	r26, 0xE6	; 230
    5fa0:	b1 09       	sbc	r27, r1
    5fa2:	1c 92       	st	X, r1
			}

			// Do not allow servo enable for throttle if in CPPM mode
			if ((Config.Channel[menu_temp - SERVOSTART].P1_source_a == THROTTLE) && (Config.RxMode == CPPM_MODE))
    5fa4:	9d e1       	ldi	r25, 0x1D	; 29
    5fa6:	92 9f       	mul	r25, r18
    5fa8:	d0 01       	movw	r26, r0
    5faa:	93 9f       	mul	r25, r19
    5fac:	b0 0d       	add	r27, r0
    5fae:	11 24       	eor	r1, r1
    5fb0:	a4 5b       	subi	r26, 0xB4	; 180
    5fb2:	b9 4f       	sbci	r27, 0xF9	; 249
    5fb4:	9c 91       	ld	r25, X
    5fb6:	91 11       	cpse	r25, r1
    5fb8:	05 c0       	rjmp	.+10     	; 0x5fc4 <menu_servo_setup+0x140>
    5fba:	90 91 ce 05 	lds	r25, 0x05CE
    5fbe:	91 11       	cpse	r25, r1
    5fc0:	01 c0       	rjmp	.+2      	; 0x5fc4 <menu_servo_setup+0x140>
			{
				servo_enable = false;
    5fc2:	81 2c       	mov	r8, r1
			}

			do_menu_item(menu_temp, value_ptr + (menu_temp - SERVOSTART), 1, range, 0, text_link, servo_enable, (menu_temp - SERVOSTART));
    5fc4:	66 5e       	subi	r22, 0xE6	; 230
    5fc6:	71 09       	sbc	r23, r1
    5fc8:	66 0d       	add	r22, r6
    5fca:	77 1d       	adc	r23, r7
    5fcc:	3f 93       	push	r19
    5fce:	2f 93       	push	r18
    5fd0:	c1 2c       	mov	r12, r1
    5fd2:	e9 80       	ldd	r14, Y+1	; 0x01
    5fd4:	fa 80       	ldd	r15, Y+2	; 0x02
    5fd6:	0b 81       	ldd	r16, Y+3	; 0x03
    5fd8:	1c 81       	ldd	r17, Y+4	; 0x04
    5fda:	2d 81       	ldd	r18, Y+5	; 0x05
    5fdc:	41 e0       	ldi	r20, 0x01	; 1
    5fde:	0e 94 1e 29 	call	0x523c	; 0x523c <do_menu_item>
    5fe2:	0f 90       	pop	r0
    5fe4:	0f 90       	pop	r0
		}

		// Disable servos
		servo_enable = false;

		if (button == ENTER)
    5fe6:	80 91 95 07 	lds	r24, 0x0795
    5fea:	80 3e       	cpi	r24, 0xE0	; 224
    5fec:	09 f0       	breq	.+2      	; 0x5ff0 <menu_servo_setup+0x16c>
    5fee:	78 cf       	rjmp	.-272    	; 0x5ee0 <menu_servo_setup+0x5c>
		{
			UpdateLimits();				// Update actual servo trims
    5ff0:	0e 94 c2 30 	call	0x6184	; 0x6184 <UpdateLimits>
			Save_Config_to_EEPROM();	// Save value and return
    5ff4:	0e 94 8c 16 	call	0x2d18	; 0x2d18 <Save_Config_to_EEPROM>
			Wait_BUTTON4();				// Wait for user's finger off the button
    5ff8:	0e 94 fe 2c 	call	0x59fc	; 0x59fc <Wait_BUTTON4>
    5ffc:	71 cf       	rjmp	.-286    	; 0x5ee0 <menu_servo_setup+0x5c>
		}
	}
}
    5ffe:	27 96       	adiw	r28, 0x07	; 7
    6000:	e2 e1       	ldi	r30, 0x12	; 18
    6002:	0c 94 9a 41 	jmp	0x8334	; 0x8334 <__epilogue_restores__>

00006006 <menu_rc_setup>:
//************************************************************
// Main menu-specific setup
//************************************************************

void menu_rc_setup(uint8_t section)
{
    6006:	a8 e0       	ldi	r26, 0x08	; 8
    6008:	b0 e0       	ldi	r27, 0x00	; 0
    600a:	e9 e0       	ldi	r30, 0x09	; 9
    600c:	f0 e3       	ldi	r31, 0x30	; 48
    600e:	0c 94 7e 41 	jmp	0x82fc	; 0x82fc <__prologue_saves__>
    6012:	98 2e       	mov	r9, r24
	uint8_t i;
	uint8_t offset = 0;			// Index into channel structure
	uint8_t	items= RCITEMS;		// Items in group
	
	// If submenu item has changed, reset submenu positions
	if (menu_flag)
    6014:	80 91 97 07 	lds	r24, 0x0797
    6018:	88 23       	and	r24, r24
    601a:	29 f0       	breq	.+10     	; 0x6026 <menu_rc_setup+0x20>
	{
		sub_top = RCSTART;
    601c:	85 e9       	ldi	r24, 0x95	; 149
    601e:	80 93 29 05 	sts	0x0529, r24
		menu_flag = 0;
    6022:	10 92 97 07 	sts	0x0797, r1
#endif

			// Update channel sequence
			for (i = 0; i < MAX_RC_CHANNELS; i++)
			{
				if (Config.TxSeq == FUTABASEQ)
    6026:	29 e0       	ldi	r18, 0x09	; 9
    6028:	2e 83       	std	Y+6, r18	; 0x06
    602a:	b1 2c       	mov	r11, r1
    602c:	6e ec       	ldi	r22, 0xCE	; 206
    602e:	46 2e       	mov	r4, r22
    6030:	65 e0       	ldi	r22, 0x05	; 5
    6032:	56 2e       	mov	r5, r22
			default:
				break;
		}

		// Print menu
		print_menu_items(sub_top + offset, RCSTART + offset, value_ptr, (const unsigned char*)rc_menu_ranges[section - 1], 0, RCOFFSET, (const unsigned char*)RCMenuText[section - 1], cursor);
    6034:	89 2d       	mov	r24, r9
    6036:	90 e0       	ldi	r25, 0x00	; 0
    6038:	01 97       	sbiw	r24, 0x01	; 1
    603a:	22 e3       	ldi	r18, 0x32	; 50
    603c:	28 9f       	mul	r18, r24
    603e:	30 01       	movw	r6, r0
    6040:	29 9f       	mul	r18, r25
    6042:	70 0c       	add	r7, r0
    6044:	11 24       	eor	r1, r1
    6046:	93 01       	movw	r18, r6
    6048:	28 53       	subi	r18, 0x38	; 56
    604a:	37 4e       	sbci	r19, 0xE7	; 231
    604c:	39 01       	movw	r6, r18
    604e:	2a e0       	ldi	r18, 0x0A	; 10
    6050:	28 9f       	mul	r18, r24
    6052:	10 01       	movw	r2, r0
    6054:	29 9f       	mul	r18, r25
    6056:	30 0c       	add	r3, r0
    6058:	11 24       	eor	r1, r1
    605a:	c1 01       	movw	r24, r2
    605c:	84 5d       	subi	r24, 0xD4	; 212
    605e:	96 4e       	sbci	r25, 0xE6	; 230
    6060:	98 87       	std	Y+8, r25	; 0x08
    6062:	8f 83       	std	Y+7, r24	; 0x07
	{
		sub_top = RCSTART;
		menu_flag = 0;
	}

	while(button != BACK)
    6064:	80 91 95 07 	lds	r24, 0x0795
    6068:	80 37       	cpi	r24, 0x70	; 112
    606a:	09 f4       	brne	.+2      	; 0x606e <menu_rc_setup+0x68>
    606c:	87 c0       	rjmp	.+270    	; 0x617c <menu_rc_setup+0x176>
	{
		// Get menu offsets and load values from eeprom
		// 1 = RC, 2 = General
		switch(section)
    606e:	92 e0       	ldi	r25, 0x02	; 2
    6070:	99 12       	cpse	r9, r25
    6072:	08 c0       	rjmp	.+16     	; 0x6084 <menu_rc_setup+0x7e>
		{
			case 1:				// RC setup menu
				break;
			case 2:				// General menu
				offset = RCITEMS;
				items = GENERALITEMS;
    6074:	2a e0       	ldi	r18, 0x0A	; 10
    6076:	2e 83       	std	Y+6, r18	; 0x06
		switch(section)
		{
			case 1:				// RC setup menu
				break;
			case 2:				// General menu
				offset = RCITEMS;
    6078:	49 e0       	ldi	r20, 0x09	; 9
    607a:	b4 2e       	mov	r11, r20
				items = GENERALITEMS;
				value_ptr = &Config.Orientation;
    607c:	5d e2       	ldi	r21, 0x2D	; 45
    607e:	45 2e       	mov	r4, r21
    6080:	56 e0       	ldi	r21, 0x06	; 6
    6082:	55 2e       	mov	r5, r21
			default:
				break;
		}

		// Print menu
		print_menu_items(sub_top + offset, RCSTART + offset, value_ptr, (const unsigned char*)rc_menu_ranges[section - 1], 0, RCOFFSET, (const unsigned char*)RCMenuText[section - 1], cursor);
    6084:	80 91 29 05 	lds	r24, 0x0529
    6088:	a0 90 04 05 	lds	r10, 0x0504
    608c:	cf 80       	ldd	r12, Y+7	; 0x07
    608e:	d8 84       	ldd	r13, Y+8	; 0x08
    6090:	9f e4       	ldi	r25, 0x4F	; 79
    6092:	e9 2e       	mov	r14, r25
    6094:	00 e0       	ldi	r16, 0x00	; 0
    6096:	93 01       	movw	r18, r6
    6098:	a2 01       	movw	r20, r4
    609a:	65 e9       	ldi	r22, 0x95	; 149
    609c:	6b 0d       	add	r22, r11
    609e:	8b 0d       	add	r24, r11
    60a0:	0e 94 3c 2b 	call	0x5678	; 0x5678 <print_menu_items>

		// Handle menu changes
		update_menu(items, RCSTART, offset, button, &cursor, &sub_top, &menu_temp);
    60a4:	26 e2       	ldi	r18, 0x26	; 38
    60a6:	c2 2e       	mov	r12, r18
    60a8:	25 e0       	ldi	r18, 0x05	; 5
    60aa:	d2 2e       	mov	r13, r18
    60ac:	39 e2       	ldi	r19, 0x29	; 41
    60ae:	e3 2e       	mov	r14, r19
    60b0:	35 e0       	ldi	r19, 0x05	; 5
    60b2:	f3 2e       	mov	r15, r19
    60b4:	04 e0       	ldi	r16, 0x04	; 4
    60b6:	15 e0       	ldi	r17, 0x05	; 5
    60b8:	20 91 95 07 	lds	r18, 0x0795
    60bc:	4b 2d       	mov	r20, r11
    60be:	65 e9       	ldi	r22, 0x95	; 149
    60c0:	8e 81       	ldd	r24, Y+6	; 0x06
    60c2:	0e 94 94 2a 	call	0x5528	; 0x5528 <update_menu>
		range = get_menu_range ((const unsigned char*)rc_menu_ranges[section - 1], (menu_temp - RCSTART - offset)); 
    60c6:	60 91 26 05 	lds	r22, 0x0526
    60ca:	65 59       	subi	r22, 0x95	; 149
    60cc:	6b 19       	sub	r22, r11
    60ce:	c3 01       	movw	r24, r6
    60d0:	0e 94 a0 28 	call	0x5140	; 0x5140 <get_menu_range>
    60d4:	29 83       	std	Y+1, r18	; 0x01
    60d6:	3a 83       	std	Y+2, r19	; 0x02
    60d8:	4b 83       	std	Y+3, r20	; 0x03
    60da:	5c 83       	std	Y+4, r21	; 0x04
    60dc:	6d 83       	std	Y+5, r22	; 0x05

		if (button == ENTER)
    60de:	80 91 95 07 	lds	r24, 0x0795
    60e2:	80 3e       	cpi	r24, 0xE0	; 224
    60e4:	f1 f4       	brne	.+60     	; 0x6122 <menu_rc_setup+0x11c>
		{
			text_link = pgm_read_byte(&RCMenuText[section - 1][menu_temp - RCSTART - offset]);
    60e6:	80 91 26 05 	lds	r24, 0x0526
    60ea:	68 2f       	mov	r22, r24
    60ec:	70 e0       	ldi	r23, 0x00	; 0
    60ee:	65 59       	subi	r22, 0x95	; 149
    60f0:	71 09       	sbc	r23, r1
    60f2:	6b 19       	sub	r22, r11
    60f4:	71 09       	sbc	r23, r1
    60f6:	fb 01       	movw	r30, r22
    60f8:	e2 0d       	add	r30, r2
    60fa:	f3 1d       	adc	r31, r3
    60fc:	e4 5d       	subi	r30, 0xD4	; 212
    60fe:	f6 4e       	sbci	r31, 0xE6	; 230
    6100:	a4 90       	lpm	r10, Z
			do_menu_item(menu_temp, value_ptr + (menu_temp - RCSTART - offset), 1, range, 0, text_link, false, 0);
    6102:	64 0d       	add	r22, r4
    6104:	75 1d       	adc	r23, r5
    6106:	1f 92       	push	r1
    6108:	1f 92       	push	r1
    610a:	81 2c       	mov	r8, r1
    610c:	c1 2c       	mov	r12, r1
    610e:	e9 80       	ldd	r14, Y+1	; 0x01
    6110:	fa 80       	ldd	r15, Y+2	; 0x02
    6112:	0b 81       	ldd	r16, Y+3	; 0x03
    6114:	1c 81       	ldd	r17, Y+4	; 0x04
    6116:	2d 81       	ldd	r18, Y+5	; 0x05
    6118:	41 e0       	ldi	r20, 0x01	; 1
    611a:	0e 94 1e 29 	call	0x523c	; 0x523c <do_menu_item>
    611e:	0f 90       	pop	r0
    6120:	0f 90       	pop	r0
		}

		if (button == ENTER)
    6122:	80 91 95 07 	lds	r24, 0x0795
    6126:	80 3e       	cpi	r24, 0xE0	; 224
    6128:	09 f0       	breq	.+2      	; 0x612c <menu_rc_setup+0x126>
    612a:	9c cf       	rjmp	.-200    	; 0x6064 <menu_rc_setup+0x5e>
		{
			init_int();				// In case RC type has changed, reinitialise interrupts
    612c:	0e 94 7c 23 	call	0x46f8	; 0x46f8 <init_int>
			init_uart();			// and UART
    6130:	0e 94 54 3e 	call	0x7ca8	; 0x7ca8 <init_uart>
			UpdateLimits();			// Update I-term limits and triggers based on percentages
    6134:	0e 94 c2 30 	call	0x6184	; 0x6184 <UpdateLimits>

#ifdef KK21
			// Update MPU6050 LPF and reverse sense of menu items
			writeI2Cbyte(MPU60X0_DEFAULT_ADDRESS, MPU60X0_RA_CONFIG, (6 - Config.MPU6050_LPF));
    6138:	80 91 36 06 	lds	r24, 0x0636
    613c:	46 e0       	ldi	r20, 0x06	; 6
    613e:	48 1b       	sub	r20, r24
    6140:	6a e1       	ldi	r22, 0x1A	; 26
    6142:	80 ed       	ldi	r24, 0xD0	; 208
    6144:	0e 94 d4 1e 	call	0x3da8	; 0x3da8 <writeI2Cbyte>
#endif

			// Update channel sequence
			for (i = 0; i < MAX_RC_CHANNELS; i++)
			{
				if (Config.TxSeq == FUTABASEQ)
    6148:	20 91 d0 05 	lds	r18, 0x05D0
    614c:	a6 ea       	ldi	r26, 0xA6	; 166
    614e:	b5 e0       	ldi	r27, 0x05	; 5
    6150:	80 e0       	ldi	r24, 0x00	; 0
    6152:	90 e0       	ldi	r25, 0x00	; 0
    6154:	fc 01       	movw	r30, r24
    6156:	21 30       	cpi	r18, 0x01	; 1
    6158:	19 f4       	brne	.+6      	; 0x6160 <menu_rc_setup+0x15a>
    615a:	ea 53       	subi	r30, 0x3A	; 58
    615c:	ff 4f       	sbci	r31, 0xFF	; 255
    615e:	02 c0       	rjmp	.+4      	; 0x6164 <menu_rc_setup+0x15e>
    6160:	e2 53       	subi	r30, 0x32	; 50
    6162:	ff 4f       	sbci	r31, 0xFF	; 255
				{
					Config.ChannelOrder[i] = pgm_read_byte(&FUTABA[i]);
				}
				else
				{
					Config.ChannelOrder[i] = pgm_read_byte(&JR[i]);
    6164:	e4 91       	lpm	r30, Z
    6166:	ec 93       	st	X, r30
    6168:	01 96       	adiw	r24, 0x01	; 1
    616a:	11 96       	adiw	r26, 0x01	; 1
			// Update MPU6050 LPF and reverse sense of menu items
			writeI2Cbyte(MPU60X0_DEFAULT_ADDRESS, MPU60X0_RA_CONFIG, (6 - Config.MPU6050_LPF));
#endif

			// Update channel sequence
			for (i = 0; i < MAX_RC_CHANNELS; i++)
    616c:	88 30       	cpi	r24, 0x08	; 8
    616e:	91 05       	cpc	r25, r1
    6170:	89 f7       	brne	.-30     	; 0x6154 <menu_rc_setup+0x14e>
				{
					Config.ChannelOrder[i] = pgm_read_byte(&JR[i]);
				}
			}

			Save_Config_to_EEPROM(); // Save value and return
    6172:	0e 94 8c 16 	call	0x2d18	; 0x2d18 <Save_Config_to_EEPROM>
			Wait_BUTTON4();			 // Wait for user's finger off the button
    6176:	0e 94 fe 2c 	call	0x59fc	; 0x59fc <Wait_BUTTON4>
    617a:	74 cf       	rjmp	.-280    	; 0x6064 <menu_rc_setup+0x5e>
		}
	}
}
    617c:	28 96       	adiw	r28, 0x08	; 8
    617e:	e2 e1       	ldi	r30, 0x12	; 18
    6180:	0c 94 9a 41 	jmp	0x8334	; 0x8334 <__epilogue_restores__>

00006184 <UpdateLimits>:

// Update actual limits value with that from the mix setting percentages
// This is only done at start-up and whenever the values are changed
// so as to reduce CPU loop load
void UpdateLimits(void)
{
    6184:	ac e0       	ldi	r26, 0x0C	; 12
    6186:	b0 e0       	ldi	r27, 0x00	; 0
    6188:	e8 ec       	ldi	r30, 0xC8	; 200
    618a:	f0 e3       	ldi	r31, 0x30	; 48
    618c:	0c 94 82 41 	jmp	0x8304	; 0x8304 <__prologue_saves__+0x8>
	uint8_t i,j;
	int32_t temp32, gain32;

	int8_t limits[FLIGHT_MODES][NUMBEROFAXIS] = 
    6190:	80 91 d9 05 	lds	r24, 0x05D9
    6194:	8f 83       	std	Y+7, r24	; 0x07
    6196:	80 91 df 05 	lds	r24, 0x05DF
    619a:	88 87       	std	Y+8, r24	; 0x08
    619c:	80 91 e5 05 	lds	r24, 0x05E5
    61a0:	89 87       	std	Y+9, r24	; 0x09
    61a2:	80 91 eb 05 	lds	r24, 0x05EB
    61a6:	8a 87       	std	Y+10, r24	; 0x0a
    61a8:	80 91 f1 05 	lds	r24, 0x05F1
    61ac:	8b 87       	std	Y+11, r24	; 0x0b
    61ae:	80 91 f7 05 	lds	r24, 0x05F7
    61b2:	8c 87       	std	Y+12, r24	; 0x0c
		{
			{Config.FlightMode[P1].Roll_limit, Config.FlightMode[P1].Pitch_limit, Config.FlightMode[P1].Yaw_limit},
			{Config.FlightMode[P2].Roll_limit, Config.FlightMode[P2].Pitch_limit, Config.FlightMode[P2].Yaw_limit}
		};

	int8_t gains[FLIGHT_MODES][NUMBEROFAXIS] = 
    61b4:	80 91 d8 05 	lds	r24, 0x05D8
    61b8:	89 83       	std	Y+1, r24	; 0x01
    61ba:	80 91 de 05 	lds	r24, 0x05DE
    61be:	8a 83       	std	Y+2, r24	; 0x02
    61c0:	80 91 e4 05 	lds	r24, 0x05E4
    61c4:	8b 83       	std	Y+3, r24	; 0x03
    61c6:	80 91 ea 05 	lds	r24, 0x05EA
    61ca:	8c 83       	std	Y+4, r24	; 0x04
    61cc:	80 91 f0 05 	lds	r24, 0x05F0
    61d0:	8d 83       	std	Y+5, r24	; 0x05
    61d2:	80 91 f6 05 	lds	r24, 0x05F6
    61d6:	8e 83       	std	Y+6, r24	; 0x06
			{Config.FlightMode[P1].Roll_I_mult, Config.FlightMode[P1].Pitch_I_mult, Config.FlightMode[P1].Yaw_I_mult},
			{Config.FlightMode[P2].Roll_I_mult, Config.FlightMode[P2].Pitch_I_mult, Config.FlightMode[P2].Yaw_I_mult}
		};

	// Update triggers
	Config.PowerTriggerActual = Config.PowerTrigger * 10;
    61d8:	80 91 31 06 	lds	r24, 0x0631
    61dc:	2a e0       	ldi	r18, 0x0A	; 10
    61de:	82 02       	muls	r24, r18
    61e0:	c0 01       	movw	r24, r0
    61e2:	11 24       	eor	r1, r1
    61e4:	90 93 2c 06 	sts	0x062C, r25
    61e8:	80 93 2b 06 	sts	0x062B, r24
    61ec:	4b ef       	ldi	r20, 0xFB	; 251
    61ee:	a4 2e       	mov	r10, r20
    61f0:	45 e0       	ldi	r20, 0x05	; 5
    61f2:	b4 2e       	mov	r11, r20
    61f4:	00 e0       	ldi	r16, 0x00	; 0
    61f6:	10 e0       	ldi	r17, 0x00	; 0

// Update actual limits value with that from the mix setting percentages
// This is only done at start-up and whenever the values are changed
// so as to reduce CPU loop load
void UpdateLimits(void)
{
    61f8:	65 01       	movw	r12, r10
    61fa:	e1 2c       	mov	r14, r1
    61fc:	f1 2c       	mov	r15, r1
    61fe:	87 e0       	ldi	r24, 0x07	; 7
    6200:	88 2e       	mov	r8, r24
    6202:	91 2c       	mov	r9, r1
    6204:	8c 0e       	add	r8, r28
    6206:	9d 1e       	adc	r9, r29
    6208:	80 0e       	add	r8, r16
    620a:	91 1e       	adc	r9, r17
    620c:	66 24       	eor	r6, r6
    620e:	63 94       	inc	r6
    6210:	71 2c       	mov	r7, r1
    6212:	6c 0e       	add	r6, r28
    6214:	7d 1e       	adc	r7, r29
    6216:	60 0e       	add	r6, r16
    6218:	71 1e       	adc	r7, r17
    621a:	f4 01       	movw	r30, r8
    621c:	ee 0d       	add	r30, r14
    621e:	ff 1d       	adc	r31, r15
	// Update I_term input constraints for all profiles
	for (j = 0; j < FLIGHT_MODES; j++)
	{
		for (i = 0; i < NUMBEROFAXIS; i++)
		{
			temp32 	= limits[j][i]; 						// Promote limit %
    6220:	a0 81       	ld	r26, Z

			// I-term output (throw). Convert from % to actual count
			// A value of 80,000 results in +/- 1250 or full throw at the output stage
			// This is because the maximum signal value is +/-1250 after division by 64. 1250 * 64 = 80,000
			Config.Raw_I_Limits[j][i] = temp32 * (int32_t)640;	// 80,000 / 125% = 640
    6222:	bb 27       	eor	r27, r27
    6224:	a7 fd       	sbrc	r26, 7
    6226:	b0 95       	com	r27
    6228:	20 e8       	ldi	r18, 0x80	; 128
    622a:	32 e0       	ldi	r19, 0x02	; 2
    622c:	0e 94 64 41 	call	0x82c8	; 0x82c8 <__usmulhisi3>
    6230:	d6 01       	movw	r26, r12
    6232:	6d 93       	st	X+, r22
    6234:	7d 93       	st	X+, r23
    6236:	8d 93       	st	X+, r24
    6238:	9d 93       	st	X+, r25
    623a:	6d 01       	movw	r12, r26
    623c:	f3 01       	movw	r30, r6
    623e:	ee 0d       	add	r30, r14
    6240:	ff 1d       	adc	r31, r15

			// I-term source limits. These have to be different due to the I-term gain setting
			// I-term = (gyro * gain) / 32, so the gyro count for a particular gain and limit is
			// Gyro = (I-term * 32) / gain :) 

			if (gains[j][i] != 0)
    6242:	20 81       	ld	r18, Z
    6244:	22 23       	and	r18, r18
    6246:	a1 f0       	breq	.+40     	; 0x6270 <UpdateLimits+0xec>
			{
				gain32 = gains[j][i];						// Promote gain value
				Config.Raw_I_Constrain[j][i] = (Config.Raw_I_Limits[j][i] << 5) / gain32;
    6248:	35 e0       	ldi	r19, 0x05	; 5
    624a:	66 0f       	add	r22, r22
    624c:	77 1f       	adc	r23, r23
    624e:	88 1f       	adc	r24, r24
    6250:	99 1f       	adc	r25, r25
    6252:	3a 95       	dec	r19
    6254:	d1 f7       	brne	.-12     	; 0x624a <UpdateLimits+0xc6>
			// I-term = (gyro * gain) / 32, so the gyro count for a particular gain and limit is
			// Gyro = (I-term * 32) / gain :) 

			if (gains[j][i] != 0)
			{
				gain32 = gains[j][i];						// Promote gain value
    6256:	33 27       	eor	r19, r19
    6258:	27 fd       	sbrc	r18, 7
    625a:	30 95       	com	r19
    625c:	43 2f       	mov	r20, r19
    625e:	53 2f       	mov	r21, r19
				Config.Raw_I_Constrain[j][i] = (Config.Raw_I_Limits[j][i] << 5) / gain32;
    6260:	0e 94 28 41 	call	0x8250	; 0x8250 <__divmodsi4>
    6264:	f6 01       	movw	r30, r12
    6266:	24 8b       	std	Z+20, r18	; 0x14
    6268:	35 8b       	std	Z+21, r19	; 0x15
    626a:	46 8b       	std	Z+22, r20	; 0x16
    626c:	57 8b       	std	Z+23, r21	; 0x17
    626e:	06 c0       	rjmp	.+12     	; 0x627c <UpdateLimits+0xf8>
			}
			else 
			{
				Config.Raw_I_Constrain[j][i] = 0;
    6270:	54 96       	adiw	r26, 0x14	; 20
    6272:	1d 92       	st	X+, r1
    6274:	1d 92       	st	X+, r1
    6276:	1d 92       	st	X+, r1
    6278:	1c 92       	st	X, r1
    627a:	57 97       	sbiw	r26, 0x17	; 23
    627c:	bf ef       	ldi	r27, 0xFF	; 255
    627e:	eb 1a       	sub	r14, r27
    6280:	fb 0a       	sbc	r15, r27
	Config.PowerTriggerActual = Config.PowerTrigger * 10;

	// Update I_term input constraints for all profiles
	for (j = 0; j < FLIGHT_MODES; j++)
	{
		for (i = 0; i < NUMBEROFAXIS; i++)
    6282:	e3 e0       	ldi	r30, 0x03	; 3
    6284:	ee 16       	cp	r14, r30
    6286:	f1 04       	cpc	r15, r1
    6288:	41 f6       	brne	.-112    	; 0x621a <UpdateLimits+0x96>
    628a:	fc e0       	ldi	r31, 0x0C	; 12
    628c:	af 0e       	add	r10, r31
    628e:	b1 1c       	adc	r11, r1
    6290:	0d 5f       	subi	r16, 0xFD	; 253
    6292:	1f 4f       	sbci	r17, 0xFF	; 255

	// Update triggers
	Config.PowerTriggerActual = Config.PowerTrigger * 10;

	// Update I_term input constraints for all profiles
	for (j = 0; j < FLIGHT_MODES; j++)
    6294:	06 30       	cpi	r16, 0x06	; 6
    6296:	11 05       	cpc	r17, r1
    6298:	09 f0       	breq	.+2      	; 0x629c <UpdateLimits+0x118>
    629a:	ae cf       	rjmp	.-164    	; 0x61f8 <UpdateLimits+0x74>
    629c:	87 e2       	ldi	r24, 0x27	; 39
    629e:	97 e0       	ldi	r25, 0x07	; 7
    62a0:	ee ea       	ldi	r30, 0xAE	; 174
    62a2:	f5 e0       	ldi	r31, 0x05	; 5
    62a4:	6f e2       	ldi	r22, 0x2F	; 47
    62a6:	77 e0       	ldi	r23, 0x07	; 7
	}

	// Update travel limits
	for (i = 0; i < MIX_OUTPUTS; i++)
	{
		Config.Limits[i].minimum = scale_percent(Config.min_travel[i]);
    62a8:	dc 01       	movw	r26, r24
    62aa:	2d 91       	ld	r18, X+
    62ac:	cd 01       	movw	r24, r26
int16_t scale_percent(int8_t value)
{
	int16_t temp16_1, temp16_2;

	temp16_1 = value; // Promote
	temp16_2 = ((temp16_1 * (int16_t)10) + 3750);
    62ae:	ba e0       	ldi	r27, 0x0A	; 10
    62b0:	2b 02       	muls	r18, r27
    62b2:	90 01       	movw	r18, r0
    62b4:	11 24       	eor	r1, r1
    62b6:	2a 55       	subi	r18, 0x5A	; 90
    62b8:	31 4f       	sbci	r19, 0xF1	; 241
	}

	// Update travel limits
	for (i = 0; i < MIX_OUTPUTS; i++)
	{
		Config.Limits[i].minimum = scale_percent(Config.min_travel[i]);
    62ba:	31 83       	std	Z+1, r19	; 0x01
    62bc:	20 83       	st	Z, r18
		Config.Limits[i].maximum = scale_percent(Config.max_travel[i]);
    62be:	db 01       	movw	r26, r22
    62c0:	2d 91       	ld	r18, X+
    62c2:	bd 01       	movw	r22, r26
int16_t scale_percent(int8_t value)
{
	int16_t temp16_1, temp16_2;

	temp16_1 = value; // Promote
	temp16_2 = ((temp16_1 * (int16_t)10) + 3750);
    62c4:	ba e0       	ldi	r27, 0x0A	; 10
    62c6:	2b 02       	muls	r18, r27
    62c8:	90 01       	movw	r18, r0
    62ca:	11 24       	eor	r1, r1
    62cc:	2a 55       	subi	r18, 0x5A	; 90
    62ce:	31 4f       	sbci	r19, 0xF1	; 241

	// Update travel limits
	for (i = 0; i < MIX_OUTPUTS; i++)
	{
		Config.Limits[i].minimum = scale_percent(Config.min_travel[i]);
		Config.Limits[i].maximum = scale_percent(Config.max_travel[i]);
    62d0:	33 83       	std	Z+3, r19	; 0x03
    62d2:	22 83       	std	Z+2, r18	; 0x02
    62d4:	34 96       	adiw	r30, 0x04	; 4
			}
		}
	}

	// Update travel limits
	for (i = 0; i < MIX_OUTPUTS; i++)
    62d6:	25 e0       	ldi	r18, 0x05	; 5
    62d8:	ee 3c       	cpi	r30, 0xCE	; 206
    62da:	f2 07       	cpc	r31, r18
    62dc:	29 f7       	brne	.-54     	; 0x62a8 <UpdateLimits+0x124>

	// Adjust trim to match 0.01 degree resolution
	// A value of 127 multiplied by 10 = 1270 which in 1/100ths of a degree equates to 12.7 degrees
	for (i = P1; i <= P2; i++)
	{
		Config.Rolltrim[i] = Config.FlightMode[i].AccRollZeroTrim * 10;
    62de:	80 91 dc 05 	lds	r24, 0x05DC
    62e2:	4a e0       	ldi	r20, 0x0A	; 10
    62e4:	84 02       	muls	r24, r20
    62e6:	c0 01       	movw	r24, r0
    62e8:	11 24       	eor	r1, r1
    62ea:	90 93 5d 07 	sts	0x075D, r25
    62ee:	80 93 5c 07 	sts	0x075C, r24
		Config.Pitchtrim[i] = Config.FlightMode[i].AccPitchZeroTrim * 10;
    62f2:	80 91 e2 05 	lds	r24, 0x05E2
    62f6:	aa e0       	ldi	r26, 0x0A	; 10
    62f8:	8a 02       	muls	r24, r26
    62fa:	c0 01       	movw	r24, r0
    62fc:	11 24       	eor	r1, r1
    62fe:	90 93 61 07 	sts	0x0761, r25
    6302:	80 93 60 07 	sts	0x0760, r24

	// Adjust trim to match 0.01 degree resolution
	// A value of 127 multiplied by 10 = 1270 which in 1/100ths of a degree equates to 12.7 degrees
	for (i = P1; i <= P2; i++)
	{
		Config.Rolltrim[i] = Config.FlightMode[i].AccRollZeroTrim * 10;
    6306:	80 91 ee 05 	lds	r24, 0x05EE
    630a:	ba e0       	ldi	r27, 0x0A	; 10
    630c:	8b 02       	muls	r24, r27
    630e:	c0 01       	movw	r24, r0
    6310:	11 24       	eor	r1, r1
    6312:	90 93 5f 07 	sts	0x075F, r25
    6316:	80 93 5e 07 	sts	0x075E, r24
		Config.Pitchtrim[i] = Config.FlightMode[i].AccPitchZeroTrim * 10;
    631a:	80 91 f4 05 	lds	r24, 0x05F4
    631e:	ea e0       	ldi	r30, 0x0A	; 10
    6320:	8e 02       	muls	r24, r30
    6322:	c0 01       	movw	r24, r0
    6324:	11 24       	eor	r1, r1
    6326:	90 93 63 07 	sts	0x0763, r25
    632a:	80 93 62 07 	sts	0x0762, r24
	}
}
    632e:	2c 96       	adiw	r28, 0x0c	; 12
    6330:	ee e0       	ldi	r30, 0x0E	; 14
    6332:	0c 94 9e 41 	jmp	0x833c	; 0x833c <__epilogue_restores__+0x8>

00006336 <UpdateServos>:

// Update servos from the mixer Config.Channel[i].P1_value data, add offsets and enforce travel limits
void UpdateServos(void)
{
    6336:	cf 93       	push	r28
    6338:	df 93       	push	r29
    633a:	67 e3       	ldi	r22, 0x37	; 55
    633c:	76 e0       	ldi	r23, 0x06	; 6
    633e:	2f e1       	ldi	r18, 0x1F	; 31
    6340:	37 e0       	ldi	r19, 0x07	; 7
    6342:	e8 ee       	ldi	r30, 0xE8	; 232
    6344:	f7 e0       	ldi	r31, 0x07	; 7
    6346:	ce ea       	ldi	r28, 0xAE	; 174
    6348:	d5 e0       	ldi	r29, 0x05	; 5
	int16_t temp1 = 0; // Output value

	for (i = 0; i < MIX_OUTPUTS; i++)
	{
		// Servo reverse and trim for the eight physical outputs
		temp1 = Config.Channel[i].P1_value;
    634a:	db 01       	movw	r26, r22
    634c:	8d 91       	ld	r24, X+
    634e:	9c 91       	ld	r25, X

		// Reverse this channel for the eight physical outputs
		if ((i <= MIX_OUTPUTS) && (Config.Servo_reverse[i] == ON))
    6350:	d9 01       	movw	r26, r18
    6352:	4d 91       	ld	r20, X+
    6354:	9d 01       	movw	r18, r26
    6356:	41 30       	cpi	r20, 0x01	; 1
    6358:	19 f4       	brne	.+6      	; 0x6360 <UpdateServos+0x2a>
		{	
			temp1 = -temp1;
    635a:	91 95       	neg	r25
    635c:	81 95       	neg	r24
    635e:	91 09       	sbc	r25, r1
		}

		// Add offset value to restore to system compatible value
		temp1 += 3750;
    6360:	8a 55       	subi	r24, 0x5A	; 90
    6362:	91 4f       	sbci	r25, 0xF1	; 241

		// Enforce min, max travel limits
		if (temp1 > Config.Limits[i].maximum)
    6364:	4a 81       	ldd	r20, Y+2	; 0x02
    6366:	5b 81       	ldd	r21, Y+3	; 0x03
    6368:	48 17       	cp	r20, r24
    636a:	59 07       	cpc	r21, r25
    636c:	2c f0       	brlt	.+10     	; 0x6378 <UpdateServos+0x42>
		{
			ServoOut[i] = Config.Limits[i].maximum;
		}

		else if (temp1 < Config.Limits[i].minimum)
    636e:	48 81       	ld	r20, Y
    6370:	59 81       	ldd	r21, Y+1	; 0x01
    6372:	84 17       	cp	r24, r20
    6374:	95 07       	cpc	r25, r21
    6376:	1c f4       	brge	.+6      	; 0x637e <UpdateServos+0x48>
		{
			ServoOut[i] = Config.Limits[i].minimum;
    6378:	51 83       	std	Z+1, r21	; 0x01
    637a:	40 83       	st	Z, r20
    637c:	02 c0       	rjmp	.+4      	; 0x6382 <UpdateServos+0x4c>
		}

		// Transfer value to servo
		else
		{
			ServoOut[i] = temp1;
    637e:	91 83       	std	Z+1, r25	; 0x01
    6380:	80 83       	st	Z, r24
    6382:	63 5e       	subi	r22, 0xE3	; 227
    6384:	7f 4f       	sbci	r23, 0xFF	; 255
    6386:	32 96       	adiw	r30, 0x02	; 2
    6388:	24 96       	adiw	r28, 0x04	; 4
void UpdateServos(void)
{
	uint8_t i;
	int16_t temp1 = 0; // Output value

	for (i = 0; i < MIX_OUTPUTS; i++)
    638a:	b7 e0       	ldi	r27, 0x07	; 7
    638c:	6f 31       	cpi	r22, 0x1F	; 31
    638e:	7b 07       	cpc	r23, r27
    6390:	e1 f6       	brne	.-72     	; 0x634a <UpdateServos+0x14>
		else
		{
			ServoOut[i] = temp1;
		}
	}
}
    6392:	df 91       	pop	r29
    6394:	cf 91       	pop	r28
    6396:	08 95       	ret

00006398 <scale32>:

// 32 bit multiply/scale for broken GCC
// Returns immediately if multiplier is 100, 0 or -100
int16_t scale32(int16_t value16, int16_t multiplier16)
{
    6398:	9c 01       	movw	r18, r24
	int32_t temp32 = 0;
	int32_t mult32 = 0;

	// No change if 100% (no scaling)
	if (multiplier16 == 100)
    639a:	64 36       	cpi	r22, 0x64	; 100
    639c:	71 05       	cpc	r23, r1
    639e:	e9 f0       	breq	.+58     	; 0x63da <scale32+0x42>
	{
		return value16;
	}

	// Reverse if -100%
	else if (multiplier16 == -100)
    63a0:	6c 39       	cpi	r22, 0x9C	; 156
    63a2:	8f ef       	ldi	r24, 0xFF	; 255
    63a4:	78 07       	cpc	r23, r24
    63a6:	29 f4       	brne	.+10     	; 0x63b2 <scale32+0x1a>
	{
		return -value16;	
    63a8:	88 27       	eor	r24, r24
    63aa:	99 27       	eor	r25, r25
    63ac:	82 1b       	sub	r24, r18
    63ae:	93 0b       	sbc	r25, r19
    63b0:	08 95       	ret
	}

	// Zero if 0%
	else if (multiplier16 == 0)
    63b2:	61 15       	cp	r22, r1
    63b4:	71 05       	cpc	r23, r1
    63b6:	71 f0       	breq	.+28     	; 0x63d4 <scale32+0x3c>
	else
	{
		// GCC is broken bad regarding multiplying 32 bit numbers, hence all this crap...
		mult32 = multiplier16;
		temp32 = value16;
		temp32 = temp32 * mult32;
    63b8:	db 01       	movw	r26, r22
    63ba:	0e 94 4d 41 	call	0x829a	; 0x829a <__mulhisi3>

		// Divide by 100 and round to get scaled value
		temp32 = (temp32 + (int32_t)50) / (int32_t)100; // Constants need to be cast up to 32 bits
    63be:	6e 5c       	subi	r22, 0xCE	; 206
    63c0:	7f 4f       	sbci	r23, 0xFF	; 255
    63c2:	8f 4f       	sbci	r24, 0xFF	; 255
    63c4:	9f 4f       	sbci	r25, 0xFF	; 255
    63c6:	24 e6       	ldi	r18, 0x64	; 100
    63c8:	30 e0       	ldi	r19, 0x00	; 0
    63ca:	40 e0       	ldi	r20, 0x00	; 0
    63cc:	50 e0       	ldi	r21, 0x00	; 0
    63ce:	0e 94 28 41 	call	0x8250	; 0x8250 <__divmodsi4>
    63d2:	03 c0       	rjmp	.+6      	; 0x63da <scale32+0x42>
	}

	// Zero if 0%
	else if (multiplier16 == 0)
	{
		return 0;	
    63d4:	80 e0       	ldi	r24, 0x00	; 0
    63d6:	90 e0       	ldi	r25, 0x00	; 0
    63d8:	08 95       	ret
	int32_t mult32 = 0;

	// No change if 100% (no scaling)
	if (multiplier16 == 100)
	{
		return value16;
    63da:	c9 01       	movw	r24, r18
		temp32 = (temp32 + (int32_t)50) / (int32_t)100; // Constants need to be cast up to 32 bits
		value16 = (int16_t) temp32;
	}

	return value16;
}
    63dc:	08 95       	ret

000063de <ProcessMixer>:
//************************************************************
// Code
//************************************************************

void ProcessMixer(void)
{
    63de:	a0 e3       	ldi	r26, 0x30	; 48
    63e0:	b0 e0       	ldi	r27, 0x00	; 0
    63e2:	e5 ef       	ldi	r30, 0xF5	; 245
    63e4:	f1 e3       	ldi	r31, 0x31	; 49
    63e6:	0c 94 7e 41 	jmp	0x82fc	; 0x82fc <__prologue_saves__>
	int16_t	temp3 = 0;
	int16_t	Step1 = 0;
	int16_t	Step2 = 0;

	// Copy the sensor data to an array for easy indexing - acc data is from accSmooth, increased to reasonable rates
	temp1 = (int16_t)accSmooth[ROLL] << 3;
    63ea:	60 91 8d 05 	lds	r22, 0x058D
    63ee:	70 91 8e 05 	lds	r23, 0x058E
    63f2:	80 91 8f 05 	lds	r24, 0x058F
    63f6:	90 91 90 05 	lds	r25, 0x0590
    63fa:	0e 94 94 3f 	call	0x7f28	; 0x7f28 <__fixsfsi>
    63fe:	8b 01       	movw	r16, r22
    6400:	e3 e0       	ldi	r30, 0x03	; 3
    6402:	00 0f       	add	r16, r16
    6404:	11 1f       	adc	r17, r17
    6406:	ea 95       	dec	r30
    6408:	e1 f7       	brne	.-8      	; 0x6402 <ProcessMixer+0x24>
	temp2 = (int16_t)accSmooth[PITCH] << 3;
    640a:	60 91 91 05 	lds	r22, 0x0591
    640e:	70 91 92 05 	lds	r23, 0x0592
    6412:	80 91 93 05 	lds	r24, 0x0593
    6416:	90 91 94 05 	lds	r25, 0x0594
    641a:	0e 94 94 3f 	call	0x7f28	; 0x7f28 <__fixsfsi>
    641e:	f3 e0       	ldi	r31, 0x03	; 3
    6420:	66 0f       	add	r22, r22
    6422:	77 1f       	adc	r23, r23
    6424:	fa 95       	dec	r31
    6426:	e1 f7       	brne	.-8      	; 0x6420 <ProcessMixer+0x42>
	int16_t	SensorDataP1[5] = {PID_Gyros[P1][ROLL], PID_Gyros[P1][PITCH], PID_Gyros[P1][YAW], temp1, temp2};
    6428:	20 91 bc 07 	lds	r18, 0x07BC
    642c:	30 91 bd 07 	lds	r19, 0x07BD
    6430:	3e 8b       	std	Y+22, r19	; 0x16
    6432:	2d 8b       	std	Y+21, r18	; 0x15
    6434:	3c 87       	std	Y+12, r19	; 0x0c
    6436:	2b 87       	std	Y+11, r18	; 0x0b
    6438:	40 91 be 07 	lds	r20, 0x07BE
    643c:	50 91 bf 07 	lds	r21, 0x07BF
    6440:	58 8f       	std	Y+24, r21	; 0x18
    6442:	4f 8b       	std	Y+23, r20	; 0x17
    6444:	5e 87       	std	Y+14, r21	; 0x0e
    6446:	4d 87       	std	Y+13, r20	; 0x0d
    6448:	20 91 c0 07 	lds	r18, 0x07C0
    644c:	30 91 c1 07 	lds	r19, 0x07C1
    6450:	3a 8f       	std	Y+26, r19	; 0x1a
    6452:	29 8f       	std	Y+25, r18	; 0x19
    6454:	38 8b       	std	Y+16, r19	; 0x10
    6456:	2f 87       	std	Y+15, r18	; 0x0f
    6458:	1a 8b       	std	Y+18, r17	; 0x12
    645a:	09 8b       	std	Y+17, r16	; 0x11
    645c:	7c 8b       	std	Y+20, r23	; 0x14
    645e:	6b 8b       	std	Y+19, r22	; 0x13
	int16_t	SensorDataP2[5] = {PID_Gyros[P2][ROLL], PID_Gyros[P2][PITCH], PID_Gyros[P2][YAW], temp1, temp2}; 
    6460:	20 90 c2 07 	lds	r2, 0x07C2
    6464:	30 90 c3 07 	lds	r3, 0x07C3
    6468:	3a 82       	std	Y+2, r3	; 0x02
    646a:	29 82       	std	Y+1, r2	; 0x01
    646c:	a0 90 c4 07 	lds	r10, 0x07C4
    6470:	b0 90 c5 07 	lds	r11, 0x07C5
    6474:	bc 82       	std	Y+4, r11	; 0x04
    6476:	ab 82       	std	Y+3, r10	; 0x03
    6478:	80 90 c6 07 	lds	r8, 0x07C6
    647c:	90 90 c7 07 	lds	r9, 0x07C7
    6480:	9e 82       	std	Y+6, r9	; 0x06
    6482:	8d 82       	std	Y+5, r8	; 0x05
    6484:	18 87       	std	Y+8, r17	; 0x08
    6486:	0f 83       	std	Y+7, r16	; 0x07
    6488:	7a 87       	std	Y+10, r23	; 0x0a
    648a:	69 87       	std	Y+9, r22	; 0x09
		//************************************************************
		// Mix in gyros
		//************************************************************ 

		// P1 gyros
		if (Transition_state < TRANS_P2)
    648c:	50 90 1a 05 	lds	r5, 0x051A
		{
			if ((Config.Channel[i].P1_sensors & (1 << RollAcc)) != 0) 		// Only add if acc ON
			{
				if ((Config.Channel[i].P1_scale & (1 << AccRollScale)) != 0)// Scale acc
				{
					P1_solution = P1_solution -  scale32(PID_ACCs[P1][ROLL], Config.Channel[i].P1_aileron_volume * 5); 
    6490:	40 91 c8 07 	lds	r20, 0x07C8
    6494:	50 91 c9 07 	lds	r21, 0x07C9
    6498:	5c 8f       	std	Y+28, r21	; 0x1c
    649a:	4b 8f       	std	Y+27, r20	; 0x1b

			if ((Config.Channel[i].P1_sensors & (1 << PitchAcc)) != 0)
			{
				if ((Config.Channel[i].P1_scale & (1 << AccPitchScale)) != 0)
				{
					P1_solution = P1_solution + scale32(PID_ACCs[P1][PITCH], Config.Channel[i].P1_elevator_volume * 5); 
    649c:	20 91 ca 07 	lds	r18, 0x07CA
    64a0:	30 91 cb 07 	lds	r19, 0x07CB
    64a4:	3e 8f       	std	Y+30, r19	; 0x1e
    64a6:	2d 8f       	std	Y+29, r18	; 0x1d

			if ((Config.Channel[i].P1_sensors & (1 << ZDeltaAcc)) != 0)
			{
				if ((Config.Channel[i].P1_scale & (1 << AccZScale)) != 0)
				{
					P1_solution = P1_solution - scale32(PID_ACCs[P1][YAW], Config.Channel[i].P1_throttle_volume); 
    64a8:	40 91 cc 07 	lds	r20, 0x07CC
    64ac:	50 91 cd 07 	lds	r21, 0x07CD
    64b0:	58 a3       	std	Y+32, r21	; 0x20
    64b2:	4f 8f       	std	Y+31, r20	; 0x1f
		{
			if ((Config.Channel[i].P2_sensors & (1 << RollAcc)) != 0) 		// Only add if acc ON
			{
				if ((Config.Channel[i].P2_scale & (1 << AccRollScale)) != 0)// Scale acc
				{
					P2_solution = P2_solution - scale32(PID_ACCs[P2][ROLL], Config.Channel[i].P2_aileron_volume * 5); 
    64b4:	20 91 ce 07 	lds	r18, 0x07CE
    64b8:	30 91 cf 07 	lds	r19, 0x07CF
    64bc:	3a a3       	std	Y+34, r19	; 0x22
    64be:	29 a3       	std	Y+33, r18	; 0x21

			if ((Config.Channel[i].P2_sensors & (1 << PitchAcc)) != 0)
			{
				if ((Config.Channel[i].P2_scale & (1 << AccPitchScale)) != 0)
				{
					P2_solution = P2_solution + scale32(PID_ACCs[P2][PITCH], Config.Channel[i].P2_elevator_volume * 5); 
    64c0:	40 91 d0 07 	lds	r20, 0x07D0
    64c4:	50 91 d1 07 	lds	r21, 0x07D1
    64c8:	5c a3       	std	Y+36, r21	; 0x24
    64ca:	4b a3       	std	Y+35, r20	; 0x23

			if ((Config.Channel[i].P2_sensors & (1 << ZDeltaAcc)) != 0)
			{
				if ((Config.Channel[i].P2_scale & (1 << AccZScale)) != 0)
				{
					P2_solution = P2_solution - scale32(PID_ACCs[P2][YAW], Config.Channel[i].P2_throttle_volume); 
    64cc:	20 91 d2 07 	lds	r18, 0x07D2
    64d0:	30 91 d3 07 	lds	r19, 0x07D3
    64d4:	3e a3       	std	Y+38, r19	; 0x26
    64d6:	2d a3       	std	Y+37, r18	; 0x25
		if (Transition_state < TRANS_P2)
		{
			// Mix in dedicated RC sources - aileron, elevator and rudder
			if (Config.Channel[i].P1_aileron_volume !=0) 					// Mix in dedicated aileron
			{
				temp2 = scale32(RCinputs[AILERON], Config.Channel[i].P1_aileron_volume);
    64d8:	40 91 d8 07 	lds	r20, 0x07D8
    64dc:	50 91 d9 07 	lds	r21, 0x07D9
    64e0:	58 a7       	std	Y+40, r21	; 0x28
    64e2:	4f a3       	std	Y+39, r20	; 0x27
				P1_solution = P1_solution + temp2;
			}
			if (Config.Channel[i].P1_elevator_volume !=0) 					// Mix in dedicated elevator
			{
				temp2 = scale32(RCinputs[ELEVATOR], Config.Channel[i].P1_elevator_volume);
    64e4:	20 91 da 07 	lds	r18, 0x07DA
    64e8:	30 91 db 07 	lds	r19, 0x07DB
    64ec:	3a a7       	std	Y+42, r19	; 0x2a
    64ee:	29 a7       	std	Y+41, r18	; 0x29
				P1_solution = P1_solution + temp2;
			}
			if (Config.Channel[i].P1_rudder_volume !=0) 					// Mix in dedicated rudder
			{
				temp2 = scale32(RCinputs[RUDDER], Config.Channel[i].P1_rudder_volume);
    64f0:	40 91 dc 07 	lds	r20, 0x07DC
    64f4:	50 91 dd 07 	lds	r21, 0x07DD
    64f8:	5c a7       	std	Y+44, r21	; 0x2c
    64fa:	4b a7       	std	Y+43, r20	; 0x2b
    64fc:	c1 2c       	mov	r12, r1
    64fe:	d1 2c       	mov	r13, r1
				{
					P2_solution = P2_solution + PID_Gyros[P2][ROLL];		// Reverse if volume negative
				}
				else
				{
					P2_solution = P2_solution - PID_Gyros[P2][ROLL];
    6500:	22 27       	eor	r18, r18
    6502:	33 27       	eor	r19, r19
    6504:	22 19       	sub	r18, r2
    6506:	33 09       	sbc	r19, r3
    6508:	3e a7       	std	Y+46, r19	; 0x2e
    650a:	2d a7       	std	Y+45, r18	; 0x2d
				{
					P1_solution = P1_solution + PID_Gyros[P1][ROLL];		// Reverse if volume negative
				}
				else
				{
					P1_solution = P1_solution - PID_Gyros[P1][ROLL];
    650c:	4d 89       	ldd	r20, Y+21	; 0x15
    650e:	5e 89       	ldd	r21, Y+22	; 0x16
    6510:	51 95       	neg	r21
    6512:	41 95       	neg	r20
    6514:	51 09       	sbc	r21, r1
    6516:	58 ab       	std	Y+48, r21	; 0x30
    6518:	4f a7       	std	Y+47, r20	; 0x2f
		//************************************************************
		// Mix in gyros
		//************************************************************ 

		// P1 gyros
		if (Transition_state < TRANS_P2)
    651a:	58 e0       	ldi	r21, 0x08	; 8
    651c:	55 15       	cp	r21, r5
    651e:	08 f4       	brcc	.+2      	; 0x6522 <ProcessMixer+0x144>
    6520:	6d c0       	rjmp	.+218    	; 0x65fc <ProcessMixer+0x21e>
    6522:	86 01       	movw	r16, r12
    6524:	0b 55       	subi	r16, 0x5B	; 91
    6526:	1a 4f       	sbci	r17, 0xFA	; 250
    6528:	f8 01       	movw	r30, r16
    652a:	ed 55       	subi	r30, 0x5D	; 93
    652c:	ff 4f       	sbci	r31, 0xFF	; 255
		{
			if ((Config.Channel[i].P1_sensors & (1 << RollGyro)) != 0) 		// Only add if gyro ON
    652e:	70 80       	ld	r7, Z
    6530:	70 fe       	sbrs	r7, 0
    6532:	19 c0       	rjmp	.+50     	; 0x6566 <ProcessMixer+0x188>
    6534:	32 96       	adiw	r30, 0x02	; 2
			{
				if ((Config.Channel[i].P1_scale & (1 << RollScale)) != 0)	// Scale gyro
    6536:	80 81       	ld	r24, Z
    6538:	38 97       	sbiw	r30, 0x08	; 8
    653a:	80 ff       	sbrs	r24, 0
    653c:	0e c0       	rjmp	.+28     	; 0x655a <ProcessMixer+0x17c>
				{
					P1_solution = P1_solution - scale32(PID_Gyros[P1][ROLL], Config.Channel[i].P1_aileron_volume * 5); 
    653e:	60 81       	ld	r22, Z
    6540:	85 e0       	ldi	r24, 0x05	; 5
    6542:	68 02       	muls	r22, r24
    6544:	b0 01       	movw	r22, r0
    6546:	11 24       	eor	r1, r1
    6548:	8d 89       	ldd	r24, Y+21	; 0x15
    654a:	9e 89       	ldd	r25, Y+22	; 0x16
    654c:	0e 94 cc 31 	call	0x6398	; 0x6398 <scale32>
    6550:	ee 24       	eor	r14, r14
    6552:	ff 24       	eor	r15, r15
    6554:	e8 1a       	sub	r14, r24
    6556:	f9 0a       	sbc	r15, r25
    6558:	0b c0       	rjmp	.+22     	; 0x6570 <ProcessMixer+0x192>
				}
				else if (Config.Channel[i].P1_aileron_volume < 0 )
    655a:	80 81       	ld	r24, Z
    655c:	87 fd       	sbrc	r24, 7
    655e:	06 c0       	rjmp	.+12     	; 0x656c <ProcessMixer+0x18e>
				{
					P1_solution = P1_solution + PID_Gyros[P1][ROLL];		// Reverse if volume negative
				}
				else
				{
					P1_solution = P1_solution - PID_Gyros[P1][ROLL];
    6560:	ef a4       	ldd	r14, Y+47	; 0x2f
    6562:	f8 a8       	ldd	r15, Y+48	; 0x30
    6564:	05 c0       	rjmp	.+10     	; 0x6570 <ProcessMixer+0x192>
	{
		//************************************************************
		// Zero each channel value to start
		//************************************************************

		P1_solution = 0;
    6566:	e1 2c       	mov	r14, r1
    6568:	f1 2c       	mov	r15, r1
    656a:	02 c0       	rjmp	.+4      	; 0x6570 <ProcessMixer+0x192>
				{
					P1_solution = P1_solution - scale32(PID_Gyros[P1][ROLL], Config.Channel[i].P1_aileron_volume * 5); 
				}
				else if (Config.Channel[i].P1_aileron_volume < 0 )
				{
					P1_solution = P1_solution + PID_Gyros[P1][ROLL];		// Reverse if volume negative
    656c:	ed 88       	ldd	r14, Y+21	; 0x15
    656e:	fe 88       	ldd	r15, Y+22	; 0x16
				else
				{
					P1_solution = P1_solution - PID_Gyros[P1][ROLL];
				}
			}
			if ((Config.Channel[i].P1_sensors & (1 << PitchGyro)) != 0)
    6570:	71 fe       	sbrs	r7, 1
    6572:	1f c0       	rjmp	.+62     	; 0x65b2 <ProcessMixer+0x1d4>
    6574:	f8 01       	movw	r30, r16
    6576:	eb 55       	subi	r30, 0x5B	; 91
    6578:	ff 4f       	sbci	r31, 0xFF	; 255
			{
				if ((Config.Channel[i].P1_scale & (1 << PitchScale)) != 0)
    657a:	80 81       	ld	r24, Z
    657c:	36 97       	sbiw	r30, 0x06	; 6
    657e:	81 ff       	sbrs	r24, 1
    6580:	0c c0       	rjmp	.+24     	; 0x659a <ProcessMixer+0x1bc>
				{
					P1_solution = P1_solution + scale32(PID_Gyros[P1][PITCH], Config.Channel[i].P1_elevator_volume * 5); 
    6582:	60 81       	ld	r22, Z
    6584:	95 e0       	ldi	r25, 0x05	; 5
    6586:	69 02       	muls	r22, r25
    6588:	b0 01       	movw	r22, r0
    658a:	11 24       	eor	r1, r1
    658c:	8f 89       	ldd	r24, Y+23	; 0x17
    658e:	98 8d       	ldd	r25, Y+24	; 0x18
    6590:	0e 94 cc 31 	call	0x6398	; 0x6398 <scale32>
    6594:	e8 0e       	add	r14, r24
    6596:	f9 1e       	adc	r15, r25
    6598:	0c c0       	rjmp	.+24     	; 0x65b2 <ProcessMixer+0x1d4>
				}
				else if (Config.Channel[i].P1_elevator_volume < 0 )
    659a:	80 81       	ld	r24, Z
    659c:	87 ff       	sbrs	r24, 7
    659e:	05 c0       	rjmp	.+10     	; 0x65aa <ProcessMixer+0x1cc>
				{
					P1_solution = P1_solution - PID_Gyros[P1][PITCH];		// Reverse if volume negative
    65a0:	2f 89       	ldd	r18, Y+23	; 0x17
    65a2:	38 8d       	ldd	r19, Y+24	; 0x18
    65a4:	e2 1a       	sub	r14, r18
    65a6:	f3 0a       	sbc	r15, r19
    65a8:	04 c0       	rjmp	.+8      	; 0x65b2 <ProcessMixer+0x1d4>
				}
				else
				{
					P1_solution = P1_solution + PID_Gyros[P1][PITCH];
    65aa:	4f 89       	ldd	r20, Y+23	; 0x17
    65ac:	58 8d       	ldd	r21, Y+24	; 0x18
    65ae:	e4 0e       	add	r14, r20
    65b0:	f5 1e       	adc	r15, r21
				}
			}
			if ((Config.Channel[i].P1_sensors & (1 << YawGyro)) != 0)
    65b2:	72 fe       	sbrs	r7, 2
    65b4:	1f c0       	rjmp	.+62     	; 0x65f4 <ProcessMixer+0x216>
    65b6:	f8 01       	movw	r30, r16
    65b8:	eb 55       	subi	r30, 0x5B	; 91
    65ba:	ff 4f       	sbci	r31, 0xFF	; 255
			{
				if ((Config.Channel[i].P1_scale & (1 << YawScale)) != 0)
    65bc:	80 81       	ld	r24, Z
    65be:	34 97       	sbiw	r30, 0x04	; 4
    65c0:	82 ff       	sbrs	r24, 2
    65c2:	0c c0       	rjmp	.+24     	; 0x65dc <ProcessMixer+0x1fe>
				{
					P1_solution = P1_solution + scale32(PID_Gyros[P1][YAW], Config.Channel[i].P1_rudder_volume * 5); 
    65c4:	60 81       	ld	r22, Z
    65c6:	55 e0       	ldi	r21, 0x05	; 5
    65c8:	65 02       	muls	r22, r21
    65ca:	b0 01       	movw	r22, r0
    65cc:	11 24       	eor	r1, r1
    65ce:	89 8d       	ldd	r24, Y+25	; 0x19
    65d0:	9a 8d       	ldd	r25, Y+26	; 0x1a
    65d2:	0e 94 cc 31 	call	0x6398	; 0x6398 <scale32>
    65d6:	e8 0e       	add	r14, r24
    65d8:	f9 1e       	adc	r15, r25
    65da:	0c c0       	rjmp	.+24     	; 0x65f4 <ProcessMixer+0x216>
				}
				else if (Config.Channel[i].P1_rudder_volume < 0 )
    65dc:	80 81       	ld	r24, Z
    65de:	87 ff       	sbrs	r24, 7
    65e0:	05 c0       	rjmp	.+10     	; 0x65ec <ProcessMixer+0x20e>
				{
					P1_solution = P1_solution - PID_Gyros[P1][YAW];			// Reverse if volume negative
    65e2:	29 8d       	ldd	r18, Y+25	; 0x19
    65e4:	3a 8d       	ldd	r19, Y+26	; 0x1a
    65e6:	e2 1a       	sub	r14, r18
    65e8:	f3 0a       	sbc	r15, r19
    65ea:	04 c0       	rjmp	.+8      	; 0x65f4 <ProcessMixer+0x216>
				}
				else
				{
					P1_solution = P1_solution + PID_Gyros[P1][YAW];
    65ec:	49 8d       	ldd	r20, Y+25	; 0x19
    65ee:	5a 8d       	ldd	r21, Y+26	; 0x1a
    65f0:	e4 0e       	add	r14, r20
    65f2:	f5 1e       	adc	r15, r21
				}
			}
		}

		// P2 gyros
		if (Transition_state > TRANS_P1)
    65f4:	55 20       	and	r5, r5
    65f6:	09 f4       	brne	.+2      	; 0x65fa <ProcessMixer+0x21c>
    65f8:	66 c0       	rjmp	.+204    	; 0x66c6 <ProcessMixer+0x2e8>
    65fa:	02 c0       	rjmp	.+4      	; 0x6600 <ProcessMixer+0x222>
	{
		//************************************************************
		// Zero each channel value to start
		//************************************************************

		P1_solution = 0;
    65fc:	e1 2c       	mov	r14, r1
    65fe:	f1 2c       	mov	r15, r1
    6600:	c6 01       	movw	r24, r12
    6602:	8b 55       	subi	r24, 0x5B	; 91
    6604:	9a 4f       	sbci	r25, 0xFA	; 250
    6606:	3c 01       	movw	r6, r24
    6608:	fc 01       	movw	r30, r24
    660a:	ec 55       	subi	r30, 0x5C	; 92
    660c:	ff 4f       	sbci	r31, 0xFF	; 255
		}

		// P2 gyros
		if (Transition_state > TRANS_P1)
		{
			if ((Config.Channel[i].P2_sensors & (1 << RollGyro)) != 0) 		// Only add if gyro ON
    660e:	40 80       	ld	r4, Z
    6610:	40 fe       	sbrs	r4, 0
    6612:	18 c0       	rjmp	.+48     	; 0x6644 <ProcessMixer+0x266>
    6614:	32 96       	adiw	r30, 0x02	; 2
			{
				if ((Config.Channel[i].P2_scale & (1 << RollScale)) != 0)	// Scale gyro
    6616:	80 81       	ld	r24, Z
    6618:	38 97       	sbiw	r30, 0x08	; 8
    661a:	80 ff       	sbrs	r24, 0
    661c:	0d c0       	rjmp	.+26     	; 0x6638 <ProcessMixer+0x25a>
				{
					P2_solution = P2_solution - scale32(PID_Gyros[P2][ROLL], Config.Channel[i].P2_aileron_volume * 5); 
    661e:	60 81       	ld	r22, Z
    6620:	95 e0       	ldi	r25, 0x05	; 5
    6622:	69 02       	muls	r22, r25
    6624:	b0 01       	movw	r22, r0
    6626:	11 24       	eor	r1, r1
    6628:	c1 01       	movw	r24, r2
    662a:	0e 94 cc 31 	call	0x6398	; 0x6398 <scale32>
    662e:	00 27       	eor	r16, r16
    6630:	11 27       	eor	r17, r17
    6632:	08 1b       	sub	r16, r24
    6634:	19 0b       	sbc	r17, r25
    6636:	0a c0       	rjmp	.+20     	; 0x664c <ProcessMixer+0x26e>
				}
				else if (Config.Channel[i].P2_aileron_volume < 0 )
    6638:	80 81       	ld	r24, Z
    663a:	87 fd       	sbrc	r24, 7
    663c:	06 c0       	rjmp	.+12     	; 0x664a <ProcessMixer+0x26c>
				{
					P2_solution = P2_solution + PID_Gyros[P2][ROLL];		// Reverse if volume negative
				}
				else
				{
					P2_solution = P2_solution - PID_Gyros[P2][ROLL];
    663e:	0d a5       	ldd	r16, Y+45	; 0x2d
    6640:	1e a5       	ldd	r17, Y+46	; 0x2e
    6642:	04 c0       	rjmp	.+8      	; 0x664c <ProcessMixer+0x26e>
		//************************************************************
		// Zero each channel value to start
		//************************************************************

		P1_solution = 0;
		P2_solution = 0;
    6644:	00 e0       	ldi	r16, 0x00	; 0
    6646:	10 e0       	ldi	r17, 0x00	; 0
    6648:	01 c0       	rjmp	.+2      	; 0x664c <ProcessMixer+0x26e>
				{
					P2_solution = P2_solution - scale32(PID_Gyros[P2][ROLL], Config.Channel[i].P2_aileron_volume * 5); 
				}
				else if (Config.Channel[i].P2_aileron_volume < 0 )
				{
					P2_solution = P2_solution + PID_Gyros[P2][ROLL];		// Reverse if volume negative
    664a:	81 01       	movw	r16, r2
				else
				{
					P2_solution = P2_solution - PID_Gyros[P2][ROLL];
				}
			}
			if ((Config.Channel[i].P2_sensors & (1 << PitchGyro)) != 0)
    664c:	41 fe       	sbrs	r4, 1
    664e:	1a c0       	rjmp	.+52     	; 0x6684 <ProcessMixer+0x2a6>
    6650:	f3 01       	movw	r30, r6
    6652:	ea 55       	subi	r30, 0x5A	; 90
    6654:	ff 4f       	sbci	r31, 0xFF	; 255
			{
				if ((Config.Channel[i].P2_scale & (1 << PitchScale)) != 0)
    6656:	80 81       	ld	r24, Z
    6658:	36 97       	sbiw	r30, 0x06	; 6
    665a:	81 ff       	sbrs	r24, 1
    665c:	0b c0       	rjmp	.+22     	; 0x6674 <ProcessMixer+0x296>
				{
					P2_solution = P2_solution + scale32(PID_Gyros[P2][PITCH], Config.Channel[i].P2_elevator_volume * 5); 
    665e:	60 81       	ld	r22, Z
    6660:	a5 e0       	ldi	r26, 0x05	; 5
    6662:	6a 02       	muls	r22, r26
    6664:	b0 01       	movw	r22, r0
    6666:	11 24       	eor	r1, r1
    6668:	c5 01       	movw	r24, r10
    666a:	0e 94 cc 31 	call	0x6398	; 0x6398 <scale32>
    666e:	08 0f       	add	r16, r24
    6670:	19 1f       	adc	r17, r25
    6672:	08 c0       	rjmp	.+16     	; 0x6684 <ProcessMixer+0x2a6>
				}
				else if (Config.Channel[i].P2_elevator_volume < 0 )
    6674:	80 81       	ld	r24, Z
    6676:	87 ff       	sbrs	r24, 7
    6678:	03 c0       	rjmp	.+6      	; 0x6680 <ProcessMixer+0x2a2>
				{
					P2_solution = P2_solution - PID_Gyros[P2][PITCH];		// Reverse if volume negative
    667a:	0a 19       	sub	r16, r10
    667c:	1b 09       	sbc	r17, r11
    667e:	02 c0       	rjmp	.+4      	; 0x6684 <ProcessMixer+0x2a6>
				}
				else
				{
					P2_solution = P2_solution + PID_Gyros[P2][PITCH];
    6680:	0a 0d       	add	r16, r10
    6682:	1b 1d       	adc	r17, r11
				}
			}
			if ((Config.Channel[i].P2_sensors & (1 << YawGyro)) != 0)
    6684:	42 fe       	sbrs	r4, 2
    6686:	1a c0       	rjmp	.+52     	; 0x66bc <ProcessMixer+0x2de>
    6688:	f3 01       	movw	r30, r6
    668a:	ea 55       	subi	r30, 0x5A	; 90
    668c:	ff 4f       	sbci	r31, 0xFF	; 255
			{
				if ((Config.Channel[i].P2_scale & (1 << YawScale)) != 0)
    668e:	80 81       	ld	r24, Z
    6690:	34 97       	sbiw	r30, 0x04	; 4
    6692:	82 ff       	sbrs	r24, 2
    6694:	0b c0       	rjmp	.+22     	; 0x66ac <ProcessMixer+0x2ce>
				{
					P2_solution = P2_solution + scale32(PID_Gyros[P2][YAW], Config.Channel[i].P2_rudder_volume * 5); 
    6696:	60 81       	ld	r22, Z
    6698:	b5 e0       	ldi	r27, 0x05	; 5
    669a:	6b 02       	muls	r22, r27
    669c:	b0 01       	movw	r22, r0
    669e:	11 24       	eor	r1, r1
    66a0:	c4 01       	movw	r24, r8
    66a2:	0e 94 cc 31 	call	0x6398	; 0x6398 <scale32>
    66a6:	08 0f       	add	r16, r24
    66a8:	19 1f       	adc	r17, r25
    66aa:	08 c0       	rjmp	.+16     	; 0x66bc <ProcessMixer+0x2de>
				}
				else if (Config.Channel[i].P2_rudder_volume < 0 )
    66ac:	80 81       	ld	r24, Z
    66ae:	87 ff       	sbrs	r24, 7
    66b0:	03 c0       	rjmp	.+6      	; 0x66b8 <ProcessMixer+0x2da>
				{
					P2_solution = P2_solution - PID_Gyros[P2][YAW];			// Reverse if volume negative
    66b2:	08 19       	sub	r16, r8
    66b4:	19 09       	sbc	r17, r9
    66b6:	02 c0       	rjmp	.+4      	; 0x66bc <ProcessMixer+0x2de>
				}
				else
				{
					P2_solution = P2_solution + PID_Gyros[P2][YAW];
    66b8:	08 0d       	add	r16, r8
    66ba:	19 1d       	adc	r17, r9

		//************************************************************
		// Mix in accelerometers
		//************************************************************ 
		// P1
		if (Transition_state < TRANS_P2)
    66bc:	e8 e0       	ldi	r30, 0x08	; 8
    66be:	e5 15       	cp	r30, r5
    66c0:	08 f4       	brcc	.+2      	; 0x66c4 <ProcessMixer+0x2e6>
    66c2:	6e c0       	rjmp	.+220    	; 0x67a0 <ProcessMixer+0x3c2>
    66c4:	02 c0       	rjmp	.+4      	; 0x66ca <ProcessMixer+0x2ec>
		//************************************************************
		// Zero each channel value to start
		//************************************************************

		P1_solution = 0;
		P2_solution = 0;
    66c6:	00 e0       	ldi	r16, 0x00	; 0
    66c8:	10 e0       	ldi	r17, 0x00	; 0
    66ca:	96 01       	movw	r18, r12
    66cc:	2b 55       	subi	r18, 0x5B	; 91
    66ce:	3a 4f       	sbci	r19, 0xFA	; 250
    66d0:	39 01       	movw	r6, r18
    66d2:	f9 01       	movw	r30, r18
    66d4:	ed 55       	subi	r30, 0x5D	; 93
    66d6:	ff 4f       	sbci	r31, 0xFF	; 255
		// Mix in accelerometers
		//************************************************************ 
		// P1
		if (Transition_state < TRANS_P2)
		{
			if ((Config.Channel[i].P1_sensors & (1 << RollAcc)) != 0) 		// Only add if acc ON
    66d8:	40 80       	ld	r4, Z
    66da:	43 fe       	sbrs	r4, 3
    66dc:	1d c0       	rjmp	.+58     	; 0x6718 <ProcessMixer+0x33a>
    66de:	32 96       	adiw	r30, 0x02	; 2
			{
				if ((Config.Channel[i].P1_scale & (1 << AccRollScale)) != 0)// Scale acc
    66e0:	80 81       	ld	r24, Z
    66e2:	38 97       	sbiw	r30, 0x08	; 8
    66e4:	83 ff       	sbrs	r24, 3
    66e6:	0c c0       	rjmp	.+24     	; 0x6700 <ProcessMixer+0x322>
				{
					P1_solution = P1_solution -  scale32(PID_ACCs[P1][ROLL], Config.Channel[i].P1_aileron_volume * 5); 
    66e8:	60 81       	ld	r22, Z
    66ea:	35 e0       	ldi	r19, 0x05	; 5
    66ec:	63 02       	muls	r22, r19
    66ee:	b0 01       	movw	r22, r0
    66f0:	11 24       	eor	r1, r1
    66f2:	8b 8d       	ldd	r24, Y+27	; 0x1b
    66f4:	9c 8d       	ldd	r25, Y+28	; 0x1c
    66f6:	0e 94 cc 31 	call	0x6398	; 0x6398 <scale32>
    66fa:	e8 1a       	sub	r14, r24
    66fc:	f9 0a       	sbc	r15, r25
    66fe:	0c c0       	rjmp	.+24     	; 0x6718 <ProcessMixer+0x33a>
				}
				else if (Config.Channel[i].P1_aileron_volume < 0 )
    6700:	80 81       	ld	r24, Z
    6702:	87 ff       	sbrs	r24, 7
    6704:	05 c0       	rjmp	.+10     	; 0x6710 <ProcessMixer+0x332>
				{
					P1_solution = P1_solution + PID_ACCs[P1][ROLL];			// Reverse if volume negative
    6706:	4b 8d       	ldd	r20, Y+27	; 0x1b
    6708:	5c 8d       	ldd	r21, Y+28	; 0x1c
    670a:	e4 0e       	add	r14, r20
    670c:	f5 1e       	adc	r15, r21
    670e:	04 c0       	rjmp	.+8      	; 0x6718 <ProcessMixer+0x33a>
				}
				else
				{
					P1_solution = P1_solution - PID_ACCs[P1][ROLL];			// or simply add
    6710:	2b 8d       	ldd	r18, Y+27	; 0x1b
    6712:	3c 8d       	ldd	r19, Y+28	; 0x1c
    6714:	e2 1a       	sub	r14, r18
    6716:	f3 0a       	sbc	r15, r19
				}
			}

			if ((Config.Channel[i].P1_sensors & (1 << PitchAcc)) != 0)
    6718:	44 fe       	sbrs	r4, 4
    671a:	1f c0       	rjmp	.+62     	; 0x675a <ProcessMixer+0x37c>
    671c:	f3 01       	movw	r30, r6
    671e:	eb 55       	subi	r30, 0x5B	; 91
    6720:	ff 4f       	sbci	r31, 0xFF	; 255
			{
				if ((Config.Channel[i].P1_scale & (1 << AccPitchScale)) != 0)
    6722:	80 81       	ld	r24, Z
    6724:	36 97       	sbiw	r30, 0x06	; 6
    6726:	84 ff       	sbrs	r24, 4
    6728:	0c c0       	rjmp	.+24     	; 0x6742 <ProcessMixer+0x364>
				{
					P1_solution = P1_solution + scale32(PID_ACCs[P1][PITCH], Config.Channel[i].P1_elevator_volume * 5); 
    672a:	60 81       	ld	r22, Z
    672c:	35 e0       	ldi	r19, 0x05	; 5
    672e:	63 02       	muls	r22, r19
    6730:	b0 01       	movw	r22, r0
    6732:	11 24       	eor	r1, r1
    6734:	8d 8d       	ldd	r24, Y+29	; 0x1d
    6736:	9e 8d       	ldd	r25, Y+30	; 0x1e
    6738:	0e 94 cc 31 	call	0x6398	; 0x6398 <scale32>
    673c:	e8 0e       	add	r14, r24
    673e:	f9 1e       	adc	r15, r25
    6740:	0c c0       	rjmp	.+24     	; 0x675a <ProcessMixer+0x37c>
				}
				else if (Config.Channel[i].P1_elevator_volume < 0 )
    6742:	80 81       	ld	r24, Z
    6744:	87 ff       	sbrs	r24, 7
    6746:	05 c0       	rjmp	.+10     	; 0x6752 <ProcessMixer+0x374>
				{
					P1_solution = P1_solution - PID_ACCs[P1][PITCH];		// Reverse if volume negative
    6748:	4d 8d       	ldd	r20, Y+29	; 0x1d
    674a:	5e 8d       	ldd	r21, Y+30	; 0x1e
    674c:	e4 1a       	sub	r14, r20
    674e:	f5 0a       	sbc	r15, r21
    6750:	04 c0       	rjmp	.+8      	; 0x675a <ProcessMixer+0x37c>
				}
				else
				{
					P1_solution = P1_solution + PID_ACCs[P1][PITCH];
    6752:	2d 8d       	ldd	r18, Y+29	; 0x1d
    6754:	3e 8d       	ldd	r19, Y+30	; 0x1e
    6756:	e2 0e       	add	r14, r18
    6758:	f3 1e       	adc	r15, r19
				}
			}

			if ((Config.Channel[i].P1_sensors & (1 << ZDeltaAcc)) != 0)
    675a:	45 fe       	sbrs	r4, 5
    675c:	1e c0       	rjmp	.+60     	; 0x679a <ProcessMixer+0x3bc>
    675e:	f3 01       	movw	r30, r6
    6760:	eb 55       	subi	r30, 0x5B	; 91
    6762:	ff 4f       	sbci	r31, 0xFF	; 255
			{
				if ((Config.Channel[i].P1_scale & (1 << AccZScale)) != 0)
    6764:	80 81       	ld	r24, Z
    6766:	3b 97       	sbiw	r30, 0x0b	; 11
    6768:	85 ff       	sbrs	r24, 5
    676a:	0b c0       	rjmp	.+22     	; 0x6782 <ProcessMixer+0x3a4>
				{
					P1_solution = P1_solution - scale32(PID_ACCs[P1][YAW], Config.Channel[i].P1_throttle_volume); 
    676c:	60 81       	ld	r22, Z
    676e:	77 27       	eor	r23, r23
    6770:	67 fd       	sbrc	r22, 7
    6772:	70 95       	com	r23
    6774:	8f 8d       	ldd	r24, Y+31	; 0x1f
    6776:	98 a1       	ldd	r25, Y+32	; 0x20
    6778:	0e 94 cc 31 	call	0x6398	; 0x6398 <scale32>
    677c:	e8 1a       	sub	r14, r24
    677e:	f9 0a       	sbc	r15, r25
    6780:	0c c0       	rjmp	.+24     	; 0x679a <ProcessMixer+0x3bc>
				}
				else if (Config.Channel[i].P1_throttle_volume < 0 )
    6782:	80 81       	ld	r24, Z
    6784:	87 ff       	sbrs	r24, 7
    6786:	05 c0       	rjmp	.+10     	; 0x6792 <ProcessMixer+0x3b4>
				{
					P1_solution = P1_solution + PID_ACCs[P1][YAW];			// Reverse if volume negative
    6788:	4f 8d       	ldd	r20, Y+31	; 0x1f
    678a:	58 a1       	ldd	r21, Y+32	; 0x20
    678c:	e4 0e       	add	r14, r20
    678e:	f5 1e       	adc	r15, r21
    6790:	04 c0       	rjmp	.+8      	; 0x679a <ProcessMixer+0x3bc>
				}
				else
				{
					P1_solution = P1_solution - PID_ACCs[P1][YAW];
    6792:	2f 8d       	ldd	r18, Y+31	; 0x1f
    6794:	38 a1       	ldd	r19, Y+32	; 0x20
    6796:	e2 1a       	sub	r14, r18
    6798:	f3 0a       	sbc	r15, r19
				}
			}
		}

		// P2
		if (Transition_state > TRANS_P1)
    679a:	55 20       	and	r5, r5
    679c:	09 f4       	brne	.+2      	; 0x67a0 <ProcessMixer+0x3c2>
    679e:	6c c0       	rjmp	.+216    	; 0x6878 <ProcessMixer+0x49a>
    67a0:	a6 01       	movw	r20, r12
    67a2:	4b 55       	subi	r20, 0x5B	; 91
    67a4:	5a 4f       	sbci	r21, 0xFA	; 250
    67a6:	3a 01       	movw	r6, r20
    67a8:	fa 01       	movw	r30, r20
    67aa:	ec 55       	subi	r30, 0x5C	; 92
    67ac:	ff 4f       	sbci	r31, 0xFF	; 255
		{
			if ((Config.Channel[i].P2_sensors & (1 << RollAcc)) != 0) 		// Only add if acc ON
    67ae:	40 80       	ld	r4, Z
    67b0:	43 fe       	sbrs	r4, 3
    67b2:	1d c0       	rjmp	.+58     	; 0x67ee <ProcessMixer+0x410>
    67b4:	32 96       	adiw	r30, 0x02	; 2
			{
				if ((Config.Channel[i].P2_scale & (1 << AccRollScale)) != 0)// Scale acc
    67b6:	80 81       	ld	r24, Z
    67b8:	38 97       	sbiw	r30, 0x08	; 8
    67ba:	83 ff       	sbrs	r24, 3
    67bc:	0c c0       	rjmp	.+24     	; 0x67d6 <ProcessMixer+0x3f8>
				{
					P2_solution = P2_solution - scale32(PID_ACCs[P2][ROLL], Config.Channel[i].P2_aileron_volume * 5); 
    67be:	60 81       	ld	r22, Z
    67c0:	55 e0       	ldi	r21, 0x05	; 5
    67c2:	65 02       	muls	r22, r21
    67c4:	b0 01       	movw	r22, r0
    67c6:	11 24       	eor	r1, r1
    67c8:	89 a1       	ldd	r24, Y+33	; 0x21
    67ca:	9a a1       	ldd	r25, Y+34	; 0x22
    67cc:	0e 94 cc 31 	call	0x6398	; 0x6398 <scale32>
    67d0:	08 1b       	sub	r16, r24
    67d2:	19 0b       	sbc	r17, r25
    67d4:	0c c0       	rjmp	.+24     	; 0x67ee <ProcessMixer+0x410>
				}
				else if (Config.Channel[i].P2_aileron_volume < 0 )
    67d6:	80 81       	ld	r24, Z
    67d8:	87 ff       	sbrs	r24, 7
    67da:	05 c0       	rjmp	.+10     	; 0x67e6 <ProcessMixer+0x408>
				{
					P2_solution = P2_solution + PID_ACCs[P2][ROLL];			// Reverse if volume negative
    67dc:	29 a1       	ldd	r18, Y+33	; 0x21
    67de:	3a a1       	ldd	r19, Y+34	; 0x22
    67e0:	02 0f       	add	r16, r18
    67e2:	13 1f       	adc	r17, r19
    67e4:	04 c0       	rjmp	.+8      	; 0x67ee <ProcessMixer+0x410>
				}
				else
				{
					P2_solution = P2_solution - PID_ACCs[P2][ROLL];			// or simply add
    67e6:	49 a1       	ldd	r20, Y+33	; 0x21
    67e8:	5a a1       	ldd	r21, Y+34	; 0x22
    67ea:	04 1b       	sub	r16, r20
    67ec:	15 0b       	sbc	r17, r21
				}
			}

			if ((Config.Channel[i].P2_sensors & (1 << PitchAcc)) != 0)
    67ee:	44 fe       	sbrs	r4, 4
    67f0:	1f c0       	rjmp	.+62     	; 0x6830 <ProcessMixer+0x452>
    67f2:	f3 01       	movw	r30, r6
    67f4:	ea 55       	subi	r30, 0x5A	; 90
    67f6:	ff 4f       	sbci	r31, 0xFF	; 255
			{
				if ((Config.Channel[i].P2_scale & (1 << AccPitchScale)) != 0)
    67f8:	80 81       	ld	r24, Z
    67fa:	36 97       	sbiw	r30, 0x06	; 6
    67fc:	84 ff       	sbrs	r24, 4
    67fe:	0c c0       	rjmp	.+24     	; 0x6818 <ProcessMixer+0x43a>
				{
					P2_solution = P2_solution + scale32(PID_ACCs[P2][PITCH], Config.Channel[i].P2_elevator_volume * 5); 
    6800:	60 81       	ld	r22, Z
    6802:	55 e0       	ldi	r21, 0x05	; 5
    6804:	65 02       	muls	r22, r21
    6806:	b0 01       	movw	r22, r0
    6808:	11 24       	eor	r1, r1
    680a:	8b a1       	ldd	r24, Y+35	; 0x23
    680c:	9c a1       	ldd	r25, Y+36	; 0x24
    680e:	0e 94 cc 31 	call	0x6398	; 0x6398 <scale32>
    6812:	08 0f       	add	r16, r24
    6814:	19 1f       	adc	r17, r25
    6816:	0c c0       	rjmp	.+24     	; 0x6830 <ProcessMixer+0x452>
				}
				else if (Config.Channel[i].P2_elevator_volume < 0 )
    6818:	80 81       	ld	r24, Z
    681a:	87 ff       	sbrs	r24, 7
    681c:	05 c0       	rjmp	.+10     	; 0x6828 <ProcessMixer+0x44a>
				{

					P2_solution = P2_solution - PID_ACCs[P2][PITCH];		// Reverse if volume negative
    681e:	2b a1       	ldd	r18, Y+35	; 0x23
    6820:	3c a1       	ldd	r19, Y+36	; 0x24
    6822:	02 1b       	sub	r16, r18
    6824:	13 0b       	sbc	r17, r19
    6826:	04 c0       	rjmp	.+8      	; 0x6830 <ProcessMixer+0x452>
				}
				else
				{
					P2_solution = P2_solution + PID_ACCs[P2][PITCH];
    6828:	4b a1       	ldd	r20, Y+35	; 0x23
    682a:	5c a1       	ldd	r21, Y+36	; 0x24
    682c:	04 0f       	add	r16, r20
    682e:	15 1f       	adc	r17, r21
				}
			}

			if ((Config.Channel[i].P2_sensors & (1 << ZDeltaAcc)) != 0)
    6830:	45 fe       	sbrs	r4, 5
    6832:	1e c0       	rjmp	.+60     	; 0x6870 <ProcessMixer+0x492>
    6834:	f3 01       	movw	r30, r6
    6836:	ea 55       	subi	r30, 0x5A	; 90
    6838:	ff 4f       	sbci	r31, 0xFF	; 255
			{
				if ((Config.Channel[i].P2_scale & (1 << AccZScale)) != 0)
    683a:	80 81       	ld	r24, Z
    683c:	3b 97       	sbiw	r30, 0x0b	; 11
    683e:	85 ff       	sbrs	r24, 5
    6840:	0b c0       	rjmp	.+22     	; 0x6858 <ProcessMixer+0x47a>
				{
					P2_solution = P2_solution - scale32(PID_ACCs[P2][YAW], Config.Channel[i].P2_throttle_volume); 
    6842:	60 81       	ld	r22, Z
    6844:	77 27       	eor	r23, r23
    6846:	67 fd       	sbrc	r22, 7
    6848:	70 95       	com	r23
    684a:	8d a1       	ldd	r24, Y+37	; 0x25
    684c:	9e a1       	ldd	r25, Y+38	; 0x26
    684e:	0e 94 cc 31 	call	0x6398	; 0x6398 <scale32>
    6852:	08 1b       	sub	r16, r24
    6854:	19 0b       	sbc	r17, r25
    6856:	0c c0       	rjmp	.+24     	; 0x6870 <ProcessMixer+0x492>
				}
				else if (Config.Channel[i].P2_throttle_volume < 0 )
    6858:	80 81       	ld	r24, Z
    685a:	87 ff       	sbrs	r24, 7
    685c:	05 c0       	rjmp	.+10     	; 0x6868 <ProcessMixer+0x48a>
				{
					P2_solution = P2_solution + PID_ACCs[P2][YAW];			// Reverse if volume negative
    685e:	2d a1       	ldd	r18, Y+37	; 0x25
    6860:	3e a1       	ldd	r19, Y+38	; 0x26
    6862:	02 0f       	add	r16, r18
    6864:	13 1f       	adc	r17, r19
    6866:	04 c0       	rjmp	.+8      	; 0x6870 <ProcessMixer+0x492>
				}
				else
				{
					P2_solution = P2_solution - PID_ACCs[P2][YAW];
    6868:	4d a1       	ldd	r20, Y+37	; 0x25
    686a:	5e a1       	ldd	r21, Y+38	; 0x26
    686c:	04 1b       	sub	r16, r20
    686e:	15 0b       	sbc	r17, r21
		//************************************************************
		// Process mixers
		//************************************************************ 

		// Mix in other outputs here (P1)
		if (Transition_state < TRANS_P2)
    6870:	58 e0       	ldi	r21, 0x08	; 8
    6872:	55 15       	cp	r21, r5
    6874:	08 f4       	brcc	.+2      	; 0x6878 <ProcessMixer+0x49a>
    6876:	86 c0       	rjmp	.+268    	; 0x6984 <ProcessMixer+0x5a6>
    6878:	c6 01       	movw	r24, r12
    687a:	8b 55       	subi	r24, 0x5B	; 91
    687c:	9a 4f       	sbci	r25, 0xFA	; 250
    687e:	3c 01       	movw	r6, r24
    6880:	fc 01       	movw	r30, r24
    6882:	e3 56       	subi	r30, 0x63	; 99
    6884:	ff 4f       	sbci	r31, 0xFF	; 255
		{
			// Mix in dedicated RC sources - aileron, elevator and rudder
			if (Config.Channel[i].P1_aileron_volume !=0) 					// Mix in dedicated aileron
    6886:	60 81       	ld	r22, Z
    6888:	66 23       	and	r22, r22
    688a:	49 f0       	breq	.+18     	; 0x689e <ProcessMixer+0x4c0>
			{
				temp2 = scale32(RCinputs[AILERON], Config.Channel[i].P1_aileron_volume);
    688c:	77 27       	eor	r23, r23
    688e:	67 fd       	sbrc	r22, 7
    6890:	70 95       	com	r23
    6892:	8f a1       	ldd	r24, Y+39	; 0x27
    6894:	98 a5       	ldd	r25, Y+40	; 0x28
    6896:	0e 94 cc 31 	call	0x6398	; 0x6398 <scale32>
				P1_solution = P1_solution + temp2;
    689a:	e8 0e       	add	r14, r24
    689c:	f9 1e       	adc	r15, r25
    689e:	f3 01       	movw	r30, r6
    68a0:	e1 56       	subi	r30, 0x61	; 97
    68a2:	ff 4f       	sbci	r31, 0xFF	; 255
			}
			if (Config.Channel[i].P1_elevator_volume !=0) 					// Mix in dedicated elevator
    68a4:	60 81       	ld	r22, Z
    68a6:	66 23       	and	r22, r22
    68a8:	49 f0       	breq	.+18     	; 0x68bc <ProcessMixer+0x4de>
			{
				temp2 = scale32(RCinputs[ELEVATOR], Config.Channel[i].P1_elevator_volume);
    68aa:	77 27       	eor	r23, r23
    68ac:	67 fd       	sbrc	r22, 7
    68ae:	70 95       	com	r23
    68b0:	89 a5       	ldd	r24, Y+41	; 0x29
    68b2:	9a a5       	ldd	r25, Y+42	; 0x2a
    68b4:	0e 94 cc 31 	call	0x6398	; 0x6398 <scale32>
				P1_solution = P1_solution + temp2;
    68b8:	e8 0e       	add	r14, r24
    68ba:	f9 1e       	adc	r15, r25
    68bc:	f3 01       	movw	r30, r6
    68be:	ef 55       	subi	r30, 0x5F	; 95
    68c0:	ff 4f       	sbci	r31, 0xFF	; 255
			}
			if (Config.Channel[i].P1_rudder_volume !=0) 					// Mix in dedicated rudder
    68c2:	60 81       	ld	r22, Z
    68c4:	66 23       	and	r22, r22
    68c6:	49 f0       	breq	.+18     	; 0x68da <ProcessMixer+0x4fc>
			{
				temp2 = scale32(RCinputs[RUDDER], Config.Channel[i].P1_rudder_volume);
    68c8:	77 27       	eor	r23, r23
    68ca:	67 fd       	sbrc	r22, 7
    68cc:	70 95       	com	r23
    68ce:	8b a5       	ldd	r24, Y+43	; 0x2b
    68d0:	9c a5       	ldd	r25, Y+44	; 0x2c
    68d2:	0e 94 cc 31 	call	0x6398	; 0x6398 <scale32>
				P1_solution = P1_solution + temp2;
    68d6:	e8 0e       	add	r14, r24
    68d8:	f9 1e       	adc	r15, r25
    68da:	f3 01       	movw	r30, r6
    68dc:	e8 55       	subi	r30, 0x58	; 88
    68de:	ff 4f       	sbci	r31, 0xFF	; 255
			}

			// Other sources
			if ((Config.Channel[i].P1_source_a_volume !=0) && (Config.Channel[i].P1_source_a != NOMIX)) // Mix in first extra source
    68e0:	60 81       	ld	r22, Z
    68e2:	66 23       	and	r22, r22
    68e4:	19 f1       	breq	.+70     	; 0x692c <ProcessMixer+0x54e>
    68e6:	31 97       	sbiw	r30, 0x01	; 1
    68e8:	80 81       	ld	r24, Z
    68ea:	8d 30       	cpi	r24, 0x0D	; 13
    68ec:	f9 f0       	breq	.+62     	; 0x692c <ProcessMixer+0x54e>
    68ee:	e8 2f       	mov	r30, r24
    68f0:	ff 27       	eor	r31, r31
    68f2:	e7 fd       	sbrc	r30, 7
    68f4:	f0 95       	com	r31
			{
				// Is the source a sensor?
				if (Config.Channel[i].P1_source_a > (MAX_RC_CHANNELS - 1))
    68f6:	88 30       	cpi	r24, 0x08	; 8
    68f8:	64 f0       	brlt	.+24     	; 0x6912 <ProcessMixer+0x534>
				{
					temp2 = SensorDataP1[Config.Channel[i].P1_source_a - EXT_SOURCE];
    68fa:	38 97       	sbiw	r30, 0x08	; 8
    68fc:	ee 0f       	add	r30, r30
    68fe:	ff 1f       	adc	r31, r31
    6900:	a1 e0       	ldi	r26, 0x01	; 1
    6902:	b0 e0       	ldi	r27, 0x00	; 0
    6904:	ac 0f       	add	r26, r28
    6906:	bd 1f       	adc	r27, r29
    6908:	ea 0f       	add	r30, r26
    690a:	fb 1f       	adc	r31, r27
    690c:	82 85       	ldd	r24, Z+10	; 0x0a
    690e:	93 85       	ldd	r25, Z+11	; 0x0b
    6910:	06 c0       	rjmp	.+12     	; 0x691e <ProcessMixer+0x540>
				}
				// Is the source an RC input?
				else
				{
					// Yes, calculate RC channel number from source number and return RC value
					temp2 = RCinputs[Config.Channel[i].P1_source_a];
    6912:	ee 0f       	add	r30, r30
    6914:	ff 1f       	adc	r31, r31
    6916:	ea 52       	subi	r30, 0x2A	; 42
    6918:	f8 4f       	sbci	r31, 0xF8	; 248
    691a:	80 81       	ld	r24, Z
    691c:	91 81       	ldd	r25, Z+1	; 0x01
				}

				temp2 = scale32(temp2, Config.Channel[i].P1_source_a_volume);
    691e:	77 27       	eor	r23, r23
    6920:	67 fd       	sbrc	r22, 7
    6922:	70 95       	com	r23
    6924:	0e 94 cc 31 	call	0x6398	; 0x6398 <scale32>
				P1_solution = P1_solution + temp2;
    6928:	e8 0e       	add	r14, r24
    692a:	f9 1e       	adc	r15, r25
    692c:	f3 01       	movw	r30, r6
    692e:	e4 55       	subi	r30, 0x54	; 84
    6930:	ff 4f       	sbci	r31, 0xFF	; 255
			}
			if ((Config.Channel[i].P1_source_b_volume !=0) && (Config.Channel[i].P1_source_b != NOMIX)) // Mix in second extra source
    6932:	60 81       	ld	r22, Z
    6934:	66 23       	and	r22, r22
    6936:	19 f1       	breq	.+70     	; 0x697e <ProcessMixer+0x5a0>
    6938:	31 97       	sbiw	r30, 0x01	; 1
    693a:	80 81       	ld	r24, Z
    693c:	8d 30       	cpi	r24, 0x0D	; 13
    693e:	f9 f0       	breq	.+62     	; 0x697e <ProcessMixer+0x5a0>
    6940:	e8 2f       	mov	r30, r24
    6942:	ff 27       	eor	r31, r31
    6944:	e7 fd       	sbrc	r30, 7
    6946:	f0 95       	com	r31
			{
				// Is the source a sensor?
				if (Config.Channel[i].P1_source_b > (MAX_RC_CHANNELS - 1))
    6948:	88 30       	cpi	r24, 0x08	; 8
    694a:	64 f0       	brlt	.+24     	; 0x6964 <ProcessMixer+0x586>
				{
					temp2 = SensorDataP1[Config.Channel[i].P1_source_b - EXT_SOURCE];
    694c:	38 97       	sbiw	r30, 0x08	; 8
    694e:	ee 0f       	add	r30, r30
    6950:	ff 1f       	adc	r31, r31
    6952:	21 e0       	ldi	r18, 0x01	; 1
    6954:	30 e0       	ldi	r19, 0x00	; 0
    6956:	2c 0f       	add	r18, r28
    6958:	3d 1f       	adc	r19, r29
    695a:	e2 0f       	add	r30, r18
    695c:	f3 1f       	adc	r31, r19
    695e:	82 85       	ldd	r24, Z+10	; 0x0a
    6960:	93 85       	ldd	r25, Z+11	; 0x0b
    6962:	06 c0       	rjmp	.+12     	; 0x6970 <ProcessMixer+0x592>
				}
				// Is the source an RC input?
				else
				{
					temp2 = RCinputs[Config.Channel[i].P1_source_b];
    6964:	ee 0f       	add	r30, r30
    6966:	ff 1f       	adc	r31, r31
    6968:	ea 52       	subi	r30, 0x2A	; 42
    696a:	f8 4f       	sbci	r31, 0xF8	; 248
    696c:	80 81       	ld	r24, Z
    696e:	91 81       	ldd	r25, Z+1	; 0x01
				}

				temp2 = scale32(temp2, Config.Channel[i].P1_source_b_volume);
    6970:	77 27       	eor	r23, r23
    6972:	67 fd       	sbrc	r22, 7
    6974:	70 95       	com	r23
    6976:	0e 94 cc 31 	call	0x6398	; 0x6398 <scale32>
				P1_solution = P1_solution + temp2;
    697a:	e8 0e       	add	r14, r24
    697c:	f9 1e       	adc	r15, r25
			}
		}

		// Mix in other outputs here (P2)
		if (Transition_state > TRANS_P1)	
    697e:	55 20       	and	r5, r5
    6980:	09 f4       	brne	.+2      	; 0x6984 <ProcessMixer+0x5a6>
    6982:	7f c0       	rjmp	.+254    	; 0x6a82 <ProcessMixer+0x6a4>
    6984:	a6 01       	movw	r20, r12
    6986:	4b 55       	subi	r20, 0x5B	; 91
    6988:	5a 4f       	sbci	r21, 0xFA	; 250
    698a:	3a 01       	movw	r6, r20
    698c:	fa 01       	movw	r30, r20
    698e:	e2 56       	subi	r30, 0x62	; 98
    6990:	ff 4f       	sbci	r31, 0xFF	; 255
		{
			// Mix in dedicated RC sources - aileron, elevator and rudder
			if (Config.Channel[i].P2_aileron_volume !=0) 					// Mix in dedicated aileron
    6992:	60 81       	ld	r22, Z
    6994:	66 23       	and	r22, r22
    6996:	49 f0       	breq	.+18     	; 0x69aa <ProcessMixer+0x5cc>
			{
				temp2 = scale32(RCinputs[AILERON], Config.Channel[i].P2_aileron_volume);
    6998:	77 27       	eor	r23, r23
    699a:	67 fd       	sbrc	r22, 7
    699c:	70 95       	com	r23
    699e:	8f a1       	ldd	r24, Y+39	; 0x27
    69a0:	98 a5       	ldd	r25, Y+40	; 0x28
    69a2:	0e 94 cc 31 	call	0x6398	; 0x6398 <scale32>
				P2_solution = P2_solution + temp2;
    69a6:	08 0f       	add	r16, r24
    69a8:	19 1f       	adc	r17, r25
    69aa:	f3 01       	movw	r30, r6
    69ac:	e0 56       	subi	r30, 0x60	; 96
    69ae:	ff 4f       	sbci	r31, 0xFF	; 255
			}
			if (Config.Channel[i].P2_elevator_volume !=0) 					// Mix in dedicated elevator
    69b0:	60 81       	ld	r22, Z
    69b2:	66 23       	and	r22, r22
    69b4:	49 f0       	breq	.+18     	; 0x69c8 <ProcessMixer+0x5ea>
			{
				temp2 = scale32(RCinputs[ELEVATOR], Config.Channel[i].P2_elevator_volume);
    69b6:	77 27       	eor	r23, r23
    69b8:	67 fd       	sbrc	r22, 7
    69ba:	70 95       	com	r23
    69bc:	89 a5       	ldd	r24, Y+41	; 0x29
    69be:	9a a5       	ldd	r25, Y+42	; 0x2a
    69c0:	0e 94 cc 31 	call	0x6398	; 0x6398 <scale32>
				P2_solution = P2_solution + temp2;
    69c4:	08 0f       	add	r16, r24
    69c6:	19 1f       	adc	r17, r25
    69c8:	f3 01       	movw	r30, r6
    69ca:	ee 55       	subi	r30, 0x5E	; 94
    69cc:	ff 4f       	sbci	r31, 0xFF	; 255
			}
			if (Config.Channel[i].P2_rudder_volume !=0) 					// Mix in dedicated rudder
    69ce:	60 81       	ld	r22, Z
    69d0:	66 23       	and	r22, r22
    69d2:	49 f0       	breq	.+18     	; 0x69e6 <ProcessMixer+0x608>
			{
				temp2 = scale32(RCinputs[RUDDER], Config.Channel[i].P2_rudder_volume);
    69d4:	77 27       	eor	r23, r23
    69d6:	67 fd       	sbrc	r22, 7
    69d8:	70 95       	com	r23
    69da:	8b a5       	ldd	r24, Y+43	; 0x2b
    69dc:	9c a5       	ldd	r25, Y+44	; 0x2c
    69de:	0e 94 cc 31 	call	0x6398	; 0x6398 <scale32>
				P2_solution = P2_solution + temp2;
    69e2:	08 0f       	add	r16, r24
    69e4:	19 1f       	adc	r17, r25
    69e6:	f3 01       	movw	r30, r6
    69e8:	e6 55       	subi	r30, 0x56	; 86
    69ea:	ff 4f       	sbci	r31, 0xFF	; 255
			}

			// Other sources
			if ((Config.Channel[i].P2_source_a_volume !=0) && (Config.Channel[i].P2_source_a != NOMIX)) // Mix in first extra source
    69ec:	60 81       	ld	r22, Z
    69ee:	66 23       	and	r22, r22
    69f0:	09 f1       	breq	.+66     	; 0x6a34 <ProcessMixer+0x656>
    69f2:	31 97       	sbiw	r30, 0x01	; 1
    69f4:	80 81       	ld	r24, Z
    69f6:	8d 30       	cpi	r24, 0x0D	; 13
    69f8:	e9 f0       	breq	.+58     	; 0x6a34 <ProcessMixer+0x656>
    69fa:	e8 2f       	mov	r30, r24
    69fc:	ff 27       	eor	r31, r31
    69fe:	e7 fd       	sbrc	r30, 7
    6a00:	f0 95       	com	r31
			{
				// Is the source a sensor?
				if (Config.Channel[i].P2_source_a > (MAX_RC_CHANNELS - 1))
    6a02:	88 30       	cpi	r24, 0x08	; 8
    6a04:	54 f0       	brlt	.+20     	; 0x6a1a <ProcessMixer+0x63c>
				{
					temp2 = SensorDataP2[Config.Channel[i].P2_source_a - EXT_SOURCE];
    6a06:	38 97       	sbiw	r30, 0x08	; 8
    6a08:	ee 0f       	add	r30, r30
    6a0a:	ff 1f       	adc	r31, r31
    6a0c:	81 e0       	ldi	r24, 0x01	; 1
    6a0e:	90 e0       	ldi	r25, 0x00	; 0
    6a10:	8c 0f       	add	r24, r28
    6a12:	9d 1f       	adc	r25, r29
    6a14:	e8 0f       	add	r30, r24
    6a16:	f9 1f       	adc	r31, r25
    6a18:	04 c0       	rjmp	.+8      	; 0x6a22 <ProcessMixer+0x644>
				}
				// Is the source an RC input?
				else 
				{
					temp2 = RCinputs[Config.Channel[i].P2_source_a];
    6a1a:	ee 0f       	add	r30, r30
    6a1c:	ff 1f       	adc	r31, r31
    6a1e:	ea 52       	subi	r30, 0x2A	; 42
    6a20:	f8 4f       	sbci	r31, 0xF8	; 248
    6a22:	80 81       	ld	r24, Z
    6a24:	91 81       	ldd	r25, Z+1	; 0x01
				}

				temp2 = scale32(temp2, Config.Channel[i].P2_source_a_volume);
    6a26:	77 27       	eor	r23, r23
    6a28:	67 fd       	sbrc	r22, 7
    6a2a:	70 95       	com	r23
    6a2c:	0e 94 cc 31 	call	0x6398	; 0x6398 <scale32>
				P2_solution = P2_solution + temp2;
    6a30:	08 0f       	add	r16, r24
    6a32:	19 1f       	adc	r17, r25
    6a34:	f3 01       	movw	r30, r6
    6a36:	e2 55       	subi	r30, 0x52	; 82
    6a38:	ff 4f       	sbci	r31, 0xFF	; 255
			}
			if ((Config.Channel[i].P2_source_b_volume !=0) && (Config.Channel[i].P2_source_b != NOMIX)) // Mix in second extra source
    6a3a:	60 81       	ld	r22, Z
    6a3c:	66 23       	and	r22, r22
    6a3e:	09 f1       	breq	.+66     	; 0x6a82 <ProcessMixer+0x6a4>
    6a40:	31 97       	sbiw	r30, 0x01	; 1
    6a42:	80 81       	ld	r24, Z
    6a44:	8d 30       	cpi	r24, 0x0D	; 13
    6a46:	e9 f0       	breq	.+58     	; 0x6a82 <ProcessMixer+0x6a4>
    6a48:	e8 2f       	mov	r30, r24
    6a4a:	ff 27       	eor	r31, r31
    6a4c:	e7 fd       	sbrc	r30, 7
    6a4e:	f0 95       	com	r31
			{
				// Is the source a sensor?
				if (Config.Channel[i].P2_source_b > (MAX_RC_CHANNELS - 1))
    6a50:	88 30       	cpi	r24, 0x08	; 8
    6a52:	54 f0       	brlt	.+20     	; 0x6a68 <ProcessMixer+0x68a>
				{
					temp2 = SensorDataP2[Config.Channel[i].P2_source_b - EXT_SOURCE];
    6a54:	38 97       	sbiw	r30, 0x08	; 8
    6a56:	ee 0f       	add	r30, r30
    6a58:	ff 1f       	adc	r31, r31
    6a5a:	a1 e0       	ldi	r26, 0x01	; 1
    6a5c:	b0 e0       	ldi	r27, 0x00	; 0
    6a5e:	ac 0f       	add	r26, r28
    6a60:	bd 1f       	adc	r27, r29
    6a62:	ea 0f       	add	r30, r26
    6a64:	fb 1f       	adc	r31, r27
    6a66:	04 c0       	rjmp	.+8      	; 0x6a70 <ProcessMixer+0x692>
				}
				// Is the source an RC input?
				else
				{
					temp2 = RCinputs[Config.Channel[i].P2_source_b];
    6a68:	ee 0f       	add	r30, r30
    6a6a:	ff 1f       	adc	r31, r31
    6a6c:	ea 52       	subi	r30, 0x2A	; 42
    6a6e:	f8 4f       	sbci	r31, 0xF8	; 248
    6a70:	80 81       	ld	r24, Z
    6a72:	91 81       	ldd	r25, Z+1	; 0x01
				}

				temp2 = scale32(temp2, Config.Channel[i].P2_source_b_volume);
    6a74:	77 27       	eor	r23, r23
    6a76:	67 fd       	sbrc	r22, 7
    6a78:	70 95       	com	r23
    6a7a:	0e 94 cc 31 	call	0x6398	; 0x6398 <scale32>
				P2_solution = P2_solution + temp2;
    6a7e:	08 0f       	add	r16, r24
    6a80:	19 1f       	adc	r17, r25
    6a82:	c6 01       	movw	r24, r12
    6a84:	8b 55       	subi	r24, 0x5B	; 91
    6a86:	9a 4f       	sbci	r25, 0xFA	; 250
    6a88:	fc 01       	movw	r30, r24
    6a8a:	ee 56       	subi	r30, 0x6E	; 110
    6a8c:	ff 4f       	sbci	r31, 0xFF	; 255
			}
		}
			
		// Save solution for this channel. Note that this contains cross-mixed data from the *last* cycle
		Config.Channel[i].P1_value = P1_solution;
    6a8e:	f1 82       	std	Z+1, r15	; 0x01
    6a90:	e0 82       	st	Z, r14
    6a92:	32 96       	adiw	r30, 0x02	; 2
		Config.Channel[i].P2_value = P2_solution;
    6a94:	11 83       	std	Z+1, r17	; 0x01
    6a96:	00 83       	st	Z, r16
    6a98:	bd e1       	ldi	r27, 0x1D	; 29
    6a9a:	cb 0e       	add	r12, r27
    6a9c:	d1 1c       	adc	r13, r1

	//************************************************************
	// Main mix loop - sensors, RC inputs and other channels
	//************************************************************

	for (i = 0; i < MIX_OUTPUTS; i++)
    6a9e:	e8 ee       	ldi	r30, 0xE8	; 232
    6aa0:	ce 16       	cp	r12, r30
    6aa2:	d1 04       	cpc	r13, r1
    6aa4:	09 f0       	breq	.+2      	; 0x6aa8 <ProcessMixer+0x6ca>
    6aa6:	39 cd       	rjmp	.-1422   	; 0x651a <ProcessMixer+0x13c>
	//************************************************************
	// Mixer transition code
	//************************************************************ 

	// Convert number to percentage (0 to 100%)
	if (Config.TransitionSpeed != 0) 
    6aa8:	80 91 d5 05 	lds	r24, 0x05D5
    6aac:	88 23       	and	r24, r24
    6aae:	41 f0       	breq	.+16     	; 0x6ac0 <ProcessMixer+0x6e2>
	{
		// transition_counter counts from 0 to 100 (101 steps)
		transition = transition_counter;
    6ab0:	80 91 1b 05 	lds	r24, 0x051B
    6ab4:	90 91 1c 05 	lds	r25, 0x051C
    6ab8:	90 93 19 05 	sts	0x0519, r25
    6abc:	80 93 18 05 	sts	0x0518, r24

	// Recalculate P1 values based on transition stage
	for (i = 0; i < MIX_OUTPUTS; i++)
	{
		// Speed up the easy ones :)
		if (transition == 0)
    6ac0:	60 90 18 05 	lds	r6, 0x0518
    6ac4:	70 90 19 05 	lds	r7, 0x0519
		}
		else
		{
			// Get source channel value
			temp1 = Config.Channel[i].P1_value;
			temp1 = scale32(temp1, (100 - transition));
    6ac8:	a4 e6       	ldi	r26, 0x64	; 100
    6aca:	ea 2e       	mov	r14, r26
    6acc:	f1 2c       	mov	r15, r1
    6ace:	e6 18       	sub	r14, r6
    6ad0:	f7 08       	sbc	r15, r7
    6ad2:	07 e3       	ldi	r16, 0x37	; 55
    6ad4:	16 e0       	ldi	r17, 0x06	; 6

	// Recalculate P1 values based on transition stage
	for (i = 0; i < MIX_OUTPUTS; i++)
	{
		// Speed up the easy ones :)
		if (transition == 0)
    6ad6:	61 14       	cp	r6, r1
    6ad8:	71 04       	cpc	r7, r1
    6ada:	21 f4       	brne	.+8      	; 0x6ae4 <ProcessMixer+0x706>
		{
			temp1 = Config.Channel[i].P1_value;
    6adc:	d8 01       	movw	r26, r16
    6ade:	8d 91       	ld	r24, X+
    6ae0:	9c 91       	ld	r25, X
    6ae2:	17 c0       	rjmp	.+46     	; 0x6b12 <ProcessMixer+0x734>
		}
		else if (transition >= 100)
    6ae4:	b4 e6       	ldi	r27, 0x64	; 100
    6ae6:	6b 16       	cp	r6, r27
    6ae8:	71 04       	cpc	r7, r1
    6aea:	24 f0       	brlt	.+8      	; 0x6af4 <ProcessMixer+0x716>
		{
			temp1 = Config.Channel[i].P2_value;
    6aec:	f8 01       	movw	r30, r16
    6aee:	82 81       	ldd	r24, Z+2	; 0x02
    6af0:	93 81       	ldd	r25, Z+3	; 0x03
    6af2:	0f c0       	rjmp	.+30     	; 0x6b12 <ProcessMixer+0x734>
		}
		else
		{
			// Get source channel value
			temp1 = Config.Channel[i].P1_value;
			temp1 = scale32(temp1, (100 - transition));
    6af4:	b7 01       	movw	r22, r14
    6af6:	d8 01       	movw	r26, r16
    6af8:	8d 91       	ld	r24, X+
    6afa:	9c 91       	ld	r25, X
    6afc:	0e 94 cc 31 	call	0x6398	; 0x6398 <scale32>
    6b00:	6c 01       	movw	r12, r24

			// Get destination channel value
			temp2 = Config.Channel[i].P2_value;
			temp2 = scale32(temp2, transition);
    6b02:	b3 01       	movw	r22, r6
    6b04:	f8 01       	movw	r30, r16
    6b06:	82 81       	ldd	r24, Z+2	; 0x02
    6b08:	93 81       	ldd	r25, Z+3	; 0x03
    6b0a:	0e 94 cc 31 	call	0x6398	; 0x6398 <scale32>

			// Sum the mixers
			temp1 = temp1 + temp2;
    6b0e:	8c 0d       	add	r24, r12
    6b10:	9d 1d       	adc	r25, r13
		}
		// Save transitioned solution into P1
		Config.Channel[i].P1_value = temp1;
    6b12:	d8 01       	movw	r26, r16
    6b14:	8d 93       	st	X+, r24
    6b16:	9c 93       	st	X, r25
    6b18:	03 5e       	subi	r16, 0xE3	; 227
    6b1a:	1f 4f       	sbci	r17, 0xFF	; 255
		// transition_counter counts from 0 to 100 (101 steps)
		transition = transition_counter;
	}

	// Recalculate P1 values based on transition stage
	for (i = 0; i < MIX_OUTPUTS; i++)
    6b1c:	b7 e0       	ldi	r27, 0x07	; 7
    6b1e:	0f 31       	cpi	r16, 0x1F	; 31
    6b20:	1b 07       	cpc	r17, r27
    6b22:	c9 f6       	brne	.-78     	; 0x6ad6 <ProcessMixer+0x6f8>
				// Just use the value of P1 volume as there is no curve
				temp3 = Config.Channel[i].P1_throttle_volume; // Promote to 16 bits
			}

			// Calculate actual throttle value to the curve
			temp3 = scale32(MonopolarThrottle, temp3);
    6b24:	40 90 d4 07 	lds	r4, 0x07D4
    6b28:	50 90 d5 07 	lds	r5, 0x07D5
    6b2c:	68 e4       	ldi	r22, 0x48	; 72
    6b2e:	c6 2e       	mov	r12, r22
    6b30:	66 e0       	ldi	r22, 0x06	; 6
    6b32:	d6 2e       	mov	r13, r22
    6b34:	70 e4       	ldi	r23, 0x40	; 64
    6b36:	e7 2e       	mov	r14, r23
    6b38:	76 e0       	ldi	r23, 0x06	; 6
    6b3a:	f7 2e       	mov	r15, r23
    6b3c:	07 e3       	ldi	r16, 0x37	; 55
    6b3e:	16 e0       	ldi	r17, 0x06	; 6
			if (Config.Channel[i].P1_throttle_volume != Config.Channel[i].P2_throttle_volume)
			{
				// Calculate step difference in 1/100ths and round
				temp1 = (Config.Channel[i].P2_throttle_volume - Config.Channel[i].P1_throttle_volume);
				temp1 = temp1 << 7; 						// Multiply by 128 so divide gives reasonable step values
				Step1 = temp1 / 100;	
    6b40:	e4 e6       	ldi	r30, 0x64	; 100
    6b42:	ae 2e       	mov	r10, r30
    6b44:	b1 2c       	mov	r11, r1
    6b46:	86 2d       	mov	r24, r6
    6b48:	99 27       	eor	r25, r25
    6b4a:	87 fd       	sbrc	r24, 7
    6b4c:	90 95       	com	r25
					}
					// If P2 greater than P1, SINE is the one we want
					else
					{
						// Multiply SQRTSIN[transition] steps (0 to 100)
						temp3 = (int8_t)pgm_read_byte(&SQRTSIN[(int8_t)transition]);
    6b4e:	9c 01       	movw	r18, r24
    6b50:	20 5c       	subi	r18, 0xC0	; 192
    6b52:	36 4e       	sbci	r19, 0xE6	; 230
    6b54:	3e 8b       	std	Y+22, r19	; 0x16
    6b56:	2d 8b       	std	Y+21, r18	; 0x15
					// Choose between SQRT SINE and SQRT COSINE
					// If P2 less than P1, COSINE (reverse SINE) is the one we want
					if (Step1 < 0)
					{ 
						// Multiply SQRTSIN[100 - transition] steps (0 to 100)
						temp3 = 100 - (int8_t)pgm_read_byte(&SQRTSIN[100 - (int8_t)transition]);
    6b58:	95 01       	movw	r18, r10
    6b5a:	28 1b       	sub	r18, r24
    6b5c:	39 0b       	sbc	r19, r25
    6b5e:	a9 01       	movw	r20, r18
    6b60:	40 5c       	subi	r20, 0xC0	; 192
    6b62:	56 4e       	sbci	r21, 0xE6	; 230
    6b64:	58 8f       	std	Y+24, r21	; 0x18
    6b66:	4f 8b       	std	Y+23, r20	; 0x17
					}
					// If P2 greater than P1, SINE is the one we want
					else
					{
						// Multiply SIN[transition] steps (0 to 100)
						temp3 = (int8_t)pgm_read_byte(&SIN[(int8_t)transition]);
    6b68:	ac 01       	movw	r20, r24
    6b6a:	4b 55       	subi	r20, 0x5B	; 91
    6b6c:	56 4e       	sbci	r21, 0xE6	; 230
    6b6e:	5a 8f       	std	Y+26, r21	; 0x1a
    6b70:	49 8f       	std	Y+25, r20	; 0x19
					// Choose between SINE and COSINE
					// If P2 less than P1, COSINE (reverse SINE) is the one we want
					if (Step1 < 0)
					{ 
						// Multiply SIN[100 - transition] steps (0 to 100)
						temp3 = 100 - (int8_t)pgm_read_byte(&SIN[100 - (int8_t)transition]);
    6b72:	c9 01       	movw	r24, r18
    6b74:	8b 55       	subi	r24, 0x5B	; 91
    6b76:	96 4e       	sbci	r25, 0xE6	; 230
    6b78:	1c 01       	movw	r2, r24
		} // No throttle
		
		// No throttles, so clamp to THROTTLEMIN if flagged as a motor
		else if ((Config.Channel[i].P1_sensors & (1 << MotorMarker)) != 0)
		{
			Config.Channel[i].P1_value = -THROTTLEOFFSET; // 3750-1250 = 2500 = 1.0ms
    6b7a:	fe e1       	ldi	r31, 0x1E	; 30
    6b7c:	8f 2e       	mov	r8, r31
    6b7e:	fb ef       	ldi	r31, 0xFB	; 251
    6b80:	9f 2e       	mov	r9, r31
    6b82:	f7 01       	movw	r30, r14
    6b84:	31 97       	sbiw	r30, 0x01	; 1
	//************************************************************ 

	for (i = 0; i < MIX_OUTPUTS; i++)
	{
		// Ignore if both throttle volumes are 0% (no throttle)
		if 	(!((Config.Channel[i].P1_throttle_volume == 0) && 
    6b86:	90 81       	ld	r25, Z
    6b88:	d7 01       	movw	r26, r14
    6b8a:	8c 91       	ld	r24, X
    6b8c:	91 11       	cpse	r25, r1
    6b8e:	03 c0       	rjmp	.+6      	; 0x6b96 <ProcessMixer+0x7b8>
    6b90:	88 23       	and	r24, r24
    6b92:	09 f4       	brne	.+2      	; 0x6b96 <ProcessMixer+0x7b8>
    6b94:	60 c0       	rjmp	.+192    	; 0x6c56 <ProcessMixer+0x878>
    6b96:	29 2f       	mov	r18, r25
    6b98:	33 27       	eor	r19, r19
    6b9a:	27 fd       	sbrc	r18, 7
    6b9c:	30 95       	com	r19
			(Config.Channel[i].P2_throttle_volume == 0)))
		{
			// Only process if there is a curve
			if (Config.Channel[i].P1_throttle_volume != Config.Channel[i].P2_throttle_volume)
    6b9e:	98 17       	cp	r25, r24
    6ba0:	09 f4       	brne	.+2      	; 0x6ba4 <ProcessMixer+0x7c6>
    6ba2:	4a c0       	rjmp	.+148    	; 0x6c38 <ProcessMixer+0x85a>
			{
				// Calculate step difference in 1/100ths and round
				temp1 = (Config.Channel[i].P2_throttle_volume - Config.Channel[i].P1_throttle_volume);
    6ba4:	99 27       	eor	r25, r25
    6ba6:	87 fd       	sbrc	r24, 7
    6ba8:	90 95       	com	r25
    6baa:	82 1b       	sub	r24, r18
    6bac:	93 0b       	sbc	r25, r19
				temp1 = temp1 << 7; 						// Multiply by 128 so divide gives reasonable step values
    6bae:	96 95       	lsr	r25
    6bb0:	98 2f       	mov	r25, r24
    6bb2:	88 27       	eor	r24, r24
    6bb4:	97 95       	ror	r25
    6bb6:	87 95       	ror	r24
				Step1 = temp1 / 100;	
    6bb8:	b5 01       	movw	r22, r10
    6bba:	0e 94 f2 40 	call	0x81e4	; 0x81e4 <__divmodhi4>

				// Set start (P1) point
				temp2 = Config.Channel[i].P1_throttle_volume; // Promote to 16 bits
				temp2 = temp2 << 7;
    6bbe:	36 95       	lsr	r19
    6bc0:	32 2f       	mov	r19, r18
    6bc2:	22 27       	eor	r18, r18
    6bc4:	37 95       	ror	r19
    6bc6:	27 95       	ror	r18
    6bc8:	f6 01       	movw	r30, r12
    6bca:	37 97       	sbiw	r30, 0x07	; 7

				// Linear vs. Sinusoidal calculation
				if (Config.Channel[i].Throttle_curve == LINEAR)
    6bcc:	80 81       	ld	r24, Z
    6bce:	81 11       	cpse	r24, r1
    6bd0:	08 c0       	rjmp	.+16     	; 0x6be2 <ProcessMixer+0x804>
				{
					// Multiply [transition] steps (0 to 100)
					temp3 = temp2 + (Step1 * transition);
    6bd2:	66 9d       	mul	r22, r6
    6bd4:	c0 01       	movw	r24, r0
    6bd6:	67 9d       	mul	r22, r7
    6bd8:	90 0d       	add	r25, r0
    6bda:	76 9d       	mul	r23, r6
    6bdc:	90 0d       	add	r25, r0
    6bde:	11 24       	eor	r1, r1
    6be0:	21 c0       	rjmp	.+66     	; 0x6c24 <ProcessMixer+0x846>
				}

				// SINE
				else if (Config.Channel[i].Throttle_curve == SINE)
    6be2:	81 30       	cpi	r24, 0x01	; 1
    6be4:	39 f4       	brne	.+14     	; 0x6bf4 <ProcessMixer+0x816>
				{
					// Choose between SINE and COSINE
					// If P2 less than P1, COSINE (reverse SINE) is the one we want
					if (Step1 < 0)
    6be6:	77 ff       	sbrs	r23, 7
    6be8:	02 c0       	rjmp	.+4      	; 0x6bee <ProcessMixer+0x810>
					{ 
						// Multiply SIN[100 - transition] steps (0 to 100)
						temp3 = 100 - (int8_t)pgm_read_byte(&SIN[100 - (int8_t)transition]);
    6bea:	f1 01       	movw	r30, r2
    6bec:	07 c0       	rjmp	.+14     	; 0x6bfc <ProcessMixer+0x81e>
					}
					// If P2 greater than P1, SINE is the one we want
					else
					{
						// Multiply SIN[transition] steps (0 to 100)
						temp3 = (int8_t)pgm_read_byte(&SIN[(int8_t)transition]);
    6bee:	e9 8d       	ldd	r30, Y+25	; 0x19
    6bf0:	fa 8d       	ldd	r31, Y+26	; 0x1a
    6bf2:	0d c0       	rjmp	.+26     	; 0x6c0e <ProcessMixer+0x830>
				// SQRT SINE
				else
				{
					// Choose between SQRT SINE and SQRT COSINE
					// If P2 less than P1, COSINE (reverse SINE) is the one we want
					if (Step1 < 0)
    6bf4:	77 ff       	sbrs	r23, 7
    6bf6:	09 c0       	rjmp	.+18     	; 0x6c0a <ProcessMixer+0x82c>
					{ 
						// Multiply SQRTSIN[100 - transition] steps (0 to 100)
						temp3 = 100 - (int8_t)pgm_read_byte(&SQRTSIN[100 - (int8_t)transition]);
    6bf8:	ef 89       	ldd	r30, Y+23	; 0x17
    6bfa:	f8 8d       	ldd	r31, Y+24	; 0x18
    6bfc:	84 91       	lpm	r24, Z
    6bfe:	a5 01       	movw	r20, r10
    6c00:	48 1b       	sub	r20, r24
    6c02:	51 09       	sbc	r21, r1
    6c04:	87 fd       	sbrc	r24, 7
    6c06:	53 95       	inc	r21
    6c08:	06 c0       	rjmp	.+12     	; 0x6c16 <ProcessMixer+0x838>
					}
					// If P2 greater than P1, SINE is the one we want
					else
					{
						// Multiply SQRTSIN[transition] steps (0 to 100)
						temp3 = (int8_t)pgm_read_byte(&SQRTSIN[(int8_t)transition]);
    6c0a:	ed 89       	ldd	r30, Y+21	; 0x15
    6c0c:	fe 89       	ldd	r31, Y+22	; 0x16
    6c0e:	44 91       	lpm	r20, Z
    6c10:	55 27       	eor	r21, r21
    6c12:	47 fd       	sbrc	r20, 7
    6c14:	50 95       	com	r21
					}

					// Get SINE% (temp2) of difference in volumes (Step1)
					// Step1 is already in 100ths of the difference * 128
					// temp1 is the start volume * 128
					temp3 = temp2 + (Step1 * temp3);
    6c16:	64 9f       	mul	r22, r20
    6c18:	c0 01       	movw	r24, r0
    6c1a:	65 9f       	mul	r22, r21
    6c1c:	90 0d       	add	r25, r0
    6c1e:	74 9f       	mul	r23, r20
    6c20:	90 0d       	add	r25, r0
    6c22:	11 24       	eor	r1, r1
    6c24:	82 0f       	add	r24, r18
    6c26:	93 1f       	adc	r25, r19
				}

				// Round, then rescale to normal value
				temp3 = temp3 + 64;
    6c28:	bc 01       	movw	r22, r24
    6c2a:	60 5c       	subi	r22, 0xC0	; 192
    6c2c:	7f 4f       	sbci	r23, 0xFF	; 255
				temp3 = temp3 >> 7;
    6c2e:	66 0f       	add	r22, r22
    6c30:	67 2f       	mov	r22, r23
    6c32:	66 1f       	adc	r22, r22
    6c34:	77 0b       	sbc	r23, r23
    6c36:	01 c0       	rjmp	.+2      	; 0x6c3a <ProcessMixer+0x85c>
			
			// No curve
			else
			{
				// Just use the value of P1 volume as there is no curve
				temp3 = Config.Channel[i].P1_throttle_volume; // Promote to 16 bits
    6c38:	b9 01       	movw	r22, r18
			}

			// Calculate actual throttle value to the curve
			temp3 = scale32(MonopolarThrottle, temp3);
    6c3a:	c2 01       	movw	r24, r4
    6c3c:	0e 94 cc 31 	call	0x6398	; 0x6398 <scale32>

			// At this point, the throttle values are 0 to 2500 (+/-150%)
			// Re-scale throttle values back to neutral-centered system values (+/-1250) 
			// and set the minimum throttle point to 1.1ms.
			// A THROTTLEMIN value of 1000 will result in 2750, or 1.1ms
			temp3 = temp3 - THROTTLEMIN;
    6c40:	88 5e       	subi	r24, 0xE8	; 232
    6c42:	93 40       	sbci	r25, 0x03	; 3

			// Add offset to channel value
			Config.Channel[i].P1_value += temp3;
    6c44:	d8 01       	movw	r26, r16
    6c46:	2d 91       	ld	r18, X+
    6c48:	3c 91       	ld	r19, X
    6c4a:	11 97       	sbiw	r26, 0x01	; 1
    6c4c:	28 0f       	add	r18, r24
    6c4e:	39 1f       	adc	r19, r25
    6c50:	2d 93       	st	X+, r18
    6c52:	3c 93       	st	X, r19
    6c54:	07 c0       	rjmp	.+14     	; 0x6c64 <ProcessMixer+0x886>

		} // No throttle
		
		// No throttles, so clamp to THROTTLEMIN if flagged as a motor
		else if ((Config.Channel[i].P1_sensors & (1 << MotorMarker)) != 0)
    6c56:	f6 01       	movw	r30, r12
    6c58:	80 81       	ld	r24, Z
    6c5a:	86 ff       	sbrs	r24, 6
    6c5c:	03 c0       	rjmp	.+6      	; 0x6c64 <ProcessMixer+0x886>
		{
			Config.Channel[i].P1_value = -THROTTLEOFFSET; // 3750-1250 = 2500 = 1.0ms
    6c5e:	d8 01       	movw	r26, r16
    6c60:	8d 92       	st	X+, r8
    6c62:	9c 92       	st	X, r9
    6c64:	03 5e       	subi	r16, 0xE3	; 227
    6c66:	1f 4f       	sbci	r17, 0xFF	; 255
    6c68:	bd e1       	ldi	r27, 0x1D	; 29
    6c6a:	cb 0e       	add	r12, r27
    6c6c:	d1 1c       	adc	r13, r1
    6c6e:	ed e1       	ldi	r30, 0x1D	; 29
    6c70:	ee 0e       	add	r14, r30
    6c72:	f1 1c       	adc	r15, r1
	// Groovy throttle curve handling. Must be after the transition.
	// Uses the transition value, but is not part of the transition
	// mixer. Linear or Sine curve. Reverse Sine done automatically
	//************************************************************ 

	for (i = 0; i < MIX_OUTPUTS; i++)
    6c74:	f7 e0       	ldi	r31, 0x07	; 7
    6c76:	0f 31       	cpi	r16, 0x1F	; 31
    6c78:	1f 07       	cpc	r17, r31
    6c7a:	09 f0       	breq	.+2      	; 0x6c7e <ProcessMixer+0x8a0>
    6c7c:	82 cf       	rjmp	.-252    	; 0x6b82 <ProcessMixer+0x7a4>
    6c7e:	ee e3       	ldi	r30, 0x3E	; 62
    6c80:	f6 e0       	ldi	r31, 0x06	; 6
    6c82:	27 e3       	ldi	r18, 0x37	; 55
    6c84:	36 e0       	ldi	r19, 0x06	; 6
			// Work out distance to cover over stage 2 (P1.n to P2)
			temp2 = Config.Channel[i].P2_offset - Config.Channel[i].P1n_offset;
			temp2 = temp2 << 7;

			// Divide distance into steps
			temp1 = (100 - Config.Channel[i].P1n_position); 
    6c86:	94 e6       	ldi	r25, 0x64	; 100
    6c88:	a9 2e       	mov	r10, r25
    6c8a:	b1 2c       	mov	r11, r1
    6c8c:	df 01       	movw	r26, r30
    6c8e:	13 97       	sbiw	r26, 0x03	; 3
	//************************************************************ 

	for (i = 0; i < MIX_OUTPUTS; i++)
	{
		// Simplify if all are the same
		if (!((Config.Channel[i].P1_offset == Config.Channel[i].P1n_offset) &&
    6c90:	ec 90       	ld	r14, X
    6c92:	12 96       	adiw	r26, 0x02	; 2
    6c94:	cc 90       	ld	r12, X
    6c96:	50 80       	ld	r5, Z
    6c98:	ec 10       	cpse	r14, r12
    6c9a:	03 c0       	rjmp	.+6      	; 0x6ca2 <ProcessMixer+0x8c4>
    6c9c:	5e 14       	cp	r5, r14
    6c9e:	09 f4       	brne	.+2      	; 0x6ca2 <ProcessMixer+0x8c4>
    6ca0:	53 c0       	rjmp	.+166    	; 0x6d48 <ProcessMixer+0x96a>
		 	 (Config.Channel[i].P2_offset == Config.Channel[i].P1n_offset)))
		{
			// Work out distance to cover over stage 1 (P1 to P1.n)
			temp1 = Config.Channel[i].P1n_offset - Config.Channel[i].P1_offset;
    6ca2:	dd 24       	eor	r13, r13
    6ca4:	c7 fc       	sbrc	r12, 7
    6ca6:	d0 94       	com	r13
    6ca8:	ff 24       	eor	r15, r15
    6caa:	e7 fc       	sbrc	r14, 7
    6cac:	f0 94       	com	r15
    6cae:	c6 01       	movw	r24, r12
    6cb0:	8e 19       	sub	r24, r14
    6cb2:	9f 09       	sbc	r25, r15
    6cb4:	df 01       	movw	r26, r30
    6cb6:	12 97       	sbiw	r26, 0x02	; 2
			temp1 = temp1 << 7; // Multiply by 128 so divide gives reasonable step values

			// Divide distance into steps
			temp2 = Config.Channel[i].P1n_position; 
    6cb8:	0c 91       	ld	r16, X
    6cba:	11 27       	eor	r17, r17
    6cbc:	07 fd       	sbrc	r16, 7
    6cbe:	10 95       	com	r17
		if (!((Config.Channel[i].P1_offset == Config.Channel[i].P1n_offset) &&
		 	 (Config.Channel[i].P2_offset == Config.Channel[i].P1n_offset)))
		{
			// Work out distance to cover over stage 1 (P1 to P1.n)
			temp1 = Config.Channel[i].P1n_offset - Config.Channel[i].P1_offset;
			temp1 = temp1 << 7; // Multiply by 128 so divide gives reasonable step values
    6cc0:	96 95       	lsr	r25
    6cc2:	98 2f       	mov	r25, r24
    6cc4:	88 27       	eor	r24, r24
    6cc6:	97 95       	ror	r25
    6cc8:	87 95       	ror	r24

			// Divide distance into steps
			temp2 = Config.Channel[i].P1n_position; 
			Step1 = ((temp1 + (temp2 >> 1)) / temp2) ; // Divide and round result
    6cca:	a8 01       	movw	r20, r16
    6ccc:	55 95       	asr	r21
    6cce:	47 95       	ror	r20
    6cd0:	84 0f       	add	r24, r20
    6cd2:	95 1f       	adc	r25, r21
    6cd4:	b8 01       	movw	r22, r16
    6cd6:	0e 94 f2 40 	call	0x81e4	; 0x81e4 <__divmodhi4>
    6cda:	4b 01       	movw	r8, r22
		
			// Work out distance to cover over stage 2 (P1.n to P2)
			temp2 = Config.Channel[i].P2_offset - Config.Channel[i].P1n_offset;
    6cdc:	85 2d       	mov	r24, r5
    6cde:	99 27       	eor	r25, r25
    6ce0:	87 fd       	sbrc	r24, 7
    6ce2:	90 95       	com	r25
    6ce4:	8c 19       	sub	r24, r12
    6ce6:	9d 09       	sbc	r25, r13
			temp2 = temp2 << 7;

			// Divide distance into steps
			temp1 = (100 - Config.Channel[i].P1n_position); 
    6ce8:	b5 01       	movw	r22, r10
    6cea:	60 1b       	sub	r22, r16
    6cec:	71 0b       	sbc	r23, r17
			temp2 = Config.Channel[i].P1n_position; 
			Step1 = ((temp1 + (temp2 >> 1)) / temp2) ; // Divide and round result
		
			// Work out distance to cover over stage 2 (P1.n to P2)
			temp2 = Config.Channel[i].P2_offset - Config.Channel[i].P1n_offset;
			temp2 = temp2 << 7;
    6cee:	96 95       	lsr	r25
    6cf0:	98 2f       	mov	r25, r24
    6cf2:	88 27       	eor	r24, r24
    6cf4:	97 95       	ror	r25
    6cf6:	87 95       	ror	r24

			// Divide distance into steps
			temp1 = (100 - Config.Channel[i].P1n_position); 
			Step2 = ((temp2 + (temp1 >> 1)) / temp1) ; // Divide and round result	
    6cf8:	ab 01       	movw	r20, r22
    6cfa:	55 95       	asr	r21
    6cfc:	47 95       	ror	r20
    6cfe:	84 0f       	add	r24, r20
    6d00:	95 1f       	adc	r25, r21
    6d02:	0e 94 f2 40 	call	0x81e4	; 0x81e4 <__divmodhi4>

			// Set start (P1) point
			temp3 = Config.Channel[i].P1_offset; // Promote to 16bits
			temp3 = temp3 << 7;
    6d06:	f6 94       	lsr	r15
    6d08:	fe 2c       	mov	r15, r14
    6d0a:	ee 24       	eor	r14, r14
    6d0c:	f7 94       	ror	r15
    6d0e:	e7 94       	ror	r14

			// Count up transition steps of the appropriate step size
			for (j = 0; j < transition; j++)
    6d10:	40 e0       	ldi	r20, 0x00	; 0
    6d12:	84 2f       	mov	r24, r20
    6d14:	90 e0       	ldi	r25, 0x00	; 0
    6d16:	86 15       	cp	r24, r6
    6d18:	97 05       	cpc	r25, r7
    6d1a:	54 f4       	brge	.+20     	; 0x6d30 <ProcessMixer+0x952>
			{
				// If in stage 1 use Step1 size
				if (j < Config.Channel[i].P1n_position)
    6d1c:	80 17       	cp	r24, r16
    6d1e:	91 07       	cpc	r25, r17
    6d20:	1c f4       	brge	.+6      	; 0x6d28 <ProcessMixer+0x94a>
				{
					temp3 += Step1;
    6d22:	e8 0c       	add	r14, r8
    6d24:	f9 1c       	adc	r15, r9
    6d26:	02 c0       	rjmp	.+4      	; 0x6d2c <ProcessMixer+0x94e>
				}
				// If in stage 2 use Step2 size
				else
				{
					temp3 += Step2;
    6d28:	e6 0e       	add	r14, r22
    6d2a:	f7 1e       	adc	r15, r23
			// Set start (P1) point
			temp3 = Config.Channel[i].P1_offset; // Promote to 16bits
			temp3 = temp3 << 7;

			// Count up transition steps of the appropriate step size
			for (j = 0; j < transition; j++)
    6d2c:	4f 5f       	subi	r20, 0xFF	; 255
    6d2e:	f1 cf       	rjmp	.-30     	; 0x6d12 <ProcessMixer+0x934>
					temp3 += Step2;
				}
			}

			// Reformat into a system-compatible value
			temp3 = ((temp3 + 64) >> 7);							// Round then divide by 128
    6d30:	c7 01       	movw	r24, r14
    6d32:	80 5c       	subi	r24, 0xC0	; 192
    6d34:	9f 4f       	sbci	r25, 0xFF	; 255
    6d36:	88 0f       	add	r24, r24
    6d38:	89 2f       	mov	r24, r25
    6d3a:	88 1f       	adc	r24, r24
    6d3c:	99 0b       	sbc	r25, r25
int16_t scale_percent_nooffset(int8_t value)
{
	int16_t temp16_1, temp16_2;

	temp16_1 = value; // Promote
	temp16_2 = (temp16_1 * (int16_t)10);
    6d3e:	4a e0       	ldi	r20, 0x0A	; 10
    6d40:	84 02       	muls	r24, r20
    6d42:	70 01       	movw	r14, r0
    6d44:	11 24       	eor	r1, r1
				}
			}

			// Reformat into a system-compatible value
			temp3 = ((temp3 + 64) >> 7);							// Round then divide by 128
			P1_solution = scale_percent_nooffset((int8_t)temp3);	
    6d46:	05 c0       	rjmp	.+10     	; 0x6d52 <ProcessMixer+0x974>
int16_t scale_percent_nooffset(int8_t value)
{
	int16_t temp16_1, temp16_2;

	temp16_1 = value; // Promote
	temp16_2 = (temp16_1 * (int16_t)10);
    6d48:	55 2d       	mov	r21, r5
    6d4a:	8a e0       	ldi	r24, 0x0A	; 10
    6d4c:	58 02       	muls	r21, r24
    6d4e:	70 01       	movw	r14, r0
    6d50:	11 24       	eor	r1, r1
		{
			P1_solution = scale_percent_nooffset(Config.Channel[i].P1_offset);
		}

		// Add offset to channel value
		Config.Channel[i].P1_value += P1_solution;
    6d52:	d9 01       	movw	r26, r18
    6d54:	4d 91       	ld	r20, X+
    6d56:	5c 91       	ld	r21, X
    6d58:	11 97       	sbiw	r26, 0x01	; 1
    6d5a:	4e 0d       	add	r20, r14
    6d5c:	5f 1d       	adc	r21, r15
    6d5e:	4d 93       	st	X+, r20
    6d60:	5c 93       	st	X, r21
    6d62:	23 5e       	subi	r18, 0xE3	; 227
    6d64:	3f 4f       	sbci	r19, 0xFF	; 255
    6d66:	7d 96       	adiw	r30, 0x1d	; 29
	//************************************************************
	// Per-channel 3-point offset needs to be after the transition  
	// loop as it is non-linear, unlike the transition.
	//************************************************************ 

	for (i = 0; i < MIX_OUTPUTS; i++)
    6d68:	b7 e0       	ldi	r27, 0x07	; 7
    6d6a:	e6 32       	cpi	r30, 0x26	; 38
    6d6c:	fb 07       	cpc	r31, r27
    6d6e:	09 f0       	breq	.+2      	; 0x6d72 <ProcessMixer+0x994>
    6d70:	8d cf       	rjmp	.-230    	; 0x6c8c <ProcessMixer+0x8ae>

		// Add offset to channel value
		Config.Channel[i].P1_value += P1_solution;
	}

} // ProcessMixer()
    6d72:	e0 96       	adiw	r28, 0x30	; 48
    6d74:	e2 e1       	ldi	r30, 0x12	; 18
    6d76:	0c 94 9a 41 	jmp	0x8334	; 0x8334 <__epilogue_restores__>

00006d7a <scale_percent>:
int16_t scale_percent(int8_t value)
{
	int16_t temp16_1, temp16_2;

	temp16_1 = value; // Promote
	temp16_2 = ((temp16_1 * (int16_t)10) + 3750);
    6d7a:	2a e0       	ldi	r18, 0x0A	; 10
    6d7c:	82 02       	muls	r24, r18
    6d7e:	c0 01       	movw	r24, r0
    6d80:	11 24       	eor	r1, r1

	return temp16_2;
}
    6d82:	8a 55       	subi	r24, 0x5A	; 90
    6d84:	91 4f       	sbci	r25, 0xF1	; 241
    6d86:	08 95       	ret

00006d88 <mugui_text_sizestring>:
	\return void
	\date 	12.08.2009
*/
/************************************************************************/
void mugui_text_sizestring(mugui_char_t *s, const unsigned char* font, mugui_size16_t *size)
{
    6d88:	a0 e0       	ldi	r26, 0x00	; 0
    6d8a:	b0 e0       	ldi	r27, 0x00	; 0
    6d8c:	ea ec       	ldi	r30, 0xCA	; 202
    6d8e:	f6 e3       	ldi	r31, 0x36	; 54
    6d90:	0c 94 89 41 	jmp	0x8312	; 0x8312 <__prologue_saves__+0x16>
	mugui_uint8_t  indexhighbyte = 0; 		//high byte of the bitmap address in the array
	mugui_uint32_t indexaddress = 0;		//bitmap address in the array (derived from low and high byte)

	/* read header of the font          */
	/* pgm_read_byte is ATMega specific */
	length = strlen(s);
    6d94:	dc 01       	movw	r26, r24
    6d96:	0d 90       	ld	r0, X+
    6d98:	00 20       	and	r0, r0
    6d9a:	e9 f7       	brne	.-6      	; 0x6d96 <mugui_text_sizestring+0xe>
    6d9c:	11 97       	sbiw	r26, 0x01	; 1
    6d9e:	a8 1b       	sub	r26, r24
    6da0:	b9 0b       	sbc	r27, r25
	height = pgm_read_byte(&font[4]);
    6da2:	fb 01       	movw	r30, r22
    6da4:	34 96       	adiw	r30, 0x04	; 4
    6da6:	e4 90       	lpm	r14, Z
    6da8:	f1 2c       	mov	r15, r1

	startcharacter = pgm_read_byte(&font[2]);
    6daa:	32 97       	sbiw	r30, 0x02	; 2
    6dac:	d4 90       	lpm	r13, Z
    6dae:	ec 01       	movw	r28, r24
    6db0:	a8 0f       	add	r26, r24
    6db2:	b9 1f       	adc	r27, r25
	mugui_uint8_t  distance = 1;			//distance between characters
	mugui_uint16_t length = 0;				//temporary length of string
	mugui_uint16_t i = 0;					//counter variable
	mugui_uint16_t startcharacter = 0; 	    //startcharacter of the font
	mugui_uint16_t height = 0;				//height of the bitmap
	mugui_uint16_t width = 0; 				//width of the bitmap
    6db4:	80 e0       	ldi	r24, 0x00	; 0
    6db6:	90 e0       	ldi	r25, 0x00	; 0
	/* pgm_read_byte is ATMega specific */
	length = strlen(s);
	height = pgm_read_byte(&font[4]);

	startcharacter = pgm_read_byte(&font[2]);
	for(i=0;i<length;i++) //every character in prop fonts has its own width
    6db8:	ca 17       	cp	r28, r26
    6dba:	db 07       	cpc	r29, r27
    6dbc:	29 f1       	breq	.+74     	; 0x6e08 <mugui_text_sizestring+0x80>
	{
		index = s[i] - startcharacter;
    6dbe:	29 91       	ld	r18, Y+
    6dc0:	2d 19       	sub	r18, r13
		indexhighbyte = pgm_read_byte(&font[index*2 + 5]);
    6dc2:	30 e0       	ldi	r19, 0x00	; 0
    6dc4:	22 0f       	add	r18, r18
    6dc6:	33 1f       	adc	r19, r19
    6dc8:	f9 01       	movw	r30, r18
    6dca:	35 96       	adiw	r30, 0x05	; 5
    6dcc:	e6 0f       	add	r30, r22
    6dce:	f7 1f       	adc	r31, r23
    6dd0:	04 91       	lpm	r16, Z
		indexlowbyte = pgm_read_byte(&font[index*2 + 6]);
    6dd2:	f9 01       	movw	r30, r18
    6dd4:	36 96       	adiw	r30, 0x06	; 6
    6dd6:	e6 0f       	add	r30, r22
    6dd8:	f7 1f       	adc	r31, r23
    6dda:	e4 91       	lpm	r30, Z
		indexaddress = (mugui_int64_t)indexhighbyte;
    6ddc:	10 e0       	ldi	r17, 0x00	; 0
    6dde:	20 e0       	ldi	r18, 0x00	; 0
    6de0:	30 e0       	ldi	r19, 0x00	; 0
		indexaddress = indexaddress << 8;
    6de2:	32 2f       	mov	r19, r18
    6de4:	21 2f       	mov	r18, r17
    6de6:	10 2f       	mov	r17, r16
    6de8:	00 27       	eor	r16, r16
		indexaddress += indexlowbyte;
    6dea:	0e 0f       	add	r16, r30
    6dec:	11 1d       	adc	r17, r1
    6dee:	21 1d       	adc	r18, r1
    6df0:	31 1d       	adc	r19, r1
		width += pgm_read_byte(&font[indexaddress]) + distance;
    6df2:	fb 01       	movw	r30, r22
    6df4:	e0 0f       	add	r30, r16
    6df6:	f1 1f       	adc	r31, r17
    6df8:	04 91       	lpm	r16, Z
    6dfa:	20 2f       	mov	r18, r16
    6dfc:	30 e0       	ldi	r19, 0x00	; 0
    6dfe:	2f 5f       	subi	r18, 0xFF	; 255
    6e00:	3f 4f       	sbci	r19, 0xFF	; 255
    6e02:	82 0f       	add	r24, r18
    6e04:	93 1f       	adc	r25, r19
    6e06:	d8 cf       	rjmp	.-80     	; 0x6db8 <mugui_text_sizestring+0x30>
	}

	/* prepare return value */
	size->x = width;
    6e08:	fa 01       	movw	r30, r20
    6e0a:	91 83       	std	Z+1, r25	; 0x01
    6e0c:	80 83       	st	Z, r24
	size->y = height;
    6e0e:	f3 82       	std	Z+3, r15	; 0x03
    6e10:	e2 82       	std	Z+2, r14	; 0x02
}
    6e12:	cd b7       	in	r28, 0x3d	; 61
    6e14:	de b7       	in	r29, 0x3e	; 62
    6e16:	e7 e0       	ldi	r30, 0x07	; 7
    6e18:	0c 94 a5 41 	jmp	0x834a	; 0x834a <__epilogue_restores__+0x16>

00006e1c <pgm_mugui_scopy>:
	\date 	30.07.2012
	\Created by D. Thompson
*/
/************************************************************************/
void pgm_mugui_scopy(const char *s)
{
    6e1c:	a3 e5       	ldi	r26, 0x53	; 83
    6e1e:	b5 e0       	ldi	r27, 0x05	; 5
	int i = 0;
    6e20:	20 e0       	ldi	r18, 0x00	; 0
    6e22:	30 e0       	ldi	r19, 0x00	; 0
    6e24:	fc 01       	movw	r30, r24
    6e26:	e2 0f       	add	r30, r18
    6e28:	f3 1f       	adc	r31, r19

	// Copy string until terminator but don't over-write buffer
	while((pgm_read_byte(s) != 0x00) && (i < (PBUFFER_SIZE - 1)))
    6e2a:	44 91       	lpm	r20, Z
    6e2c:	44 23       	and	r20, r20
    6e2e:	41 f0       	breq	.+16     	; 0x6e40 <pgm_mugui_scopy+0x24>
    6e30:	2f 30       	cpi	r18, 0x0F	; 15
    6e32:	31 05       	cpc	r19, r1
    6e34:	29 f0       	breq	.+10     	; 0x6e40 <pgm_mugui_scopy+0x24>
	{
		pBuffer[i] = pgm_read_byte(s++);
    6e36:	e4 91       	lpm	r30, Z
    6e38:	ed 93       	st	X+, r30
		i++;
    6e3a:	2f 5f       	subi	r18, 0xFF	; 255
    6e3c:	3f 4f       	sbci	r19, 0xFF	; 255
    6e3e:	f2 cf       	rjmp	.-28     	; 0x6e24 <pgm_mugui_scopy+0x8>
	}
	
	// Add the terminator regardless of the amount copied
	pBuffer[i] = 0x00;
    6e40:	f9 01       	movw	r30, r18
    6e42:	ed 5a       	subi	r30, 0xAD	; 173
    6e44:	fa 4f       	sbci	r31, 0xFA	; 250
    6e46:	10 82       	st	Z, r1
    6e48:	08 95       	ret

00006e4a <mugui_lcd_putc>:
	\date 	13.11.2009
	\Modified by D. Thompson 14/08/2012 - Now hard-coded for proportional, type 2 (verticalCeiling)
*/
/************************************************************************/
mugui_uint16_t mugui_lcd_putc(mugui_char_t c, const unsigned char* font,mugui_uint16_t x, mugui_uint16_t y)
{
    6e4a:	a9 e0       	ldi	r26, 0x09	; 9
    6e4c:	b0 e0       	ldi	r27, 0x00	; 0
    6e4e:	eb e2       	ldi	r30, 0x2B	; 43
    6e50:	f7 e3       	ldi	r31, 0x37	; 55
    6e52:	0c 94 7e 41 	jmp	0x82fc	; 0x82fc <__prologue_saves__>
    6e56:	4c 83       	std	Y+4, r20	; 0x04
    6e58:	2d 83       	std	Y+5, r18	; 0x05
	mugui_uint8_t  tc= 0;	 				//temorary count
	mugui_uint8_t  bytes= 0;  				//bytes per line or row

	/* Read header of the font          */
	/* pgm_read_byte is ATMega specific */
	startcharacter = pgm_read_byte(&font[2]);
    6e5a:	fb 01       	movw	r30, r22
    6e5c:	32 96       	adiw	r30, 0x02	; 2
    6e5e:	94 91       	lpm	r25, Z
	height = pgm_read_byte(&font[4]);
    6e60:	32 96       	adiw	r30, 0x02	; 2
    6e62:	e4 91       	lpm	r30, Z
    6e64:	2e 2e       	mov	r2, r30
    6e66:	31 2c       	mov	r3, r1

	/* Read the rest of the header */
	index = c - startcharacter;
    6e68:	89 1b       	sub	r24, r25
	indexhighbyte = pgm_read_byte(&font[index*2 + 5]);
    6e6a:	90 e0       	ldi	r25, 0x00	; 0
    6e6c:	88 0f       	add	r24, r24
    6e6e:	99 1f       	adc	r25, r25
    6e70:	fc 01       	movw	r30, r24
    6e72:	35 96       	adiw	r30, 0x05	; 5
    6e74:	e6 0f       	add	r30, r22
    6e76:	f7 1f       	adc	r31, r23
    6e78:	64 90       	lpm	r6, Z
	indexlowbyte = pgm_read_byte(&font[index*2 + 6]);
    6e7a:	fc 01       	movw	r30, r24
    6e7c:	36 96       	adiw	r30, 0x06	; 6
    6e7e:	e6 0f       	add	r30, r22
    6e80:	f7 1f       	adc	r31, r23
    6e82:	84 91       	lpm	r24, Z
	indexaddress = (mugui_int64_t)indexhighbyte;
    6e84:	06 2d       	mov	r16, r6
    6e86:	10 e0       	ldi	r17, 0x00	; 0
    6e88:	20 e0       	ldi	r18, 0x00	; 0
    6e8a:	30 e0       	ldi	r19, 0x00	; 0
	indexaddress = indexaddress << 8;
    6e8c:	32 2f       	mov	r19, r18
    6e8e:	21 2f       	mov	r18, r17
    6e90:	10 2f       	mov	r17, r16
    6e92:	00 27       	eor	r16, r16
	indexaddress += indexlowbyte;
    6e94:	08 0f       	add	r16, r24
    6e96:	11 1d       	adc	r17, r1
    6e98:	21 1d       	adc	r18, r1
    6e9a:	31 1d       	adc	r19, r1
	width = pgm_read_byte(&font[indexaddress]);
    6e9c:	c8 01       	movw	r24, r16
    6e9e:	fb 01       	movw	r30, r22
    6ea0:	e0 0f       	add	r30, r16
    6ea2:	f1 1f       	adc	r31, r17
    6ea4:	64 90       	lpm	r6, Z
    6ea6:	71 2c       	mov	r7, r1

	/* Determine the number of bytes for given width */ 
	bytes = ((height-1)>>3)+1;
    6ea8:	21 01       	movw	r4, r2
    6eaa:	21 e0       	ldi	r18, 0x01	; 1
    6eac:	42 1a       	sub	r4, r18
    6eae:	51 08       	sbc	r5, r1
    6eb0:	13 e0       	ldi	r17, 0x03	; 3
    6eb2:	56 94       	lsr	r5
    6eb4:	47 94       	ror	r4
    6eb6:	1a 95       	dec	r17
    6eb8:	e1 f7       	brne	.-8      	; 0x6eb2 <mugui_lcd_putc+0x68>
    6eba:	43 94       	inc	r4
    6ebc:	a4 2d       	mov	r26, r4
    6ebe:	b0 e0       	ldi	r27, 0x00	; 0
    6ec0:	ba 83       	std	Y+2, r27	; 0x02
    6ec2:	a9 83       	std	Y+1, r26	; 0x01
	/* For every column */
	for(tx= 0; tx < width; tx++) //for every row
    6ec4:	a1 2c       	mov	r10, r1
    6ec6:	b1 2c       	mov	r11, r1
    6ec8:	00 e0       	ldi	r16, 0x00	; 0
    6eca:	10 e0       	ldi	r17, 0x00	; 0
    6ecc:	4b 01       	movw	r8, r22
    6ece:	bf ef       	ldi	r27, 0xFF	; 255
    6ed0:	8b 1a       	sub	r8, r27
    6ed2:	9b 0a       	sbc	r9, r27
    6ed4:	88 0e       	add	r8, r24
    6ed6:	99 1e       	adc	r9, r25
    6ed8:	06 15       	cp	r16, r6
    6eda:	17 05       	cpc	r17, r7
    6edc:	08 f0       	brcs	.+2      	; 0x6ee0 <mugui_lcd_putc+0x96>
    6ede:	43 c0       	rjmp	.+134    	; 0x6f66 <mugui_lcd_putc+0x11c>
    6ee0:	c1 2c       	mov	r12, r1
    6ee2:	d1 2c       	mov	r13, r1
    6ee4:	e1 2c       	mov	r14, r1
    6ee6:	f1 2c       	mov	r15, r1
    6ee8:	94 01       	movw	r18, r8
    6eea:	2a 0d       	add	r18, r10
    6eec:	3b 1d       	adc	r19, r11
    6eee:	3f 83       	std	Y+7, r19	; 0x07
    6ef0:	2e 83       	std	Y+6, r18	; 0x06
    6ef2:	5c 80       	ldd	r5, Y+4	; 0x04
    6ef4:	50 0e       	add	r5, r16
	{
		ty = 0;
		/* For every byte */
		for(tb = 0; tb < bytes; tb ++)
    6ef6:	c4 14       	cp	r12, r4
    6ef8:	78 f5       	brcc	.+94     	; 0x6f58 <mugui_lcd_putc+0x10e>
    6efa:	ee 81       	ldd	r30, Y+6	; 0x06
    6efc:	ff 81       	ldd	r31, Y+7	; 0x07
    6efe:	ec 0d       	add	r30, r12
    6f00:	fd 1d       	adc	r31, r13
		{
			/* Read bytes from program memory - ATMega specific */
			data = pgm_read_byte(&font[indexaddress + 1 + bytes*tx + tb]);
    6f02:	34 91       	lpm	r19, Z
    6f04:	3b 83       	std	Y+3, r19	; 0x03
    6f06:	19 86       	std	Y+9, r1	; 0x09
    6f08:	18 86       	std	Y+8, r1	; 0x08
			/* For every bit within the height */
			for(tc = 0;  ( (tc < 8) && (ty < height) ); tc ++)
    6f0a:	e2 14       	cp	r14, r2
    6f0c:	f3 04       	cpc	r15, r3
    6f0e:	00 f5       	brcc	.+64     	; 0x6f50 <mugui_lcd_putc+0x106>
			{
					/* Determine the bit mask */
					mask = 1<<(tc);
    6f10:	81 e0       	ldi	r24, 0x01	; 1
    6f12:	90 e0       	ldi	r25, 0x00	; 0
    6f14:	08 84       	ldd	r0, Y+8	; 0x08
    6f16:	02 c0       	rjmp	.+4      	; 0x6f1c <mugui_lcd_putc+0xd2>
    6f18:	88 0f       	add	r24, r24
    6f1a:	99 1f       	adc	r25, r25
    6f1c:	0a 94       	dec	r0
    6f1e:	e2 f7       	brpl	.-8      	; 0x6f18 <mugui_lcd_putc+0xce>
					bit = data & mask;
    6f20:	3b 81       	ldd	r19, Y+3	; 0x03
    6f22:	83 23       	and	r24, r19
    6f24:	4d 81       	ldd	r20, Y+5	; 0x05
    6f26:	4e 0d       	add	r20, r14
					if(bit)
    6f28:	88 23       	and	r24, r24
    6f2a:	11 f0       	breq	.+4      	; 0x6f30 <mugui_lcd_putc+0xe6>
					{
						setpixel(buffer,tx+x,ty+y,1);
    6f2c:	21 e0       	ldi	r18, 0x01	; 1
    6f2e:	01 c0       	rjmp	.+2      	; 0x6f32 <mugui_lcd_putc+0xe8>
					}
					else
					{
						setpixel(buffer,tx+x,ty+y,0);
    6f30:	20 e0       	ldi	r18, 0x00	; 0
    6f32:	65 2d       	mov	r22, r5
    6f34:	80 e0       	ldi	r24, 0x00	; 0
    6f36:	91 e0       	ldi	r25, 0x01	; 1
    6f38:	0e 94 3b 1b 	call	0x3676	; 0x3676 <setpixel>
					}
					ty++;
    6f3c:	8f ef       	ldi	r24, 0xFF	; 255
    6f3e:	e8 1a       	sub	r14, r24
    6f40:	f8 0a       	sbc	r15, r24
    6f42:	a8 85       	ldd	r26, Y+8	; 0x08
    6f44:	b9 85       	ldd	r27, Y+9	; 0x09
    6f46:	11 96       	adiw	r26, 0x01	; 1
    6f48:	b9 87       	std	Y+9, r27	; 0x09
    6f4a:	a8 87       	std	Y+8, r26	; 0x08
		for(tb = 0; tb < bytes; tb ++)
		{
			/* Read bytes from program memory - ATMega specific */
			data = pgm_read_byte(&font[indexaddress + 1 + bytes*tx + tb]);
			/* For every bit within the height */
			for(tc = 0;  ( (tc < 8) && (ty < height) ); tc ++)
    6f4c:	18 97       	sbiw	r26, 0x08	; 8
    6f4e:	e9 f6       	brne	.-70     	; 0x6f0a <mugui_lcd_putc+0xc0>
    6f50:	bf ef       	ldi	r27, 0xFF	; 255
    6f52:	cb 1a       	sub	r12, r27
    6f54:	db 0a       	sbc	r13, r27
    6f56:	cf cf       	rjmp	.-98     	; 0x6ef6 <mugui_lcd_putc+0xac>
	width = pgm_read_byte(&font[indexaddress]);

	/* Determine the number of bytes for given width */ 
	bytes = ((height-1)>>3)+1;
	/* For every column */
	for(tx= 0; tx < width; tx++) //for every row
    6f58:	0f 5f       	subi	r16, 0xFF	; 255
    6f5a:	1f 4f       	sbci	r17, 0xFF	; 255
    6f5c:	e9 81       	ldd	r30, Y+1	; 0x01
    6f5e:	fa 81       	ldd	r31, Y+2	; 0x02
    6f60:	ae 0e       	add	r10, r30
    6f62:	bf 1e       	adc	r11, r31
    6f64:	b9 cf       	rjmp	.-142    	; 0x6ed8 <mugui_lcd_putc+0x8e>
			}
		}
	}

	return width;
}
    6f66:	c3 01       	movw	r24, r6
    6f68:	29 96       	adiw	r28, 0x09	; 9
    6f6a:	e2 e1       	ldi	r30, 0x12	; 18
    6f6c:	0c 94 9a 41 	jmp	0x8334	; 0x8334 <__epilogue_restores__>

00006f70 <pgm_mugui_lcd_puts>:
	\date 	12.08.2009
	\Modified by D. Thompson 27/07/2012
*/
/************************************************************************/
void pgm_mugui_lcd_puts(const unsigned char* s, const unsigned char* font,mugui_uint16_t x, mugui_uint16_t y)
{
    6f70:	a0 e0       	ldi	r26, 0x00	; 0
    6f72:	b0 e0       	ldi	r27, 0x00	; 0
    6f74:	ee eb       	ldi	r30, 0xBE	; 190
    6f76:	f7 e3       	ldi	r31, 0x37	; 55
    6f78:	0c 94 86 41 	jmp	0x830c	; 0x830c <__prologue_saves__+0x10>
    6f7c:	ec 01       	movw	r28, r24
    6f7e:	7b 01       	movw	r14, r22
    6f80:	6a 01       	movw	r12, r20
    6f82:	59 01       	movw	r10, r18
	mugui_uint8_t distance  = 1;			// Distance between characters
	mugui_uint16_t xpos     = 0;			// Relative xpos of character
    6f84:	00 e0       	ldi	r16, 0x00	; 0
    6f86:	10 e0       	ldi	r17, 0x00	; 0

	while(pgm_read_byte(s) != 0x00) 
    6f88:	ce 01       	movw	r24, r28
    6f8a:	fe 01       	movw	r30, r28
    6f8c:	24 91       	lpm	r18, Z
    6f8e:	22 23       	and	r18, r18
    6f90:	71 f0       	breq	.+28     	; 0x6fae <pgm_mugui_lcd_puts+0x3e>
	{
		xpos += mugui_lcd_putc(pgm_read_byte(s++), font, x + xpos, y) + distance;
    6f92:	21 96       	adiw	r28, 0x01	; 1
    6f94:	fc 01       	movw	r30, r24
    6f96:	84 91       	lpm	r24, Z
    6f98:	a8 01       	movw	r20, r16
    6f9a:	4c 0d       	add	r20, r12
    6f9c:	5d 1d       	adc	r21, r13
    6f9e:	95 01       	movw	r18, r10
    6fa0:	b7 01       	movw	r22, r14
    6fa2:	0e 94 25 37 	call	0x6e4a	; 0x6e4a <mugui_lcd_putc>
    6fa6:	01 96       	adiw	r24, 0x01	; 1
    6fa8:	08 0f       	add	r16, r24
    6faa:	19 1f       	adc	r17, r25
    6fac:	ed cf       	rjmp	.-38     	; 0x6f88 <pgm_mugui_lcd_puts+0x18>
	}
}
    6fae:	cd b7       	in	r28, 0x3d	; 61
    6fb0:	de b7       	in	r29, 0x3e	; 62
    6fb2:	ea e0       	ldi	r30, 0x0A	; 10
    6fb4:	0c 94 a2 41 	jmp	0x8344	; 0x8344 <__epilogue_restores__+0x10>

00006fb8 <mugui_lcd_puts>:
	\return void
	\date 	12.08.2009
*/
/************************************************************************/
void mugui_lcd_puts(mugui_char_t *s, const unsigned char* font,mugui_uint16_t x, mugui_uint16_t y)
{
    6fb8:	a0 e0       	ldi	r26, 0x00	; 0
    6fba:	b0 e0       	ldi	r27, 0x00	; 0
    6fbc:	e2 ee       	ldi	r30, 0xE2	; 226
    6fbe:	f7 e3       	ldi	r31, 0x37	; 55
    6fc0:	0c 94 84 41 	jmp	0x8308	; 0x8308 <__prologue_saves__+0xc>
    6fc4:	6b 01       	movw	r12, r22
    6fc6:	5a 01       	movw	r10, r20
    6fc8:	49 01       	movw	r8, r18
	mugui_uint8_t distance  = 1;			//distance between characters
	mugui_uint16_t xpos     = 0;			//relativ xpos of character
	mugui_uint16_t length 	= 0;			//temporary length of string
	mugui_uint16_t i 		= 0;			//counter variable
	
	length = strlen(s);
    6fca:	ec 01       	movw	r28, r24
    6fcc:	09 90       	ld	r0, Y+
    6fce:	00 20       	and	r0, r0
    6fd0:	e9 f7       	brne	.-6      	; 0x6fcc <mugui_lcd_puts+0x14>
    6fd2:	8c 01       	movw	r16, r24
    6fd4:	21 97       	sbiw	r28, 0x01	; 1
*/
/************************************************************************/
void mugui_lcd_puts(mugui_char_t *s, const unsigned char* font,mugui_uint16_t x, mugui_uint16_t y)
{
	mugui_uint8_t distance  = 1;			//distance between characters
	mugui_uint16_t xpos     = 0;			//relativ xpos of character
    6fd6:	e1 2c       	mov	r14, r1
    6fd8:	f1 2c       	mov	r15, r1
	mugui_uint16_t length 	= 0;			//temporary length of string
	mugui_uint16_t i 		= 0;			//counter variable
	
	length = strlen(s);
	for(i=0; i<length; i++)
    6fda:	0c 17       	cp	r16, r28
    6fdc:	1d 07       	cpc	r17, r29
    6fde:	71 f0       	breq	.+28     	; 0x6ffc <mugui_lcd_puts+0x44>
	{
		xpos += mugui_lcd_putc(s[i], font, x + xpos, y) + distance;
    6fe0:	a7 01       	movw	r20, r14
    6fe2:	4a 0d       	add	r20, r10
    6fe4:	5b 1d       	adc	r21, r11
    6fe6:	94 01       	movw	r18, r8
    6fe8:	b6 01       	movw	r22, r12
    6fea:	f8 01       	movw	r30, r16
    6fec:	81 91       	ld	r24, Z+
    6fee:	8f 01       	movw	r16, r30
    6ff0:	0e 94 25 37 	call	0x6e4a	; 0x6e4a <mugui_lcd_putc>
    6ff4:	01 96       	adiw	r24, 0x01	; 1
    6ff6:	e8 0e       	add	r14, r24
    6ff8:	f9 1e       	adc	r15, r25
    6ffa:	ef cf       	rjmp	.-34     	; 0x6fda <mugui_lcd_puts+0x22>
	}
}
    6ffc:	cd b7       	in	r28, 0x3d	; 61
    6ffe:	de b7       	in	r29, 0x3e	; 62
    7000:	ec e0       	ldi	r30, 0x0C	; 12
    7002:	0c 94 a0 41 	jmp	0x8340	; 0x8340 <__epilogue_restores__+0xc>

00007006 <Sensor_PID>:
int32_t PID_AvgAccVert = 0;
float 	gyroSmooth[NUMBEROFAXIS];					// Filtered gyro data
	
// Run each loop to average gyro data and also accVert data
void Sensor_PID(void)
{
    7006:	ad e1       	ldi	r26, 0x1D	; 29
    7008:	b0 e0       	ldi	r27, 0x00	; 0
    700a:	e9 e0       	ldi	r30, 0x09	; 9
    700c:	f8 e3       	ldi	r31, 0x38	; 56
    700e:	0c 94 7e 41 	jmp	0x82fc	; 0x82fc <__prologue_saves__>
	// RIGHT roll = +ve gyro, UP pitch = +ve gyro and LEFT yaw = +ve gyro.
	// However the way we have organised stick polarity, RIGHT roll and yaw are +ve, and DOWN elevator is too.
	// When combining with the gyro signals, the sticks have to be in the opposite polarity as the gyros.
	// As described above, pitch and yaw are already opposed, but roll needs to be reversed.

	int16_t	RCinputsAxis[NUMBEROFAXIS] = {-RCinputs[AILERON], RCinputs[ELEVATOR], RCinputs[RUDDER]};
    7012:	80 91 d8 07 	lds	r24, 0x07D8
    7016:	90 91 d9 07 	lds	r25, 0x07D9
    701a:	91 95       	neg	r25
    701c:	81 95       	neg	r24
    701e:	91 09       	sbc	r25, r1
    7020:	98 87       	std	Y+8, r25	; 0x08
    7022:	8f 83       	std	Y+7, r24	; 0x07
    7024:	80 91 da 07 	lds	r24, 0x07DA
    7028:	90 91 db 07 	lds	r25, 0x07DB
    702c:	9a 87       	std	Y+10, r25	; 0x0a
    702e:	89 87       	std	Y+9, r24	; 0x09
    7030:	80 91 dc 07 	lds	r24, 0x07DC
    7034:	90 91 dd 07 	lds	r25, 0x07DD
    7038:	9c 87       	std	Y+12, r25	; 0x0c
    703a:	8b 87       	std	Y+11, r24	; 0x0b
	
	int8_t Stick_rates[FLIGHT_MODES][NUMBEROFAXIS] =
    703c:	80 91 da 05 	lds	r24, 0x05DA
    7040:	89 83       	std	Y+1, r24	; 0x01
    7042:	80 91 e0 05 	lds	r24, 0x05E0
    7046:	8a 83       	std	Y+2, r24	; 0x02
    7048:	80 91 e6 05 	lds	r24, 0x05E6
    704c:	8b 83       	std	Y+3, r24	; 0x03
    704e:	80 91 ec 05 	lds	r24, 0x05EC
    7052:	8c 83       	std	Y+4, r24	; 0x04
    7054:	80 91 f2 05 	lds	r24, 0x05F2
    7058:	8d 83       	std	Y+5, r24	; 0x05
    705a:	80 91 f8 05 	lds	r24, 0x05F8
    705e:	8e 83       	std	Y+6, r24	; 0x06
		{Config.FlightMode[P1].Roll_Rate, Config.FlightMode[P1].Pitch_Rate, Config.FlightMode[P1].Yaw_Rate},
		{Config.FlightMode[P2].Roll_Rate, Config.FlightMode[P2].Pitch_Rate, Config.FlightMode[P2].Yaw_Rate}
	};
	
	// Gyro LPF scale
	tempf = pgm_read_byte(&LPF_lookup[Config.Gyro_LPF]); // Lookup actual LPF value and promote
    7060:	60 91 34 06 	lds	r22, 0x0634
    7064:	e6 2f       	mov	r30, r22
    7066:	ff 27       	eor	r31, r31
    7068:	e7 fd       	sbrc	r30, 7
    706a:	f0 95       	com	r31
    706c:	e2 5a       	subi	r30, 0xA2	; 162
    706e:	f8 4e       	sbci	r31, 0xE8	; 232
    7070:	64 91       	lpm	r22, Z
    7072:	70 e0       	ldi	r23, 0x00	; 0
    7074:	80 e0       	ldi	r24, 0x00	; 0
    7076:	90 e0       	ldi	r25, 0x00	; 0
    7078:	0e 94 c5 3f 	call	0x7f8a	; 0x7f8a <__floatunsisf>
    707c:	6b 01       	movw	r12, r22
    707e:	7c 01       	movw	r14, r24
    7080:	83 e6       	ldi	r24, 0x63	; 99
    7082:	a8 2e       	mov	r10, r24
    7084:	85 e0       	ldi	r24, 0x05	; 5
    7086:	b8 2e       	mov	r11, r24
    7088:	90 eb       	ldi	r25, 0xB0	; 176
    708a:	89 2e       	mov	r8, r25
    708c:	97 e0       	ldi	r25, 0x07	; 7
    708e:	99 2e       	mov	r9, r25
    7090:	08 e9       	ldi	r16, 0x98	; 152
    7092:	17 e0       	ldi	r17, 0x07	; 7
    7094:	2f e1       	ldi	r18, 0x1F	; 31
    7096:	36 e0       	ldi	r19, 0x06	; 6
    7098:	3b 8b       	std	Y+19, r19	; 0x13
    709a:	2a 8b       	std	Y+18, r18	; 0x12
    709c:	ae 01       	movw	r20, r28
    709e:	49 5f       	subi	r20, 0xF9	; 249
    70a0:	5f 4f       	sbci	r21, 0xFF	; 255
    70a2:	5d 8b       	std	Y+21, r21	; 0x15
    70a4:	4c 8b       	std	Y+20, r20	; 0x14
    70a6:	be 01       	movw	r22, r28
    70a8:	6f 5f       	subi	r22, 0xFF	; 255
    70aa:	7f 4f       	sbci	r23, 0xFF	; 255
    70ac:	7f 8b       	std	Y+23, r23	; 0x17
    70ae:	6e 8b       	std	Y+22, r22	; 0x16
    70b0:	ce 01       	movw	r24, r28
    70b2:	04 96       	adiw	r24, 0x04	; 4
    70b4:	99 8b       	std	Y+17, r25	; 0x11
    70b6:	88 8b       	std	Y+16, r24	; 0x10
    70b8:	a3 e1       	ldi	r26, 0x13	; 19
    70ba:	b6 e0       	ldi	r27, 0x06	; 6
    70bc:	bf 87       	std	Y+15, r27	; 0x0f
    70be:	ae 87       	std	Y+14, r26	; 0x0e
	
	for (axis = 0; axis <= YAW; axis ++)
    70c0:	1d 86       	std	Y+13, r1	; 0x0d
			gyroADC[axis] = 0;
		}
		
		// Work out stick rate divider. 0 is slowest, 4 is fastest.
		// /64 (15.25), /32 (30.5), /16 (61*), /8 (122), /4 (244)
		stick_P1 = RCinputsAxis[axis] >> (4 - (Stick_rates[P1][axis] - 2));
    70c2:	26 e0       	ldi	r18, 0x06	; 6
    70c4:	62 2e       	mov	r6, r18
    70c6:	71 2c       	mov	r7, r1
		//************************************************************
		// Increment and limit gyro I-terms, handle heading hold nicely
		//************************************************************

		// Reduce Gyro drift noise before adding into I-term
		if ((gyroADC[axis] > -GYRO_DEADBAND) && (gyroADC[axis] < GYRO_DEADBAND)) 
    70c8:	f5 01       	movw	r30, r10
    70ca:	80 81       	ld	r24, Z
    70cc:	91 81       	ldd	r25, Z+1	; 0x01
    70ce:	04 96       	adiw	r24, 0x04	; 4
    70d0:	09 97       	sbiw	r24, 0x09	; 9
    70d2:	10 f4       	brcc	.+4      	; 0x70d8 <Sensor_PID+0xd2>
		{
			gyroADC[axis] = 0;
    70d4:	11 82       	std	Z+1, r1	; 0x01
    70d6:	10 82       	st	Z, r1
		}
		
		// Work out stick rate divider. 0 is slowest, 4 is fastest.
		// /64 (15.25), /32 (30.5), /16 (61*), /8 (122), /4 (244)
		stick_P1 = RCinputsAxis[axis] >> (4 - (Stick_rates[P1][axis] - 2));
    70d8:	ac 89       	ldd	r26, Y+20	; 0x14
    70da:	bd 89       	ldd	r27, Y+21	; 0x15
    70dc:	2d 91       	ld	r18, X+
    70de:	3d 91       	ld	r19, X+
    70e0:	bd 8b       	std	Y+21, r27	; 0x15
    70e2:	ac 8b       	std	Y+20, r26	; 0x14
    70e4:	ee 89       	ldd	r30, Y+22	; 0x16
    70e6:	ff 89       	ldd	r31, Y+23	; 0x17
    70e8:	41 91       	ld	r20, Z+
    70ea:	ff 8b       	std	Y+23, r31	; 0x17
    70ec:	ee 8b       	std	Y+22, r30	; 0x16
		stick_P2 = RCinputsAxis[axis] >> (4 - (Stick_rates[P2][axis] - 2));
    70ee:	a8 89       	ldd	r26, Y+16	; 0x10
    70f0:	b9 89       	ldd	r27, Y+17	; 0x11
    70f2:	ed 91       	ld	r30, X+
    70f4:	b9 8b       	std	Y+17, r27	; 0x11
    70f6:	a8 8b       	std	Y+16, r26	; 0x10

		// Calculate I-term from gyro and stick data 
		// These may look similar, but they are constrained quite differently.
		IntegralGyro[P1][axis] += (gyroADC[axis] + stick_P1);
    70f8:	d5 01       	movw	r26, r10
    70fa:	0d 90       	ld	r0, X+
    70fc:	bc 91       	ld	r27, X
    70fe:	a0 2d       	mov	r26, r0
    7100:	bd 8f       	std	Y+29, r27	; 0x1d
    7102:	ac 8f       	std	Y+28, r26	; 0x1c
			gyroADC[axis] = 0;
		}
		
		// Work out stick rate divider. 0 is slowest, 4 is fastest.
		// /64 (15.25), /32 (30.5), /16 (61*), /8 (122), /4 (244)
		stick_P1 = RCinputsAxis[axis] >> (4 - (Stick_rates[P1][axis] - 2));
    7104:	b3 01       	movw	r22, r6
    7106:	64 1b       	sub	r22, r20
    7108:	71 09       	sbc	r23, r1
    710a:	47 fd       	sbrc	r20, 7
    710c:	73 95       	inc	r23
    710e:	c9 01       	movw	r24, r18
    7110:	02 c0       	rjmp	.+4      	; 0x7116 <Sensor_PID+0x110>
    7112:	95 95       	asr	r25
    7114:	87 95       	ror	r24
    7116:	6a 95       	dec	r22
    7118:	e2 f7       	brpl	.-8      	; 0x7112 <Sensor_PID+0x10c>
    711a:	ac 01       	movw	r20, r24
		stick_P2 = RCinputsAxis[axis] >> (4 - (Stick_rates[P2][axis] - 2));

		// Calculate I-term from gyro and stick data 
		// These may look similar, but they are constrained quite differently.
		IntegralGyro[P1][axis] += (gyroADC[axis] + stick_P1);
    711c:	4a 0f       	add	r20, r26
    711e:	5b 1f       	adc	r21, r27
    7120:	66 27       	eor	r22, r22
    7122:	57 fd       	sbrc	r21, 7
    7124:	60 95       	com	r22
    7126:	76 2f       	mov	r23, r22
    7128:	d8 01       	movw	r26, r16
    712a:	2d 90       	ld	r2, X+
    712c:	3d 90       	ld	r3, X+
    712e:	4d 90       	ld	r4, X+
    7130:	5c 90       	ld	r5, X
    7132:	13 97       	sbiw	r26, 0x03	; 3
    7134:	24 0e       	add	r2, r20
    7136:	35 1e       	adc	r3, r21
    7138:	46 1e       	adc	r4, r22
    713a:	57 1e       	adc	r5, r23
    713c:	2d 92       	st	X+, r2
    713e:	3d 92       	st	X+, r3
    7140:	4d 92       	st	X+, r4
    7142:	5c 92       	st	X, r5
    7144:	13 97       	sbiw	r26, 0x03	; 3
		}
		
		// Work out stick rate divider. 0 is slowest, 4 is fastest.
		// /64 (15.25), /32 (30.5), /16 (61*), /8 (122), /4 (244)
		stick_P1 = RCinputsAxis[axis] >> (4 - (Stick_rates[P1][axis] - 2));
		stick_P2 = RCinputsAxis[axis] >> (4 - (Stick_rates[P2][axis] - 2));
    7146:	a3 01       	movw	r20, r6
    7148:	4e 1b       	sub	r20, r30
    714a:	51 09       	sbc	r21, r1
    714c:	e7 fd       	sbrc	r30, 7
    714e:	53 95       	inc	r21
    7150:	02 c0       	rjmp	.+4      	; 0x7156 <Sensor_PID+0x150>
    7152:	35 95       	asr	r19
    7154:	27 95       	ror	r18
    7156:	4a 95       	dec	r20
    7158:	e2 f7       	brpl	.-8      	; 0x7152 <Sensor_PID+0x14c>

		// Calculate I-term from gyro and stick data 
		// These may look similar, but they are constrained quite differently.
		IntegralGyro[P1][axis] += (gyroADC[axis] + stick_P1);
		IntegralGyro[P2][axis] += (gyroADC[axis] + stick_P2);
    715a:	ec 8d       	ldd	r30, Y+28	; 0x1c
    715c:	fd 8d       	ldd	r31, Y+29	; 0x1d
    715e:	2e 0f       	add	r18, r30
    7160:	3f 1f       	adc	r19, r31
    7162:	a9 01       	movw	r20, r18
    7164:	66 27       	eor	r22, r22
    7166:	57 fd       	sbrc	r21, 7
    7168:	60 95       	com	r22
    716a:	76 2f       	mov	r23, r22
    716c:	48 8f       	std	Y+24, r20	; 0x18
    716e:	59 8f       	std	Y+25, r21	; 0x19
    7170:	6a 8f       	std	Y+26, r22	; 0x1a
    7172:	7b 8f       	std	Y+27, r23	; 0x1b
    7174:	1c 96       	adiw	r26, 0x0c	; 12
    7176:	4d 91       	ld	r20, X+
    7178:	5d 91       	ld	r21, X+
    717a:	6d 91       	ld	r22, X+
    717c:	7c 91       	ld	r23, X
    717e:	1f 97       	sbiw	r26, 0x0f	; 15
    7180:	88 8d       	ldd	r24, Y+24	; 0x18
    7182:	99 8d       	ldd	r25, Y+25	; 0x19
    7184:	aa 8d       	ldd	r26, Y+26	; 0x1a
    7186:	bb 8d       	ldd	r27, Y+27	; 0x1b
    7188:	48 0f       	add	r20, r24
    718a:	59 1f       	adc	r21, r25
    718c:	6a 1f       	adc	r22, r26
    718e:	7b 1f       	adc	r23, r27
    7190:	d8 01       	movw	r26, r16
    7192:	1c 96       	adiw	r26, 0x0c	; 12
    7194:	4d 93       	st	X+, r20
    7196:	5d 93       	st	X+, r21
    7198:	6d 93       	st	X+, r22
    719a:	7c 93       	st	X, r23
    719c:	1f 97       	sbiw	r26, 0x0f	; 15

		// Limit the I-terms to the user-set limits
		for (i = P1; i <= P2; i++)
		{
			if (IntegralGyro[i][axis] > Config.Raw_I_Constrain[i][axis])
    719e:	ee 85       	ldd	r30, Y+14	; 0x0e
    71a0:	ff 85       	ldd	r31, Y+15	; 0x0f
    71a2:	41 91       	ld	r20, Z+
    71a4:	51 91       	ld	r21, Z+
    71a6:	61 91       	ld	r22, Z+
    71a8:	71 91       	ld	r23, Z+
    71aa:	ff 87       	std	Y+15, r31	; 0x0f
    71ac:	ee 87       	std	Y+14, r30	; 0x0e
    71ae:	42 15       	cp	r20, r2
    71b0:	53 05       	cpc	r21, r3
    71b2:	64 05       	cpc	r22, r4
    71b4:	75 05       	cpc	r23, r5
    71b6:	2c f4       	brge	.+10     	; 0x71c2 <Sensor_PID+0x1bc>
			{
				IntegralGyro[i][axis] = Config.Raw_I_Constrain[i][axis];
    71b8:	4d 93       	st	X+, r20
    71ba:	5d 93       	st	X+, r21
    71bc:	6d 93       	st	X+, r22
    71be:	7c 93       	st	X, r23
    71c0:	13 97       	sbiw	r26, 0x03	; 3
			}
			if (IntegralGyro[i][axis] < -Config.Raw_I_Constrain[i][axis])
    71c2:	70 95       	com	r23
    71c4:	60 95       	com	r22
    71c6:	50 95       	com	r21
    71c8:	41 95       	neg	r20
    71ca:	5f 4f       	sbci	r21, 0xFF	; 255
    71cc:	6f 4f       	sbci	r22, 0xFF	; 255
    71ce:	7f 4f       	sbci	r23, 0xFF	; 255
    71d0:	f8 01       	movw	r30, r16
    71d2:	20 80       	ld	r2, Z
    71d4:	31 80       	ldd	r3, Z+1	; 0x01
    71d6:	42 80       	ldd	r4, Z+2	; 0x02
    71d8:	53 80       	ldd	r5, Z+3	; 0x03
    71da:	24 16       	cp	r2, r20
    71dc:	35 06       	cpc	r3, r21
    71de:	46 06       	cpc	r4, r22
    71e0:	57 06       	cpc	r5, r23
    71e2:	24 f4       	brge	.+8      	; 0x71ec <Sensor_PID+0x1e6>
			{
				IntegralGyro[i][axis] = -Config.Raw_I_Constrain[i][axis];
    71e4:	40 83       	st	Z, r20
    71e6:	51 83       	std	Z+1, r21	; 0x01
    71e8:	62 83       	std	Z+2, r22	; 0x02
    71ea:	73 83       	std	Z+3, r23	; 0x03
		IntegralGyro[P2][axis] += (gyroADC[axis] + stick_P2);

		// Limit the I-terms to the user-set limits
		for (i = P1; i <= P2; i++)
		{
			if (IntegralGyro[i][axis] > Config.Raw_I_Constrain[i][axis])
    71ec:	ea 89       	ldd	r30, Y+18	; 0x12
    71ee:	fb 89       	ldd	r31, Y+19	; 0x13
    71f0:	41 91       	ld	r20, Z+
    71f2:	51 91       	ld	r21, Z+
    71f4:	61 91       	ld	r22, Z+
    71f6:	71 91       	ld	r23, Z+
    71f8:	fb 8b       	std	Y+19, r31	; 0x13
    71fa:	ea 8b       	std	Y+18, r30	; 0x12
    71fc:	d8 01       	movw	r26, r16
    71fe:	1c 96       	adiw	r26, 0x0c	; 12
    7200:	2d 90       	ld	r2, X+
    7202:	3d 90       	ld	r3, X+
    7204:	4d 90       	ld	r4, X+
    7206:	5c 90       	ld	r5, X
    7208:	1f 97       	sbiw	r26, 0x0f	; 15
    720a:	42 15       	cp	r20, r2
    720c:	53 05       	cpc	r21, r3
    720e:	64 05       	cpc	r22, r4
    7210:	75 05       	cpc	r23, r5
    7212:	2c f4       	brge	.+10     	; 0x721e <Sensor_PID+0x218>
			{
				IntegralGyro[i][axis] = Config.Raw_I_Constrain[i][axis];
    7214:	f8 01       	movw	r30, r16
    7216:	44 87       	std	Z+12, r20	; 0x0c
    7218:	55 87       	std	Z+13, r21	; 0x0d
    721a:	66 87       	std	Z+14, r22	; 0x0e
    721c:	77 87       	std	Z+15, r23	; 0x0f
			}
			if (IntegralGyro[i][axis] < -Config.Raw_I_Constrain[i][axis])
    721e:	70 95       	com	r23
    7220:	60 95       	com	r22
    7222:	50 95       	com	r21
    7224:	41 95       	neg	r20
    7226:	5f 4f       	sbci	r21, 0xFF	; 255
    7228:	6f 4f       	sbci	r22, 0xFF	; 255
    722a:	7f 4f       	sbci	r23, 0xFF	; 255
    722c:	d8 01       	movw	r26, r16
    722e:	1c 96       	adiw	r26, 0x0c	; 12
    7230:	2d 90       	ld	r2, X+
    7232:	3d 90       	ld	r3, X+
    7234:	4d 90       	ld	r4, X+
    7236:	5c 90       	ld	r5, X
    7238:	1f 97       	sbiw	r26, 0x0f	; 15
    723a:	24 16       	cp	r2, r20
    723c:	35 06       	cpc	r3, r21
    723e:	46 06       	cpc	r4, r22
    7240:	57 06       	cpc	r5, r23
    7242:	2c f4       	brge	.+10     	; 0x724e <Sensor_PID+0x248>
			{
				IntegralGyro[i][axis] = -Config.Raw_I_Constrain[i][axis];
    7244:	f8 01       	movw	r30, r16
    7246:	44 87       	std	Z+12, r20	; 0x0c
    7248:	55 87       	std	Z+13, r21	; 0x0d
    724a:	66 87       	std	Z+14, r22	; 0x0e
    724c:	77 87       	std	Z+15, r23	; 0x0f

		//************************************************************
		// Gyro LPF
		//************************************************************	
			
		gyroADCf = gyroADC[axis]; // Promote
    724e:	2c 8d       	ldd	r18, Y+28	; 0x1c
    7250:	3d 8d       	ldd	r19, Y+29	; 0x1d
    7252:	b9 01       	movw	r22, r18
    7254:	88 27       	eor	r24, r24
    7256:	77 fd       	sbrc	r23, 7
    7258:	80 95       	com	r24
    725a:	98 2f       	mov	r25, r24
    725c:	0e 94 c7 3f 	call	0x7f8e	; 0x7f8e <__floatsisf>
    7260:	1b 01       	movw	r2, r22
    7262:	2c 01       	movw	r4, r24

		if (tempf > 1)
    7264:	20 e0       	ldi	r18, 0x00	; 0
    7266:	30 e0       	ldi	r19, 0x00	; 0
    7268:	40 e8       	ldi	r20, 0x80	; 128
    726a:	5f e3       	ldi	r21, 0x3F	; 63
    726c:	c7 01       	movw	r24, r14
    726e:	b6 01       	movw	r22, r12
    7270:	0e 94 77 40 	call	0x80ee	; 0x80ee <__gesf2>
    7274:	18 16       	cp	r1, r24
    7276:	ec f4       	brge	.+58     	; 0x72b2 <Sensor_PID+0x2ac>
		{
			// Gyro LPF
			gyroSmooth[axis] = (gyroSmooth[axis] * (tempf - 1.0f) + gyroADCf) / tempf;
    7278:	20 e0       	ldi	r18, 0x00	; 0
    727a:	30 e0       	ldi	r19, 0x00	; 0
    727c:	40 e8       	ldi	r20, 0x80	; 128
    727e:	5f e3       	ldi	r21, 0x3F	; 63
    7280:	c7 01       	movw	r24, r14
    7282:	b6 01       	movw	r22, r12
    7284:	0e 94 c3 3e 	call	0x7d86	; 0x7d86 <__subsf3>
    7288:	d4 01       	movw	r26, r8
    728a:	2d 91       	ld	r18, X+
    728c:	3d 91       	ld	r19, X+
    728e:	4d 91       	ld	r20, X+
    7290:	5c 91       	ld	r21, X
    7292:	0e 94 7b 40 	call	0x80f6	; 0x80f6 <__mulsf3>
    7296:	a2 01       	movw	r20, r4
    7298:	91 01       	movw	r18, r2
    729a:	0e 94 c4 3e 	call	0x7d88	; 0x7d88 <__addsf3>
    729e:	a7 01       	movw	r20, r14
    72a0:	96 01       	movw	r18, r12
    72a2:	0e 94 2c 3f 	call	0x7e58	; 0x7e58 <__divsf3>
    72a6:	f4 01       	movw	r30, r8
    72a8:	60 83       	st	Z, r22
    72aa:	71 83       	std	Z+1, r23	; 0x01
    72ac:	82 83       	std	Z+2, r24	; 0x02
    72ae:	93 83       	std	Z+3, r25	; 0x03
    72b0:	06 c0       	rjmp	.+12     	; 0x72be <Sensor_PID+0x2b8>
		}
		else
		{
			// Use raw gyroADC[axis] as source for gyro values
			gyroSmooth[axis] =  gyroADCf;
    72b2:	d4 01       	movw	r26, r8
    72b4:	2d 92       	st	X+, r2
    72b6:	3d 92       	st	X+, r3
    72b8:	4d 92       	st	X+, r4
    72ba:	5c 92       	st	X, r5
    72bc:	13 97       	sbiw	r26, 0x03	; 3
		}		
		
		// Demote back to int16_t
		gyroADC[axis] = (int16_t)gyroSmooth[axis];		
    72be:	f4 01       	movw	r30, r8
    72c0:	61 91       	ld	r22, Z+
    72c2:	71 91       	ld	r23, Z+
    72c4:	81 91       	ld	r24, Z+
    72c6:	91 91       	ld	r25, Z+
    72c8:	4f 01       	movw	r8, r30
    72ca:	0e 94 94 3f 	call	0x7f28	; 0x7f28 <__fixsfsi>
    72ce:	d5 01       	movw	r26, r10
    72d0:	6d 93       	st	X+, r22
    72d2:	7d 93       	st	X+, r23
    72d4:	5d 01       	movw	r10, r26
    72d6:	bd 85       	ldd	r27, Y+13	; 0x0d
    72d8:	bf 5f       	subi	r27, 0xFF	; 255
    72da:	bd 87       	std	Y+13, r27	; 0x0d
    72dc:	0c 5f       	subi	r16, 0xFC	; 252
    72de:	1f 4f       	sbci	r17, 0xFF	; 255
	};
	
	// Gyro LPF scale
	tempf = pgm_read_byte(&LPF_lookup[Config.Gyro_LPF]); // Lookup actual LPF value and promote
	
	for (axis = 0; axis <= YAW; axis ++)
    72e0:	b3 30       	cpi	r27, 0x03	; 3
    72e2:	09 f0       	breq	.+2      	; 0x72e6 <Sensor_PID+0x2e0>
    72e4:	f1 ce       	rjmp	.-542    	; 0x70c8 <Sensor_PID+0xc2>
		// Demote back to int16_t
		gyroADC[axis] = (int16_t)gyroSmooth[axis];		
	}
	
	// Average accVert prior to Calculate_PID()
	PID_AvgAccVert += accVert;
    72e6:	40 91 0c 05 	lds	r20, 0x050C
    72ea:	50 91 0d 05 	lds	r21, 0x050D
    72ee:	66 27       	eor	r22, r22
    72f0:	57 fd       	sbrc	r21, 7
    72f2:	60 95       	com	r22
    72f4:	76 2f       	mov	r23, r22
    72f6:	80 91 2a 05 	lds	r24, 0x052A
    72fa:	90 91 2b 05 	lds	r25, 0x052B
    72fe:	a0 91 2c 05 	lds	r26, 0x052C
    7302:	b0 91 2d 05 	lds	r27, 0x052D
    7306:	84 0f       	add	r24, r20
    7308:	95 1f       	adc	r25, r21
    730a:	a6 1f       	adc	r26, r22
    730c:	b7 1f       	adc	r27, r23
    730e:	80 93 2a 05 	sts	0x052A, r24
    7312:	90 93 2b 05 	sts	0x052B, r25
    7316:	a0 93 2c 05 	sts	0x052C, r26
    731a:	b0 93 2d 05 	sts	0x052D, r27
			
}
    731e:	6d 96       	adiw	r28, 0x1d	; 29
    7320:	e2 e1       	ldi	r30, 0x12	; 18
    7322:	0c 94 9a 41 	jmp	0x8334	; 0x8334 <__epilogue_restores__>

00007326 <Calculate_PID>:

// Run just before PWM output, using averaged data
void Calculate_PID(void)
{
    7326:	aa e4       	ldi	r26, 0x4A	; 74
    7328:	b0 e0       	ldi	r27, 0x00	; 0
    732a:	e9 e9       	ldi	r30, 0x99	; 153
    732c:	f9 e3       	ldi	r31, 0x39	; 57
    732e:	0c 94 7e 41 	jmp	0x82fc	; 0x82fc <__prologue_saves__>
	int16_t AvAccVert = 0;
	int8_t	axis = 0;
	int8_t i = 0;

	// Initialise arrays with gain values.
	int8_t 	P_gain[FLIGHT_MODES][NUMBEROFAXIS] = 
    7332:	80 91 d7 05 	lds	r24, 0x05D7
    7336:	8d 8b       	std	Y+21, r24	; 0x15
    7338:	80 91 dd 05 	lds	r24, 0x05DD
    733c:	8e 8b       	std	Y+22, r24	; 0x16
    733e:	80 91 e3 05 	lds	r24, 0x05E3
    7342:	8f 8b       	std	Y+23, r24	; 0x17
    7344:	80 91 e9 05 	lds	r24, 0x05E9
    7348:	88 8f       	std	Y+24, r24	; 0x18
    734a:	80 91 ef 05 	lds	r24, 0x05EF
    734e:	89 8f       	std	Y+25, r24	; 0x19
    7350:	80 91 f5 05 	lds	r24, 0x05F5
    7354:	8a 8f       	std	Y+26, r24	; 0x1a
		{
			{Config.FlightMode[P1].Roll_P_mult, Config.FlightMode[P1].Pitch_P_mult, Config.FlightMode[P1].Yaw_P_mult},
		 	{Config.FlightMode[P2].Roll_P_mult, Config.FlightMode[P2].Pitch_P_mult, Config.FlightMode[P2].Yaw_P_mult}
		};

	int8_t 	I_gain[FLIGHT_MODES][NUMBEROFAXIS] = 
    7356:	80 91 d8 05 	lds	r24, 0x05D8
    735a:	8f 87       	std	Y+15, r24	; 0x0f
    735c:	80 91 de 05 	lds	r24, 0x05DE
    7360:	88 8b       	std	Y+16, r24	; 0x10
    7362:	80 91 e4 05 	lds	r24, 0x05E4
    7366:	89 8b       	std	Y+17, r24	; 0x11
    7368:	80 91 ea 05 	lds	r24, 0x05EA
    736c:	8a 8b       	std	Y+18, r24	; 0x12
    736e:	80 91 f0 05 	lds	r24, 0x05F0
    7372:	8b 8b       	std	Y+19, r24	; 0x13
    7374:	80 91 f6 05 	lds	r24, 0x05F6
    7378:	8c 8b       	std	Y+20, r24	; 0x14
		{
			{Config.FlightMode[P1].Roll_I_mult, Config.FlightMode[P1].Pitch_I_mult, Config.FlightMode[P1].Yaw_I_mult},
			{Config.FlightMode[P2].Roll_I_mult, Config.FlightMode[P2].Pitch_I_mult, Config.FlightMode[P2].Yaw_I_mult}
		};

	int8_t 	L_gain[FLIGHT_MODES][NUMBEROFAXIS] = 
    737a:	80 91 db 05 	lds	r24, 0x05DB
    737e:	89 87       	std	Y+9, r24	; 0x09
    7380:	80 91 e1 05 	lds	r24, 0x05E1
    7384:	8a 87       	std	Y+10, r24	; 0x0a
		{
			{Config.FlightMode[P1].A_Roll_P_mult, Config.FlightMode[P1].A_Pitch_P_mult, Config.FlightMode[P1].A_Zed_P_mult},
    7386:	20 91 e8 05 	lds	r18, 0x05E8
    738a:	29 a7       	std	Y+41, r18	; 0x29
		{
			{Config.FlightMode[P1].Roll_I_mult, Config.FlightMode[P1].Pitch_I_mult, Config.FlightMode[P1].Yaw_I_mult},
			{Config.FlightMode[P2].Roll_I_mult, Config.FlightMode[P2].Pitch_I_mult, Config.FlightMode[P2].Yaw_I_mult}
		};

	int8_t 	L_gain[FLIGHT_MODES][NUMBEROFAXIS] = 
    738c:	2b 87       	std	Y+11, r18	; 0x0b
    738e:	80 91 ed 05 	lds	r24, 0x05ED
    7392:	8c 87       	std	Y+12, r24	; 0x0c
    7394:	80 91 f3 05 	lds	r24, 0x05F3
    7398:	8d 87       	std	Y+13, r24	; 0x0d
		{
			{Config.FlightMode[P1].A_Roll_P_mult, Config.FlightMode[P1].A_Pitch_P_mult, Config.FlightMode[P1].A_Zed_P_mult},
			{Config.FlightMode[P2].A_Roll_P_mult, Config.FlightMode[P2].A_Pitch_P_mult, Config.FlightMode[P2].A_Zed_P_mult}
    739a:	30 91 fa 05 	lds	r19, 0x05FA
    739e:	3a a7       	std	Y+42, r19	; 0x2a
		{
			{Config.FlightMode[P1].Roll_I_mult, Config.FlightMode[P1].Pitch_I_mult, Config.FlightMode[P1].Yaw_I_mult},
			{Config.FlightMode[P2].Roll_I_mult, Config.FlightMode[P2].Pitch_I_mult, Config.FlightMode[P2].Yaw_I_mult}
		};

	int8_t 	L_gain[FLIGHT_MODES][NUMBEROFAXIS] = 
    73a0:	3e 87       	std	Y+14, r19	; 0x0e
			{Config.FlightMode[P1].A_Roll_P_mult, Config.FlightMode[P1].A_Pitch_P_mult, Config.FlightMode[P1].A_Zed_P_mult},
			{Config.FlightMode[P2].A_Roll_P_mult, Config.FlightMode[P2].A_Pitch_P_mult, Config.FlightMode[P2].A_Zed_P_mult}
		};

	// Only for roll and pitch acc trim
	int16_t	L_trim[FLIGHT_MODES][2] =
    73a2:	80 91 5c 07 	lds	r24, 0x075C
    73a6:	90 91 5d 07 	lds	r25, 0x075D
    73aa:	9a 83       	std	Y+2, r25	; 0x02
    73ac:	89 83       	std	Y+1, r24	; 0x01
    73ae:	80 91 60 07 	lds	r24, 0x0760
    73b2:	90 91 61 07 	lds	r25, 0x0761
    73b6:	9c 83       	std	Y+4, r25	; 0x04
    73b8:	8b 83       	std	Y+3, r24	; 0x03
    73ba:	80 91 5e 07 	lds	r24, 0x075E
    73be:	90 91 5f 07 	lds	r25, 0x075F
    73c2:	9e 83       	std	Y+6, r25	; 0x06
    73c4:	8d 83       	std	Y+5, r24	; 0x05
    73c6:	80 91 62 07 	lds	r24, 0x0762
    73ca:	90 91 63 07 	lds	r25, 0x0763
    73ce:	98 87       	std	Y+8, r25	; 0x08
    73d0:	8f 83       	std	Y+7, r24	; 0x07
			{Config.Rolltrim[P1], Config.Pitchtrim[P1]},
			{Config.Rolltrim[P2], Config.Pitchtrim[P2]}
		};

	// Average accVert
	AvAccVert = (int16_t)(PID_AvgAccVert / LoopCount);
    73d2:	20 91 0e 05 	lds	r18, 0x050E
    73d6:	30 e0       	ldi	r19, 0x00	; 0
    73d8:	40 e0       	ldi	r20, 0x00	; 0
    73da:	50 e0       	ldi	r21, 0x00	; 0
    73dc:	60 91 2a 05 	lds	r22, 0x052A
    73e0:	70 91 2b 05 	lds	r23, 0x052B
    73e4:	80 91 2c 05 	lds	r24, 0x052C
    73e8:	90 91 2d 05 	lds	r25, 0x052D
    73ec:	0e 94 28 41 	call	0x8250	; 0x8250 <__divmodsi4>
    73f0:	29 96       	adiw	r28, 0x09	; 9
    73f2:	2c af       	std	Y+60, r18	; 0x3c
    73f4:	3d af       	std	Y+61, r19	; 0x3d
    73f6:	4e af       	std	Y+62, r20	; 0x3e
    73f8:	5f af       	std	Y+63, r21	; 0x3f
    73fa:	29 97       	sbiw	r28, 0x09	; 9
	PID_AvgAccVert = 0;							// Reset average
    73fc:	10 92 2a 05 	sts	0x052A, r1
    7400:	10 92 2b 05 	sts	0x052B, r1
    7404:	10 92 2c 05 	sts	0x052C, r1
    7408:	10 92 2d 05 	sts	0x052D, r1
		// Add in gyro Yaw trim
		//************************************************************

		if (axis == YAW)
		{
			PID_gyro_temp1 = (int32_t)(Config.FlightMode[P1].Yaw_trim << 6);
    740c:	80 91 e7 05 	lds	r24, 0x05E7
    7410:	40 e4       	ldi	r20, 0x40	; 64
    7412:	84 02       	muls	r24, r20
    7414:	c0 01       	movw	r24, r0
    7416:	11 24       	eor	r1, r1
    7418:	9c 01       	movw	r18, r24
    741a:	44 27       	eor	r20, r20
    741c:	37 fd       	sbrc	r19, 7
    741e:	40 95       	com	r20
    7420:	54 2f       	mov	r21, r20
    7422:	29 af       	std	Y+57, r18	; 0x39
    7424:	3a af       	std	Y+58, r19	; 0x3a
    7426:	4b af       	std	Y+59, r20	; 0x3b
    7428:	5c af       	std	Y+60, r21	; 0x3c
			PID_gyro_temp2 = (int32_t)(Config.FlightMode[P2].Yaw_trim << 6);
    742a:	80 91 f9 05 	lds	r24, 0x05F9
    742e:	30 e4       	ldi	r19, 0x40	; 64
    7430:	83 02       	muls	r24, r19
    7432:	c0 01       	movw	r24, r0
    7434:	11 24       	eor	r1, r1
    7436:	9c 01       	movw	r18, r24
    7438:	44 27       	eor	r20, r20
    743a:	37 fd       	sbrc	r19, 7
    743c:	40 95       	com	r20
    743e:	54 2f       	mov	r21, r20
    7440:	21 96       	adiw	r28, 0x01	; 1
    7442:	2c af       	std	Y+60, r18	; 0x3c
    7444:	3d af       	std	Y+61, r19	; 0x3d
    7446:	4e af       	std	Y+62, r20	; 0x3e
    7448:	5f af       	std	Y+63, r21	; 0x3f
    744a:	21 97       	sbiw	r28, 0x01	; 1
    744c:	e3 e6       	ldi	r30, 0x63	; 99
    744e:	f5 e0       	ldi	r31, 0x05	; 5
    7450:	f8 af       	std	Y+56, r31	; 0x38
    7452:	ef ab       	std	Y+55, r30	; 0x37
    7454:	fe 01       	movw	r30, r28
    7456:	75 96       	adiw	r30, 0x15	; 21
    7458:	fe ab       	std	Y+54, r31	; 0x36
    745a:	ed ab       	std	Y+53, r30	; 0x35
    745c:	e8 e9       	ldi	r30, 0x98	; 152
    745e:	f7 e0       	ldi	r31, 0x07	; 7
    7460:	fe a3       	std	Y+38, r31	; 0x26
    7462:	ed a3       	std	Y+37, r30	; 0x25
    7464:	fe 01       	movw	r30, r28
    7466:	3f 96       	adiw	r30, 0x0f	; 15
    7468:	fc ab       	std	Y+52, r31	; 0x34
    746a:	eb ab       	std	Y+51, r30	; 0x33
    746c:	39 96       	adiw	r30, 0x09	; 9
    746e:	fa ab       	std	Y+50, r31	; 0x32
    7470:	e9 ab       	std	Y+49, r30	; 0x31
    7472:	36 97       	sbiw	r30, 0x06	; 6
    7474:	f8 ab       	std	Y+48, r31	; 0x30
    7476:	ef a7       	std	Y+47, r30	; 0x2f
    7478:	eb ef       	ldi	r30, 0xFB	; 251
    747a:	f5 e0       	ldi	r31, 0x05	; 5
    747c:	fe a7       	std	Y+46, r31	; 0x2e
    747e:	ed a7       	std	Y+45, r30	; 0x2d
    7480:	ec eb       	ldi	r30, 0xBC	; 188
    7482:	f7 e0       	ldi	r31, 0x07	; 7
    7484:	fc a3       	std	Y+36, r31	; 0x24
    7486:	eb a3       	std	Y+35, r30	; 0x23
    7488:	e5 e8       	ldi	r30, 0x85	; 133
    748a:	f5 e0       	ldi	r31, 0x05	; 5
    748c:	f8 a7       	std	Y+40, r31	; 0x28
    748e:	ef a3       	std	Y+39, r30	; 0x27
    7490:	fe 01       	movw	r30, r28
    7492:	31 96       	adiw	r30, 0x01	; 1
    7494:	fa a3       	std	Y+34, r31	; 0x22
    7496:	e9 a3       	std	Y+33, r30	; 0x21
    7498:	e8 ec       	ldi	r30, 0xC8	; 200
    749a:	f7 e0       	ldi	r31, 0x07	; 7
    749c:	f8 a3       	std	Y+32, r31	; 0x20
    749e:	ef 8f       	std	Y+31, r30	; 0x1f
    74a0:	1e 01       	movw	r2, r28
    74a2:	fc e0       	ldi	r31, 0x0C	; 12
    74a4:	2f 0e       	add	r2, r31
    74a6:	31 1c       	adc	r3, r1
    74a8:	e7 e0       	ldi	r30, 0x07	; 7
    74aa:	f6 e0       	ldi	r31, 0x06	; 6
    74ac:	fc a7       	std	Y+44, r31	; 0x2c
    74ae:	eb a7       	std	Y+43, r30	; 0x2b
    74b0:	2b 96       	adiw	r28, 0x0b	; 11
    74b2:	1f ae       	std	Y+63, r1	; 0x3f
    74b4:	1e ae       	std	Y+62, r1	; 0x3e
    74b6:	2b 97       	sbiw	r28, 0x0b	; 11
		}
		// Reset PID_gyro variables to that data does not accumulate cross-axis
		else
		{
			PID_gyro_temp1 = 0;
			PID_gyro_temp2 = 0;
    74b8:	81 2c       	mov	r8, r1
    74ba:	91 2c       	mov	r9, r1
    74bc:	54 01       	movw	r10, r8
			PID_gyro_temp2 = (int32_t)(Config.FlightMode[P2].Yaw_trim << 6);
		}
		// Reset PID_gyro variables to that data does not accumulate cross-axis
		else
		{
			PID_gyro_temp1 = 0;
    74be:	80 e0       	ldi	r24, 0x00	; 0
    74c0:	90 e0       	ldi	r25, 0x00	; 0
    74c2:	dc 01       	movw	r26, r24
		//************************************************************
		// Calculate PID gains
		//************************************************************

		// Gyro P-term													// Profile P1
		PID_gyro_temp1 += gyroADC[axis] * P_gain[P1][axis];				// Multiply P-term (Max gain of 127)
    74c4:	ef a9       	ldd	r30, Y+55	; 0x37
    74c6:	f8 ad       	ldd	r31, Y+56	; 0x38
    74c8:	01 91       	ld	r16, Z+
    74ca:	11 91       	ld	r17, Z+
    74cc:	f8 af       	std	Y+56, r31	; 0x38
    74ce:	ef ab       	std	Y+55, r30	; 0x37
    74d0:	ed a9       	ldd	r30, Y+53	; 0x35
    74d2:	fe a9       	ldd	r31, Y+54	; 0x36
    74d4:	41 91       	ld	r20, Z+
    74d6:	fe ab       	std	Y+54, r31	; 0x36
    74d8:	ed ab       	std	Y+53, r30	; 0x35
    74da:	40 03       	mulsu	r20, r16
    74dc:	90 01       	movw	r18, r0
    74de:	41 9f       	mul	r20, r17
    74e0:	30 0d       	add	r19, r0
    74e2:	11 24       	eor	r1, r1
    74e4:	44 27       	eor	r20, r20
    74e6:	37 fd       	sbrc	r19, 7
    74e8:	40 95       	com	r20
    74ea:	54 2f       	mov	r21, r20
    74ec:	28 0f       	add	r18, r24
    74ee:	39 1f       	adc	r19, r25
    74f0:	4a 1f       	adc	r20, r26
    74f2:	5b 1f       	adc	r21, r27
		PID_gyro_temp1 = PID_gyro_temp1 * (int32_t)3;					// Multiply by 3
    74f4:	a3 e0       	ldi	r26, 0x03	; 3
    74f6:	b0 e0       	ldi	r27, 0x00	; 0
    74f8:	0e 94 6b 41 	call	0x82d6	; 0x82d6 <__muluhisi3>
    74fc:	25 96       	adiw	r28, 0x05	; 5
    74fe:	6c af       	std	Y+60, r22	; 0x3c
    7500:	7d af       	std	Y+61, r23	; 0x3d
    7502:	8e af       	std	Y+62, r24	; 0x3e
    7504:	9f af       	std	Y+63, r25	; 0x3f
    7506:	25 97       	sbiw	r28, 0x05	; 5

		// Gyro I-term
		PID_Gyro_I_actual1 = IntegralGyro[P1][axis] * I_gain[P1][axis];	// Multiply I-term (Max gain of 127)
    7508:	eb a9       	ldd	r30, Y+51	; 0x33
    750a:	fc a9       	ldd	r31, Y+52	; 0x34
    750c:	a1 91       	ld	r26, Z+
    750e:	fc ab       	std	Y+52, r31	; 0x34
    7510:	eb ab       	std	Y+51, r30	; 0x33
    7512:	ed a1       	ldd	r30, Y+37	; 0x25
    7514:	fe a1       	ldd	r31, Y+38	; 0x26
    7516:	20 81       	ld	r18, Z
    7518:	31 81       	ldd	r19, Z+1	; 0x01
    751a:	42 81       	ldd	r20, Z+2	; 0x02
    751c:	53 81       	ldd	r21, Z+3	; 0x03
    751e:	bb 27       	eor	r27, r27
    7520:	a7 fd       	sbrc	r26, 7
    7522:	b0 95       	com	r27
    7524:	0e 94 76 41 	call	0x82ec	; 0x82ec <__mulshisi3>
    7528:	2b 01       	movw	r4, r22
    752a:	3c 01       	movw	r6, r24
		PID_Gyro_I_actual1 = PID_Gyro_I_actual1 >> 5;					// Divide by 32
    752c:	35 e0       	ldi	r19, 0x05	; 5
    752e:	75 94       	asr	r7
    7530:	67 94       	ror	r6
    7532:	57 94       	ror	r5
    7534:	47 94       	ror	r4
    7536:	3a 95       	dec	r19
    7538:	d1 f7       	brne	.-12     	; 0x752e <Calculate_PID+0x208>

		// Gyro P-term
		PID_gyro_temp2 += gyroADC[axis] * P_gain[P2][axis];				// Profile P2
    753a:	e9 a9       	ldd	r30, Y+49	; 0x31
    753c:	fa a9       	ldd	r31, Y+50	; 0x32
    753e:	41 91       	ld	r20, Z+
    7540:	fa ab       	std	Y+50, r31	; 0x32
    7542:	e9 ab       	std	Y+49, r30	; 0x31
    7544:	40 03       	mulsu	r20, r16
    7546:	90 01       	movw	r18, r0
    7548:	41 9f       	mul	r20, r17
    754a:	30 0d       	add	r19, r0
    754c:	11 24       	eor	r1, r1
    754e:	44 27       	eor	r20, r20
    7550:	37 fd       	sbrc	r19, 7
    7552:	40 95       	com	r20
    7554:	54 2f       	mov	r21, r20
    7556:	28 0d       	add	r18, r8
    7558:	39 1d       	adc	r19, r9
    755a:	4a 1d       	adc	r20, r10
    755c:	5b 1d       	adc	r21, r11
		PID_gyro_temp2 = PID_gyro_temp2 * (int32_t)3;
    755e:	a3 e0       	ldi	r26, 0x03	; 3
    7560:	b0 e0       	ldi	r27, 0x00	; 0
    7562:	0e 94 6b 41 	call	0x82d6	; 0x82d6 <__muluhisi3>
    7566:	4b 01       	movw	r8, r22
    7568:	5c 01       	movw	r10, r24

		// Gyro I-term
		PID_Gyro_I_actual2 = IntegralGyro[P2][axis] * I_gain[P2][axis];
    756a:	ef a5       	ldd	r30, Y+47	; 0x2f
    756c:	f8 a9       	ldd	r31, Y+48	; 0x30
    756e:	a1 91       	ld	r26, Z+
    7570:	f8 ab       	std	Y+48, r31	; 0x30
    7572:	ef a7       	std	Y+47, r30	; 0x2f
    7574:	ed a1       	ldd	r30, Y+37	; 0x25
    7576:	fe a1       	ldd	r31, Y+38	; 0x26
    7578:	24 85       	ldd	r18, Z+12	; 0x0c
    757a:	35 85       	ldd	r19, Z+13	; 0x0d
    757c:	46 85       	ldd	r20, Z+14	; 0x0e
    757e:	57 85       	ldd	r21, Z+15	; 0x0f
    7580:	bb 27       	eor	r27, r27
    7582:	a7 fd       	sbrc	r26, 7
    7584:	b0 95       	com	r27
    7586:	0e 94 76 41 	call	0x82ec	; 0x82ec <__mulshisi3>
		PID_Gyro_I_actual2 = PID_Gyro_I_actual2 >> 5;
    758a:	45 e0       	ldi	r20, 0x05	; 5
    758c:	95 95       	asr	r25
    758e:	87 95       	ror	r24
    7590:	77 95       	ror	r23
    7592:	67 95       	ror	r22
    7594:	4a 95       	dec	r20
    7596:	d1 f7       	brne	.-12     	; 0x758c <Calculate_PID+0x266>
		//************************************************************
		// I-term output limits
		//************************************************************

		// P1 limits
		if (PID_Gyro_I_actual1 > Config.Raw_I_Limits[P1][axis]) 
    7598:	ed a5       	ldd	r30, Y+45	; 0x2d
    759a:	fe a5       	ldd	r31, Y+46	; 0x2e
    759c:	c1 90       	ld	r12, Z+
    759e:	d1 90       	ld	r13, Z+
    75a0:	e1 90       	ld	r14, Z+
    75a2:	f1 90       	ld	r15, Z+
    75a4:	fe a7       	std	Y+46, r31	; 0x2e
    75a6:	ed a7       	std	Y+45, r30	; 0x2d
    75a8:	c4 14       	cp	r12, r4
    75aa:	d5 04       	cpc	r13, r5
    75ac:	e6 04       	cpc	r14, r6
    75ae:	f7 04       	cpc	r15, r7
    75b0:	84 f0       	brlt	.+32     	; 0x75d2 <Calculate_PID+0x2ac>
		{
			PID_Gyro_I_actual1 = Config.Raw_I_Limits[P1][axis];
		}
		else if (PID_Gyro_I_actual1 < -Config.Raw_I_Limits[P1][axis]) 
    75b2:	00 27       	eor	r16, r16
    75b4:	11 27       	eor	r17, r17
    75b6:	98 01       	movw	r18, r16
    75b8:	0c 19       	sub	r16, r12
    75ba:	1d 09       	sbc	r17, r13
    75bc:	2e 09       	sbc	r18, r14
    75be:	3f 09       	sbc	r19, r15
    75c0:	73 01       	movw	r14, r6
    75c2:	62 01       	movw	r12, r4
    75c4:	40 16       	cp	r4, r16
    75c6:	51 06       	cpc	r5, r17
    75c8:	62 06       	cpc	r6, r18
    75ca:	73 06       	cpc	r7, r19
    75cc:	14 f4       	brge	.+4      	; 0x75d2 <Calculate_PID+0x2ac>
    75ce:	68 01       	movw	r12, r16
    75d0:	79 01       	movw	r14, r18
		{
			PID_Gyro_I_actual1 = -Config.Raw_I_Limits[P1][axis];	
		}

		// P2 limits
		if (PID_Gyro_I_actual2 > Config.Raw_I_Limits[P2][axis]) 
    75d2:	eb a5       	ldd	r30, Y+43	; 0x2b
    75d4:	fc a5       	ldd	r31, Y+44	; 0x2c
    75d6:	21 91       	ld	r18, Z+
    75d8:	31 91       	ld	r19, Z+
    75da:	41 91       	ld	r20, Z+
    75dc:	51 91       	ld	r21, Z+
    75de:	fc a7       	std	Y+44, r31	; 0x2c
    75e0:	eb a7       	std	Y+43, r30	; 0x2b
    75e2:	2b 8f       	std	Y+27, r18	; 0x1b
    75e4:	3c 8f       	std	Y+28, r19	; 0x1c
    75e6:	4d 8f       	std	Y+29, r20	; 0x1d
    75e8:	5e 8f       	std	Y+30, r21	; 0x1e
    75ea:	26 17       	cp	r18, r22
    75ec:	37 07       	cpc	r19, r23
    75ee:	48 07       	cpc	r20, r24
    75f0:	59 07       	cpc	r21, r25
    75f2:	b4 f0       	brlt	.+44     	; 0x7620 <Calculate_PID+0x2fa>
		{
			PID_Gyro_I_actual2 = Config.Raw_I_Limits[P2][axis];
		}
		else if (PID_Gyro_I_actual2 < -Config.Raw_I_Limits[P2][axis]) 
    75f4:	89 01       	movw	r16, r18
    75f6:	9a 01       	movw	r18, r20
    75f8:	30 95       	com	r19
    75fa:	20 95       	com	r18
    75fc:	10 95       	com	r17
    75fe:	01 95       	neg	r16
    7600:	1f 4f       	sbci	r17, 0xFF	; 255
    7602:	2f 4f       	sbci	r18, 0xFF	; 255
    7604:	3f 4f       	sbci	r19, 0xFF	; 255
    7606:	6b 8f       	std	Y+27, r22	; 0x1b
    7608:	7c 8f       	std	Y+28, r23	; 0x1c
    760a:	8d 8f       	std	Y+29, r24	; 0x1d
    760c:	9e 8f       	std	Y+30, r25	; 0x1e
    760e:	60 17       	cp	r22, r16
    7610:	71 07       	cpc	r23, r17
    7612:	82 07       	cpc	r24, r18
    7614:	93 07       	cpc	r25, r19
    7616:	24 f4       	brge	.+8      	; 0x7620 <Calculate_PID+0x2fa>
    7618:	0b 8f       	std	Y+27, r16	; 0x1b
    761a:	1c 8f       	std	Y+28, r17	; 0x1c
    761c:	2d 8f       	std	Y+29, r18	; 0x1d
    761e:	3e 8f       	std	Y+30, r19	; 0x1e

		//************************************************************
		// Sum Gyro P, I and D terms and rescale
		//************************************************************

		PID_Gyros[P1][axis] = (int16_t)((PID_gyro_temp1 + PID_Gyro_I_actual1) >> PID_SCALE);  // PID_SCALE was 6, now 5
    7620:	25 96       	adiw	r28, 0x05	; 5
    7622:	4c ac       	ldd	r4, Y+60	; 0x3c
    7624:	5d ac       	ldd	r5, Y+61	; 0x3d
    7626:	6e ac       	ldd	r6, Y+62	; 0x3e
    7628:	7f ac       	ldd	r7, Y+63	; 0x3f
    762a:	25 97       	sbiw	r28, 0x05	; 5
    762c:	4c 0c       	add	r4, r12
    762e:	5d 1c       	adc	r5, r13
    7630:	6e 1c       	adc	r6, r14
    7632:	7f 1c       	adc	r7, r15
    7634:	a6 e0       	ldi	r26, 0x06	; 6
    7636:	75 94       	asr	r7
    7638:	67 94       	ror	r6
    763a:	57 94       	ror	r5
    763c:	47 94       	ror	r4
    763e:	aa 95       	dec	r26
    7640:	d1 f7       	brne	.-12     	; 0x7636 <Calculate_PID+0x310>
    7642:	eb a1       	ldd	r30, Y+35	; 0x23
    7644:	fc a1       	ldd	r31, Y+36	; 0x24
    7646:	51 82       	std	Z+1, r5	; 0x01
    7648:	40 82       	st	Z, r4
		PID_Gyros[P2][axis] = (int16_t)((PID_gyro_temp2 + PID_Gyro_I_actual2) >> PID_SCALE);
    764a:	8b 8d       	ldd	r24, Y+27	; 0x1b
    764c:	9c 8d       	ldd	r25, Y+28	; 0x1c
    764e:	ad 8d       	ldd	r26, Y+29	; 0x1d
    7650:	be 8d       	ldd	r27, Y+30	; 0x1e
    7652:	88 0d       	add	r24, r8
    7654:	99 1d       	adc	r25, r9
    7656:	aa 1d       	adc	r26, r10
    7658:	bb 1d       	adc	r27, r11
    765a:	26 e0       	ldi	r18, 0x06	; 6
    765c:	b5 95       	asr	r27
    765e:	a7 95       	ror	r26
    7660:	97 95       	ror	r25
    7662:	87 95       	ror	r24
    7664:	2a 95       	dec	r18
    7666:	d1 f7       	brne	.-12     	; 0x765c <Calculate_PID+0x336>
    7668:	97 83       	std	Z+7, r25	; 0x07
    766a:	86 83       	std	Z+6, r24	; 0x06

		//************************************************************
		// Calculate error from angle data and trim (roll and pitch only)
		//************************************************************

		if (axis < YAW)
    766c:	2a 96       	adiw	r28, 0x0a	; 10
    766e:	ff ad       	ldd	r31, Y+63	; 0x3f
    7670:	2a 97       	sbiw	r28, 0x0a	; 10
    7672:	f2 30       	cpi	r31, 0x02	; 2
    7674:	e9 f1       	breq	.+122    	; 0x76f0 <Calculate_PID+0x3ca>
		{
			// Do for P1 and P2
			for (i = P1; i <= P2; i++)
			{
				PID_acc_temp1 = angle[axis] - L_trim[i][axis];				// Offset angle with trim
    7676:	ef a1       	ldd	r30, Y+39	; 0x27
    7678:	f8 a5       	ldd	r31, Y+40	; 0x28
    767a:	40 81       	ld	r20, Z
    767c:	51 81       	ldd	r21, Z+1	; 0x01
    767e:	e9 a1       	ldd	r30, Y+33	; 0x21
    7680:	fa a1       	ldd	r31, Y+34	; 0x22
    7682:	80 81       	ld	r24, Z
    7684:	91 81       	ldd	r25, Z+1	; 0x01
    7686:	9a 01       	movw	r18, r20
    7688:	28 1b       	sub	r18, r24
    768a:	39 0b       	sbc	r19, r25
    768c:	a9 e0       	ldi	r26, 0x09	; 9
    768e:	b0 e0       	ldi	r27, 0x00	; 0
    7690:	ac 0f       	add	r26, r28
    7692:	bd 1f       	adc	r27, r29
    7694:	2b 96       	adiw	r28, 0x0b	; 11
    7696:	ee ad       	ldd	r30, Y+62	; 0x3e
    7698:	ff ad       	ldd	r31, Y+63	; 0x3f
    769a:	2b 97       	sbiw	r28, 0x0b	; 11
    769c:	ae 0f       	add	r26, r30
    769e:	bf 1f       	adc	r27, r31
				PID_acc_temp1 *= L_gain[i][axis];							// P-term of accelerometer (Max gain of 127)
    76a0:	ac 91       	ld	r26, X
    76a2:	bb 27       	eor	r27, r27
    76a4:	a7 fd       	sbrc	r26, 7
    76a6:	b0 95       	com	r27
    76a8:	0e 94 4d 41 	call	0x829a	; 0x829a <__mulhisi3>
				PID_ACCs[i][axis] = (int16_t)(PID_acc_temp1 >> 8);			// Reduce and convert to integer
    76ac:	bb 27       	eor	r27, r27
    76ae:	97 fd       	sbrc	r25, 7
    76b0:	ba 95       	dec	r27
    76b2:	a9 2f       	mov	r26, r25
    76b4:	98 2f       	mov	r25, r24
    76b6:	87 2f       	mov	r24, r23
    76b8:	ef 8d       	ldd	r30, Y+31	; 0x1f
    76ba:	f8 a1       	ldd	r31, Y+32	; 0x20
    76bc:	91 83       	std	Z+1, r25	; 0x01
    76be:	80 83       	st	Z, r24
		if (axis < YAW)
		{
			// Do for P1 and P2
			for (i = P1; i <= P2; i++)
			{
				PID_acc_temp1 = angle[axis] - L_trim[i][axis];				// Offset angle with trim
    76c0:	e9 a1       	ldd	r30, Y+33	; 0x21
    76c2:	fa a1       	ldd	r31, Y+34	; 0x22
    76c4:	84 81       	ldd	r24, Z+4	; 0x04
    76c6:	95 81       	ldd	r25, Z+5	; 0x05
    76c8:	9a 01       	movw	r18, r20
    76ca:	28 1b       	sub	r18, r24
    76cc:	39 0b       	sbc	r19, r25
				PID_acc_temp1 *= L_gain[i][axis];							// P-term of accelerometer (Max gain of 127)
    76ce:	f1 01       	movw	r30, r2
    76d0:	a0 81       	ld	r26, Z
    76d2:	bb 27       	eor	r27, r27
    76d4:	a7 fd       	sbrc	r26, 7
    76d6:	b0 95       	com	r27
    76d8:	0e 94 4d 41 	call	0x829a	; 0x829a <__mulhisi3>
				PID_ACCs[i][axis] = (int16_t)(PID_acc_temp1 >> 8);			// Reduce and convert to integer
    76dc:	bb 27       	eor	r27, r27
    76de:	97 fd       	sbrc	r25, 7
    76e0:	ba 95       	dec	r27
    76e2:	a9 2f       	mov	r26, r25
    76e4:	98 2f       	mov	r25, r24
    76e6:	87 2f       	mov	r24, r23
    76e8:	ef 8d       	ldd	r30, Y+31	; 0x1f
    76ea:	f8 a1       	ldd	r31, Y+32	; 0x20
    76ec:	97 83       	std	Z+7, r25	; 0x07
    76ee:	86 83       	std	Z+6, r24	; 0x06
	PID_AvgAccVert = 0;							// Reset average

	//************************************************************
	// PID loop
	//************************************************************
	for (axis = 0; axis <= YAW; axis ++)
    76f0:	2b 96       	adiw	r28, 0x0b	; 11
    76f2:	ee ad       	ldd	r30, Y+62	; 0x3e
    76f4:	ff ad       	ldd	r31, Y+63	; 0x3f
    76f6:	2b 97       	sbiw	r28, 0x0b	; 11
    76f8:	32 97       	sbiw	r30, 0x02	; 2
    76fa:	e1 f1       	breq	.+120    	; 0x7774 <Calculate_PID+0x44e>
	{
		//************************************************************
		// Add in gyro Yaw trim
		//************************************************************

		if (axis == YAW)
    76fc:	2a 96       	adiw	r28, 0x0a	; 10
    76fe:	ff ad       	ldd	r31, Y+63	; 0x3f
    7700:	2a 97       	sbiw	r28, 0x0a	; 10
    7702:	f1 30       	cpi	r31, 0x01	; 1
    7704:	39 f0       	breq	.+14     	; 0x7714 <Calculate_PID+0x3ee>
		}
		// Reset PID_gyro variables to that data does not accumulate cross-axis
		else
		{
			PID_gyro_temp1 = 0;
			PID_gyro_temp2 = 0;
    7706:	81 2c       	mov	r8, r1
    7708:	91 2c       	mov	r9, r1
    770a:	54 01       	movw	r10, r8
			PID_gyro_temp2 = (int32_t)(Config.FlightMode[P2].Yaw_trim << 6);
		}
		// Reset PID_gyro variables to that data does not accumulate cross-axis
		else
		{
			PID_gyro_temp1 = 0;
    770c:	80 e0       	ldi	r24, 0x00	; 0
    770e:	90 e0       	ldi	r25, 0x00	; 0
    7710:	dc 01       	movw	r26, r24
    7712:	0a c0       	rjmp	.+20     	; 0x7728 <Calculate_PID+0x402>
		//************************************************************

		if (axis == YAW)
		{
			PID_gyro_temp1 = (int32_t)(Config.FlightMode[P1].Yaw_trim << 6);
			PID_gyro_temp2 = (int32_t)(Config.FlightMode[P2].Yaw_trim << 6);
    7714:	21 96       	adiw	r28, 0x01	; 1
    7716:	8c ac       	ldd	r8, Y+60	; 0x3c
    7718:	9d ac       	ldd	r9, Y+61	; 0x3d
    771a:	ae ac       	ldd	r10, Y+62	; 0x3e
    771c:	bf ac       	ldd	r11, Y+63	; 0x3f
    771e:	21 97       	sbiw	r28, 0x01	; 1
		// Add in gyro Yaw trim
		//************************************************************

		if (axis == YAW)
		{
			PID_gyro_temp1 = (int32_t)(Config.FlightMode[P1].Yaw_trim << 6);
    7720:	89 ad       	ldd	r24, Y+57	; 0x39
    7722:	9a ad       	ldd	r25, Y+58	; 0x3a
    7724:	ab ad       	ldd	r26, Y+59	; 0x3b
    7726:	bc ad       	ldd	r27, Y+60	; 0x3c
    7728:	2b 96       	adiw	r28, 0x0b	; 11
    772a:	ee ad       	ldd	r30, Y+62	; 0x3e
    772c:	ff ad       	ldd	r31, Y+63	; 0x3f
    772e:	2b 97       	sbiw	r28, 0x0b	; 11
    7730:	31 96       	adiw	r30, 0x01	; 1
    7732:	2b 96       	adiw	r28, 0x0b	; 11
    7734:	ff af       	std	Y+63, r31	; 0x3f
    7736:	ee af       	std	Y+62, r30	; 0x3e
    7738:	2b 97       	sbiw	r28, 0x0b	; 11
    773a:	ed a1       	ldd	r30, Y+37	; 0x25
    773c:	fe a1       	ldd	r31, Y+38	; 0x26
    773e:	34 96       	adiw	r30, 0x04	; 4
    7740:	fe a3       	std	Y+38, r31	; 0x26
    7742:	ed a3       	std	Y+37, r30	; 0x25
    7744:	eb a1       	ldd	r30, Y+35	; 0x23
    7746:	fc a1       	ldd	r31, Y+36	; 0x24
    7748:	32 96       	adiw	r30, 0x02	; 2
    774a:	fc a3       	std	Y+36, r31	; 0x24
    774c:	eb a3       	std	Y+35, r30	; 0x23
    774e:	ef a1       	ldd	r30, Y+39	; 0x27
    7750:	f8 a5       	ldd	r31, Y+40	; 0x28
    7752:	32 96       	adiw	r30, 0x02	; 2
    7754:	f8 a7       	std	Y+40, r31	; 0x28
    7756:	ef a3       	std	Y+39, r30	; 0x27
    7758:	e9 a1       	ldd	r30, Y+33	; 0x21
    775a:	fa a1       	ldd	r31, Y+34	; 0x22
    775c:	32 96       	adiw	r30, 0x02	; 2
    775e:	fa a3       	std	Y+34, r31	; 0x22
    7760:	e9 a3       	std	Y+33, r30	; 0x21
    7762:	ef 8d       	ldd	r30, Y+31	; 0x1f
    7764:	f8 a1       	ldd	r31, Y+32	; 0x20
    7766:	32 96       	adiw	r30, 0x02	; 2
    7768:	f8 a3       	std	Y+32, r31	; 0x20
    776a:	ef 8f       	std	Y+31, r30	; 0x1f
    776c:	ff ef       	ldi	r31, 0xFF	; 255
    776e:	2f 1a       	sub	r2, r31
    7770:	3f 0a       	sbc	r3, r31
    7772:	a8 ce       	rjmp	.-688    	; 0x74c4 <Calculate_PID+0x19e>
	//************************************************************

	// Do for P1 and P2
	for (i = P1; i <= P2; i++)
	{
		PID_acc_temp1 = -AvAccVert;				// Get and copy Z-acc value. Negate to oppose G
    7774:	27 96       	adiw	r28, 0x07	; 7
    7776:	ce ac       	ldd	r12, Y+62	; 0x3e
    7778:	df ac       	ldd	r13, Y+63	; 0x3f
    777a:	27 97       	sbiw	r28, 0x07	; 7
    777c:	d1 94       	neg	r13
    777e:	c1 94       	neg	r12
    7780:	d1 08       	sbc	r13, r1

		PID_acc_temp1 *= L_gain[i][YAW];		// Multiply P-term (Max gain of 127)
    7782:	96 01       	movw	r18, r12
    7784:	f9 a5       	ldd	r31, Y+41	; 0x29
    7786:	af 2f       	mov	r26, r31
    7788:	bb 27       	eor	r27, r27
    778a:	a7 fd       	sbrc	r26, 7
    778c:	b0 95       	com	r27
    778e:	0e 94 4d 41 	call	0x829a	; 0x829a <__mulhisi3>

		PID_acc_temp1 = PID_acc_temp1 >> 4;		// Moderate Z-acc to reasonable values
    7792:	44 e0       	ldi	r20, 0x04	; 4
    7794:	95 95       	asr	r25
    7796:	87 95       	ror	r24
    7798:	77 95       	ror	r23
    779a:	67 95       	ror	r22
    779c:	4a 95       	dec	r20
    779e:	d1 f7       	brne	.-12     	; 0x7794 <Calculate_PID+0x46e>

		if (PID_acc_temp1 > MAX_ZGAIN)			// Limit to +/-MAX_ZGAIN
    77a0:	65 3f       	cpi	r22, 0xF5	; 245
    77a2:	21 e0       	ldi	r18, 0x01	; 1
    77a4:	72 07       	cpc	r23, r18
    77a6:	81 05       	cpc	r24, r1
    77a8:	91 05       	cpc	r25, r1
    77aa:	64 f4       	brge	.+24     	; 0x77c4 <Calculate_PID+0x49e>
		{
			PID_acc_temp1 = MAX_ZGAIN;
		}
		if (PID_acc_temp1 < -MAX_ZGAIN)
    77ac:	6c 30       	cpi	r22, 0x0C	; 12
    77ae:	3e ef       	ldi	r19, 0xFE	; 254
    77b0:	73 07       	cpc	r23, r19
    77b2:	3f ef       	ldi	r19, 0xFF	; 255
    77b4:	83 07       	cpc	r24, r19
    77b6:	93 07       	cpc	r25, r19
    77b8:	4c f4       	brge	.+18     	; 0x77cc <Calculate_PID+0x4a6>
		{
			PID_acc_temp1 = -MAX_ZGAIN;
    77ba:	6c e0       	ldi	r22, 0x0C	; 12
    77bc:	7e ef       	ldi	r23, 0xFE	; 254
    77be:	8f ef       	ldi	r24, 0xFF	; 255
    77c0:	9f ef       	ldi	r25, 0xFF	; 255
    77c2:	04 c0       	rjmp	.+8      	; 0x77cc <Calculate_PID+0x4a6>

		PID_acc_temp1 = PID_acc_temp1 >> 4;		// Moderate Z-acc to reasonable values

		if (PID_acc_temp1 > MAX_ZGAIN)			// Limit to +/-MAX_ZGAIN
		{
			PID_acc_temp1 = MAX_ZGAIN;
    77c4:	64 ef       	ldi	r22, 0xF4	; 244
    77c6:	71 e0       	ldi	r23, 0x01	; 1
    77c8:	80 e0       	ldi	r24, 0x00	; 0
    77ca:	90 e0       	ldi	r25, 0x00	; 0
		if (PID_acc_temp1 < -MAX_ZGAIN)
		{
			PID_acc_temp1 = -MAX_ZGAIN;
		}

		PID_ACCs[i][YAW] = (int16_t)PID_acc_temp1; // Copy to global values
    77cc:	70 93 cd 07 	sts	0x07CD, r23
    77d0:	60 93 cc 07 	sts	0x07CC, r22
	// Do for P1 and P2
	for (i = P1; i <= P2; i++)
	{
		PID_acc_temp1 = -AvAccVert;				// Get and copy Z-acc value. Negate to oppose G

		PID_acc_temp1 *= L_gain[i][YAW];		// Multiply P-term (Max gain of 127)
    77d4:	96 01       	movw	r18, r12
    77d6:	4a a5       	ldd	r20, Y+42	; 0x2a
    77d8:	a4 2f       	mov	r26, r20
    77da:	bb 27       	eor	r27, r27
    77dc:	a7 fd       	sbrc	r26, 7
    77de:	b0 95       	com	r27
    77e0:	0e 94 4d 41 	call	0x829a	; 0x829a <__mulhisi3>

		PID_acc_temp1 = PID_acc_temp1 >> 4;		// Moderate Z-acc to reasonable values
    77e4:	34 e0       	ldi	r19, 0x04	; 4
    77e6:	95 95       	asr	r25
    77e8:	87 95       	ror	r24
    77ea:	77 95       	ror	r23
    77ec:	67 95       	ror	r22
    77ee:	3a 95       	dec	r19
    77f0:	d1 f7       	brne	.-12     	; 0x77e6 <Calculate_PID+0x4c0>

		if (PID_acc_temp1 > MAX_ZGAIN)			// Limit to +/-MAX_ZGAIN
    77f2:	65 3f       	cpi	r22, 0xF5	; 245
    77f4:	51 e0       	ldi	r21, 0x01	; 1
    77f6:	75 07       	cpc	r23, r21
    77f8:	81 05       	cpc	r24, r1
    77fa:	91 05       	cpc	r25, r1
    77fc:	64 f4       	brge	.+24     	; 0x7816 <Calculate_PID+0x4f0>
		{
			PID_acc_temp1 = MAX_ZGAIN;
		}
		if (PID_acc_temp1 < -MAX_ZGAIN)
    77fe:	6c 30       	cpi	r22, 0x0C	; 12
    7800:	ae ef       	ldi	r26, 0xFE	; 254
    7802:	7a 07       	cpc	r23, r26
    7804:	af ef       	ldi	r26, 0xFF	; 255
    7806:	8a 07       	cpc	r24, r26
    7808:	9a 07       	cpc	r25, r26
    780a:	4c f4       	brge	.+18     	; 0x781e <Calculate_PID+0x4f8>
		{
			PID_acc_temp1 = -MAX_ZGAIN;
    780c:	6c e0       	ldi	r22, 0x0C	; 12
    780e:	7e ef       	ldi	r23, 0xFE	; 254
    7810:	8f ef       	ldi	r24, 0xFF	; 255
    7812:	9f ef       	ldi	r25, 0xFF	; 255
    7814:	04 c0       	rjmp	.+8      	; 0x781e <Calculate_PID+0x4f8>

		PID_acc_temp1 = PID_acc_temp1 >> 4;		// Moderate Z-acc to reasonable values

		if (PID_acc_temp1 > MAX_ZGAIN)			// Limit to +/-MAX_ZGAIN
		{
			PID_acc_temp1 = MAX_ZGAIN;
    7816:	64 ef       	ldi	r22, 0xF4	; 244
    7818:	71 e0       	ldi	r23, 0x01	; 1
    781a:	80 e0       	ldi	r24, 0x00	; 0
    781c:	90 e0       	ldi	r25, 0x00	; 0
		if (PID_acc_temp1 < -MAX_ZGAIN)
		{
			PID_acc_temp1 = -MAX_ZGAIN;
		}

		PID_ACCs[i][YAW] = (int16_t)PID_acc_temp1; // Copy to global values
    781e:	70 93 d3 07 	sts	0x07D3, r23
    7822:	60 93 d2 07 	sts	0x07D2, r22
	}
}
    7826:	c6 5b       	subi	r28, 0xB6	; 182
    7828:	df 4f       	sbci	r29, 0xFF	; 255
    782a:	e2 e1       	ldi	r30, 0x12	; 18
    782c:	0c 94 9a 41 	jmp	0x8334	; 0x8334 <__epilogue_restores__>

00007830 <RxGetChannels>:
int16_t MonopolarThrottle;				// Monopolar throttle

// Get raw flight channel data (~2500 to 5000) and remove zero offset
// Use channel mapping for configurability
void RxGetChannels(void)
{
    7830:	cf 93       	push	r28
    7832:	df 93       	push	r29
    7834:	c7 e3       	ldi	r28, 0x37	; 55
    7836:	d7 e0       	ldi	r29, 0x07	; 7
    7838:	a6 ed       	ldi	r26, 0xD6	; 214
    783a:	b7 e0       	ldi	r27, 0x07	; 7
	static	int16_t	OldRxSum;			// Sum of all major channels
	int16_t	RxSumDiff;
	int16_t	RxSum, i;

	// Remove zero offsets
	for (i=0;i<MAX_RC_CHANNELS;i++)
    783c:	80 e0       	ldi	r24, 0x00	; 0
    783e:	90 e0       	ldi	r25, 0x00	; 0
	{
		RCinputs[i]	= RxChannel[i] - Config.RxChannelZeroOffset[i];
    7840:	fc 01       	movw	r30, r24
    7842:	ee 0f       	add	r30, r30
    7844:	ff 1f       	adc	r31, r31
    7846:	ea 59       	subi	r30, 0x9A	; 154
    7848:	f8 4f       	sbci	r31, 0xF8	; 248
    784a:	20 81       	ld	r18, Z
    784c:	31 81       	ldd	r19, Z+1	; 0x01
    784e:	49 91       	ld	r20, Y+
    7850:	59 91       	ld	r21, Y+
    7852:	24 1b       	sub	r18, r20
    7854:	35 0b       	sbc	r19, r21
    7856:	2d 93       	st	X+, r18
    7858:	3d 93       	st	X+, r19
	static	int16_t	OldRxSum;			// Sum of all major channels
	int16_t	RxSumDiff;
	int16_t	RxSum, i;

	// Remove zero offsets
	for (i=0;i<MAX_RC_CHANNELS;i++)
    785a:	01 96       	adiw	r24, 0x01	; 1
    785c:	88 30       	cpi	r24, 0x08	; 8
    785e:	91 05       	cpc	r25, r1
    7860:	79 f7       	brne	.-34     	; 0x7840 <RxGetChannels+0x10>
	{
		RCinputs[i]	= RxChannel[i] - Config.RxChannelZeroOffset[i];
	}

	// Special handling for monopolar throttle
	MonopolarThrottle = RxChannel[THROTTLE] - Config.RxChannelZeroOffset[THROTTLE];
    7862:	20 91 66 07 	lds	r18, 0x0766
    7866:	30 91 67 07 	lds	r19, 0x0767
    786a:	80 91 37 07 	lds	r24, 0x0737
    786e:	90 91 38 07 	lds	r25, 0x0738
    7872:	28 1b       	sub	r18, r24
    7874:	39 0b       	sbc	r19, r25
    7876:	30 93 d5 07 	sts	0x07D5, r19
    787a:	20 93 d4 07 	sts	0x07D4, r18

	// Bipolar throttle must use the nominal mid-point
	RCinputs[THROTTLE] = RxChannel[THROTTLE] - 3750;
    787e:	80 91 66 07 	lds	r24, 0x0766
    7882:	90 91 67 07 	lds	r25, 0x0767
    7886:	86 5a       	subi	r24, 0xA6	; 166
    7888:	9e 40       	sbci	r25, 0x0E	; 14
    788a:	90 93 d7 07 	sts	0x07D7, r25
    788e:	80 93 d6 07 	sts	0x07D6, r24

	// Reverse primary channels as requested
	if (Config.AileronPol == REVERSED)
    7892:	80 91 d2 05 	lds	r24, 0x05D2
    7896:	81 30       	cpi	r24, 0x01	; 1
    7898:	59 f4       	brne	.+22     	; 0x78b0 <RxGetChannels+0x80>
	{
		RCinputs[AILERON] = -RCinputs[AILERON];
    789a:	80 91 d8 07 	lds	r24, 0x07D8
    789e:	90 91 d9 07 	lds	r25, 0x07D9
    78a2:	91 95       	neg	r25
    78a4:	81 95       	neg	r24
    78a6:	91 09       	sbc	r25, r1
    78a8:	90 93 d9 07 	sts	0x07D9, r25
    78ac:	80 93 d8 07 	sts	0x07D8, r24
	}

	if (Config.ElevatorPol == REVERSED)
    78b0:	80 91 d3 05 	lds	r24, 0x05D3
    78b4:	81 30       	cpi	r24, 0x01	; 1
    78b6:	59 f4       	brne	.+22     	; 0x78ce <RxGetChannels+0x9e>
	{
		RCinputs[ELEVATOR] = -RCinputs[ELEVATOR];
    78b8:	80 91 da 07 	lds	r24, 0x07DA
    78bc:	90 91 db 07 	lds	r25, 0x07DB
    78c0:	91 95       	neg	r25
    78c2:	81 95       	neg	r24
    78c4:	91 09       	sbc	r25, r1
    78c6:	90 93 db 07 	sts	0x07DB, r25
    78ca:	80 93 da 07 	sts	0x07DA, r24
	}

	if (Config.RudderPol == REVERSED)
    78ce:	80 91 d4 05 	lds	r24, 0x05D4
    78d2:	81 30       	cpi	r24, 0x01	; 1
    78d4:	59 f4       	brne	.+22     	; 0x78ec <RxGetChannels+0xbc>
	{
		RCinputs[RUDDER] = -RCinputs[RUDDER];
    78d6:	80 91 dc 07 	lds	r24, 0x07DC
    78da:	90 91 dd 07 	lds	r25, 0x07DD
    78de:	91 95       	neg	r25
    78e0:	81 95       	neg	r24
    78e2:	91 09       	sbc	r25, r1
    78e4:	90 93 dd 07 	sts	0x07DD, r25
    78e8:	80 93 dc 07 	sts	0x07DC, r24
	}

	// Calculate RX activity
	RxSum = RCinputs[AILERON] + RCinputs[ELEVATOR] + RCinputs[RUDDER];
    78ec:	80 91 d8 07 	lds	r24, 0x07D8
    78f0:	90 91 d9 07 	lds	r25, 0x07D9
    78f4:	40 91 da 07 	lds	r20, 0x07DA
    78f8:	50 91 db 07 	lds	r21, 0x07DB
    78fc:	84 0f       	add	r24, r20
    78fe:	95 1f       	adc	r25, r21
    7900:	40 91 dc 07 	lds	r20, 0x07DC
    7904:	50 91 dd 07 	lds	r21, 0x07DD
    7908:	84 0f       	add	r24, r20
    790a:	95 1f       	adc	r25, r21
	RxSumDiff = RxSum - OldRxSum;
    790c:	40 91 2e 05 	lds	r20, 0x052E
    7910:	50 91 2f 05 	lds	r21, 0x052F
    7914:	bc 01       	movw	r22, r24
    7916:	64 1b       	sub	r22, r20
    7918:	75 0b       	sbc	r23, r21
    791a:	ab 01       	movw	r20, r22

	// Set RX activity flag if movement above noise floor or throttle above minimum
	if ((RxSumDiff > NOISE_THRESH) || (RxSumDiff < -NOISE_THRESH) || (MonopolarThrottle > THROTTLEIDLE)) 
    791c:	4b 5f       	subi	r20, 0xFB	; 251
    791e:	5f 4f       	sbci	r21, 0xFF	; 255
    7920:	60 91 16 05 	lds	r22, 0x0516
    7924:	4b 30       	cpi	r20, 0x0B	; 11
    7926:	51 05       	cpc	r21, r1
    7928:	18 f4       	brcc	.+6      	; 0x7930 <RxGetChannels+0x100>
    792a:	23 33       	cpi	r18, 0x33	; 51
    792c:	31 05       	cpc	r19, r1
    792e:	14 f0       	brlt	.+4      	; 0x7934 <RxGetChannels+0x104>
	{
		Flight_flags |= (1 << RxActivity);
    7930:	61 60       	ori	r22, 0x01	; 1
    7932:	01 c0       	rjmp	.+2      	; 0x7936 <RxGetChannels+0x106>
	}
	else 
	{
		Flight_flags &= ~(1 << RxActivity);
    7934:	6e 7f       	andi	r22, 0xFE	; 254
    7936:	60 93 16 05 	sts	0x0516, r22
	}
	
	// Preset RCinputs[NOCHAN] for sanity
	RCinputs[NOCHAN] = 0;
    793a:	10 92 e7 07 	sts	0x07E7, r1
    793e:	10 92 e6 07 	sts	0x07E6, r1

	OldRxSum = RxSum;
    7942:	90 93 2f 05 	sts	0x052F, r25
    7946:	80 93 2e 05 	sts	0x052E, r24
}
    794a:	df 91       	pop	r29
    794c:	cf 91       	pop	r28
    794e:	08 95       	ret

00007950 <CenterSticks>:

// Center sticks on request from Menu
void CenterSticks(void)		
{
    7950:	a0 e1       	ldi	r26, 0x10	; 16
    7952:	b0 e0       	ldi	r27, 0x00	; 0
    7954:	ee ea       	ldi	r30, 0xAE	; 174
    7956:	fc e3       	ldi	r31, 0x3C	; 60
    7958:	0c 94 8c 41 	jmp	0x8318	; 0x8318 <__prologue_saves__+0x1c>
	uint8_t i, j;
	uint16_t RxChannelZeroOffset[MAX_RC_CHANNELS] = {0,0,0,0,0,0,0,0};
    795c:	8e 01       	movw	r16, r28
    795e:	0f 5f       	subi	r16, 0xFF	; 255
    7960:	1f 4f       	sbci	r17, 0xFF	; 255
    7962:	80 e1       	ldi	r24, 0x10	; 16
    7964:	d8 01       	movw	r26, r16
    7966:	1d 92       	st	X+, r1
    7968:	8a 95       	dec	r24
    796a:	e9 f7       	brne	.-6      	; 0x7966 <CenterSticks+0x16>
    796c:	68 e0       	ldi	r22, 0x08	; 8
	OldRxSum = RxSum;
}

// Center sticks on request from Menu
void CenterSticks(void)		
{
    796e:	d8 01       	movw	r26, r16
    7970:	80 e0       	ldi	r24, 0x00	; 0
    7972:	90 e0       	ldi	r25, 0x00	; 0
	// RxChannel will auto-update every RC frame (normally 46Hz or so)
	for (i=0; i<8; i++)
	{
		for (j=0; j<MAX_RC_CHANNELS; j++)
		{
			RxChannelZeroOffset[j] += RxChannel[j];
    7974:	9c 01       	movw	r18, r24
    7976:	22 0f       	add	r18, r18
    7978:	33 1f       	adc	r19, r19
    797a:	2a 59       	subi	r18, 0x9A	; 154
    797c:	38 4f       	sbci	r19, 0xF8	; 248
    797e:	f9 01       	movw	r30, r18
    7980:	40 81       	ld	r20, Z
    7982:	51 81       	ldd	r21, Z+1	; 0x01
    7984:	2d 91       	ld	r18, X+
    7986:	3c 91       	ld	r19, X
    7988:	11 97       	sbiw	r26, 0x01	; 1
    798a:	24 0f       	add	r18, r20
    798c:	35 1f       	adc	r19, r21
    798e:	2d 93       	st	X+, r18
    7990:	3d 93       	st	X+, r19
    7992:	01 96       	adiw	r24, 0x01	; 1

	// Take an average of eight readings
	// RxChannel will auto-update every RC frame (normally 46Hz or so)
	for (i=0; i<8; i++)
	{
		for (j=0; j<MAX_RC_CHANNELS; j++)
    7994:	88 30       	cpi	r24, 0x08	; 8
    7996:	91 05       	cpc	r25, r1
    7998:	69 f7       	brne	.-38     	; 0x7974 <CenterSticks+0x24>
    799a:	ff e7       	ldi	r31, 0x7F	; 127
    799c:	2a e1       	ldi	r18, 0x1A	; 26
    799e:	86 e0       	ldi	r24, 0x06	; 6
    79a0:	f1 50       	subi	r31, 0x01	; 1
    79a2:	20 40       	sbci	r18, 0x00	; 0
    79a4:	80 40       	sbci	r24, 0x00	; 0
    79a6:	e1 f7       	brne	.-8      	; 0x79a0 <CenterSticks+0x50>
    79a8:	00 c0       	rjmp	.+0      	; 0x79aa <CenterSticks+0x5a>
    79aa:	00 00       	nop
    79ac:	61 50       	subi	r22, 0x01	; 1
	uint8_t i, j;
	uint16_t RxChannelZeroOffset[MAX_RC_CHANNELS] = {0,0,0,0,0,0,0,0};

	// Take an average of eight readings
	// RxChannel will auto-update every RC frame (normally 46Hz or so)
	for (i=0; i<8; i++)
    79ae:	f9 f6       	brne	.-66     	; 0x796e <CenterSticks+0x1e>
    79b0:	a7 e3       	ldi	r26, 0x37	; 55
    79b2:	b7 e0       	ldi	r27, 0x07	; 7
    79b4:	9e 01       	movw	r18, r28
    79b6:	2f 5e       	subi	r18, 0xEF	; 239
    79b8:	3f 4f       	sbci	r19, 0xFF	; 255
    79ba:	f8 01       	movw	r30, r16
		_delay_ms(100); // Wait for a new frame
	}

	for (i=0;i<MAX_RC_CHANNELS;i++)
	{
		Config.RxChannelZeroOffset[i] = ((RxChannelZeroOffset[i] + 4) >> 3); // Round and divide by 8
    79bc:	81 91       	ld	r24, Z+
    79be:	91 91       	ld	r25, Z+
    79c0:	04 96       	adiw	r24, 0x04	; 4
    79c2:	43 e0       	ldi	r20, 0x03	; 3
    79c4:	96 95       	lsr	r25
    79c6:	87 95       	ror	r24
    79c8:	4a 95       	dec	r20
    79ca:	e1 f7       	brne	.-8      	; 0x79c4 <CenterSticks+0x74>
    79cc:	8d 93       	st	X+, r24
    79ce:	9d 93       	st	X+, r25
			RxChannelZeroOffset[j] += RxChannel[j];
		}
		_delay_ms(100); // Wait for a new frame
	}

	for (i=0;i<MAX_RC_CHANNELS;i++)
    79d0:	e2 17       	cp	r30, r18
    79d2:	f3 07       	cpc	r31, r19
    79d4:	99 f7       	brne	.-26     	; 0x79bc <CenterSticks+0x6c>
	{
		Config.RxChannelZeroOffset[i] = ((RxChannelZeroOffset[i] + 4) >> 3); // Round and divide by 8
	}

	Save_Config_to_EEPROM();
    79d6:	0e 94 8c 16 	call	0x2d18	; 0x2d18 <Save_Config_to_EEPROM>
}
    79da:	60 96       	adiw	r28, 0x10	; 16
    79dc:	e4 e0       	ldi	r30, 0x04	; 4
    79de:	0c 94 a8 41 	jmp	0x8350	; 0x8350 <__epilogue_restores__+0x1c>

000079e2 <output_servo_ppm>:
//************************************************************

uint16_t ServoOut[MAX_OUTPUTS];

void output_servo_ppm(void)
{
    79e2:	a0 e0       	ldi	r26, 0x00	; 0
    79e4:	b0 e0       	ldi	r27, 0x00	; 0
    79e6:	e7 ef       	ldi	r30, 0xF7	; 247
    79e8:	fc e3       	ldi	r31, 0x3C	; 60
    79ea:	0c 94 88 41 	jmp	0x8310	; 0x8310 <__prologue_saves__+0x14>
    79ee:	08 ee       	ldi	r16, 0xE8	; 232
    79f0:	17 e0       	ldi	r17, 0x07	; 7
    79f2:	c8 e4       	ldi	r28, 0x48	; 72
    79f4:	d6 e0       	ldi	r29, 0x06	; 6
			temp = ((temp - 3750) >> 1) + 1500;
		}
		else
		{
			// Scale servo from 2500~5000 to 1000~2000
			temp = ((temp << 2) + 5) / 10; 	// Round and convert	
    79f6:	7a e0       	ldi	r23, 0x0A	; 10
    79f8:	c7 2e       	mov	r12, r23
    79fa:	d1 2c       	mov	r13, r1
    79fc:	e1 2c       	mov	r14, r1
    79fe:	f1 2c       	mov	r15, r1
	uint8_t i;

	// Re-span numbers from internal values to microseconds
	for (i = 0; i < MAX_OUTPUTS; i++)
	{
		temp = ServoOut[i];					// Promote to 32 bits
    7a00:	f8 01       	movw	r30, r16
    7a02:	20 81       	ld	r18, Z
    7a04:	31 81       	ldd	r19, Z+1	; 0x01
    7a06:	a9 01       	movw	r20, r18
    7a08:	60 e0       	ldi	r22, 0x00	; 0
    7a0a:	70 e0       	ldi	r23, 0x00	; 0

		// Check for motor marker and ignore if set
		if ((Config.Channel[i].P1_sensors & (1 << MotorMarker)) == 0)
    7a0c:	88 81       	ld	r24, Y
    7a0e:	86 fd       	sbrc	r24, 6
    7a10:	0f c0       	rjmp	.+30     	; 0x7a30 <output_servo_ppm+0x4e>
		{
			// Scale servo from 2500~5000 to 875~2125
			temp = ((temp - 3750) >> 1) + 1500;
    7a12:	9a 01       	movw	r18, r20
    7a14:	ab 01       	movw	r20, r22
    7a16:	26 5a       	subi	r18, 0xA6	; 166
    7a18:	3e 40       	sbci	r19, 0x0E	; 14
    7a1a:	41 09       	sbc	r20, r1
    7a1c:	51 09       	sbc	r21, r1
    7a1e:	56 95       	lsr	r21
    7a20:	47 95       	ror	r20
    7a22:	37 95       	ror	r19
    7a24:	27 95       	ror	r18
    7a26:	24 52       	subi	r18, 0x24	; 36
    7a28:	3a 4f       	sbci	r19, 0xFA	; 250
    7a2a:	4f 4f       	sbci	r20, 0xFF	; 255
    7a2c:	5f 4f       	sbci	r21, 0xFF	; 255
    7a2e:	11 c0       	rjmp	.+34     	; 0x7a52 <output_servo_ppm+0x70>
		}
		else
		{
			// Scale servo from 2500~5000 to 1000~2000
			temp = ((temp << 2) + 5) / 10; 	// Round and convert	
    7a30:	cb 01       	movw	r24, r22
    7a32:	ba 01       	movw	r22, r20
    7a34:	22 e0       	ldi	r18, 0x02	; 2
    7a36:	66 0f       	add	r22, r22
    7a38:	77 1f       	adc	r23, r23
    7a3a:	88 1f       	adc	r24, r24
    7a3c:	99 1f       	adc	r25, r25
    7a3e:	2a 95       	dec	r18
    7a40:	d1 f7       	brne	.-12     	; 0x7a36 <output_servo_ppm+0x54>
    7a42:	6b 5f       	subi	r22, 0xFB	; 251
    7a44:	7f 4f       	sbci	r23, 0xFF	; 255
    7a46:	8f 4f       	sbci	r24, 0xFF	; 255
    7a48:	9f 4f       	sbci	r25, 0xFF	; 255
    7a4a:	a7 01       	movw	r20, r14
    7a4c:	96 01       	movw	r18, r12
    7a4e:	0e 94 06 41 	call	0x820c	; 0x820c <__udivmodsi4>
		}
		
		ServoOut[i] = (uint16_t)temp;
    7a52:	f8 01       	movw	r30, r16
    7a54:	21 93       	st	Z+, r18
    7a56:	31 93       	st	Z+, r19
    7a58:	8f 01       	movw	r16, r30
    7a5a:	6d 96       	adiw	r28, 0x1d	; 29
{
	uint32_t temp;
	uint8_t i;

	// Re-span numbers from internal values to microseconds
	for (i = 0; i < MAX_OUTPUTS; i++)
    7a5c:	f7 e0       	ldi	r31, 0x07	; 7
    7a5e:	c0 33       	cpi	r28, 0x30	; 48
    7a60:	df 07       	cpc	r29, r31
    7a62:	71 f6       	brne	.-100    	; 0x7a00 <output_servo_ppm+0x1e>
		
		ServoOut[i] = (uint16_t)temp;
	}

	// Re-sample throttle value
	MonopolarThrottle = RxChannel[THROTTLE] - Config.RxChannelZeroOffset[THROTTLE];
    7a64:	80 91 66 07 	lds	r24, 0x0766
    7a68:	90 91 67 07 	lds	r25, 0x0767
    7a6c:	20 91 37 07 	lds	r18, 0x0737
    7a70:	30 91 38 07 	lds	r19, 0x0738
    7a74:	82 1b       	sub	r24, r18
    7a76:	93 0b       	sbc	r25, r19
    7a78:	90 93 d5 07 	sts	0x07D5, r25
    7a7c:	80 93 d4 07 	sts	0x07D4, r24

	// Check for motor flags if throttle is below arming minimum or disarmed
	// and set all motors to minimum throttle if so
	if 	(
    7a80:	c2 97       	sbiw	r24, 0x32	; 50
    7a82:	a4 f0       	brlt	.+40     	; 0x7aac <output_servo_ppm+0xca>
			(MonopolarThrottle < THROTTLEIDLE) || 
			((General_error & (1 << DISARMED)) != 0)
    7a84:	80 91 17 05 	lds	r24, 0x0517
	MonopolarThrottle = RxChannel[THROTTLE] - Config.RxChannelZeroOffset[THROTTLE];

	// Check for motor flags if throttle is below arming minimum or disarmed
	// and set all motors to minimum throttle if so
	if 	(
			(MonopolarThrottle < THROTTLEIDLE) || 
    7a88:	82 fd       	sbrc	r24, 2
    7a8a:	10 c0       	rjmp	.+32     	; 0x7aac <output_servo_ppm+0xca>
			}
		}
	}

	// Suppress outputs during throttle high error
	if((General_error & (1 << THROTTLE_HIGH)) == 0)
    7a8c:	80 91 17 05 	lds	r24, 0x0517
    7a90:	80 fd       	sbrc	r24, 0
    7a92:	1f c0       	rjmp	.+62     	; 0x7ad2 <output_servo_ppm+0xf0>
	{
		// Reset JitterFlag immediately before PWM generation
		JitterFlag = false;
    7a94:	10 92 91 07 	sts	0x0791, r1

		// We now care about interrupts
		JitterGate = true;
    7a98:	81 e0       	ldi	r24, 0x01	; 1
    7a9a:	80 93 90 07 	sts	0x0790, r24

		// Pass address of ServoOut array
		output_servo_ppm_asm(&ServoOut[0]);
    7a9e:	88 ee       	ldi	r24, 0xE8	; 232
    7aa0:	97 e0       	ldi	r25, 0x07	; 7
    7aa2:	0e 94 50 0d 	call	0x1aa0	; 0x1aa0 <output_servo_ppm_asm>

		// We no longer care about interrupts
		JitterGate = false;
    7aa6:	10 92 90 07 	sts	0x0790, r1
    7aaa:	13 c0       	rjmp	.+38     	; 0x7ad2 <output_servo_ppm+0xf0>
//************************************************************

uint16_t ServoOut[MAX_OUTPUTS];

void output_servo_ppm(void)
{
    7aac:	a8 ee       	ldi	r26, 0xE8	; 232
    7aae:	b7 e0       	ldi	r27, 0x07	; 7
    7ab0:	e8 e4       	ldi	r30, 0x48	; 72
    7ab2:	f6 e0       	ldi	r31, 0x06	; 6
		{
			// Check for motor marker
			if ((Config.Channel[i].P1_sensors & (1 << MotorMarker)) != 0)
			{
				// Set output to minimum pulse width (1000us)
				ServoOut[i] = MOTORMIN;
    7ab4:	88 ee       	ldi	r24, 0xE8	; 232
    7ab6:	93 e0       	ldi	r25, 0x03	; 3
	{
		// For each output
		for (i = 0; i < MAX_OUTPUTS; i++)
		{
			// Check for motor marker
			if ((Config.Channel[i].P1_sensors & (1 << MotorMarker)) != 0)
    7ab8:	20 81       	ld	r18, Z
    7aba:	26 ff       	sbrs	r18, 6
    7abc:	03 c0       	rjmp	.+6      	; 0x7ac4 <output_servo_ppm+0xe2>
			{
				// Set output to minimum pulse width (1000us)
				ServoOut[i] = MOTORMIN;
    7abe:	11 96       	adiw	r26, 0x01	; 1
    7ac0:	9c 93       	st	X, r25
    7ac2:	8e 93       	st	-X, r24
    7ac4:	7d 96       	adiw	r30, 0x1d	; 29
    7ac6:	12 96       	adiw	r26, 0x02	; 2
			(MonopolarThrottle < THROTTLEIDLE) || 
			((General_error & (1 << DISARMED)) != 0)
		)
	{
		// For each output
		for (i = 0; i < MAX_OUTPUTS; i++)
    7ac8:	27 e0       	ldi	r18, 0x07	; 7
    7aca:	e0 33       	cpi	r30, 0x30	; 48
    7acc:	f2 07       	cpc	r31, r18
    7ace:	a1 f7       	brne	.-24     	; 0x7ab8 <output_servo_ppm+0xd6>
    7ad0:	dd cf       	rjmp	.-70     	; 0x7a8c <output_servo_ppm+0xaa>

		// We no longer care about interrupts
		JitterGate = false;

	}
}
    7ad2:	cd b7       	in	r28, 0x3d	; 61
    7ad4:	de b7       	in	r29, 0x3e	; 62
    7ad6:	e8 e0       	ldi	r30, 0x08	; 8
    7ad8:	0c 94 a4 41 	jmp	0x8348	; 0x8348 <__epilogue_restores__+0x14>

00007adc <i2c_init>:
*************************************************************************/
void i2c_init(void)
{
  /* initialize TWI clock: 100 kHz clock, TWPS = 0 => prescaler = 1 */
  
  TWSR = 0;                         /* no prescaler */
    7adc:	10 92 b9 00 	sts	0x00B9, r1
  TWBR = ((F_CPU/SCL_CLOCK)-16)/2;  /* must be > 10 for stable operation */
    7ae0:	81 e1       	ldi	r24, 0x11	; 17
    7ae2:	80 93 b8 00 	sts	0x00B8, r24
    7ae6:	08 95       	ret

00007ae8 <i2c_start>:
{
	uint32_t  i2c_timer = 0;
    uint8_t   twst;

	// send START condition
	TWCR = (1<<TWINT) | (1<<TWSTA) | (1<<TWEN);
    7ae8:	94 ea       	ldi	r25, 0xA4	; 164
    7aea:	90 93 bc 00 	sts	0x00BC, r25

	// wait until transmission completed
	i2c_timer = I2C_TIMER_DELAY;
    7aee:	4f ef       	ldi	r20, 0xFF	; 255
    7af0:	50 e0       	ldi	r21, 0x00	; 0
    7af2:	60 e0       	ldi	r22, 0x00	; 0
    7af4:	70 e0       	ldi	r23, 0x00	; 0
	while(!(TWCR & (1<<TWINT)) && i2c_timer--);
    7af6:	90 91 bc 00 	lds	r25, 0x00BC
    7afa:	97 fd       	sbrc	r25, 7
    7afc:	06 c0       	rjmp	.+12     	; 0x7b0a <i2c_start+0x22>
    7afe:	41 50       	subi	r20, 0x01	; 1
    7b00:	51 09       	sbc	r21, r1
    7b02:	61 09       	sbc	r22, r1
    7b04:	71 09       	sbc	r23, r1
    7b06:	b8 f7       	brcc	.-18     	; 0x7af6 <i2c_start+0xe>
    7b08:	06 c0       	rjmp	.+12     	; 0x7b16 <i2c_start+0x2e>
	if(i2c_timer == 0)
    7b0a:	45 2b       	or	r20, r21
    7b0c:	46 2b       	or	r20, r22
    7b0e:	47 2b       	or	r20, r23
    7b10:	11 f4       	brne	.+4      	; 0x7b16 <i2c_start+0x2e>
		return 1;
    7b12:	81 e0       	ldi	r24, 0x01	; 1
    7b14:	08 95       	ret

	// check value of TWI Status Register. Mask prescaler bits.
	twst = TW_STATUS & 0xF8;
    7b16:	90 91 b9 00 	lds	r25, 0x00B9
    7b1a:	98 7f       	andi	r25, 0xF8	; 248
	if ( (twst != TW_START) && (twst != TW_REP_START)) return 1;
    7b1c:	98 30       	cpi	r25, 0x08	; 8
    7b1e:	11 f0       	breq	.+4      	; 0x7b24 <i2c_start+0x3c>
    7b20:	90 31       	cpi	r25, 0x10	; 16
    7b22:	b9 f7       	brne	.-18     	; 0x7b12 <i2c_start+0x2a>

	// send device address
	TWDR = address;
    7b24:	80 93 bb 00 	sts	0x00BB, r24
	TWCR = (1<<TWINT) | (1<<TWEN);
    7b28:	84 e8       	ldi	r24, 0x84	; 132
    7b2a:	80 93 bc 00 	sts	0x00BC, r24

	// wail until transmission completed and ACK/NACK has been received
	i2c_timer = I2C_TIMER_DELAY;
    7b2e:	8f ef       	ldi	r24, 0xFF	; 255
    7b30:	90 e0       	ldi	r25, 0x00	; 0
    7b32:	a0 e0       	ldi	r26, 0x00	; 0
    7b34:	b0 e0       	ldi	r27, 0x00	; 0
	while(!(TWCR & (1<<TWINT)) && i2c_timer--);
    7b36:	20 91 bc 00 	lds	r18, 0x00BC
    7b3a:	27 fd       	sbrc	r18, 7
    7b3c:	05 c0       	rjmp	.+10     	; 0x7b48 <i2c_start+0x60>
    7b3e:	01 97       	sbiw	r24, 0x01	; 1
    7b40:	a1 09       	sbc	r26, r1
    7b42:	b1 09       	sbc	r27, r1
    7b44:	c0 f7       	brcc	.-16     	; 0x7b36 <i2c_start+0x4e>
    7b46:	04 c0       	rjmp	.+8      	; 0x7b50 <i2c_start+0x68>
	if(i2c_timer == 0)
    7b48:	89 2b       	or	r24, r25
    7b4a:	8a 2b       	or	r24, r26
    7b4c:	8b 2b       	or	r24, r27
    7b4e:	09 f3       	breq	.-62     	; 0x7b12 <i2c_start+0x2a>
		return 1;

	// check value of TWI Status Register. Mask prescaler bits.
	twst = TW_STATUS & 0xF8;
    7b50:	80 91 b9 00 	lds	r24, 0x00B9
    7b54:	88 7f       	andi	r24, 0xF8	; 248
	if ( (twst != TW_MT_SLA_ACK) && (twst != TW_MR_SLA_ACK) ) return 1;
    7b56:	88 31       	cpi	r24, 0x18	; 24
    7b58:	11 f0       	breq	.+4      	; 0x7b5e <i2c_start+0x76>
    7b5a:	80 34       	cpi	r24, 0x40	; 64
    7b5c:	d1 f6       	brne	.-76     	; 0x7b12 <i2c_start+0x2a>

	return 0;
    7b5e:	80 e0       	ldi	r24, 0x00	; 0

}/* i2c_start */
    7b60:	08 95       	ret

00007b62 <i2c_start_wait>:
	uint8_t   twst;

    while ( 1 )
    {
	    // send START condition
	    TWCR = (1<<TWINT) | (1<<TWSTA) | (1<<TWEN);
    7b62:	44 ea       	ldi	r20, 0xA4	; 164
    	twst = TW_STATUS & 0xF8;
    	if ( (twst != TW_START) && (twst != TW_REP_START)) continue;
    
    	// send device address
    	TWDR = address;
    	TWCR = (1<<TWINT) | (1<<TWEN);
    7b64:	54 e8       	ldi	r21, 0x84	; 132
    	// check value of TWI Status Register. Mask prescaler bits.
    	twst = TW_STATUS & 0xF8;
    	if ( (twst == TW_MT_SLA_NACK )||(twst ==TW_MR_DATA_NACK) ) 
    	{    	    
    	    /* device busy, send stop condition to terminate write operation */
	        TWCR = (1<<TWINT) | (1<<TWEN) | (1<<TWSTO);
    7b66:	64 e9       	ldi	r22, 0x94	; 148
	uint8_t   twst;

    while ( 1 )
    {
	    // send START condition
	    TWCR = (1<<TWINT) | (1<<TWSTA) | (1<<TWEN);
    7b68:	40 93 bc 00 	sts	0x00BC, r20
    
    	// wait until transmission completed
	    i2c_timer = I2C_TIMER_DELAY;
    	while(!(TWCR & (1<<TWINT)) && i2c_timer--);
    7b6c:	20 e0       	ldi	r18, 0x00	; 0
    7b6e:	30 e0       	ldi	r19, 0x00	; 0
    7b70:	90 91 bc 00 	lds	r25, 0x00BC
    7b74:	97 fd       	sbrc	r25, 7
    7b76:	06 c0       	rjmp	.+12     	; 0x7b84 <i2c_start_wait+0x22>
    7b78:	2f 5f       	subi	r18, 0xFF	; 255
    7b7a:	3f 4f       	sbci	r19, 0xFF	; 255
    7b7c:	21 15       	cp	r18, r1
    7b7e:	91 e0       	ldi	r25, 0x01	; 1
    7b80:	39 07       	cpc	r19, r25
    7b82:	b1 f7       	brne	.-20     	; 0x7b70 <i2c_start_wait+0xe>

    	// check value of TWI Status Register. Mask prescaler bits.
    	twst = TW_STATUS & 0xF8;
    7b84:	90 91 b9 00 	lds	r25, 0x00B9
    7b88:	98 7f       	andi	r25, 0xF8	; 248
    	if ( (twst != TW_START) && (twst != TW_REP_START)) continue;
    7b8a:	98 30       	cpi	r25, 0x08	; 8
    7b8c:	11 f0       	breq	.+4      	; 0x7b92 <i2c_start_wait+0x30>
    7b8e:	90 31       	cpi	r25, 0x10	; 16
    7b90:	59 f7       	brne	.-42     	; 0x7b68 <i2c_start_wait+0x6>
    
    	// send device address
    	TWDR = address;
    7b92:	80 93 bb 00 	sts	0x00BB, r24
    	TWCR = (1<<TWINT) | (1<<TWEN);
    7b96:	50 93 bc 00 	sts	0x00BC, r21
    
    	// wail until transmission completed
    	i2c_timer = I2C_TIMER_DELAY;
    	while(!(TWCR & (1<<TWINT)) && i2c_timer--);
    7b9a:	20 e0       	ldi	r18, 0x00	; 0
    7b9c:	30 e0       	ldi	r19, 0x00	; 0
    7b9e:	90 91 bc 00 	lds	r25, 0x00BC
    7ba2:	97 fd       	sbrc	r25, 7
    7ba4:	06 c0       	rjmp	.+12     	; 0x7bb2 <i2c_start_wait+0x50>
    7ba6:	2f 5f       	subi	r18, 0xFF	; 255
    7ba8:	3f 4f       	sbci	r19, 0xFF	; 255
    7baa:	21 15       	cp	r18, r1
    7bac:	91 e0       	ldi	r25, 0x01	; 1
    7bae:	39 07       	cpc	r19, r25
    7bb0:	b1 f7       	brne	.-20     	; 0x7b9e <i2c_start_wait+0x3c>
    
    	// check value of TWI Status Register. Mask prescaler bits.
    	twst = TW_STATUS & 0xF8;
    7bb2:	90 91 b9 00 	lds	r25, 0x00B9
    7bb6:	98 7f       	andi	r25, 0xF8	; 248
    	if ( (twst == TW_MT_SLA_NACK )||(twst ==TW_MR_DATA_NACK) ) 
    7bb8:	90 32       	cpi	r25, 0x20	; 32
    7bba:	11 f0       	breq	.+4      	; 0x7bc0 <i2c_start_wait+0x5e>
    7bbc:	98 35       	cpi	r25, 0x58	; 88
    7bbe:	79 f4       	brne	.+30     	; 0x7bde <i2c_start_wait+0x7c>
    	{    	    
    	    /* device busy, send stop condition to terminate write operation */
	        TWCR = (1<<TWINT) | (1<<TWEN) | (1<<TWSTO);
    7bc0:	60 93 bc 00 	sts	0x00BC, r22
	        
	        // wait until stop condition is executed and bus released
	        i2c_timer = I2C_TIMER_DELAY;
	        while((TWCR & (1<<TWSTO)) && i2c_timer--);
    7bc4:	20 e0       	ldi	r18, 0x00	; 0
    7bc6:	30 e0       	ldi	r19, 0x00	; 0
    7bc8:	90 91 bc 00 	lds	r25, 0x00BC
    7bcc:	94 ff       	sbrs	r25, 4
    7bce:	cc cf       	rjmp	.-104    	; 0x7b68 <i2c_start_wait+0x6>
    7bd0:	2f 5f       	subi	r18, 0xFF	; 255
    7bd2:	3f 4f       	sbci	r19, 0xFF	; 255
    7bd4:	21 15       	cp	r18, r1
    7bd6:	91 e0       	ldi	r25, 0x01	; 1
    7bd8:	39 07       	cpc	r19, r25
    7bda:	b1 f7       	brne	.-20     	; 0x7bc8 <i2c_start_wait+0x66>
    7bdc:	c5 cf       	rjmp	.-118    	; 0x7b68 <i2c_start_wait+0x6>
    7bde:	08 95       	ret

00007be0 <i2c_rep_start>:
 Return:  0 device accessible
          1 failed to access device
*************************************************************************/
unsigned char i2c_rep_start(unsigned char address)
{
    return i2c_start( address );
    7be0:	0e 94 74 3d 	call	0x7ae8	; 0x7ae8 <i2c_start>

}/* i2c_rep_start */
    7be4:	08 95       	ret

00007be6 <i2c_stop>:
void i2c_stop(void)
{
	uint32_t  i2c_timer = 0;

    /* send stop condition */
	TWCR = (1<<TWINT) | (1<<TWEN) | (1<<TWSTO);
    7be6:	84 e9       	ldi	r24, 0x94	; 148
    7be8:	80 93 bc 00 	sts	0x00BC, r24
	
	// wait until stop condition is executed and bus released
	i2c_timer = I2C_TIMER_DELAY;
	while((TWCR & (1<<TWSTO)) && i2c_timer--);
    7bec:	80 e0       	ldi	r24, 0x00	; 0
    7bee:	90 e0       	ldi	r25, 0x00	; 0
    7bf0:	20 91 bc 00 	lds	r18, 0x00BC
    7bf4:	24 ff       	sbrs	r18, 4
    7bf6:	05 c0       	rjmp	.+10     	; 0x7c02 <i2c_stop+0x1c>
    7bf8:	01 96       	adiw	r24, 0x01	; 1
    7bfa:	81 15       	cp	r24, r1
    7bfc:	21 e0       	ldi	r18, 0x01	; 1
    7bfe:	92 07       	cpc	r25, r18
    7c00:	b9 f7       	brne	.-18     	; 0x7bf0 <i2c_stop+0xa>
    7c02:	08 95       	ret

00007c04 <i2c_write>:
{	
	uint32_t  i2c_timer = 0;
    uint8_t   twst;
    
	// send data to the previously addressed device
	TWDR = data;
    7c04:	80 93 bb 00 	sts	0x00BB, r24
	TWCR = (1<<TWINT) | (1<<TWEN);
    7c08:	84 e8       	ldi	r24, 0x84	; 132
    7c0a:	80 93 bc 00 	sts	0x00BC, r24

	// wait until transmission completed
	i2c_timer = I2C_TIMER_DELAY;
    7c0e:	8f ef       	ldi	r24, 0xFF	; 255
    7c10:	90 e0       	ldi	r25, 0x00	; 0
    7c12:	a0 e0       	ldi	r26, 0x00	; 0
    7c14:	b0 e0       	ldi	r27, 0x00	; 0
	while(!(TWCR & (1<<TWINT)) && i2c_timer--);
    7c16:	20 91 bc 00 	lds	r18, 0x00BC
    7c1a:	27 fd       	sbrc	r18, 7
    7c1c:	05 c0       	rjmp	.+10     	; 0x7c28 <i2c_write+0x24>
    7c1e:	01 97       	sbiw	r24, 0x01	; 1
    7c20:	a1 09       	sbc	r26, r1
    7c22:	b1 09       	sbc	r27, r1
    7c24:	c0 f7       	brcc	.-16     	; 0x7c16 <i2c_write+0x12>
    7c26:	04 c0       	rjmp	.+8      	; 0x7c30 <i2c_write+0x2c>
	if(i2c_timer == 0)
    7c28:	89 2b       	or	r24, r25
    7c2a:	8a 2b       	or	r24, r26
    7c2c:	8b 2b       	or	r24, r27
    7c2e:	41 f0       	breq	.+16     	; 0x7c40 <i2c_write+0x3c>
		return 1;

	// check value of TWI Status Register. Mask prescaler bits
	twst = TW_STATUS & 0xF8;
    7c30:	90 91 b9 00 	lds	r25, 0x00B9
    7c34:	98 7f       	andi	r25, 0xF8	; 248
	if( twst != TW_MT_DATA_ACK) return 1;
    7c36:	81 e0       	ldi	r24, 0x01	; 1
    7c38:	98 32       	cpi	r25, 0x28	; 40
    7c3a:	19 f4       	brne	.+6      	; 0x7c42 <i2c_write+0x3e>
    7c3c:	80 e0       	ldi	r24, 0x00	; 0
    7c3e:	08 95       	ret

	// wait until transmission completed
	i2c_timer = I2C_TIMER_DELAY;
	while(!(TWCR & (1<<TWINT)) && i2c_timer--);
	if(i2c_timer == 0)
		return 1;
    7c40:	81 e0       	ldi	r24, 0x01	; 1
	// check value of TWI Status Register. Mask prescaler bits
	twst = TW_STATUS & 0xF8;
	if( twst != TW_MT_DATA_ACK) return 1;
	return 0;

}/* i2c_write */
    7c42:	08 95       	ret

00007c44 <i2c_readAck>:
*************************************************************************/
unsigned char i2c_readAck(void)
{
	uint32_t  i2c_timer = 0;

	TWCR = (1<<TWINT) | (1<<TWEN) | (1<<TWEA);
    7c44:	84 ec       	ldi	r24, 0xC4	; 196
    7c46:	80 93 bc 00 	sts	0x00BC, r24
	i2c_timer = I2C_TIMER_DELAY;
    7c4a:	8f ef       	ldi	r24, 0xFF	; 255
    7c4c:	90 e0       	ldi	r25, 0x00	; 0
    7c4e:	a0 e0       	ldi	r26, 0x00	; 0
    7c50:	b0 e0       	ldi	r27, 0x00	; 0
	while(!(TWCR & (1<<TWINT)) && i2c_timer--);
    7c52:	20 91 bc 00 	lds	r18, 0x00BC
    7c56:	27 fd       	sbrc	r18, 7
    7c58:	05 c0       	rjmp	.+10     	; 0x7c64 <i2c_readAck+0x20>
    7c5a:	01 97       	sbiw	r24, 0x01	; 1
    7c5c:	a1 09       	sbc	r26, r1
    7c5e:	b1 09       	sbc	r27, r1
    7c60:	c0 f7       	brcc	.-16     	; 0x7c52 <i2c_readAck+0xe>
    7c62:	04 c0       	rjmp	.+8      	; 0x7c6c <i2c_readAck+0x28>
	if(i2c_timer == 0)
    7c64:	89 2b       	or	r24, r25
    7c66:	8a 2b       	or	r24, r26
    7c68:	8b 2b       	or	r24, r27
    7c6a:	19 f0       	breq	.+6      	; 0x7c72 <i2c_readAck+0x2e>
		return 0;

    return TWDR;
    7c6c:	80 91 bb 00 	lds	r24, 0x00BB
    7c70:	08 95       	ret

	TWCR = (1<<TWINT) | (1<<TWEN) | (1<<TWEA);
	i2c_timer = I2C_TIMER_DELAY;
	while(!(TWCR & (1<<TWINT)) && i2c_timer--);
	if(i2c_timer == 0)
		return 0;
    7c72:	80 e0       	ldi	r24, 0x00	; 0

    return TWDR;

}/* i2c_readAck */
    7c74:	08 95       	ret

00007c76 <i2c_readNak>:
*************************************************************************/
unsigned char i2c_readNak(void)
{
	uint32_t  i2c_timer = 0;

	TWCR = (1<<TWINT) | (1<<TWEN);
    7c76:	84 e8       	ldi	r24, 0x84	; 132
    7c78:	80 93 bc 00 	sts	0x00BC, r24
	i2c_timer = I2C_TIMER_DELAY;
    7c7c:	8f ef       	ldi	r24, 0xFF	; 255
    7c7e:	90 e0       	ldi	r25, 0x00	; 0
    7c80:	a0 e0       	ldi	r26, 0x00	; 0
    7c82:	b0 e0       	ldi	r27, 0x00	; 0
	while(!(TWCR & (1<<TWINT)) && i2c_timer--);
    7c84:	20 91 bc 00 	lds	r18, 0x00BC
    7c88:	27 fd       	sbrc	r18, 7
    7c8a:	05 c0       	rjmp	.+10     	; 0x7c96 <i2c_readNak+0x20>
    7c8c:	01 97       	sbiw	r24, 0x01	; 1
    7c8e:	a1 09       	sbc	r26, r1
    7c90:	b1 09       	sbc	r27, r1
    7c92:	c0 f7       	brcc	.-16     	; 0x7c84 <i2c_readNak+0xe>
    7c94:	04 c0       	rjmp	.+8      	; 0x7c9e <i2c_readNak+0x28>
	if(i2c_timer == 0)
    7c96:	89 2b       	or	r24, r25
    7c98:	8a 2b       	or	r24, r26
    7c9a:	8b 2b       	or	r24, r27
    7c9c:	19 f0       	breq	.+6      	; 0x7ca4 <i2c_readNak+0x2e>
		return 0;
	
    return TWDR;
    7c9e:	80 91 bb 00 	lds	r24, 0x00BB
    7ca2:	08 95       	ret

	TWCR = (1<<TWINT) | (1<<TWEN);
	i2c_timer = I2C_TIMER_DELAY;
	while(!(TWCR & (1<<TWINT)) && i2c_timer--);
	if(i2c_timer == 0)
		return 0;
    7ca4:	80 e0       	ldi	r24, 0x00	; 0
	
    return TWDR;

}/* i2c_readNak */
    7ca6:	08 95       	ret

00007ca8 <init_uart>:
#define BAUD_PRESCALE_SPEKTRUM ((F_CPU + USART_BAUDRATE_SPEKTRUM * 8L) / (USART_BAUDRATE_SPEKTRUM * 16L) - 1) // Default RX rate for Spektrum

// Initialise UART with adjusted bitrate
void init_uart(void)
{
	cli();								// Atmel wants global interrupts disabled when changing UART setup on the fly
    7ca8:	f8 94       	cli
	
	UCSR0B &= ~(1 << RXCIE0);			// Disable serial interrupt
    7caa:	80 91 c1 00 	lds	r24, 0x00C1
    7cae:	8f 77       	andi	r24, 0x7F	; 127
    7cb0:	80 93 c1 00 	sts	0x00C1, r24

	while (UCSR0A & (1 << RXC0))		// Make sure there is nothing in the RX0 reg
    7cb4:	80 91 c0 00 	lds	r24, 0x00C0
    7cb8:	87 ff       	sbrs	r24, 7
    7cba:	05 c0       	rjmp	.+10     	; 0x7cc6 <init_uart+0x1e>
	{
		UCSR0C = UDR0;					// So as not to annoy Studio 6, use UCSR0C as a temp reg until UDR0 empty. Sorry, UCSR0C...
    7cbc:	80 91 c6 00 	lds	r24, 0x00C6
    7cc0:	80 93 c2 00 	sts	0x00C2, r24
    7cc4:	f7 cf       	rjmp	.-18     	; 0x7cb4 <init_uart+0xc>
	}
	
	// Reset UART regs to a known state
	UCSR0A = 0; // U2X = 0, no master mode, flags cleared 
    7cc6:	10 92 c0 00 	sts	0x00C0, r1
	UCSR0B = 0; // Clear flags, disable tx/rx, 8 bits
    7cca:	10 92 c1 00 	sts	0x00C1, r1
	UCSR0C = 6; // 8N1
    7cce:	86 e0       	ldi	r24, 0x06	; 6
    7cd0:	80 93 c2 00 	sts	0x00C2, r24

	switch (Config.RxMode)
    7cd4:	80 91 ce 05 	lds	r24, 0x05CE
    7cd8:	82 30       	cpi	r24, 0x02	; 2
    7cda:	09 f1       	breq	.+66     	; 0x7d1e <init_uart+0x76>
    7cdc:	34 f4       	brge	.+12     	; 0x7cea <init_uart+0x42>
    7cde:	87 fd       	sbrc	r24, 7
    7ce0:	41 c0       	rjmp	.+130    	; 0x7d64 <init_uart+0xbc>
			UCSR0B |=  (1 << RXCIE0);					// Enable serial interrupt
			break;

		case CPPM_MODE:
		case PWM:
			UCSR0B &= 	~(1 << RXEN0);					// Disable receiver in PWM and CPPM modes
    7ce2:	80 91 c1 00 	lds	r24, 0x00C1
    7ce6:	8f 7e       	andi	r24, 0xEF	; 239
    7ce8:	3b c0       	rjmp	.+118    	; 0x7d60 <init_uart+0xb8>
	// Reset UART regs to a known state
	UCSR0A = 0; // U2X = 0, no master mode, flags cleared 
	UCSR0B = 0; // Clear flags, disable tx/rx, 8 bits
	UCSR0C = 6; // 8N1

	switch (Config.RxMode)
    7cea:	83 30       	cpi	r24, 0x03	; 3
    7cec:	d9 f5       	brne	.+118    	; 0x7d64 <init_uart+0xbc>
			UCSR0B |=  (1 << RXCIE0);					// Enable serial interrupt
			break;

		// Spektrum 8N1 (8 data bits / No parity / 1 stop bit / 115.2Kbps)
		case SPEKTRUM: 	
			UCSR0A &=  ~(1 << U2X0);					// Clear the 2x flag
    7cee:	80 91 c0 00 	lds	r24, 0x00C0
    7cf2:	8d 7f       	andi	r24, 0xFD	; 253
    7cf4:	80 93 c0 00 	sts	0x00C0, r24
			UBRR0H  =  (BAUD_PRESCALE_SPEKTRUM >> 8); 	// Actual = 113636, Error = -1.36%
    7cf8:	10 92 c5 00 	sts	0x00C5, r1
			UBRR0L  =   BAUD_PRESCALE_SPEKTRUM & 0xff;	// 0x0A (10.35)	
    7cfc:	8a e0       	ldi	r24, 0x0A	; 10
    7cfe:	80 93 c4 00 	sts	0x00C4, r24
			UCSR0B |= 	(1 << RXEN0);					// Enable receiver
    7d02:	80 91 c1 00 	lds	r24, 0x00C1
    7d06:	80 61       	ori	r24, 0x10	; 16
    7d08:	80 93 c1 00 	sts	0x00C1, r24
			UCSR0C &=  ~(1 << USBS0); 					// 1 stop bit
    7d0c:	80 91 c2 00 	lds	r24, 0x00C2
    7d10:	87 7f       	andi	r24, 0xF7	; 247
    7d12:	80 93 c2 00 	sts	0x00C2, r24
			UCSR0C &=  ~(1 << UPM00) | 					// No parity 
    7d16:	80 91 c2 00 	lds	r24, 0x00C2
    7d1a:	8f 7e       	andi	r24, 0xEF	; 239
    7d1c:	1c c0       	rjmp	.+56     	; 0x7d56 <init_uart+0xae>

	switch (Config.RxMode)
	{
		// Futaba S-Bus 8E2 (8 data bits / Even parity / 2 stop bits / 100Kbps)
		case SBUS: 		
			UCSR0A |=  (1 << U2X0);						// Need to set the 2x flag
    7d1e:	80 91 c0 00 	lds	r24, 0x00C0
    7d22:	82 60       	ori	r24, 0x02	; 2
    7d24:	80 93 c0 00 	sts	0x00C0, r24
			UBRR0H  = (BAUD_PRESCALE_SBUS >> 8);  		// Actual = 100000 , Error = 0%	
    7d28:	10 92 c5 00 	sts	0x00C5, r1
			UBRR0L  =  BAUD_PRESCALE_SBUS & 0xff;		// 0x18 (24)
    7d2c:	88 e1       	ldi	r24, 0x18	; 24
    7d2e:	80 93 c4 00 	sts	0x00C4, r24
			UCSR0B |=  (1 << RXEN0);					// Enable receiver
    7d32:	80 91 c1 00 	lds	r24, 0x00C1
    7d36:	80 61       	ori	r24, 0x10	; 16
    7d38:	80 93 c1 00 	sts	0x00C1, r24
			UCSR0C |=  (1 << USBS0); 					// 2 stop bits
    7d3c:	80 91 c2 00 	lds	r24, 0x00C2
    7d40:	88 60       	ori	r24, 0x08	; 8
    7d42:	80 93 c2 00 	sts	0x00C2, r24
			UCSR0C &= ~(1 << UPM00); 					// Even parity 
    7d46:	80 91 c2 00 	lds	r24, 0x00C2
    7d4a:	8f 7e       	andi	r24, 0xEF	; 239
    7d4c:	80 93 c2 00 	sts	0x00C2, r24
			UCSR0C |=  (1 << UPM01); 
    7d50:	80 91 c2 00 	lds	r24, 0x00C2
    7d54:	80 62       	ori	r24, 0x20	; 32
			UCSR0A &=  ~(1 << U2X0);					// Clear the 2x flag
			UBRR0H  =  (BAUD_PRESCALE_SPEKTRUM >> 8); 	// Actual = 113636, Error = -1.36%
			UBRR0L  =   BAUD_PRESCALE_SPEKTRUM & 0xff;	// 0x0A (10.35)	
			UCSR0B |= 	(1 << RXEN0);					// Enable receiver
			UCSR0C &=  ~(1 << USBS0); 					// 1 stop bit
			UCSR0C &=  ~(1 << UPM00) | 					// No parity 
    7d56:	80 93 c2 00 	sts	0x00C2, r24
						(1 << UPM01); 
			UCSR0B |=  (1 << RXCIE0);					// Enable serial interrupt
    7d5a:	80 91 c1 00 	lds	r24, 0x00C1
    7d5e:	80 68       	ori	r24, 0x80	; 128
			break;

		case CPPM_MODE:
		case PWM:
			UCSR0B &= 	~(1 << RXEN0);					// Disable receiver in PWM and CPPM modes
    7d60:	80 93 c1 00 	sts	0x00C1, r24
		default:
			break;
	}

	// Re-enable interrupts
	sei();
    7d64:	78 94       	sei
    7d66:	08 95       	ret

00007d68 <GetVbat>:

uint16_t GetVbat(void)				// Get battery voltage (VBAT on ADC3)
{
	uint16_t	vBat;				// Battery voltage
		
	read_adc(AIN_VBAT0);				// Multiplication factor = (Display volts / 1024) / (Vbat / 11 / Vref)
    7d68:	83 e0       	ldi	r24, 0x03	; 3
    7d6a:	0e 94 a6 10 	call	0x214c	; 0x214c <read_adc>
	// For Vref = 2.45V, Multiplication factor = 2.632
	// For Vref = 2.305V, Multiplication factor = approx 2.5
	// An input voltage of 10V will results in a value of 999.
	// This means that the number represents units of 10mV.

	vBat = ADCW;
    7d6e:	20 91 78 00 	lds	r18, 0x0078
    7d72:	30 91 79 00 	lds	r19, 0x0079

#ifdef KK21
	// Multiply by 2.500
	// 2 + 1/2
	vBat = (vBat << 1) + (vBat >> 1); // Multiply by 2.500
    7d76:	c9 01       	movw	r24, r18
    7d78:	88 0f       	add	r24, r24
    7d7a:	99 1f       	adc	r25, r25
    7d7c:	36 95       	lsr	r19
    7d7e:	27 95       	ror	r18
	// 2 + 1/2 + 1/8 + 1/128 :)
	vBat = (vBat << 1) + (vBat >> 1) + (vBat >> 3) + (vBat >> 7); // Multiply by 2.633
#endif

	return vBat;
    7d80:	82 0f       	add	r24, r18
    7d82:	93 1f       	adc	r25, r19
    7d84:	08 95       	ret

00007d86 <__subsf3>:
    7d86:	50 58       	subi	r21, 0x80	; 128

00007d88 <__addsf3>:
    7d88:	bb 27       	eor	r27, r27
    7d8a:	aa 27       	eor	r26, r26
    7d8c:	0e d0       	rcall	.+28     	; 0x7daa <__addsf3x>
    7d8e:	75 c1       	rjmp	.+746    	; 0x807a <__fp_round>
    7d90:	66 d1       	rcall	.+716    	; 0x805e <__fp_pscA>
    7d92:	30 f0       	brcs	.+12     	; 0x7da0 <__addsf3+0x18>
    7d94:	6b d1       	rcall	.+726    	; 0x806c <__fp_pscB>
    7d96:	20 f0       	brcs	.+8      	; 0x7da0 <__addsf3+0x18>
    7d98:	31 f4       	brne	.+12     	; 0x7da6 <__addsf3+0x1e>
    7d9a:	9f 3f       	cpi	r25, 0xFF	; 255
    7d9c:	11 f4       	brne	.+4      	; 0x7da2 <__addsf3+0x1a>
    7d9e:	1e f4       	brtc	.+6      	; 0x7da6 <__addsf3+0x1e>
    7da0:	5b c1       	rjmp	.+694    	; 0x8058 <__fp_nan>
    7da2:	0e f4       	brtc	.+2      	; 0x7da6 <__addsf3+0x1e>
    7da4:	e0 95       	com	r30
    7da6:	e7 fb       	bst	r30, 7
    7da8:	51 c1       	rjmp	.+674    	; 0x804c <__fp_inf>

00007daa <__addsf3x>:
    7daa:	e9 2f       	mov	r30, r25
    7dac:	77 d1       	rcall	.+750    	; 0x809c <__fp_split3>
    7dae:	80 f3       	brcs	.-32     	; 0x7d90 <__addsf3+0x8>
    7db0:	ba 17       	cp	r27, r26
    7db2:	62 07       	cpc	r22, r18
    7db4:	73 07       	cpc	r23, r19
    7db6:	84 07       	cpc	r24, r20
    7db8:	95 07       	cpc	r25, r21
    7dba:	18 f0       	brcs	.+6      	; 0x7dc2 <__addsf3x+0x18>
    7dbc:	71 f4       	brne	.+28     	; 0x7dda <__addsf3x+0x30>
    7dbe:	9e f5       	brtc	.+102    	; 0x7e26 <__addsf3x+0x7c>
    7dc0:	8f c1       	rjmp	.+798    	; 0x80e0 <__fp_zero>
    7dc2:	0e f4       	brtc	.+2      	; 0x7dc6 <__addsf3x+0x1c>
    7dc4:	e0 95       	com	r30
    7dc6:	0b 2e       	mov	r0, r27
    7dc8:	ba 2f       	mov	r27, r26
    7dca:	a0 2d       	mov	r26, r0
    7dcc:	0b 01       	movw	r0, r22
    7dce:	b9 01       	movw	r22, r18
    7dd0:	90 01       	movw	r18, r0
    7dd2:	0c 01       	movw	r0, r24
    7dd4:	ca 01       	movw	r24, r20
    7dd6:	a0 01       	movw	r20, r0
    7dd8:	11 24       	eor	r1, r1
    7dda:	ff 27       	eor	r31, r31
    7ddc:	59 1b       	sub	r21, r25
    7dde:	99 f0       	breq	.+38     	; 0x7e06 <__addsf3x+0x5c>
    7de0:	59 3f       	cpi	r21, 0xF9	; 249
    7de2:	50 f4       	brcc	.+20     	; 0x7df8 <__addsf3x+0x4e>
    7de4:	50 3e       	cpi	r21, 0xE0	; 224
    7de6:	68 f1       	brcs	.+90     	; 0x7e42 <__addsf3x+0x98>
    7de8:	1a 16       	cp	r1, r26
    7dea:	f0 40       	sbci	r31, 0x00	; 0
    7dec:	a2 2f       	mov	r26, r18
    7dee:	23 2f       	mov	r18, r19
    7df0:	34 2f       	mov	r19, r20
    7df2:	44 27       	eor	r20, r20
    7df4:	58 5f       	subi	r21, 0xF8	; 248
    7df6:	f3 cf       	rjmp	.-26     	; 0x7dde <__addsf3x+0x34>
    7df8:	46 95       	lsr	r20
    7dfa:	37 95       	ror	r19
    7dfc:	27 95       	ror	r18
    7dfe:	a7 95       	ror	r26
    7e00:	f0 40       	sbci	r31, 0x00	; 0
    7e02:	53 95       	inc	r21
    7e04:	c9 f7       	brne	.-14     	; 0x7df8 <__addsf3x+0x4e>
    7e06:	7e f4       	brtc	.+30     	; 0x7e26 <__addsf3x+0x7c>
    7e08:	1f 16       	cp	r1, r31
    7e0a:	ba 0b       	sbc	r27, r26
    7e0c:	62 0b       	sbc	r22, r18
    7e0e:	73 0b       	sbc	r23, r19
    7e10:	84 0b       	sbc	r24, r20
    7e12:	ba f0       	brmi	.+46     	; 0x7e42 <__addsf3x+0x98>
    7e14:	91 50       	subi	r25, 0x01	; 1
    7e16:	a1 f0       	breq	.+40     	; 0x7e40 <__addsf3x+0x96>
    7e18:	ff 0f       	add	r31, r31
    7e1a:	bb 1f       	adc	r27, r27
    7e1c:	66 1f       	adc	r22, r22
    7e1e:	77 1f       	adc	r23, r23
    7e20:	88 1f       	adc	r24, r24
    7e22:	c2 f7       	brpl	.-16     	; 0x7e14 <__addsf3x+0x6a>
    7e24:	0e c0       	rjmp	.+28     	; 0x7e42 <__addsf3x+0x98>
    7e26:	ba 0f       	add	r27, r26
    7e28:	62 1f       	adc	r22, r18
    7e2a:	73 1f       	adc	r23, r19
    7e2c:	84 1f       	adc	r24, r20
    7e2e:	48 f4       	brcc	.+18     	; 0x7e42 <__addsf3x+0x98>
    7e30:	87 95       	ror	r24
    7e32:	77 95       	ror	r23
    7e34:	67 95       	ror	r22
    7e36:	b7 95       	ror	r27
    7e38:	f7 95       	ror	r31
    7e3a:	9e 3f       	cpi	r25, 0xFE	; 254
    7e3c:	08 f0       	brcs	.+2      	; 0x7e40 <__addsf3x+0x96>
    7e3e:	b3 cf       	rjmp	.-154    	; 0x7da6 <__addsf3+0x1e>
    7e40:	93 95       	inc	r25
    7e42:	88 0f       	add	r24, r24
    7e44:	08 f0       	brcs	.+2      	; 0x7e48 <__addsf3x+0x9e>
    7e46:	99 27       	eor	r25, r25
    7e48:	ee 0f       	add	r30, r30
    7e4a:	97 95       	ror	r25
    7e4c:	87 95       	ror	r24
    7e4e:	08 95       	ret

00007e50 <__cmpsf2>:
    7e50:	d9 d0       	rcall	.+434    	; 0x8004 <__fp_cmp>
    7e52:	08 f4       	brcc	.+2      	; 0x7e56 <__cmpsf2+0x6>
    7e54:	81 e0       	ldi	r24, 0x01	; 1
    7e56:	08 95       	ret

00007e58 <__divsf3>:
    7e58:	0c d0       	rcall	.+24     	; 0x7e72 <__divsf3x>
    7e5a:	0f c1       	rjmp	.+542    	; 0x807a <__fp_round>
    7e5c:	07 d1       	rcall	.+526    	; 0x806c <__fp_pscB>
    7e5e:	40 f0       	brcs	.+16     	; 0x7e70 <__divsf3+0x18>
    7e60:	fe d0       	rcall	.+508    	; 0x805e <__fp_pscA>
    7e62:	30 f0       	brcs	.+12     	; 0x7e70 <__divsf3+0x18>
    7e64:	21 f4       	brne	.+8      	; 0x7e6e <__divsf3+0x16>
    7e66:	5f 3f       	cpi	r21, 0xFF	; 255
    7e68:	19 f0       	breq	.+6      	; 0x7e70 <__divsf3+0x18>
    7e6a:	f0 c0       	rjmp	.+480    	; 0x804c <__fp_inf>
    7e6c:	51 11       	cpse	r21, r1
    7e6e:	39 c1       	rjmp	.+626    	; 0x80e2 <__fp_szero>
    7e70:	f3 c0       	rjmp	.+486    	; 0x8058 <__fp_nan>

00007e72 <__divsf3x>:
    7e72:	14 d1       	rcall	.+552    	; 0x809c <__fp_split3>
    7e74:	98 f3       	brcs	.-26     	; 0x7e5c <__divsf3+0x4>

00007e76 <__divsf3_pse>:
    7e76:	99 23       	and	r25, r25
    7e78:	c9 f3       	breq	.-14     	; 0x7e6c <__divsf3+0x14>
    7e7a:	55 23       	and	r21, r21
    7e7c:	b1 f3       	breq	.-20     	; 0x7e6a <__divsf3+0x12>
    7e7e:	95 1b       	sub	r25, r21
    7e80:	55 0b       	sbc	r21, r21
    7e82:	bb 27       	eor	r27, r27
    7e84:	aa 27       	eor	r26, r26
    7e86:	62 17       	cp	r22, r18
    7e88:	73 07       	cpc	r23, r19
    7e8a:	84 07       	cpc	r24, r20
    7e8c:	38 f0       	brcs	.+14     	; 0x7e9c <__divsf3_pse+0x26>
    7e8e:	9f 5f       	subi	r25, 0xFF	; 255
    7e90:	5f 4f       	sbci	r21, 0xFF	; 255
    7e92:	22 0f       	add	r18, r18
    7e94:	33 1f       	adc	r19, r19
    7e96:	44 1f       	adc	r20, r20
    7e98:	aa 1f       	adc	r26, r26
    7e9a:	a9 f3       	breq	.-22     	; 0x7e86 <__divsf3_pse+0x10>
    7e9c:	33 d0       	rcall	.+102    	; 0x7f04 <__divsf3_pse+0x8e>
    7e9e:	0e 2e       	mov	r0, r30
    7ea0:	3a f0       	brmi	.+14     	; 0x7eb0 <__divsf3_pse+0x3a>
    7ea2:	e0 e8       	ldi	r30, 0x80	; 128
    7ea4:	30 d0       	rcall	.+96     	; 0x7f06 <__divsf3_pse+0x90>
    7ea6:	91 50       	subi	r25, 0x01	; 1
    7ea8:	50 40       	sbci	r21, 0x00	; 0
    7eaa:	e6 95       	lsr	r30
    7eac:	00 1c       	adc	r0, r0
    7eae:	ca f7       	brpl	.-14     	; 0x7ea2 <__divsf3_pse+0x2c>
    7eb0:	29 d0       	rcall	.+82     	; 0x7f04 <__divsf3_pse+0x8e>
    7eb2:	fe 2f       	mov	r31, r30
    7eb4:	27 d0       	rcall	.+78     	; 0x7f04 <__divsf3_pse+0x8e>
    7eb6:	66 0f       	add	r22, r22
    7eb8:	77 1f       	adc	r23, r23
    7eba:	88 1f       	adc	r24, r24
    7ebc:	bb 1f       	adc	r27, r27
    7ebe:	26 17       	cp	r18, r22
    7ec0:	37 07       	cpc	r19, r23
    7ec2:	48 07       	cpc	r20, r24
    7ec4:	ab 07       	cpc	r26, r27
    7ec6:	b0 e8       	ldi	r27, 0x80	; 128
    7ec8:	09 f0       	breq	.+2      	; 0x7ecc <__divsf3_pse+0x56>
    7eca:	bb 0b       	sbc	r27, r27
    7ecc:	80 2d       	mov	r24, r0
    7ece:	bf 01       	movw	r22, r30
    7ed0:	ff 27       	eor	r31, r31
    7ed2:	93 58       	subi	r25, 0x83	; 131
    7ed4:	5f 4f       	sbci	r21, 0xFF	; 255
    7ed6:	2a f0       	brmi	.+10     	; 0x7ee2 <__divsf3_pse+0x6c>
    7ed8:	9e 3f       	cpi	r25, 0xFE	; 254
    7eda:	51 05       	cpc	r21, r1
    7edc:	68 f0       	brcs	.+26     	; 0x7ef8 <__divsf3_pse+0x82>
    7ede:	b6 c0       	rjmp	.+364    	; 0x804c <__fp_inf>
    7ee0:	00 c1       	rjmp	.+512    	; 0x80e2 <__fp_szero>
    7ee2:	5f 3f       	cpi	r21, 0xFF	; 255
    7ee4:	ec f3       	brlt	.-6      	; 0x7ee0 <__divsf3_pse+0x6a>
    7ee6:	98 3e       	cpi	r25, 0xE8	; 232
    7ee8:	dc f3       	brlt	.-10     	; 0x7ee0 <__divsf3_pse+0x6a>
    7eea:	86 95       	lsr	r24
    7eec:	77 95       	ror	r23
    7eee:	67 95       	ror	r22
    7ef0:	b7 95       	ror	r27
    7ef2:	f7 95       	ror	r31
    7ef4:	9f 5f       	subi	r25, 0xFF	; 255
    7ef6:	c9 f7       	brne	.-14     	; 0x7eea <__divsf3_pse+0x74>
    7ef8:	88 0f       	add	r24, r24
    7efa:	91 1d       	adc	r25, r1
    7efc:	96 95       	lsr	r25
    7efe:	87 95       	ror	r24
    7f00:	97 f9       	bld	r25, 7
    7f02:	08 95       	ret
    7f04:	e1 e0       	ldi	r30, 0x01	; 1
    7f06:	66 0f       	add	r22, r22
    7f08:	77 1f       	adc	r23, r23
    7f0a:	88 1f       	adc	r24, r24
    7f0c:	bb 1f       	adc	r27, r27
    7f0e:	62 17       	cp	r22, r18
    7f10:	73 07       	cpc	r23, r19
    7f12:	84 07       	cpc	r24, r20
    7f14:	ba 07       	cpc	r27, r26
    7f16:	20 f0       	brcs	.+8      	; 0x7f20 <__divsf3_pse+0xaa>
    7f18:	62 1b       	sub	r22, r18
    7f1a:	73 0b       	sbc	r23, r19
    7f1c:	84 0b       	sbc	r24, r20
    7f1e:	ba 0b       	sbc	r27, r26
    7f20:	ee 1f       	adc	r30, r30
    7f22:	88 f7       	brcc	.-30     	; 0x7f06 <__divsf3_pse+0x90>
    7f24:	e0 95       	com	r30
    7f26:	08 95       	ret

00007f28 <__fixsfsi>:
    7f28:	04 d0       	rcall	.+8      	; 0x7f32 <__fixunssfsi>
    7f2a:	68 94       	set
    7f2c:	b1 11       	cpse	r27, r1
    7f2e:	d9 c0       	rjmp	.+434    	; 0x80e2 <__fp_szero>
    7f30:	08 95       	ret

00007f32 <__fixunssfsi>:
    7f32:	bc d0       	rcall	.+376    	; 0x80ac <__fp_splitA>
    7f34:	88 f0       	brcs	.+34     	; 0x7f58 <__fixunssfsi+0x26>
    7f36:	9f 57       	subi	r25, 0x7F	; 127
    7f38:	90 f0       	brcs	.+36     	; 0x7f5e <__fixunssfsi+0x2c>
    7f3a:	b9 2f       	mov	r27, r25
    7f3c:	99 27       	eor	r25, r25
    7f3e:	b7 51       	subi	r27, 0x17	; 23
    7f40:	a0 f0       	brcs	.+40     	; 0x7f6a <__fixunssfsi+0x38>
    7f42:	d1 f0       	breq	.+52     	; 0x7f78 <__fixunssfsi+0x46>
    7f44:	66 0f       	add	r22, r22
    7f46:	77 1f       	adc	r23, r23
    7f48:	88 1f       	adc	r24, r24
    7f4a:	99 1f       	adc	r25, r25
    7f4c:	1a f0       	brmi	.+6      	; 0x7f54 <__fixunssfsi+0x22>
    7f4e:	ba 95       	dec	r27
    7f50:	c9 f7       	brne	.-14     	; 0x7f44 <__fixunssfsi+0x12>
    7f52:	12 c0       	rjmp	.+36     	; 0x7f78 <__fixunssfsi+0x46>
    7f54:	b1 30       	cpi	r27, 0x01	; 1
    7f56:	81 f0       	breq	.+32     	; 0x7f78 <__fixunssfsi+0x46>
    7f58:	c3 d0       	rcall	.+390    	; 0x80e0 <__fp_zero>
    7f5a:	b1 e0       	ldi	r27, 0x01	; 1
    7f5c:	08 95       	ret
    7f5e:	c0 c0       	rjmp	.+384    	; 0x80e0 <__fp_zero>
    7f60:	67 2f       	mov	r22, r23
    7f62:	78 2f       	mov	r23, r24
    7f64:	88 27       	eor	r24, r24
    7f66:	b8 5f       	subi	r27, 0xF8	; 248
    7f68:	39 f0       	breq	.+14     	; 0x7f78 <__fixunssfsi+0x46>
    7f6a:	b9 3f       	cpi	r27, 0xF9	; 249
    7f6c:	cc f3       	brlt	.-14     	; 0x7f60 <__fixunssfsi+0x2e>
    7f6e:	86 95       	lsr	r24
    7f70:	77 95       	ror	r23
    7f72:	67 95       	ror	r22
    7f74:	b3 95       	inc	r27
    7f76:	d9 f7       	brne	.-10     	; 0x7f6e <__fixunssfsi+0x3c>
    7f78:	3e f4       	brtc	.+14     	; 0x7f88 <__fixunssfsi+0x56>
    7f7a:	90 95       	com	r25
    7f7c:	80 95       	com	r24
    7f7e:	70 95       	com	r23
    7f80:	61 95       	neg	r22
    7f82:	7f 4f       	sbci	r23, 0xFF	; 255
    7f84:	8f 4f       	sbci	r24, 0xFF	; 255
    7f86:	9f 4f       	sbci	r25, 0xFF	; 255
    7f88:	08 95       	ret

00007f8a <__floatunsisf>:
    7f8a:	e8 94       	clt
    7f8c:	09 c0       	rjmp	.+18     	; 0x7fa0 <__floatsisf+0x12>

00007f8e <__floatsisf>:
    7f8e:	97 fb       	bst	r25, 7
    7f90:	3e f4       	brtc	.+14     	; 0x7fa0 <__floatsisf+0x12>
    7f92:	90 95       	com	r25
    7f94:	80 95       	com	r24
    7f96:	70 95       	com	r23
    7f98:	61 95       	neg	r22
    7f9a:	7f 4f       	sbci	r23, 0xFF	; 255
    7f9c:	8f 4f       	sbci	r24, 0xFF	; 255
    7f9e:	9f 4f       	sbci	r25, 0xFF	; 255
    7fa0:	99 23       	and	r25, r25
    7fa2:	a9 f0       	breq	.+42     	; 0x7fce <__floatsisf+0x40>
    7fa4:	f9 2f       	mov	r31, r25
    7fa6:	96 e9       	ldi	r25, 0x96	; 150
    7fa8:	bb 27       	eor	r27, r27
    7faa:	93 95       	inc	r25
    7fac:	f6 95       	lsr	r31
    7fae:	87 95       	ror	r24
    7fb0:	77 95       	ror	r23
    7fb2:	67 95       	ror	r22
    7fb4:	b7 95       	ror	r27
    7fb6:	f1 11       	cpse	r31, r1
    7fb8:	f8 cf       	rjmp	.-16     	; 0x7faa <__floatsisf+0x1c>
    7fba:	fa f4       	brpl	.+62     	; 0x7ffa <__floatsisf+0x6c>
    7fbc:	bb 0f       	add	r27, r27
    7fbe:	11 f4       	brne	.+4      	; 0x7fc4 <__floatsisf+0x36>
    7fc0:	60 ff       	sbrs	r22, 0
    7fc2:	1b c0       	rjmp	.+54     	; 0x7ffa <__floatsisf+0x6c>
    7fc4:	6f 5f       	subi	r22, 0xFF	; 255
    7fc6:	7f 4f       	sbci	r23, 0xFF	; 255
    7fc8:	8f 4f       	sbci	r24, 0xFF	; 255
    7fca:	9f 4f       	sbci	r25, 0xFF	; 255
    7fcc:	16 c0       	rjmp	.+44     	; 0x7ffa <__floatsisf+0x6c>
    7fce:	88 23       	and	r24, r24
    7fd0:	11 f0       	breq	.+4      	; 0x7fd6 <__floatsisf+0x48>
    7fd2:	96 e9       	ldi	r25, 0x96	; 150
    7fd4:	11 c0       	rjmp	.+34     	; 0x7ff8 <__floatsisf+0x6a>
    7fd6:	77 23       	and	r23, r23
    7fd8:	21 f0       	breq	.+8      	; 0x7fe2 <__floatsisf+0x54>
    7fda:	9e e8       	ldi	r25, 0x8E	; 142
    7fdc:	87 2f       	mov	r24, r23
    7fde:	76 2f       	mov	r23, r22
    7fe0:	05 c0       	rjmp	.+10     	; 0x7fec <__floatsisf+0x5e>
    7fe2:	66 23       	and	r22, r22
    7fe4:	71 f0       	breq	.+28     	; 0x8002 <__floatsisf+0x74>
    7fe6:	96 e8       	ldi	r25, 0x86	; 134
    7fe8:	86 2f       	mov	r24, r22
    7fea:	70 e0       	ldi	r23, 0x00	; 0
    7fec:	60 e0       	ldi	r22, 0x00	; 0
    7fee:	2a f0       	brmi	.+10     	; 0x7ffa <__floatsisf+0x6c>
    7ff0:	9a 95       	dec	r25
    7ff2:	66 0f       	add	r22, r22
    7ff4:	77 1f       	adc	r23, r23
    7ff6:	88 1f       	adc	r24, r24
    7ff8:	da f7       	brpl	.-10     	; 0x7ff0 <__floatsisf+0x62>
    7ffa:	88 0f       	add	r24, r24
    7ffc:	96 95       	lsr	r25
    7ffe:	87 95       	ror	r24
    8000:	97 f9       	bld	r25, 7
    8002:	08 95       	ret

00008004 <__fp_cmp>:
    8004:	99 0f       	add	r25, r25
    8006:	00 08       	sbc	r0, r0
    8008:	55 0f       	add	r21, r21
    800a:	aa 0b       	sbc	r26, r26
    800c:	e0 e8       	ldi	r30, 0x80	; 128
    800e:	fe ef       	ldi	r31, 0xFE	; 254
    8010:	16 16       	cp	r1, r22
    8012:	17 06       	cpc	r1, r23
    8014:	e8 07       	cpc	r30, r24
    8016:	f9 07       	cpc	r31, r25
    8018:	c0 f0       	brcs	.+48     	; 0x804a <__fp_cmp+0x46>
    801a:	12 16       	cp	r1, r18
    801c:	13 06       	cpc	r1, r19
    801e:	e4 07       	cpc	r30, r20
    8020:	f5 07       	cpc	r31, r21
    8022:	98 f0       	brcs	.+38     	; 0x804a <__fp_cmp+0x46>
    8024:	62 1b       	sub	r22, r18
    8026:	73 0b       	sbc	r23, r19
    8028:	84 0b       	sbc	r24, r20
    802a:	95 0b       	sbc	r25, r21
    802c:	39 f4       	brne	.+14     	; 0x803c <__fp_cmp+0x38>
    802e:	0a 26       	eor	r0, r26
    8030:	61 f0       	breq	.+24     	; 0x804a <__fp_cmp+0x46>
    8032:	23 2b       	or	r18, r19
    8034:	24 2b       	or	r18, r20
    8036:	25 2b       	or	r18, r21
    8038:	21 f4       	brne	.+8      	; 0x8042 <__fp_cmp+0x3e>
    803a:	08 95       	ret
    803c:	0a 26       	eor	r0, r26
    803e:	09 f4       	brne	.+2      	; 0x8042 <__fp_cmp+0x3e>
    8040:	a1 40       	sbci	r26, 0x01	; 1
    8042:	a6 95       	lsr	r26
    8044:	8f ef       	ldi	r24, 0xFF	; 255
    8046:	81 1d       	adc	r24, r1
    8048:	81 1d       	adc	r24, r1
    804a:	08 95       	ret

0000804c <__fp_inf>:
    804c:	97 f9       	bld	r25, 7
    804e:	9f 67       	ori	r25, 0x7F	; 127
    8050:	80 e8       	ldi	r24, 0x80	; 128
    8052:	70 e0       	ldi	r23, 0x00	; 0
    8054:	60 e0       	ldi	r22, 0x00	; 0
    8056:	08 95       	ret

00008058 <__fp_nan>:
    8058:	9f ef       	ldi	r25, 0xFF	; 255
    805a:	80 ec       	ldi	r24, 0xC0	; 192
    805c:	08 95       	ret

0000805e <__fp_pscA>:
    805e:	00 24       	eor	r0, r0
    8060:	0a 94       	dec	r0
    8062:	16 16       	cp	r1, r22
    8064:	17 06       	cpc	r1, r23
    8066:	18 06       	cpc	r1, r24
    8068:	09 06       	cpc	r0, r25
    806a:	08 95       	ret

0000806c <__fp_pscB>:
    806c:	00 24       	eor	r0, r0
    806e:	0a 94       	dec	r0
    8070:	12 16       	cp	r1, r18
    8072:	13 06       	cpc	r1, r19
    8074:	14 06       	cpc	r1, r20
    8076:	05 06       	cpc	r0, r21
    8078:	08 95       	ret

0000807a <__fp_round>:
    807a:	09 2e       	mov	r0, r25
    807c:	03 94       	inc	r0
    807e:	00 0c       	add	r0, r0
    8080:	11 f4       	brne	.+4      	; 0x8086 <__fp_round+0xc>
    8082:	88 23       	and	r24, r24
    8084:	52 f0       	brmi	.+20     	; 0x809a <__fp_round+0x20>
    8086:	bb 0f       	add	r27, r27
    8088:	40 f4       	brcc	.+16     	; 0x809a <__fp_round+0x20>
    808a:	bf 2b       	or	r27, r31
    808c:	11 f4       	brne	.+4      	; 0x8092 <__fp_round+0x18>
    808e:	60 ff       	sbrs	r22, 0
    8090:	04 c0       	rjmp	.+8      	; 0x809a <__fp_round+0x20>
    8092:	6f 5f       	subi	r22, 0xFF	; 255
    8094:	7f 4f       	sbci	r23, 0xFF	; 255
    8096:	8f 4f       	sbci	r24, 0xFF	; 255
    8098:	9f 4f       	sbci	r25, 0xFF	; 255
    809a:	08 95       	ret

0000809c <__fp_split3>:
    809c:	57 fd       	sbrc	r21, 7
    809e:	90 58       	subi	r25, 0x80	; 128
    80a0:	44 0f       	add	r20, r20
    80a2:	55 1f       	adc	r21, r21
    80a4:	59 f0       	breq	.+22     	; 0x80bc <__fp_splitA+0x10>
    80a6:	5f 3f       	cpi	r21, 0xFF	; 255
    80a8:	71 f0       	breq	.+28     	; 0x80c6 <__fp_splitA+0x1a>
    80aa:	47 95       	ror	r20

000080ac <__fp_splitA>:
    80ac:	88 0f       	add	r24, r24
    80ae:	97 fb       	bst	r25, 7
    80b0:	99 1f       	adc	r25, r25
    80b2:	61 f0       	breq	.+24     	; 0x80cc <__fp_splitA+0x20>
    80b4:	9f 3f       	cpi	r25, 0xFF	; 255
    80b6:	79 f0       	breq	.+30     	; 0x80d6 <__fp_splitA+0x2a>
    80b8:	87 95       	ror	r24
    80ba:	08 95       	ret
    80bc:	12 16       	cp	r1, r18
    80be:	13 06       	cpc	r1, r19
    80c0:	14 06       	cpc	r1, r20
    80c2:	55 1f       	adc	r21, r21
    80c4:	f2 cf       	rjmp	.-28     	; 0x80aa <__fp_split3+0xe>
    80c6:	46 95       	lsr	r20
    80c8:	f1 df       	rcall	.-30     	; 0x80ac <__fp_splitA>
    80ca:	08 c0       	rjmp	.+16     	; 0x80dc <__fp_splitA+0x30>
    80cc:	16 16       	cp	r1, r22
    80ce:	17 06       	cpc	r1, r23
    80d0:	18 06       	cpc	r1, r24
    80d2:	99 1f       	adc	r25, r25
    80d4:	f1 cf       	rjmp	.-30     	; 0x80b8 <__fp_splitA+0xc>
    80d6:	86 95       	lsr	r24
    80d8:	71 05       	cpc	r23, r1
    80da:	61 05       	cpc	r22, r1
    80dc:	08 94       	sec
    80de:	08 95       	ret

000080e0 <__fp_zero>:
    80e0:	e8 94       	clt

000080e2 <__fp_szero>:
    80e2:	bb 27       	eor	r27, r27
    80e4:	66 27       	eor	r22, r22
    80e6:	77 27       	eor	r23, r23
    80e8:	cb 01       	movw	r24, r22
    80ea:	97 f9       	bld	r25, 7
    80ec:	08 95       	ret

000080ee <__gesf2>:
    80ee:	8a df       	rcall	.-236    	; 0x8004 <__fp_cmp>
    80f0:	08 f4       	brcc	.+2      	; 0x80f4 <__gesf2+0x6>
    80f2:	8f ef       	ldi	r24, 0xFF	; 255
    80f4:	08 95       	ret

000080f6 <__mulsf3>:
    80f6:	0b d0       	rcall	.+22     	; 0x810e <__mulsf3x>
    80f8:	c0 cf       	rjmp	.-128    	; 0x807a <__fp_round>
    80fa:	b1 df       	rcall	.-158    	; 0x805e <__fp_pscA>
    80fc:	28 f0       	brcs	.+10     	; 0x8108 <__mulsf3+0x12>
    80fe:	b6 df       	rcall	.-148    	; 0x806c <__fp_pscB>
    8100:	18 f0       	brcs	.+6      	; 0x8108 <__mulsf3+0x12>
    8102:	95 23       	and	r25, r21
    8104:	09 f0       	breq	.+2      	; 0x8108 <__mulsf3+0x12>
    8106:	a2 cf       	rjmp	.-188    	; 0x804c <__fp_inf>
    8108:	a7 cf       	rjmp	.-178    	; 0x8058 <__fp_nan>
    810a:	11 24       	eor	r1, r1
    810c:	ea cf       	rjmp	.-44     	; 0x80e2 <__fp_szero>

0000810e <__mulsf3x>:
    810e:	c6 df       	rcall	.-116    	; 0x809c <__fp_split3>
    8110:	a0 f3       	brcs	.-24     	; 0x80fa <__mulsf3+0x4>

00008112 <__mulsf3_pse>:
    8112:	95 9f       	mul	r25, r21
    8114:	d1 f3       	breq	.-12     	; 0x810a <__mulsf3+0x14>
    8116:	95 0f       	add	r25, r21
    8118:	50 e0       	ldi	r21, 0x00	; 0
    811a:	55 1f       	adc	r21, r21
    811c:	62 9f       	mul	r22, r18
    811e:	f0 01       	movw	r30, r0
    8120:	72 9f       	mul	r23, r18
    8122:	bb 27       	eor	r27, r27
    8124:	f0 0d       	add	r31, r0
    8126:	b1 1d       	adc	r27, r1
    8128:	63 9f       	mul	r22, r19
    812a:	aa 27       	eor	r26, r26
    812c:	f0 0d       	add	r31, r0
    812e:	b1 1d       	adc	r27, r1
    8130:	aa 1f       	adc	r26, r26
    8132:	64 9f       	mul	r22, r20
    8134:	66 27       	eor	r22, r22
    8136:	b0 0d       	add	r27, r0
    8138:	a1 1d       	adc	r26, r1
    813a:	66 1f       	adc	r22, r22
    813c:	82 9f       	mul	r24, r18
    813e:	22 27       	eor	r18, r18
    8140:	b0 0d       	add	r27, r0
    8142:	a1 1d       	adc	r26, r1
    8144:	62 1f       	adc	r22, r18
    8146:	73 9f       	mul	r23, r19
    8148:	b0 0d       	add	r27, r0
    814a:	a1 1d       	adc	r26, r1
    814c:	62 1f       	adc	r22, r18
    814e:	83 9f       	mul	r24, r19
    8150:	a0 0d       	add	r26, r0
    8152:	61 1d       	adc	r22, r1
    8154:	22 1f       	adc	r18, r18
    8156:	74 9f       	mul	r23, r20
    8158:	33 27       	eor	r19, r19
    815a:	a0 0d       	add	r26, r0
    815c:	61 1d       	adc	r22, r1
    815e:	23 1f       	adc	r18, r19
    8160:	84 9f       	mul	r24, r20
    8162:	60 0d       	add	r22, r0
    8164:	21 1d       	adc	r18, r1
    8166:	82 2f       	mov	r24, r18
    8168:	76 2f       	mov	r23, r22
    816a:	6a 2f       	mov	r22, r26
    816c:	11 24       	eor	r1, r1
    816e:	9f 57       	subi	r25, 0x7F	; 127
    8170:	50 40       	sbci	r21, 0x00	; 0
    8172:	8a f0       	brmi	.+34     	; 0x8196 <__mulsf3_pse+0x84>
    8174:	e1 f0       	breq	.+56     	; 0x81ae <__mulsf3_pse+0x9c>
    8176:	88 23       	and	r24, r24
    8178:	4a f0       	brmi	.+18     	; 0x818c <__mulsf3_pse+0x7a>
    817a:	ee 0f       	add	r30, r30
    817c:	ff 1f       	adc	r31, r31
    817e:	bb 1f       	adc	r27, r27
    8180:	66 1f       	adc	r22, r22
    8182:	77 1f       	adc	r23, r23
    8184:	88 1f       	adc	r24, r24
    8186:	91 50       	subi	r25, 0x01	; 1
    8188:	50 40       	sbci	r21, 0x00	; 0
    818a:	a9 f7       	brne	.-22     	; 0x8176 <__mulsf3_pse+0x64>
    818c:	9e 3f       	cpi	r25, 0xFE	; 254
    818e:	51 05       	cpc	r21, r1
    8190:	70 f0       	brcs	.+28     	; 0x81ae <__mulsf3_pse+0x9c>
    8192:	5c cf       	rjmp	.-328    	; 0x804c <__fp_inf>
    8194:	a6 cf       	rjmp	.-180    	; 0x80e2 <__fp_szero>
    8196:	5f 3f       	cpi	r21, 0xFF	; 255
    8198:	ec f3       	brlt	.-6      	; 0x8194 <__mulsf3_pse+0x82>
    819a:	98 3e       	cpi	r25, 0xE8	; 232
    819c:	dc f3       	brlt	.-10     	; 0x8194 <__mulsf3_pse+0x82>
    819e:	86 95       	lsr	r24
    81a0:	77 95       	ror	r23
    81a2:	67 95       	ror	r22
    81a4:	b7 95       	ror	r27
    81a6:	f7 95       	ror	r31
    81a8:	e7 95       	ror	r30
    81aa:	9f 5f       	subi	r25, 0xFF	; 255
    81ac:	c1 f7       	brne	.-16     	; 0x819e <__mulsf3_pse+0x8c>
    81ae:	fe 2b       	or	r31, r30
    81b0:	88 0f       	add	r24, r24
    81b2:	91 1d       	adc	r25, r1
    81b4:	96 95       	lsr	r25
    81b6:	87 95       	ror	r24
    81b8:	97 f9       	bld	r25, 7
    81ba:	08 95       	ret

000081bc <__udivmodhi4>:
    81bc:	aa 1b       	sub	r26, r26
    81be:	bb 1b       	sub	r27, r27
    81c0:	51 e1       	ldi	r21, 0x11	; 17
    81c2:	07 c0       	rjmp	.+14     	; 0x81d2 <__udivmodhi4_ep>

000081c4 <__udivmodhi4_loop>:
    81c4:	aa 1f       	adc	r26, r26
    81c6:	bb 1f       	adc	r27, r27
    81c8:	a6 17       	cp	r26, r22
    81ca:	b7 07       	cpc	r27, r23
    81cc:	10 f0       	brcs	.+4      	; 0x81d2 <__udivmodhi4_ep>
    81ce:	a6 1b       	sub	r26, r22
    81d0:	b7 0b       	sbc	r27, r23

000081d2 <__udivmodhi4_ep>:
    81d2:	88 1f       	adc	r24, r24
    81d4:	99 1f       	adc	r25, r25
    81d6:	5a 95       	dec	r21
    81d8:	a9 f7       	brne	.-22     	; 0x81c4 <__udivmodhi4_loop>
    81da:	80 95       	com	r24
    81dc:	90 95       	com	r25
    81de:	bc 01       	movw	r22, r24
    81e0:	cd 01       	movw	r24, r26
    81e2:	08 95       	ret

000081e4 <__divmodhi4>:
    81e4:	97 fb       	bst	r25, 7
    81e6:	07 2e       	mov	r0, r23
    81e8:	16 f4       	brtc	.+4      	; 0x81ee <__divmodhi4+0xa>
    81ea:	00 94       	com	r0
    81ec:	07 d0       	rcall	.+14     	; 0x81fc <__divmodhi4_neg1>
    81ee:	77 fd       	sbrc	r23, 7
    81f0:	09 d0       	rcall	.+18     	; 0x8204 <__divmodhi4_neg2>
    81f2:	0e 94 de 40 	call	0x81bc	; 0x81bc <__udivmodhi4>
    81f6:	07 fc       	sbrc	r0, 7
    81f8:	05 d0       	rcall	.+10     	; 0x8204 <__divmodhi4_neg2>
    81fa:	3e f4       	brtc	.+14     	; 0x820a <__divmodhi4_exit>

000081fc <__divmodhi4_neg1>:
    81fc:	90 95       	com	r25
    81fe:	81 95       	neg	r24
    8200:	9f 4f       	sbci	r25, 0xFF	; 255
    8202:	08 95       	ret

00008204 <__divmodhi4_neg2>:
    8204:	70 95       	com	r23
    8206:	61 95       	neg	r22
    8208:	7f 4f       	sbci	r23, 0xFF	; 255

0000820a <__divmodhi4_exit>:
    820a:	08 95       	ret

0000820c <__udivmodsi4>:
    820c:	a1 e2       	ldi	r26, 0x21	; 33
    820e:	1a 2e       	mov	r1, r26
    8210:	aa 1b       	sub	r26, r26
    8212:	bb 1b       	sub	r27, r27
    8214:	fd 01       	movw	r30, r26
    8216:	0d c0       	rjmp	.+26     	; 0x8232 <__udivmodsi4_ep>

00008218 <__udivmodsi4_loop>:
    8218:	aa 1f       	adc	r26, r26
    821a:	bb 1f       	adc	r27, r27
    821c:	ee 1f       	adc	r30, r30
    821e:	ff 1f       	adc	r31, r31
    8220:	a2 17       	cp	r26, r18
    8222:	b3 07       	cpc	r27, r19
    8224:	e4 07       	cpc	r30, r20
    8226:	f5 07       	cpc	r31, r21
    8228:	20 f0       	brcs	.+8      	; 0x8232 <__udivmodsi4_ep>
    822a:	a2 1b       	sub	r26, r18
    822c:	b3 0b       	sbc	r27, r19
    822e:	e4 0b       	sbc	r30, r20
    8230:	f5 0b       	sbc	r31, r21

00008232 <__udivmodsi4_ep>:
    8232:	66 1f       	adc	r22, r22
    8234:	77 1f       	adc	r23, r23
    8236:	88 1f       	adc	r24, r24
    8238:	99 1f       	adc	r25, r25
    823a:	1a 94       	dec	r1
    823c:	69 f7       	brne	.-38     	; 0x8218 <__udivmodsi4_loop>
    823e:	60 95       	com	r22
    8240:	70 95       	com	r23
    8242:	80 95       	com	r24
    8244:	90 95       	com	r25
    8246:	9b 01       	movw	r18, r22
    8248:	ac 01       	movw	r20, r24
    824a:	bd 01       	movw	r22, r26
    824c:	cf 01       	movw	r24, r30
    824e:	08 95       	ret

00008250 <__divmodsi4>:
    8250:	05 2e       	mov	r0, r21
    8252:	97 fb       	bst	r25, 7
    8254:	1e f4       	brtc	.+6      	; 0x825c <__divmodsi4+0xc>
    8256:	00 94       	com	r0
    8258:	0e 94 3f 41 	call	0x827e	; 0x827e <__negsi2>
    825c:	57 fd       	sbrc	r21, 7
    825e:	07 d0       	rcall	.+14     	; 0x826e <__divmodsi4_neg2>
    8260:	0e 94 06 41 	call	0x820c	; 0x820c <__udivmodsi4>
    8264:	07 fc       	sbrc	r0, 7
    8266:	03 d0       	rcall	.+6      	; 0x826e <__divmodsi4_neg2>
    8268:	4e f4       	brtc	.+18     	; 0x827c <__divmodsi4_exit>
    826a:	0c 94 3f 41 	jmp	0x827e	; 0x827e <__negsi2>

0000826e <__divmodsi4_neg2>:
    826e:	50 95       	com	r21
    8270:	40 95       	com	r20
    8272:	30 95       	com	r19
    8274:	21 95       	neg	r18
    8276:	3f 4f       	sbci	r19, 0xFF	; 255
    8278:	4f 4f       	sbci	r20, 0xFF	; 255
    827a:	5f 4f       	sbci	r21, 0xFF	; 255

0000827c <__divmodsi4_exit>:
    827c:	08 95       	ret

0000827e <__negsi2>:
    827e:	90 95       	com	r25
    8280:	80 95       	com	r24
    8282:	70 95       	com	r23
    8284:	61 95       	neg	r22
    8286:	7f 4f       	sbci	r23, 0xFF	; 255
    8288:	8f 4f       	sbci	r24, 0xFF	; 255
    828a:	9f 4f       	sbci	r25, 0xFF	; 255
    828c:	08 95       	ret

0000828e <__tablejump2__>:
    828e:	ee 0f       	add	r30, r30
    8290:	ff 1f       	adc	r31, r31

00008292 <__tablejump__>:
    8292:	05 90       	lpm	r0, Z+
    8294:	f4 91       	lpm	r31, Z
    8296:	e0 2d       	mov	r30, r0
    8298:	09 94       	ijmp

0000829a <__mulhisi3>:
    829a:	0e 94 55 41 	call	0x82aa	; 0x82aa <__umulhisi3>
    829e:	33 23       	and	r19, r19
    82a0:	12 f4       	brpl	.+4      	; 0x82a6 <__mulhisi3+0xc>
    82a2:	8a 1b       	sub	r24, r26
    82a4:	9b 0b       	sbc	r25, r27
    82a6:	0c 94 66 41 	jmp	0x82cc	; 0x82cc <__usmulhisi3_tail>

000082aa <__umulhisi3>:
    82aa:	a2 9f       	mul	r26, r18
    82ac:	b0 01       	movw	r22, r0
    82ae:	b3 9f       	mul	r27, r19
    82b0:	c0 01       	movw	r24, r0
    82b2:	a3 9f       	mul	r26, r19
    82b4:	70 0d       	add	r23, r0
    82b6:	81 1d       	adc	r24, r1
    82b8:	11 24       	eor	r1, r1
    82ba:	91 1d       	adc	r25, r1
    82bc:	b2 9f       	mul	r27, r18
    82be:	70 0d       	add	r23, r0
    82c0:	81 1d       	adc	r24, r1
    82c2:	11 24       	eor	r1, r1
    82c4:	91 1d       	adc	r25, r1
    82c6:	08 95       	ret

000082c8 <__usmulhisi3>:
    82c8:	0e 94 55 41 	call	0x82aa	; 0x82aa <__umulhisi3>

000082cc <__usmulhisi3_tail>:
    82cc:	b7 ff       	sbrs	r27, 7
    82ce:	08 95       	ret
    82d0:	82 1b       	sub	r24, r18
    82d2:	93 0b       	sbc	r25, r19
    82d4:	08 95       	ret

000082d6 <__muluhisi3>:
    82d6:	0e 94 55 41 	call	0x82aa	; 0x82aa <__umulhisi3>
    82da:	a5 9f       	mul	r26, r21
    82dc:	90 0d       	add	r25, r0
    82de:	b4 9f       	mul	r27, r20
    82e0:	90 0d       	add	r25, r0
    82e2:	a4 9f       	mul	r26, r20
    82e4:	80 0d       	add	r24, r0
    82e6:	91 1d       	adc	r25, r1
    82e8:	11 24       	eor	r1, r1
    82ea:	08 95       	ret

000082ec <__mulshisi3>:
    82ec:	b7 ff       	sbrs	r27, 7
    82ee:	0c 94 6b 41 	jmp	0x82d6	; 0x82d6 <__muluhisi3>

000082f2 <__mulohisi3>:
    82f2:	0e 94 6b 41 	call	0x82d6	; 0x82d6 <__muluhisi3>
    82f6:	82 1b       	sub	r24, r18
    82f8:	93 0b       	sbc	r25, r19
    82fa:	08 95       	ret

000082fc <__prologue_saves__>:
    82fc:	2f 92       	push	r2
    82fe:	3f 92       	push	r3
    8300:	4f 92       	push	r4
    8302:	5f 92       	push	r5
    8304:	6f 92       	push	r6
    8306:	7f 92       	push	r7
    8308:	8f 92       	push	r8
    830a:	9f 92       	push	r9
    830c:	af 92       	push	r10
    830e:	bf 92       	push	r11
    8310:	cf 92       	push	r12
    8312:	df 92       	push	r13
    8314:	ef 92       	push	r14
    8316:	ff 92       	push	r15
    8318:	0f 93       	push	r16
    831a:	1f 93       	push	r17
    831c:	cf 93       	push	r28
    831e:	df 93       	push	r29
    8320:	cd b7       	in	r28, 0x3d	; 61
    8322:	de b7       	in	r29, 0x3e	; 62
    8324:	ca 1b       	sub	r28, r26
    8326:	db 0b       	sbc	r29, r27
    8328:	0f b6       	in	r0, 0x3f	; 63
    832a:	f8 94       	cli
    832c:	de bf       	out	0x3e, r29	; 62
    832e:	0f be       	out	0x3f, r0	; 63
    8330:	cd bf       	out	0x3d, r28	; 61
    8332:	09 94       	ijmp

00008334 <__epilogue_restores__>:
    8334:	2a 88       	ldd	r2, Y+18	; 0x12
    8336:	39 88       	ldd	r3, Y+17	; 0x11
    8338:	48 88       	ldd	r4, Y+16	; 0x10
    833a:	5f 84       	ldd	r5, Y+15	; 0x0f
    833c:	6e 84       	ldd	r6, Y+14	; 0x0e
    833e:	7d 84       	ldd	r7, Y+13	; 0x0d
    8340:	8c 84       	ldd	r8, Y+12	; 0x0c
    8342:	9b 84       	ldd	r9, Y+11	; 0x0b
    8344:	aa 84       	ldd	r10, Y+10	; 0x0a
    8346:	b9 84       	ldd	r11, Y+9	; 0x09
    8348:	c8 84       	ldd	r12, Y+8	; 0x08
    834a:	df 80       	ldd	r13, Y+7	; 0x07
    834c:	ee 80       	ldd	r14, Y+6	; 0x06
    834e:	fd 80       	ldd	r15, Y+5	; 0x05
    8350:	0c 81       	ldd	r16, Y+4	; 0x04
    8352:	1b 81       	ldd	r17, Y+3	; 0x03
    8354:	aa 81       	ldd	r26, Y+2	; 0x02
    8356:	b9 81       	ldd	r27, Y+1	; 0x01
    8358:	ce 0f       	add	r28, r30
    835a:	d1 1d       	adc	r29, r1
    835c:	0f b6       	in	r0, 0x3f	; 63
    835e:	f8 94       	cli
    8360:	de bf       	out	0x3e, r29	; 62
    8362:	0f be       	out	0x3f, r0	; 63
    8364:	cd bf       	out	0x3d, r28	; 61
    8366:	ed 01       	movw	r28, r26
    8368:	08 95       	ret

0000836a <memcpy_P>:
    836a:	fb 01       	movw	r30, r22
    836c:	dc 01       	movw	r26, r24
    836e:	02 c0       	rjmp	.+4      	; 0x8374 <memcpy_P+0xa>
    8370:	05 90       	lpm	r0, Z+
    8372:	0d 92       	st	X+, r0
    8374:	41 50       	subi	r20, 0x01	; 1
    8376:	50 40       	sbci	r21, 0x00	; 0
    8378:	d8 f7       	brcc	.-10     	; 0x8370 <memcpy_P+0x6>
    837a:	08 95       	ret

0000837c <__itoa_ncheck>:
    837c:	bb 27       	eor	r27, r27
    837e:	4a 30       	cpi	r20, 0x0A	; 10
    8380:	31 f4       	brne	.+12     	; 0x838e <__itoa_ncheck+0x12>
    8382:	99 23       	and	r25, r25
    8384:	22 f4       	brpl	.+8      	; 0x838e <__itoa_ncheck+0x12>
    8386:	bd e2       	ldi	r27, 0x2D	; 45
    8388:	90 95       	com	r25
    838a:	81 95       	neg	r24
    838c:	9f 4f       	sbci	r25, 0xFF	; 255
    838e:	0c 94 ca 41 	jmp	0x8394	; 0x8394 <__utoa_common>

00008392 <__utoa_ncheck>:
    8392:	bb 27       	eor	r27, r27

00008394 <__utoa_common>:
    8394:	fb 01       	movw	r30, r22
    8396:	55 27       	eor	r21, r21
    8398:	aa 27       	eor	r26, r26
    839a:	88 0f       	add	r24, r24
    839c:	99 1f       	adc	r25, r25
    839e:	aa 1f       	adc	r26, r26
    83a0:	a4 17       	cp	r26, r20
    83a2:	10 f0       	brcs	.+4      	; 0x83a8 <__utoa_common+0x14>
    83a4:	a4 1b       	sub	r26, r20
    83a6:	83 95       	inc	r24
    83a8:	50 51       	subi	r21, 0x10	; 16
    83aa:	b9 f7       	brne	.-18     	; 0x839a <__utoa_common+0x6>
    83ac:	a0 5d       	subi	r26, 0xD0	; 208
    83ae:	aa 33       	cpi	r26, 0x3A	; 58
    83b0:	08 f0       	brcs	.+2      	; 0x83b4 <__utoa_common+0x20>
    83b2:	a9 5d       	subi	r26, 0xD9	; 217
    83b4:	a1 93       	st	Z+, r26
    83b6:	00 97       	sbiw	r24, 0x00	; 0
    83b8:	79 f7       	brne	.-34     	; 0x8398 <__utoa_common+0x4>
    83ba:	b1 11       	cpse	r27, r1
    83bc:	b1 93       	st	Z+, r27
    83be:	11 92       	st	Z+, r1
    83c0:	cb 01       	movw	r24, r22
    83c2:	0c 94 09 42 	jmp	0x8412	; 0x8412 <strrev>

000083c6 <__eerd_block_m644p>:
    83c6:	dc 01       	movw	r26, r24
    83c8:	cb 01       	movw	r24, r22

000083ca <__eerd_blraw_m644p>:
    83ca:	fc 01       	movw	r30, r24
    83cc:	f9 99       	sbic	0x1f, 1	; 31
    83ce:	fe cf       	rjmp	.-4      	; 0x83cc <__eerd_blraw_m644p+0x2>
    83d0:	06 c0       	rjmp	.+12     	; 0x83de <__eerd_blraw_m644p+0x14>
    83d2:	f2 bd       	out	0x22, r31	; 34
    83d4:	e1 bd       	out	0x21, r30	; 33
    83d6:	f8 9a       	sbi	0x1f, 0	; 31
    83d8:	31 96       	adiw	r30, 0x01	; 1
    83da:	00 b4       	in	r0, 0x20	; 32
    83dc:	0d 92       	st	X+, r0
    83de:	41 50       	subi	r20, 0x01	; 1
    83e0:	50 40       	sbci	r21, 0x00	; 0
    83e2:	b8 f7       	brcc	.-18     	; 0x83d2 <__eerd_blraw_m644p+0x8>
    83e4:	08 95       	ret

000083e6 <__eerd_byte_m644p>:
    83e6:	f9 99       	sbic	0x1f, 1	; 31
    83e8:	fe cf       	rjmp	.-4      	; 0x83e6 <__eerd_byte_m644p>
    83ea:	92 bd       	out	0x22, r25	; 34
    83ec:	81 bd       	out	0x21, r24	; 33
    83ee:	f8 9a       	sbi	0x1f, 0	; 31
    83f0:	99 27       	eor	r25, r25
    83f2:	80 b5       	in	r24, 0x20	; 32
    83f4:	08 95       	ret

000083f6 <__eewr_byte_m644p>:
    83f6:	26 2f       	mov	r18, r22

000083f8 <__eewr_r18_m644p>:
    83f8:	f9 99       	sbic	0x1f, 1	; 31
    83fa:	fe cf       	rjmp	.-4      	; 0x83f8 <__eewr_r18_m644p>
    83fc:	1f ba       	out	0x1f, r1	; 31
    83fe:	92 bd       	out	0x22, r25	; 34
    8400:	81 bd       	out	0x21, r24	; 33
    8402:	20 bd       	out	0x20, r18	; 32
    8404:	0f b6       	in	r0, 0x3f	; 63
    8406:	f8 94       	cli
    8408:	fa 9a       	sbi	0x1f, 2	; 31
    840a:	f9 9a       	sbi	0x1f, 1	; 31
    840c:	0f be       	out	0x3f, r0	; 63
    840e:	01 96       	adiw	r24, 0x01	; 1
    8410:	08 95       	ret

00008412 <strrev>:
    8412:	dc 01       	movw	r26, r24
    8414:	fc 01       	movw	r30, r24
    8416:	67 2f       	mov	r22, r23
    8418:	71 91       	ld	r23, Z+
    841a:	77 23       	and	r23, r23
    841c:	e1 f7       	brne	.-8      	; 0x8416 <strrev+0x4>
    841e:	32 97       	sbiw	r30, 0x02	; 2
    8420:	04 c0       	rjmp	.+8      	; 0x842a <strrev+0x18>
    8422:	7c 91       	ld	r23, X
    8424:	6d 93       	st	X+, r22
    8426:	70 83       	st	Z, r23
    8428:	62 91       	ld	r22, -Z
    842a:	ae 17       	cp	r26, r30
    842c:	bf 07       	cpc	r27, r31
    842e:	c8 f3       	brcs	.-14     	; 0x8422 <strrev+0x10>
    8430:	08 95       	ret

00008432 <_exit>:
    8432:	f8 94       	cli

00008434 <__stop_program>:
    8434:	ff cf       	rjmp	.-2      	; 0x8434 <__stop_program>
