
OpenAeroVTOL.elf:     file format elf32-avr

Sections:
Idx Name          Size      VMA       LMA       File off  Algn
  0 .data         00000426  00800100  0000df14  0000dfa8  2**0
                  CONTENTS, ALLOC, LOAD, DATA
  1 .text         0000df14  00000000  00000000  00000094  2**1
                  CONTENTS, ALLOC, LOAD, READONLY, CODE
  2 .bss          0000045f  00800526  00800526  0000e3ce  2**0
                  ALLOC
  3 .comment      00000030  00000000  00000000  0000e3ce  2**0
                  CONTENTS, READONLY
  4 .note.gnu.avr.deviceinfo 00000040  00000000  00000000  0000e400  2**2
                  CONTENTS, READONLY
  5 .debug_aranges 00000788  00000000  00000000  0000e440  2**3
                  CONTENTS, READONLY, DEBUGGING
  6 .debug_info   0001e299  00000000  00000000  0000ebc8  2**0
                  CONTENTS, READONLY, DEBUGGING
  7 .debug_abbrev 000046e2  00000000  00000000  0002ce61  2**0
                  CONTENTS, READONLY, DEBUGGING
  8 .debug_line   00005053  00000000  00000000  00031543  2**0
                  CONTENTS, READONLY, DEBUGGING
  9 .debug_frame  00001924  00000000  00000000  00036598  2**2
                  CONTENTS, READONLY, DEBUGGING
 10 .debug_str    00003500  00000000  00000000  00037ebc  2**0
                  CONTENTS, READONLY, DEBUGGING
 11 .debug_loc    0000c63f  00000000  00000000  0003b3bc  2**0
                  CONTENTS, READONLY, DEBUGGING
 12 .debug_ranges 000006b0  00000000  00000000  000479fb  2**0
                  CONTENTS, READONLY, DEBUGGING

Disassembly of section .text:

00000000 <__vectors>:
       0:	0c 94 d3 15 	jmp	0x2ba6	; 0x2ba6 <__ctors_end>
       4:	0c 94 d3 42 	jmp	0x85a6	; 0x85a6 <__vector_1>
       8:	0c 94 91 42 	jmp	0x8522	; 0x8522 <__vector_2>
       c:	0c 94 a4 43 	jmp	0x8748	; 0x8748 <__vector_3>
      10:	0c 94 fc 15 	jmp	0x2bf8	; 0x2bf8 <__bad_interrupt>
      14:	0c 94 59 43 	jmp	0x86b2	; 0x86b2 <__vector_5>
      18:	0c 94 fc 15 	jmp	0x2bf8	; 0x2bf8 <__bad_interrupt>
      1c:	0c 94 16 43 	jmp	0x862c	; 0x862c <__vector_7>
      20:	0c 94 fc 15 	jmp	0x2bf8	; 0x2bf8 <__bad_interrupt>
      24:	0c 94 fc 15 	jmp	0x2bf8	; 0x2bf8 <__bad_interrupt>
      28:	0c 94 fc 15 	jmp	0x2bf8	; 0x2bf8 <__bad_interrupt>
      2c:	0c 94 fc 15 	jmp	0x2bf8	; 0x2bf8 <__bad_interrupt>
      30:	0c 94 fc 15 	jmp	0x2bf8	; 0x2bf8 <__bad_interrupt>
      34:	0c 94 fc 15 	jmp	0x2bf8	; 0x2bf8 <__bad_interrupt>
      38:	0c 94 fc 15 	jmp	0x2bf8	; 0x2bf8 <__bad_interrupt>
      3c:	0c 94 fc 15 	jmp	0x2bf8	; 0x2bf8 <__bad_interrupt>
      40:	0c 94 fc 15 	jmp	0x2bf8	; 0x2bf8 <__bad_interrupt>
      44:	0c 94 fc 15 	jmp	0x2bf8	; 0x2bf8 <__bad_interrupt>
      48:	0c 94 7a 42 	jmp	0x84f4	; 0x84f4 <__vector_18>
      4c:	0c 94 fc 15 	jmp	0x2bf8	; 0x2bf8 <__bad_interrupt>
      50:	0c 94 72 44 	jmp	0x88e4	; 0x88e4 <__vector_20>
      54:	0c 94 fc 15 	jmp	0x2bf8	; 0x2bf8 <__bad_interrupt>
      58:	0c 94 fc 15 	jmp	0x2bf8	; 0x2bf8 <__bad_interrupt>
      5c:	0c 94 fc 15 	jmp	0x2bf8	; 0x2bf8 <__bad_interrupt>
      60:	0c 94 fc 15 	jmp	0x2bf8	; 0x2bf8 <__bad_interrupt>
      64:	0c 94 fc 15 	jmp	0x2bf8	; 0x2bf8 <__bad_interrupt>
      68:	0c 94 fc 15 	jmp	0x2bf8	; 0x2bf8 <__bad_interrupt>
      6c:	0c 94 fc 15 	jmp	0x2bf8	; 0x2bf8 <__bad_interrupt>
      70:	0c 94 fc 15 	jmp	0x2bf8	; 0x2bf8 <__bad_interrupt>
      74:	0c 94 fc 15 	jmp	0x2bf8	; 0x2bf8 <__bad_interrupt>
      78:	0c 94 fc 15 	jmp	0x2bf8	; 0x2bf8 <__bad_interrupt>
      7c:	8b 2e       	mov	r8, r27
      7e:	9d 2e       	mov	r9, r29
      80:	9d 2e       	mov	r9, r29
      82:	9d 2e       	mov	r9, r29
      84:	8d 2e       	mov	r8, r29
      86:	9d 2e       	mov	r9, r29
      88:	9d 2e       	mov	r9, r29
      8a:	9d 2e       	mov	r9, r29
      8c:	8f 2e       	mov	r8, r31
      8e:	91 2e       	mov	r9, r17
      90:	93 2e       	mov	r9, r19
      92:	95 2e       	mov	r9, r21
      94:	97 2e       	mov	r9, r23
      96:	99 2e       	mov	r9, r25
      98:	9f 2e       	mov	r9, r31
      9a:	36 2f       	mov	r19, r22
      9c:	b9 2f       	mov	r27, r25
      9e:	b9 2f       	mov	r27, r25
      a0:	48 2f       	mov	r20, r24
      a2:	57 2f       	mov	r21, r23
      a4:	63 2f       	mov	r22, r19
      a6:	5e 2f       	mov	r21, r30
      a8:	79 2f       	mov	r23, r25
      aa:	85 2f       	mov	r24, r21
      ac:	8b 2f       	mov	r24, r27
      ae:	9e 2f       	mov	r25, r30
      b0:	a1 4d       	sbci	r26, 0xD1	; 209
      b2:	95 4d       	sbci	r25, 0xD5	; 213
      b4:	97 4d       	sbci	r25, 0xD7	; 215
      b6:	99 4d       	sbci	r25, 0xD9	; 217
      b8:	9b 4d       	sbci	r25, 0xDB	; 219
      ba:	9d 4d       	sbci	r25, 0xDD	; 221
      bc:	9f 4d       	sbci	r25, 0xDF	; 223
      be:	9f 4d       	sbci	r25, 0xDF	; 223
      c0:	fa 4d       	sbci	r31, 0xDA	; 218
      c2:	fe 4d       	sbci	r31, 0xDE	; 222
      c4:	02 4e       	sbci	r16, 0xE2	; 226
      c6:	06 4e       	sbci	r16, 0xE6	; 230
      c8:	0a 4e       	sbci	r16, 0xEA	; 234
      ca:	0e 4e       	sbci	r16, 0xEE	; 238
      cc:	13 4e       	sbci	r17, 0xE3	; 227
      ce:	20 4e       	sbci	r18, 0xE0	; 224
      d0:	24 4e       	sbci	r18, 0xE4	; 228
      d2:	28 4e       	sbci	r18, 0xE8	; 232
      d4:	2c 4e       	sbci	r18, 0xEC	; 236
      d6:	30 4e       	sbci	r19, 0xE0	; 224
      d8:	34 4e       	sbci	r19, 0xE4	; 228
      da:	37 4e       	sbci	r19, 0xE7	; 231
      dc:	2e 4f       	sbci	r18, 0xFE	; 254
      de:	32 4f       	sbci	r19, 0xF2	; 242
      e0:	36 4f       	sbci	r19, 0xF6	; 246
      e2:	3a 4f       	sbci	r19, 0xFA	; 250
      e4:	3e 4f       	sbci	r19, 0xFE	; 254
      e6:	42 4f       	sbci	r20, 0xF2	; 242
      e8:	45 4f       	sbci	r20, 0xF5	; 245
      ea:	49 4f       	sbci	r20, 0xF9	; 249
      ec:	56 4f       	sbci	r21, 0xF6	; 246
      ee:	59 4f       	sbci	r21, 0xF9	; 249
      f0:	5d 4f       	sbci	r21, 0xFD	; 253
      f2:	61 4f       	sbci	r22, 0xF1	; 241
      f4:	65 4f       	sbci	r22, 0xF5	; 245
      f6:	6c 4f       	sbci	r22, 0xFC	; 252
      f8:	6f 4f       	sbci	r22, 0xFF	; 255
      fa:	76 4f       	sbci	r23, 0xF6	; 246
      fc:	24 52       	subi	r18, 0x24	; 36
      fe:	26 52       	subi	r18, 0x26	; 38
     100:	29 52       	subi	r18, 0x29	; 41
     102:	2b 52       	subi	r18, 0x2B	; 43
     104:	2d 52       	subi	r18, 0x2D	; 45
     106:	2f 52       	subi	r18, 0x2F	; 47
     108:	31 52       	subi	r19, 0x21	; 33
     10a:	33 52       	subi	r19, 0x23	; 35
     10c:	36 52       	subi	r19, 0x26	; 38
     10e:	38 52       	subi	r19, 0x28	; 40
     110:	3a 52       	subi	r19, 0x2A	; 42
     112:	3c 52       	subi	r19, 0x2C	; 44
     114:	3f 52       	subi	r19, 0x2F	; 47
     116:	41 52       	subi	r20, 0x21	; 33
     118:	43 52       	subi	r20, 0x23	; 35
     11a:	45 52       	subi	r20, 0x25	; 37
     11c:	47 52       	subi	r20, 0x27	; 39
     11e:	49 52       	subi	r20, 0x29	; 41
     120:	4b 52       	subi	r20, 0x2B	; 43
     122:	4d 52       	subi	r20, 0x2D	; 45
     124:	4f 52       	subi	r20, 0x2F	; 47
     126:	52 52       	subi	r21, 0x22	; 34
     128:	54 52       	subi	r21, 0x24	; 36
     12a:	56 52       	subi	r21, 0x26	; 38
     12c:	f8 56       	subi	r31, 0x68	; 104
     12e:	dc 56       	subi	r29, 0x6C	; 108
     130:	df 56       	subi	r29, 0x6F	; 111
     132:	e2 56       	subi	r30, 0x62	; 98
     134:	e5 56       	subi	r30, 0x65	; 101
     136:	e8 56       	subi	r30, 0x68	; 104
     138:	eb 56       	subi	r30, 0x6B	; 107
     13a:	ee 56       	subi	r30, 0x6E	; 110
     13c:	f1 56       	subi	r31, 0x61	; 97

0000013e <Acc_Pol>:
     13e:	ff ff 01 01 ff 01 01 01 01 ff 01 01 ff ff ff 01     ................
     14e:	ff ff 01 ff 01 ff ff 01 01 ff ff ff ff ff ff 01     ................
     15e:	ff 01 01 ff 01 01 ff ff 01 ff ff 01 01 01 01 01     ................
     16e:	01 ff ff 01 01 ff 01 01 01 01 ff 01 ff 01 ff ff     ................
     17e:	ff ff ff ff 01 ff 01 01                             ........

00000186 <ACC_RPY_Order>:
     186:	00 01 02 01 00 02 00 01 02 01 00 02 00 02 01 01     ................
     196:	02 00 00 02 01 01 02 00 00 01 02 01 00 02 00 01     ................
     1a6:	02 01 00 02 00 02 01 01 02 00 00 02 01 01 02 00     ................
     1b6:	02 00 01 02 01 00 02 00 01 02 01 00 02 00 01 02     ................
     1c6:	01 00 02 00 01 02 01 00                             ........

000001ce <MPX>:
     1ce:	01 02 03 05 00 04 06 07                             ........

000001d6 <FUTABA>:
     1d6:	01 02 00 03 04 05 06 07                             ........

000001de <JR>:
     1de:	00 01 02 03 04 05 06 07                             ........

000001e6 <Trans_Matrix>:
     1e6:	05 02 06 01 05 08 03 07 05                          .........

000001ef <Wingdings>:
     1ef:	01 02 41 05 0d 00 0f 00 22 00 33 00 44 00 4f 09     ..A.....".3.D.O.
     1ff:	01 00 03 00 07 00 0f 00 1f 00 0f 00 07 00 03 00     ................
     20f:	01 00 08 1c 00 1c 00 1c 00 1c 00 7f 00 3e 00 1c     .............>..
     21f:	00 08 00 08 08 00 1c 00 3e 00 7f 00 1c 00 1c 00     ........>.......
     22f:	1c 00 1c 00 05 ff 01 fe 00 7c 00 38 00 10 00 0d     .........|.8....
     23f:	40 00 60 00 70 00 78 00 7c 00 7e 00 7f 00 7e 00     @.`.p.x.|.~...~.
     24f:	7c 00 78 00 70 00 60 00 40 00                       |.x.p.`.@.

00000259 <Verdana22>:
     259:	01 02 2d 0d 1d 00 1f 00 44 00 44 00 44 00 7d 00     ..-.....D.D.D.}.
     269:	aa 00 e3 01 1c 01 5d 01 92 01 cb 02 04 02 3d 09     ......].......=.
     279:	00 70 00 00 00 70 00 00 00 70 00 00 00 70 00 00     .p...p...p...p..
     289:	00 70 00 00 00 70 00 00 00 70 00 00 00 70 00 00     .p...p...p...p..
     299:	00 70 00 00 0e 80 ff 01 00 f0 ff 0f 00 f8 ff 1f     .p..............
     2a9:	00 7c 00 3e 00 1e 00 78 00 0e 00 70 00 0e 00 70     .|.>...x...p...p
     2b9:	00 0e 00 70 00 0e 00 70 00 1e 00 78 00 7c 00 3e     ...p...p...x.|.>
     2c9:	00 f8 ff 1f 00 f0 ff 0f 00 80 ff 01 00 0b 70 00     ..............p.
     2d9:	70 00 70 00 70 00 70 00 70 00 78 00 70 00 fc ff     p.p.p.p.p.x.p...
     2e9:	7f 00 fe ff 7f 00 fe ff 7f 00 00 00 70 00 00 00     ............p...
     2f9:	70 00 00 00 70 00 00 00 70 00 0e 00 00 78 00 1c     p...p...p....x..
     309:	00 7c 00 1c 00 7e 00 0e 00 77 00 0e 00 77 00 0e     .|...~...w...w..
     319:	80 73 00 0e c0 71 00 0e e0 70 00 1e 78 70 00 1e     .s...q...p..xp..
     329:	3c 70 00 fc 1f 70 00 f8 07 70 00 f0 03 70 00 00     <p...p...p...p..
     339:	00 70 00 0e 00 00 38 00 1c 00 38 00 1c 00 70 00     .p....8...8...p.
     349:	0e 00 70 00 0e 00 70 00 0e 1c 70 00 0e 1c 70 00     ..p...p...p...p.
     359:	0e 1c 70 00 0e 1c 70 00 0e 3e 78 00 1c 37 3c 00     ..p...p..>x..7<.
     369:	fc f3 3f 00 f8 e3 1f 00 f0 c0 07 00 10 00 e0 01     ..?.............
     379:	00 00 f0 01 00 00 fc 01 00 00 fe 01 00 00 df 01     ................
     389:	00 80 cf 01 00 e0 c3 01 00 f0 c1 01 00 f8 c0 01     ................
     399:	00 7c c0 01 00 fe ff 7f 00 fe ff 7f 00 fe ff 7f     .|..............
     3a9:	00 00 c0 01 00 00 c0 01 00 00 c0 01 00 0d 00 00     ................
     3b9:	38 00 fe 1f 38 00 fe 0f 70 00 fe 0f 70 00 0e 0e     8...8...p...p...
     3c9:	70 00 0e 0e 70 00 0e 0e 70 00 0e 0e 70 00 0e 1e     p...p...p...p...
     3d9:	78 00 0e 3c 3c 00 0e fc 1f 00 0e f8 0f 00 0e e0     x..<<...........
     3e9:	07 00 0e 00 fe 03 00 c0 ff 0f 00 f0 ff 1f 00 f8     ................
     3f9:	1c 3e 00 3c 0c 78 00 1c 0e 70 00 1e 0e 70 00 0e     .>.<.x...p...p..
     409:	0e 70 00 0e 0e 70 00 0e 1e 78 00 0e 3c 3c 00 1e     .p...p...x..<<..
     419:	fc 1f 00 00 f8 0f 00 00 e0 07 00 0e 0e 00 00 00     ................
     429:	0e 00 00 00 0e 00 40 00 0e 00 70 00 0e 00 7c 00     ......@...p...|.
     439:	0e 00 7f 00 0e c0 1f 00 0e f0 07 00 0e fc 00 00     ................
     449:	0e 3f 00 00 ce 0f 00 00 fe 03 00 00 fe 00 00 00     .?..............
     459:	3e 00 00 00 0e 00 c0 07 00 f0 e1 1f 00 f8 f3 3f     >..............?
     469:	00 fc 3f 3c 00 1e 1f 78 00 0e 0e 70 00 0e 0c 70     ..?<...x...p...p
     479:	00 0e 1c 70 00 0e 18 70 00 1e 3c 78 00 fc 7f 3c     ...p...p..<x...<
     489:	00 f8 f3 3f 00 f0 e1 1f 00 00 c0 07 00 0e e0 07     ...?............
     499:	00 00 f0 1f 00 00 f8 3f 78 00 3c 3c 70 00 1e 78     .......?x.<<p..x
     4a9:	70 00 0e 70 70 00 0e 70 70 00 0e 70 78 00 0e 70     p..pp..pp..px..p
     4b9:	38 00 1e 30 3c 00 7c 38 1f 00 f8 ff 0f 00 f0 ff     8..0<.|8........
     4c9:	03 00 c0 7f 00 00                                   ......

000004cf <Verdana14>:
     4cf:	01 02 20 5f 13 00 c3 00 cd 00 d4 00 e7 01 0c 01     .. _............
     4df:	28 01 5f 01 87 01 8e 01 a1 01 b4 01 d0 01 f5 02     (._.............
     4ef:	02 02 15 02 1c 02 35 02 54 02 6d 02 89 02 a5 02     ......5.T.m.....
     4ff:	c4 02 e0 02 ff 03 1b 03 3a 03 59 03 60 03 6d 03     ........:.Y.`.m.
     50f:	8f 03 b1 03 d3 03 ec 04 1d 04 45 04 64 04 86 04     ..........E.d...
     51f:	ab 04 c7 04 e3 05 0b 05 2a 05 3d 05 53 05 75 05     ........*.=.S.u.
     52f:	91 05 b6 05 d5 05 fd 06 16 06 3e 06 60 06 82 06     ..........>.`...
     53f:	a7 06 c6 06 ee 07 22 07 44 07 69 07 8b 07 9b 07     ......".D.i.....
     54f:	b4 07 c4 07 e9 08 0e 08 1b 08 34 08 50 08 69 08     ..........4.P.i.
     55f:	85 08 a1 08 b4 08 d0 08 e9 08 f0 09 00 09 1c 09     ................
     56f:	23 09 4e 09 67 09 86 09 a2 09 be 09 d1 09 ea 09     #.N.g...........
     57f:	fd 0a 16 0a 32 0a 5d 0a 79 0a 95 0a ae 0a ca 0a     ....2.].y.......
     58f:	d1 0a ed 03 00 00 00 00 00 00 00 00 00 02 fe 67     ...............g
     59f:	00 fe 67 00 06 1f 00 00 1f 00 00 00 00 00 00 00     ..g.............
     5af:	00 1f 00 00 1f 00 00 0c 00 04 00 20 04 00 20 64     ........... .. d
     5bf:	00 20 1f 00 f8 04 00 26 04 00 20 64 00 20 1f 00     . .....&.. d. ..
     5cf:	f8 04 00 26 04 00 20 04 00 20 00 00 09 e0 30 00     ...&.. .. ....0.
     5df:	f0 61 00 98 61 00 18 63 00 ff ff 03 18 63 00 18     .a..a..c.....c..
     5ef:	62 00 18 3e 00 18 1c 00 12 78 00 00 fe 01 00 02     b..>.....x......
     5ff:	01 00 02 01 00 02 01 00 fe 41 00 78 70 00 00 1c     .........A.xp...
     60f:	00 00 07 00 e0 00 00 38 00 00 0e 1e 00 82 7f 00     .......8........
     61f:	80 40 00 80 40 00 80 40 00 80 7f 00 00 1e 00 0d     .@..@..@........
     62f:	00 1e 00 3c 3f 00 fc 71 00 c6 60 00 c6 60 00 c6     ...<?..q..`..`..
     63f:	61 00 7e 63 00 3c 36 00 00 1c 00 80 1f 00 80 37     a.~c.<6........7
     64f:	00 00 60 00 00 40 00 02 1f 00 00 1f 00 00 06 c0     ..`..@..........
     65f:	1f 00 f8 ff 00 3c e0 01 07 00 07 03 00 06 01 00     .....<..........
     66f:	04 06 01 00 04 03 00 06 07 00 07 3c e0 01 f8 ff     ...........<....
     67f:	00 c0 1f 00 09 c6 00 00 44 00 00 6c 00 00 28 00     ........D..l..(.
     68f:	00 ff 01 00 28 00 00 6c 00 00 44 00 00 c6 00 00     ....(..l..D.....
     69f:	0c 00 03 00 00 03 00 00 03 00 00 03 00 00 03 00     ................
     6af:	f8 7f 00 f8 7f 00 00 03 00 00 03 00 00 03 00 00     ................
     6bf:	03 00 00 03 00 04 00 00 03 00 f0 03 00 70 00 00     .............p..
     6cf:	10 00 06 00 03 00 00 03 00 00 03 00 00 03 00 00     ................
     6df:	03 00 00 03 00 02 00 70 00 00 70 00 08 00 00 03     .......p..p.....
     6ef:	00 e0 03 00 fc 01 80 3f 00 f0 07 00 fe 00 00 1f     .......?........
     6ff:	00 00 03 00 00 0a f0 0f 00 fc 3f 00 0c 30 00 06     ..........?..0..
     70f:	60 00 06 60 00 06 60 00 06 60 00 0c 30 00 fc 3f     `..`..`..`..0..?
     71f:	00 f0 0f 00 08 18 60 00 18 60 00 18 60 00 fe 7f     ......`..`..`...
     72f:	00 fe 7f 00 00 60 00 00 60 00 00 60 00 09 0c 70     .....`..`..`...p
     73f:	00 06 78 00 06 6c 00 06 66 00 06 63 00 8e 61 00     ..x..l..f..c..a.
     74f:	fc 60 00 78 60 00 00 60 00 09 0c 30 00 06 60 00     .`.x`..`...0..`.
     75f:	06 60 00 86 61 00 86 61 00 86 61 00 ce 73 00 7c     .`..a..a..a..s.|
     76f:	3f 00 38 1e 00 0a 00 07 00 80 07 00 c0 07 00 f0     ?.8.............
     77f:	06 00 38 06 00 1c 06 00 fe 7f 00 fe 7f 00 00 06     ..8.............
     78f:	00 00 06 00 09 00 30 00 fe 60 00 fe 60 00 c6 60     ......0..`..`..`
     79f:	00 c6 60 00 c6 60 00 c6 31 00 86 3f 00 06 0f 00     ..`..`..1..?....
     7af:	0a e0 0f 00 f0 3f 00 9c 30 00 cc 60 00 c6 60 00     .....?..0..`..`.
     7bf:	c6 60 00 c6 60 00 c6 31 00 86 3f 00 00 0f 00 09     .`..`..1..?.....
     7cf:	06 00 00 06 40 00 06 70 00 06 7c 00 06 0f 00 c6     ....@..p..|.....
     7df:	03 00 f6 00 00 3e 00 00 0e 00 00 0a 38 1e 00 7c     .....>......8..|
     7ef:	3f 00 ce 71 00 c6 60 00 c6 60 00 86 61 00 86 61     ?..q..`..`..a..a
     7ff:	00 4e 73 00 7c 3f 00 38 1e 00 0a f0 00 00 fc 61     .Ns.|?.8.......a
     80f:	00 8c 63 00 06 63 00 06 63 00 06 63 00 06 33 00     ..c..c..c..c..3.
     81f:	0c 39 00 fc 1f 00 f0 07 00 02 70 70 00 70 70 00     .9........pp.pp.
     82f:	04 00 00 03 70 f0 03 70 70 00 00 10 00 0b 00 01     ....p..pp.......
     83f:	00 80 03 00 80 03 00 c0 06 00 c0 06 00 60 0c 00     .............`..
     84f:	60 0c 00 30 18 00 30 18 00 18 30 00 18 30 00 0b     `..0..0...0..0..
     85f:	c0 0c 00 c0 0c 00 c0 0c 00 c0 0c 00 c0 0c 00 c0     ................
     86f:	0c 00 c0 0c 00 c0 0c 00 c0 0c 00 c0 0c 00 c0 0c     ................
     87f:	00 0b 18 30 00 18 30 00 30 18 00 30 18 00 60 0c     ...0..0.0..0..`.
     88f:	00 60 0c 00 c0 06 00 c0 06 00 80 03 00 80 03 00     .`..............
     89f:	00 01 00 08 0c 00 00 06 00 00 06 67 00 06 67 00     ...........g..g.
     8af:	86 01 00 ce 00 00 fc 00 00 38 00 00 10 c0 0f 00     .........8......
     8bf:	f0 3f 00 38 70 00 0c c0 00 84 8f 00 c6 9f 01 62     .?.8p..........b
     8cf:	30 01 22 20 01 22 20 01 22 10 01 e2 3f 01 e4 bf     0." ." ."...?...
     8df:	01 0c 20 00 38 20 00 f0 3f 00 c0 0f 00 0d 00 40     .. .8 ..?......@
     8ef:	00 00 78 00 00 3f 00 c0 07 00 f8 06 00 3e 06 00     ..x..?.......>..
     8ff:	06 06 00 3e 06 00 f8 06 00 c0 07 00 00 3f 00 00     ...>.........?..
     90f:	78 00 00 40 00 0a fe 7f 00 fe 7f 00 86 61 00 86     x..@.........a..
     91f:	61 00 86 61 00 86 61 00 c6 61 00 7c 73 00 3c 3f     a..a..a..a.|s.<?
     92f:	00 00 1e 00 0b e0 07 00 f8 1f 00 1c 38 00 0c 30     ............8..0
     93f:	00 06 60 00 06 60 00 06 60 00 06 60 00 06 60 00     ..`..`..`..`..`.
     94f:	06 20 00 0c 30 00 0c fe 7f 00 fe 7f 00 06 60 00     . ..0.........`.
     95f:	06 60 00 06 60 00 06 60 00 06 60 00 0e 70 00 0c     .`..`..`..`..p..
     96f:	30 00 38 1c 00 f8 0f 00 e0 07 00 09 fe 7f 00 fe     0.8.............
     97f:	7f 00 c6 60 00 c6 60 00 c6 60 00 c6 60 00 c6 60     ...`..`..`..`..`
     98f:	00 c6 60 00 c6 60 00 09 fe 7f 00 fe 7f 00 86 01     ..`..`..........
     99f:	00 86 01 00 86 01 00 86 01 00 86 01 00 86 01 00     ................
     9af:	06 00 00 0d e0 07 00 f8 1f 00 3c 3c 00 0c 30 00     ..........<<..0.
     9bf:	0e 70 00 06 60 00 06 60 00 06 63 00 06 63 00 06     .p..`..`..c..c..
     9cf:	63 00 06 63 00 0c 3f 00 0c 3f 00 0a fe 7f 00 fe     c..c..?..?......
     9df:	7f 00 c0 00 00 c0 00 00 c0 00 00 c0 00 00 c0 00     ................
     9ef:	00 c0 00 00 fe 7f 00 fe 7f 00 06 06 60 00 06 60     ............`..`
     9ff:	00 fe 7f 00 fe 7f 00 06 60 00 06 60 00 07 00 60     ........`..`...`
     a0f:	00 00 60 00 06 60 00 06 60 00 06 70 00 fe 3f 00     ..`..`..`..p..?.
     a1f:	fe 1f 00 0b fe 7f 00 fe 7f 00 80 03 00 c0 01 00     ................
     a2f:	e0 03 00 70 07 00 38 1c 00 1c 38 00 0e 70 00 06     ...p..8...8..p..
     a3f:	60 00 02 40 00 09 fe 7f 00 fe 7f 00 00 60 00 00     `..@.........`..
     a4f:	60 00 00 60 00 00 60 00 00 60 00 00 60 00 00 60     `..`..`..`..`..`
     a5f:	00 0c fe 7f 00 fe 7f 00 0e 00 00 38 00 00 e0 01     ...........8....
     a6f:	00 80 07 00 00 07 00 e0 01 00 38 00 00 0e 00 00     ..........8.....
     a7f:	fe 7f 00 fe 7f 00 0a fe 7f 00 fe 7f 00 0e 00 00     ................
     a8f:	3c 00 00 e0 00 00 80 03 00 00 1e 00 00 78 00 fe     <............x..
     a9f:	7f 00 fe 7f 00 0d e0 07 00 f8 1f 00 1c 38 00 0c     .............8..
     aaf:	30 00 06 60 00 06 60 00 06 60 00 06 60 00 06 60     0..`..`..`..`..`
     abf:	00 0c 30 00 1c 38 00 f8 1f 00 e0 07 00 08 fe 7f     ..0..8..........
     acf:	00 fe 7f 00 06 03 00 06 03 00 06 03 00 8e 03 00     ................
     adf:	fc 01 00 f8 00 00 0d e0 07 00 f8 1f 00 1c 38 00     ..............8.
     aef:	0c 30 00 06 60 00 06 60 00 06 60 00 06 e0 01 06     .0..`..`..`.....
     aff:	e0 03 0c 30 07 1c 38 06 f8 1f 06 e0 07 06 0b fe     ...0..8.........
     b0f:	7f 00 fe 7f 00 86 01 00 86 01 00 86 01 00 86 07     ................
     b1f:	00 ce 0e 00 fc 1c 00 78 70 00 00 60 00 00 40 00     .......xp..`..@.
     b2f:	0b 78 30 00 fc 70 00 ce 60 00 86 61 00 86 61 00     .x0..p..`..a..a.
     b3f:	86 61 00 86 61 00 86 61 00 06 33 00 0c 3f 00 00     .a..a..a..3..?..
     b4f:	1e 00 0c 06 00 00 06 00 00 06 00 00 06 00 00 06     ................
     b5f:	00 00 fe 7f 00 fe 7f 00 06 00 00 06 00 00 06 00     ................
     b6f:	00 06 00 00 06 00 00 0a fe 0f 00 fe 3f 00 00 70     ............?..p
     b7f:	00 00 60 00 00 60 00 00 60 00 00 60 00 00 70 00     ..`..`..`..`..p.
     b8f:	fe 3f 00 fe 0f 00 0d 02 00 00 1e 00 00 fc 00 00     .?..............
     b9f:	e0 03 00 80 1f 00 00 7c 00 00 60 00 00 7c 00 80     .......|..`..|..
     baf:	1f 00 e0 03 00 fc 00 00 1e 00 00 02 00 00 11 06     ................
     bbf:	00 00 7e 00 00 f8 07 00 80 3f 00 00 78 00 00 7c     ..~......?..x..|
     bcf:	00 c0 0f 00 7e 00 00 06 00 00 7e 00 00 e0 07 00     ....~.....~.....
     bdf:	00 7e 00 00 70 00 80 7f 00 f8 07 00 7e 00 00 06     .~..p.......~...
     bef:	00 00 0b 02 40 00 06 60 00 1e 78 00 38 1c 00 e0     ....@..`..x.8...
     bff:	07 00 80 01 00 e0 07 00 38 1e 00 1e 78 00 06 60     ........8...x..`
     c0f:	00 02 40 00 0c 02 00 00 06 00 00 1e 00 00 78 00     ..@...........x.
     c1f:	00 e0 00 00 c0 7f 00 c0 7f 00 e0 00 00 78 00 00     .............x..
     c2f:	1e 00 00 06 00 00 02 00 00 0b 06 70 00 06 78 00     ...........p..x.
     c3f:	06 7c 00 06 6e 00 06 67 00 c6 63 00 e6 60 00 76     .|..n..g..c..`.v
     c4f:	60 00 3e 60 00 1e 60 00 0e 60 00 05 ff ff 07 ff     `.>`..`..`......
     c5f:	ff 07 01 00 04 01 00 04 01 00 04 08 03 00 00 1f     ................
     c6f:	00 00 fe 00 00 f0 07 00 80 3f 00 00 fc 01 00 e0     .........?......
     c7f:	03 00 00 03 05 01 00 04 01 00 04 01 00 04 ff ff     ................
     c8f:	07 ff ff 07 0c 80 00 00 c0 00 00 60 00 00 38 00     ...........`..8.
     c9f:	00 0c 00 00 06 00 00 06 00 00 1c 00 00 38 00 00     .............8..
     caf:	60 00 00 c0 00 00 80 00 00 0c 00 00 02 00 00 02     `...............
     cbf:	00 00 02 00 00 02 00 00 02 00 00 02 00 00 02 00     ................
     ccf:	00 02 00 00 02 00 00 02 00 00 02 00 00 02 04 01     ................
     cdf:	00 00 03 00 00 07 00 00 04 00 00 08 00 3c 00 30     .............<.0
     cef:	7e 00 30 67 00 30 63 00 30 63 00 30 33 00 e0 7f     ~.0g.0c.0c.03...
     cff:	00 e0 7f 00 09 ff 7f 00 ff 7f 00 60 20 00 30 60     ...........` .0`
     d0f:	00 30 60 00 30 60 00 70 70 00 e0 3f 00 c0 0f 00     .0`.0`.pp..?....
     d1f:	08 80 0f 00 e0 3f 00 60 30 00 30 60 00 30 60 00     .....?.`0.0`.0`.
     d2f:	30 60 00 30 60 00 60 30 00 09 80 1f 00 e0 3f 00     0`.0`.`0......?.
     d3f:	70 70 00 30 60 00 30 60 00 30 60 00 30 30 00 ff     pp.0`.0`.0`.00..
     d4f:	7f 00 ff 7f 00 09 80 0f 00 e0 3f 00 60 33 00 30     ..........?.`3.0
     d5f:	63 00 30 63 00 30 63 00 70 63 00 e0 63 00 c0 33     c.0c.0c.pc..c..3
     d6f:	00 06 30 00 00 fe 7f 00 ff 7f 00 33 00 00 33 00     ..0........3..3.
     d7f:	00 03 00 00 09 80 1f 00 e0 3f 06 70 70 06 30 60     .........?.pp.0`
     d8f:	06 30 60 06 30 60 06 30 30 07 f0 ff 03 f0 ff 01     .0`.0`.00.......
     d9f:	08 ff 7f 00 ff 7f 00 60 00 00 30 00 00 30 00 00     .......`..0..0..
     daf:	30 00 00 f0 7f 00 e0 7f 00 02 f6 7f 00 f6 7f 00     0...............
     dbf:	05 00 00 06 30 00 06 30 00 06 f6 ff 07 f6 ff 03     ....0..0........
     dcf:	09 ff 7f 00 ff 7f 00 00 06 00 00 07 00 80 0f 00     ................
     ddf:	c0 38 00 70 70 00 30 60 00 10 40 00 02 ff 7f 00     .8.pp.0`..@.....
     def:	ff 7f 00 0e f0 7f 00 f0 7f 00 60 00 00 30 00 00     ..........`..0..
     dff:	30 00 00 30 00 00 f0 7f 00 e0 7f 00 60 00 00 30     0..0........`..0
     e0f:	00 00 30 00 00 30 00 00 f0 7f 00 e0 7f 00 08 f0     ..0..0..........
     e1f:	7f 00 f0 7f 00 60 00 00 30 00 00 30 00 00 30 00     .....`..0..0..0.
     e2f:	00 f0 7f 00 e0 7f 00 0a 80 0f 00 e0 3f 00 60 30     ............?.`0
     e3f:	00 30 60 00 30 60 00 30 60 00 30 60 00 60 30 00     .0`.0`.0`.0`.`0.
     e4f:	e0 3f 00 80 0f 00 09 f0 ff 07 f0 ff 07 60 60 00     .?...........``.
     e5f:	30 60 00 30 60 00 30 60 00 70 70 00 e0 3f 00 c0     0`.0`.0`.pp..?..
     e6f:	0f 00 09 80 1f 00 e0 3f 00 70 70 00 30 60 00 30     .......?.pp.0`.0
     e7f:	60 00 30 60 00 30 30 00 f0 ff 07 f0 ff 07 06 f0     `.0`.00.........
     e8f:	7f 00 f0 7f 00 60 00 00 30 00 00 30 00 00 30 00     .....`..0..0..0.
     e9f:	00 08 c0 31 00 e0 63 00 30 63 00 30 63 00 30 66     ...1..c.0c.0c.0f
     eaf:	00 30 66 00 30 3e 00 60 1c 00 06 30 00 00 fe 3f     .0f.0>.`...0...?
     ebf:	00 fe 7f 00 30 60 00 30 60 00 30 60 00 08 f0 1f     ....0`.0`.0`....
     ecf:	00 f0 7f 00 00 60 00 00 60 00 00 60 00 00 30 00     .....`..`..`..0.
     edf:	f0 7f 00 f0 7f 00 09 10 00 00 f0 00 00 e0 07 00     ................
     eef:	00 3e 00 00 60 00 00 3e 00 e0 07 00 f0 00 00 10     .>..`..>........
     eff:	00 00 0e 30 00 00 f0 03 00 c0 3f 00 00 78 00 00     ...0......?..x..
     f0f:	7c 00 80 07 00 f0 00 00 f0 00 00 c0 07 00 00 3c     |..............<
     f1f:	00 00 70 00 c0 3f 00 f0 03 00 30 00 00 09 10 40     ..p..?....0....@
     f2f:	00 30 60 00 f0 78 00 c0 1d 00 00 07 00 c0 1d 00     .0`..x..........
     f3f:	f0 78 00 30 60 00 10 40 00 09 10 00 00 f0 00 00     .x.0`..@........
     f4f:	e0 07 06 00 bf 07 00 f0 01 00 3f 00 e0 07 00 f0     ..........?.....
     f5f:	00 00 10 00 00 08 30 70 00 30 78 00 30 7c 00 30     ......0p.0x.0|.0
     f6f:	66 00 30 63 00 f0 61 00 f0 60 00 70 60 00           f.0c..a..`.p`.

00000f7d <Verdana8>:
     f7d:	01 02 20 5f 0b 00 c3 00 c6 00 c9 00 d0 00 df 00     .. _............
     f8d:	ea 00 ff 01 0e 01 11 01 18 01 1f 01 2a 01 39 01     ............*.9.
     f9d:	3e 01 45 01 48 01 53 01 5e 01 69 01 74 01 7f 01     >.E.H.S.^.i.t...
     fad:	8c 01 97 01 a2 01 ad 01 b8 01 c3 01 c6 01 cb 01     ................
     fbd:	d8 01 e7 01 f4 01 fd 02 0e 02 1b 02 28 02 37 02     ............(.7.
     fcd:	46 02 51 02 5c 02 6b 02 78 02 7f 02 88 02 95 02     F.Q.\.k.x.......
     fdd:	a0 02 af 02 bc 02 cb 02 d6 02 e5 02 f2 02 ff 03     ................
     fed:	0e 03 1b 03 28 03 3b 03 48 03 57 03 64 03 6b 03     ....(.;.H.W.d.k.
     ffd:	76 03 7d 03 8c 03 9b 03 a0 03 ab 03 b6 03 c1 03     v.}.............
    100d:	cc 03 d7 03 e0 03 eb 03 f6 03 f9 04 00 04 0b 04     ................
    101d:	0e 04 21 04 2c 04 37 04 42 04 4d 04 56 04 5f 04     ..!.,.7.B.M.V._.
    102d:	68 04 73 04 7e 04 8d 04 98 04 a3 04 ac 04 b7 04     h.s.~...........
    103d:	ba 04 c5 01 00 00 01 7e 01 03 07 00 00 00 07 00     .......~........
    104d:	07 40 00 c8 01 78 00 ce 01 78 00 4e 00 08 00 05     .@...x...x.N....
    105d:	18 01 24 01 ff 07 24 01 c4 00 0a 0c 00 12 00 12     ..$...$.........
    106d:	00 8c 01 60 00 18 00 c6 00 20 01 20 01 c0 00 07     ...`..... . ....
    107d:	ec 00 12 01 12 01 2c 01 c0 00 b0 00 00 01 01 07     ......,.........
    108d:	00 03 f8 00 06 03 01 04 03 01 04 06 03 f8 00 05     ................
    109d:	0a 00 04 00 1f 00 04 00 0a 00 07 20 00 20 00 20     ........... . . 
    10ad:	00 fc 01 20 00 20 00 20 00 02 00 04 80 03 03 20     ... . . ....... 
    10bd:	00 20 00 20 00 01 80 01 05 00 03 c0 00 30 00 0c     . . .........0..
    10cd:	00 03 00 05 fc 00 02 01 02 01 02 01 fc 00 05 04     ................
    10dd:	01 04 01 fe 01 00 01 00 01 05 84 01 42 01 22 01     ............B.".
    10ed:	12 01 0c 01 05 84 00 02 01 12 01 12 01 ec 00 06     ................
    10fd:	60 00 50 00 48 00 44 00 fe 01 40 00 05 9e 00 12     `.P.H.D...@.....
    110d:	01 12 01 12 01 e2 00 05 f8 00 14 01 12 01 12 01     ................
    111d:	e0 00 05 02 00 82 01 62 00 1a 00 06 00 05 ec 00     .......b........
    112d:	12 01 12 01 12 01 ec 00 05 1c 00 22 01 22 01 a2     ..........."."..
    113d:	00 7c 00 01 98 01 02 00 04 98 03 06 20 00 20 00     .|.......... . .
    114d:	50 00 50 00 88 00 88 00 07 50 00 50 00 50 00 50     P.P......P.P.P.P
    115d:	00 50 00 50 00 50 00 06 88 00 88 00 50 00 50 00     .P.P.P......P.P.
    116d:	20 00 20 00 04 02 00 62 01 12 00 0c 00 08 f8 00      . ....b........
    117d:	04 01 72 02 8a 02 8a 02 7a 02 82 00 7c 00 06 c0     ..r.....z...|...
    118d:	01 78 00 46 00 46 00 78 00 c0 01 06 fe 01 12 01     .x.F.F.x........
    119d:	12 01 12 01 1c 01 e0 00 07 78 00 84 00 02 01 02     .........x......
    11ad:	01 02 01 02 01 84 00 07 fe 01 02 01 02 01 02 01     ................
    11bd:	02 01 84 00 78 00 05 fe 01 12 01 12 01 12 01 12     ....x...........
    11cd:	01 05 fe 01 12 00 12 00 12 00 02 00 07 78 00 84     .............x..
    11dd:	00 02 01 02 01 22 01 22 01 e4 00 06 fe 01 10 00     ....."."........
    11ed:	10 00 10 00 10 00 fe 01 03 02 01 fe 01 02 01 04     ................
    11fd:	00 01 02 01 02 01 fe 00 06 fe 01 20 00 30 00 48     ........... .0.H
    120d:	00 84 00 02 01 05 fe 01 00 01 00 01 00 01 00 01     ................
    121d:	07 fe 01 06 00 18 00 60 00 18 00 06 00 fe 01 06     .......`........
    122d:	fe 01 06 00 18 00 60 00 80 01 fe 01 07 78 00 84     ......`......x..
    123d:	00 02 01 02 01 02 01 84 00 78 00 05 fe 01 22 00     .........x....".
    124d:	22 00 22 00 1c 00 07 78 00 84 00 02 01 02 01 02     "."....x........
    125d:	03 84 04 78 04 06 fe 01 22 00 22 00 62 00 9c 00     ...x....".".b...
    126d:	00 01 06 8c 00 12 01 12 01 22 01 22 01 c4 00 07     ........."."....
    127d:	02 00 02 00 02 00 fe 01 02 00 02 00 02 00 06 fe     ................
    128d:	00 00 01 00 01 00 01 00 01 fe 00 06 0e 00 70 00     ..............p.
    129d:	80 01 80 01 70 00 0e 00 09 06 00 78 00 80 01 78     ....p......x...x
    12ad:	00 06 00 78 00 80 01 78 00 06 00 06 86 01 48 00     ...x...x......H.
    12bd:	30 00 30 00 48 00 86 01 07 02 00 04 00 08 00 f0     0.0.H...........
    12cd:	01 08 00 04 00 02 00 06 82 01 42 01 22 01 12 01     ..........B."...
    12dd:	0a 01 06 01 03 ff 07 01 04 01 04 05 03 00 0c 00     ................
    12ed:	30 00 c0 00 00 03 03 01 04 01 04 ff 07 07 10 00     0...............
    12fd:	08 00 04 00 02 00 04 00 08 00 10 00 07 00 04 00     ................
    130d:	04 00 04 00 04 00 04 00 04 00 04 02 01 00 02 00     ................
    131d:	05 c0 00 28 01 28 01 28 01 f0 01 05 ff 01 08 01     ...(.(.(........
    132d:	08 01 08 01 f0 00 05 f0 00 08 01 08 01 08 01 90     ................
    133d:	00 05 f0 00 08 01 08 01 08 01 ff 01 05 f0 00 28     ...............(
    134d:	01 28 01 28 01 b0 00 04 08 00 fe 01 09 00 09 00     .(.(............
    135d:	05 f0 00 08 05 08 05 08 05 f8 03 05 ff 01 08 00     ................
    136d:	08 00 08 00 f0 01 01 f9 01 03 00 04 08 04 f9 03     ................
    137d:	05 ff 01 40 00 60 00 90 00 08 01 01 ff 01 09 f8     ...@.`..........
    138d:	01 08 00 08 00 08 00 f0 01 08 00 08 00 08 00 f0     ................
    139d:	01 05 f8 01 08 00 08 00 08 00 f0 01 05 f0 00 08     ................
    13ad:	01 08 01 08 01 f0 00 05 f8 07 08 01 08 01 08 01     ................
    13bd:	f0 00 05 f0 00 08 01 08 01 08 01 f8 07 04 f8 01     ................
    13cd:	10 00 08 00 08 00 04 30 01 28 01 48 01 c8 00 04     .......0.(.H....
    13dd:	08 00 fe 00 08 01 08 01 05 f8 00 00 01 00 01 00     ................
    13ed:	01 f8 01 05 18 00 60 00 80 01 60 00 18 00 07 78     ......`...`....x
    13fd:	00 80 01 60 00 18 00 60 00 80 01 78 00 05 08 01     ...`...`...x....
    140d:	90 00 60 00 90 00 08 01 05 08 00 70 04 80 03 70     ..`........p...p
    141d:	00 08 00 04 88 01 48 01 28 01 18 01                 ......H.(...

00001429 <lcd_commmands>:
    1429:	af 40 a0 a6 a4 a2 ee c8 2f 24 ac 00 f8 00           .@....../$....

00001437 <pagemap>:
    1437:	07 06 05 04 03 02 01 00                             ........

0000143f <text_menu>:
    143f:	e0 20 43 1a 3e 1a 39 1a 34 1a 2f 1a 2a 1a 25 1a     . C.>.9.4./.*.%.
    144f:	20 1a c2 23 ba 23 c0 23 be 23 bc 23 b5 23 b0 23      ..#.#.#.#.#.#.#
    145f:	ab 23 a6 23 a2 1c c2 1c bd 1c b7 1c a4 20 cc 23     .#.#......... .#
    146f:	c4 23 da 21 fb 21 f6 21 f0 21 ec 21 e8 21 e4 21     .#.!.!.!.!.!.!.!
    147f:	08 1d ff 1c 10 1d f8 1c f3 1c 69 1a 64 1a 5f 1a     ..........i.d._.
    148f:	5a 1a 55 1a 4f 1a 49 1a df 1c 48 1a 3c 1d 34 1d     Z.U.O.I...H.<.4.
    149f:	3c 1f 37 1f 34 1f 2a 1f 20 1f 97 1a 8f 1a 8a 1a     <.7.4.*. .......
    14af:	27 1d 22 1d 19 1d 78 1c df 21 6c 1c 2a 20 26 20     '."...x..!l.* & 
    14bf:	20 20 17 20 10 20 05 20 e0 20 dd 20 af 1a b6 1a       . . . . . ....
    14cf:	a5 1a 0b 19 48 1a cf 1c c8 1c 95 23 83 23 70 23     ....H......#.#p#
    14df:	5e 23 48 23 39 23 25 23 11 23 07 23 f4 22 e5 22     ^#H#9#%#.#.#."."
    14ef:	d6 22 c7 22 b8 22 a9 22 9a 22 8b 22 7c 22 68 22     ."."."."."."|"h"
    14ff:	4f 22 36 22 21 22 0e 22 00 22 48 1a 48 1a 48 1a     O"6"!"."."H.H.H.
    150f:	48 1a 10 1d 08 1d ff 1c f8 1c f3 1c ee 1c e9 1c     H...............
    151f:	e4 1c df 1c d8 1c d2 1c 48 1a 48 1a ab 1c 9d 1a     ........H.H.....
    152f:	8a 1a 34 1c 28 1c 48 1a e5 1b dc 1b d3 1b cf 1b     ..4.(.H.........
    153f:	c6 1b be 1b f5 1f ee 1f e4 1f dd 1f af 1c 4d 1c     ..............M.
    154f:	3f 1c 3a 1c 20 1c 15 1c 48 1a bf 1a b6 1a f6 21     ?.:. ...H......!
    155f:	f0 21 ec 21 d4 20 9a 1f ca 20 bf 20 b0 20 4f 20     .!.!. ... . . O 
    156f:	3f 20 94 20 84 20 73 20 60 20 2f 20 d0 1f c3 1f     ? . . s ` / ....
    157f:	b9 1f b1 1f a4 1f 6d 1f 6d 1a 90 1f 86 1f 7a 1f     ......m.m.....z.
    158f:	65 1f 5d 1f 48 1a 48 1a d2 21 ca 21 bc 21 af 21     e.].H.H..!.!.!.!
    159f:	9f 21 85 21 7c 21 73 21 64 21 56 21 45 21 39 21     .!.!|!s!d!V!E!9!
    15af:	32 21 2b 21 1e 21 12 21 08 21 fe 20 f4 20 e4 20     2!+!.!.!.!. . . 
    15bf:	18 1f 08 1f f8 1e ea 1e da 1e ca 1e ba 1e aa 1e     ................
    15cf:	9a 1e 8a 1e 7c 1e 6e 1e 5f 1e 50 1e 43 1e 36 1e     ....|.n._.P.C.6.
    15df:	2a 1e 1e 1e 06 1e f9 1d eb 1d dd 1d d0 1d c5 1d     *...............
    15ef:	b8 1d ad 1d a0 1d c5 1d 93 1d ad 1d 48 1a 48 1a     ............H.H.
    15ff:	48 1a 48 1a 3c 1d 34 1d 2e 1d 95 19 10 1c 0b 1c     H.H.<.4.........
    160f:	06 1c 01 1c fc 1b f7 1b f2 1b ed 1b 48 1a 48 1a     ............H.H.
    161f:	48 1a 48 1a 48 1a 48 1a 48 1a 48 1a 48 1a 48 1a     H.H.H.H.H.H.H.H.
    162f:	48 1a 48 1a 48 1a 48 1a 48 1a df 1c 3c 1d 34 1d     H.H.H.H.H...<.4.
    163f:	2e 1d 48 1a 48 1a 63 1c 5a 1c 98 1c 92 1c 86 1c     ..H.H.c.Z.......
    164f:	ed 23 e7 23 d4 20 de 23 dc 23 da 23 85 1a 81 1a     .#.#. .#.#.#....
    165f:	7a 1a 13 1a 0c 1a 02 1a 1a 1a fa 19 48 1a 48 1a     z...........H.H.
    166f:	a0 23 e0 19 d3 19 48 1a cc 19 be 19 ad 19 a0 19     .#....H.........
    167f:	48 1a d1 23 48 1a 9a 19 48 1a 48 1a 48 1a b5 1b     H..#H...H.H.H...
    168f:	ac 1b a2 1b 98 1b 8e 1b 84 1b 7c 1b 71 1b 66 1b     ..........|.q.f.
    169f:	5a 1b 4e 1b 43 1b 38 1b 2c 1b 23 1b 18 1b 0e 1b     Z.N.C.8.,.#.....
    16af:	03 1b fb 1a f1 1a e6 1a db 1a d2 1a c6 1a 48 1a     ..............H.
    16bf:	cf 1c 7c 19 87 19 48 1a 50 1f 43 1f 41 1f 3f 1f     ..|...H.P.C.A.?.
    16cf:	d2 21 ca 21 bc 21 af 21 90 21 85 21 7c 21 73 21     .!.!.!.!.!.!|!s!
    16df:	64 21 56 21 45 21 39 21 32 21 2b 21 1e 21 12 21     d!V!E!9!2!+!.!.!
    16ef:	08 21 fe 20 f4 20 e4 20 18 1f 08 1f f8 1e ea 1e     .!. . . ........
    16ff:	da 1e ca 1e ba 1e aa 1e 9a 1e 8a 1e 7c 1e 6e 1e     ............|.n.
    170f:	5f 1e 50 1e 43 1e 36 1e 13 1e 1e 1e 06 1e f9 1d     _.P.C.6.........
    171f:	eb 1d dd 1d d0 1d c5 1d b8 1d ad 1d a0 1d c5 1d     ................
    172f:	93 1d ad 1d 48 1a 48 1a 48 1a 48 1a 48 1a 48 1a     ....H.H.H.H.H.H.
    173f:	74 18 65 18 56 18 47 18 38 18 29 18 1a 18 0b 18     t.e.V.G.8.).....
    174f:	48 1a 48 1a 48 1a 48 1a 2a 20 26 20 20 20 17 20     H.H.H.H.* &   . 
    175f:	10 20 05 20 01 20 6a 19 58 19 44 19 30 19 20 19     . . . j.X.D.0. .
    176f:	10 19 48 1a 07 19 03 19 ff 18 fb 18 f6 18 f1 18     ..H.............
    177f:	ec 18 e7 18 df 1c 48 1a 48 1a 07 19 d4 18 cc 18     ......H.H.......
    178f:	dc 18 07 19 03 19 ff 18 fb 18 f6 18 f1 18 ec 18     ................
    179f:	e7 18 8a 1d 80 1d 78 1d 72 1d 6c 1d 5e 1d 55 1d     ......x.r.l.^.U.
    17af:	44 1d df 1c 07 19 d4 18 cc 18 dc 18 07 19 03 19     D...............
    17bf:	ff 18 fb 18 f6 18 f1 18 ec 18 e7 18 8a 1d 80 1d     ................
    17cf:	78 1d 66 1d 6c 1d 4e 1d 55 1d 44 1d df 1c 48 1a     x.f.l.N.U.D...H.
    17df:	48 1a 48 1a 48 1a 48 1a c9 18 c6 18 c3 18 c0 18     H.H.H.H.........
    17ef:	bd 18 ba 18 b7 18 b4 18 b0 18 ab 18 a6 18 a1 18     ................
    17ff:	9c 18 97 18 92 18 8d 18 88 18 83 18                 ............

0000180b <Ch8>:
    180b:	43 68 2e 38 20 46 75 6e 63 74 69 6f 6e 3a 00        Ch.8 Function:.

0000181a <Ch7>:
    181a:	43 68 2e 37 20 46 75 6e 63 74 69 6f 6e 3a 00        Ch.7 Function:.

00001829 <Ch6>:
    1829:	43 68 2e 36 20 46 75 6e 63 74 69 6f 6e 3a 00        Ch.6 Function:.

00001838 <Ch5>:
    1838:	43 68 2e 35 20 46 75 6e 63 74 69 6f 6e 3a 00        Ch.5 Function:.

00001847 <Ch4>:
    1847:	43 68 2e 34 20 46 75 6e 63 74 69 6f 6e 3a 00        Ch.4 Function:.

00001856 <Ch3>:
    1856:	43 68 2e 33 20 46 75 6e 63 74 69 6f 6e 3a 00        Ch.3 Function:.

00001865 <Ch2>:
    1865:	43 68 2e 32 20 46 75 6e 63 74 69 6f 6e 3a 00        Ch.2 Function:.

00001874 <Ch1>:
    1874:	43 68 2e 31 20 46 75 6e 63 74 69 6f 6e 3a 00        Ch.1 Function:.

00001883 <O7>:
    1883:	41 58 33 3a 00                                      AX3:.

00001888 <O6>:
    1888:	41 58 32 3a 00                                      AX2:.

0000188d <O5>:
    188d:	41 58 31 3a 00                                      AX1:.

00001892 <O4>:
    1892:	47 45 52 3a 00                                      GER:.

00001897 <O3>:
    1897:	52 55 44 3a 00                                      RUD:.

0000189c <O2>:
    189c:	45 4c 45 3a 00                                      ELE:.

000018a1 <O1>:
    18a1:	41 49 4c 3a 00                                      AIL:.

000018a6 <O0>:
    18a6:	54 48 52 3a 00                                      THR:.

000018ab <I10>:
    18ab:	4f 55 54 3a 00                                      OUT:.

000018b0 <I9>:
    18b0:	50 6e 3a 00                                         Pn:.

000018b4 <I8>:
    18b4:	38 3a 00                                            8:.

000018b7 <I7>:
    18b7:	37 3a 00                                            7:.

000018ba <I6>:
    18ba:	36 3a 00                                            6:.

000018bd <I5>:
    18bd:	35 3a 00                                            5:.

000018c0 <I4>:
    18c0:	34 3a 00                                            4:.

000018c3 <I3>:
    18c3:	33 3a 00                                            3:.

000018c6 <I2>:
    18c6:	32 3a 00                                            2:.

000018c9 <I1>:
    18c9:	31 3a 00                                            1:.

000018cc <Uni4>:
    18cc:	43 75 72 76 65 20 44 00                             Curve D.

000018d4 <Uni3>:
    18d4:	43 75 72 76 65 20 43 00                             Curve C.

000018dc <Uni1>:
    18dc:	43 6f 6c 6c 65 63 74 69 76 65 00                    Collective.

000018e7 <Chan7>:
    18e7:	41 55 58 33 00                                      AUX3.

000018ec <Chan6>:
    18ec:	41 55 58 32 00                                      AUX2.

000018f1 <Chan5>:
    18f1:	41 55 58 31 00                                      AUX1.

000018f6 <Chan4>:
    18f6:	47 45 41 52 00                                      GEAR.

000018fb <Chan3>:
    18fb:	52 55 44 00                                         RUD.

000018ff <Chan2>:
    18ff:	45 4c 45 00                                         ELE.

00001903 <Chan1>:
    1903:	41 49 4c 00                                         AIL.

00001907 <Chan0>:
    1907:	54 48 52 00                                         THR.

0000190b <Misc_1>:
    190b:	43 52 43 3a 00                                      CRC:.

00001910 <Curve_5>:
    1910:	47 65 6e 65 72 69 63 20 43 75 72 76 65 20 44 00     Generic Curve D.

00001920 <Curve_4>:
    1920:	47 65 6e 65 72 69 63 20 43 75 72 76 65 20 43 00     Generic Curve C.

00001930 <Curve_3>:
    1930:	50 32 20 43 6f 6c 6c 65 63 74 69 76 65 20 43 75     P2 Collective Cu
    1940:	72 76 65 00                                         rve.

00001944 <Curve_2>:
    1944:	50 31 20 43 6f 6c 6c 65 63 74 69 76 65 20 43 75     P1 Collective Cu
    1954:	72 76 65 00                                         rve.

00001958 <Curve_1>:
    1958:	50 32 20 54 68 72 6f 74 74 6c 65 20 43 75 72 76     P2 Throttle Curv
    1968:	65 00                                               e.

0000196a <Curve_0>:
    196a:	50 31 20 54 68 72 6f 74 74 6c 65 20 43 75 72 76     P1 Throttle Curv
    197a:	65 00                                               e.

0000197c <Reference_1>:
    197c:	45 61 72 74 68 20 72 65 66 2e 00                    Earth ref..

00001987 <Reference_0>:
    1987:	56 65 72 74 2e 20 41 50 20 72 65 66 2e 00           Vert. AP ref..

00001995 <Misc_Msg01>:
    1995:	41 6c 74 2e 00                                      Alt..

0000199a <ERROR_MSG_0>:
    199a:	43 6c 65 61 72 00                                   Clear.

000019a0 <ERROR_3>:
    19a0:	44 69 73 61 72 6d 20 74 69 6d 65 72 00              Disarm timer.

000019ad <ERROR_2>:
    19ad:	4e 6f 20 73 69 67 6e 61 6c 20 64 69 73 61 72 6d     No signal disarm
	...

000019be <ERROR_1>:
    19be:	4d 61 6e 75 61 6c 20 64 69 73 61 72 6d 00           Manual disarm.

000019cc <ERROR_0>:
    19cc:	52 65 62 6f 6f 74 00                                Reboot.

000019d3 <WARNING_1>:
    19d3:	52 45 4d 4f 56 45 20 50 52 4f 50 53 00              REMOVE PROPS.

000019e0 <WARNING_0>:
    19e0:	57 41 52 4e 49 4e 47 20 2d 20 45 72 61 73 65 73     WARNING - Erases
    19f0:	20 73 65 74 74 69 6e 67 73 00                        settings.

000019fa <PRESET_4>:
    19fa:	4f 70 74 69 6f 6e 73 00                             Options.

00001a02 <PRESET_3>:
    1a02:	54 72 69 63 6f 70 74 65 72 00                       Tricopter.

00001a0c <PRESET_2>:
    1a0c:	51 75 61 64 20 50 00                                Quad P.

00001a13 <PRESET_1>:
    1a13:	51 75 61 64 20 58 00                                Quad X.

00001a1a <PRESET_0>:
    1a1a:	42 6c 61 6e 6b 00                                   Blank.

00001a20 <VBAT39>:
    1a20:	33 2e 39 56 00                                      3.9V.

00001a25 <VBAT38>:
    1a25:	33 2e 38 56 00                                      3.8V.

00001a2a <VBAT37>:
    1a2a:	33 2e 37 56 00                                      3.7V.

00001a2f <VBAT36>:
    1a2f:	33 2e 36 56 00                                      3.6V.

00001a34 <VBAT35>:
    1a34:	33 2e 35 56 00                                      3.5V.

00001a39 <VBAT34>:
    1a39:	33 2e 34 56 00                                      3.4V.

00001a3e <VBAT33>:
    1a3e:	33 2e 33 56 00                                      3.3V.

00001a43 <VBAT32>:
    1a43:	33 2e 32 56 00                                      3.2V.

00001a48 <Dummy0>:
	...

00001a49 <MPU6050LPF7>:
    1a49:	32 36 30 48 7a 00                                   260Hz.

00001a4f <MPU6050LPF6>:
    1a4f:	31 38 34 48 7a 00                                   184Hz.

00001a55 <MPU6050LPF5>:
    1a55:	39 34 48 7a 00                                      94Hz.

00001a5a <MPU6050LPF4>:
    1a5a:	34 34 48 7a 00                                      44Hz.

00001a5f <MPU6050LPF3>:
    1a5f:	32 31 48 7a 00                                      21Hz.

00001a64 <MPU6050LPF2>:
    1a64:	31 30 48 7a 00                                      10Hz.

00001a69 <MPU6050LPF1>:
    1a69:	35 48 7a 00                                         5Hz.

00001a6d <GeneralText10>:
    1a6d:	4d 50 55 36 30 35 30 20 4c 50 46 3a 00              MPU6050 LPF:.

00001a7a <Random12>:
    1a7a:	73 69 67 6e 61 6c 00                                signal.

00001a81 <Random11>:
    1a81:	6c 6f 77 00                                         low.

00001a85 <Random10>:
    1a85:	68 69 67 68 00                                      high.

00001a8a <Random1>:
    1a8a:	48 69 67 68 00                                      High.

00001a8f <Safety2>:
    1a8f:	41 72 6d 61 62 6c 65 00                             Armable.

00001a97 <Safety1>:
    1a97:	41 72 6d 65 64 00                                   Armed.

00001a9d <GeneralText5>:
    1a9d:	53 79 6e 63 20 52 43 00                             Sync RC.

00001aa5 <MixerItem16>:
    1aa5:	52 65 76 53 63 61 6c 65 64 00                       RevScaled.

00001aaf <MixerItem15>:
    1aaf:	53 63 61 6c 65 64 00                                Scaled.

00001ab6 <MixerItem12>:
    1ab6:	52 65 76 65 72 73 65 64 00                          Reversed.

00001abf <MixerItem11>:
    1abf:	4e 6f 72 6d 61 6c 00                                Normal.

00001ac6 <Orientation24>:
    1ac6:	52 69 67 68 74 2d 46 72 6f 6e 74 00                 Right-Front.

00001ad2 <Orientation23>:
    1ad2:	52 69 67 68 74 2d 55 70 00                          Right-Up.

00001adb <Orientation22>:
    1adb:	52 69 67 68 74 2d 42 61 63 6b 00                    Right-Back.

00001ae6 <Orientation21>:
    1ae6:	52 69 67 68 74 2d 44 6f 77 6e 00                    Right-Down.

00001af1 <Orientation20>:
    1af1:	4c 65 66 74 2d 42 61 63 6b 00                       Left-Back.

00001afb <Orientation19>:
    1afb:	4c 65 66 74 2d 55 70 00                             Left-Up.

00001b03 <Orientation18>:
    1b03:	4c 65 66 74 2d 46 72 6f 6e 74 00                    Left-Front.

00001b0e <Orientation17>:
    1b0e:	4c 65 66 74 2d 44 6f 77 6e 00                       Left-Down.

00001b18 <Orientation16>:
    1b18:	46 72 6f 6e 74 2d 4c 65 66 74 00                    Front-Left.

00001b23 <Orientation15>:
    1b23:	46 72 6f 6e 74 2d 55 70 00                          Front-Up.

00001b2c <Orientation14>:
    1b2c:	46 72 6f 6e 74 2d 52 69 67 68 74 00                 Front-Right.

00001b38 <Orientation13>:
    1b38:	46 72 6f 6e 74 2d 44 6f 77 6e 00                    Front-Down.

00001b43 <Orientation12>:
    1b43:	42 6f 74 74 2e 2d 4c 65 66 74 00                    Bott.-Left.

00001b4e <Orientation11>:
    1b4e:	42 6f 74 74 2e 2d 46 72 6f 6e 74 00                 Bott.-Front.

00001b5a <Orientation10>:
    1b5a:	42 6f 74 74 2e 2d 52 69 67 68 74 00                 Bott.-Right.

00001b66 <Orientation9>:
    1b66:	42 6f 74 74 2e 2d 42 61 63 6b 00                    Bott.-Back.

00001b71 <Orientation8>:
    1b71:	42 61 63 6b 2d 52 69 67 68 74 00                    Back-Right.

00001b7c <Orientation7>:
    1b7c:	42 61 63 6b 2d 55 70 00                             Back-Up.

00001b84 <Orientation6>:
    1b84:	42 61 63 6b 2d 4c 65 66 74 00                       Back-Left.

00001b8e <Orientation5>:
    1b8e:	42 61 63 6b 2d 44 6f 77 6e 00                       Back-Down.

00001b98 <Orientation4>:
    1b98:	54 6f 70 2d 52 69 67 68 74 00                       Top-Right.

00001ba2 <Orientation3>:
    1ba2:	54 6f 70 2d 46 72 6f 6e 74 00                       Top-Front.

00001bac <Orientation2>:
    1bac:	54 6f 70 2d 4c 65 66 74 00                          Top-Left.

00001bb5 <Orientation1>:
    1bb5:	54 6f 70 2d 52 65 61 72 00                          Top-Rear.

00001bbe <MixerMenuItem7>:
    1bbe:	50 69 74 63 68 55 70 00                             PitchUp.

00001bc6 <MixerMenuItem6>:
    1bc6:	53 69 64 65 77 61 79 73 00                          Sideways.

00001bcf <MixerMenuItem5>:
    1bcf:	41 66 74 00                                         Aft.

00001bd3 <MixerMenuItem4>:
    1bd3:	49 6e 76 65 72 74 65 64 00                          Inverted.

00001bdc <MixerMenuItem3>:
    1bdc:	56 65 72 74 69 63 61 6c 00                          Vertical.

00001be5 <MixerMenuItem2>:
    1be5:	46 6f 72 77 61 72 64 00                             Forward.

00001bed <MOUT8>:
    1bed:	4f 55 54 38 00                                      OUT8.

00001bf2 <MOUT7>:
    1bf2:	4f 55 54 37 00                                      OUT7.

00001bf7 <MOUT6>:
    1bf7:	4f 55 54 36 00                                      OUT6.

00001bfc <MOUT5>:
    1bfc:	4f 55 54 35 00                                      OUT5.

00001c01 <MOUT4>:
    1c01:	4f 55 54 34 00                                      OUT4.

00001c06 <MOUT3>:
    1c06:	4f 55 54 33 00                                      OUT3.

00001c0b <MOUT2>:
    1c0b:	4f 55 54 32 00                                      OUT2.

00001c10 <MOUT1>:
    1c10:	4f 55 54 31 00                                      OUT1.

00001c15 <Status5>:
    1c15:	28 44 69 73 61 72 6d 65 64 29 00                    (Disarmed).

00001c20 <Status4>:
    1c20:	28 41 72 6d 65 64 29 00                             (Armed).

00001c28 <Status2>:
    1c28:	66 6f 72 20 73 74 61 74 75 73 2e 00                 for status..

00001c34 <Status0>:
    1c34:	50 72 65 73 73 00                                   Press.

00001c3a <WizardText2>:
    1c3a:	44 6f 6e 65 00                                      Done.

00001c3f <WizardText1>:
    1c3f:	48 6f 6c 64 20 61 73 20 73 68 6f 77 6e 00           Hold as shown.

00001c4d <WizardText0>:
    1c4d:	4e 6f 20 52 58 20 73 69 67 6e 61 6c 00              No RX signal.

00001c5a <PText6>:
    1c5a:	73 65 74 74 69 6e 67 73 00                          settings.

00001c63 <PText5>:
    1c63:	55 70 64 61 74 69 6e 67 00                          Updating.

00001c6c <PText4>:
    1c6c:	43 61 6c 2e 20 66 61 69 6c 65 64 00                 Cal. failed.

00001c78 <PText3>:
    1c78:	45 53 43 20 63 61 6c 69 62 72 61 74 65 00           ESC calibrate.

00001c86 <PText2>:
    1c86:	48 6f 6c 64 20 73 74 65 61 64 79 00                 Hold steady.

00001c92 <PText1>:
    1c92:	52 65 73 65 74 00                                   Reset.

00001c98 <PText0>:
    1c98:	4f 70 65 6e 41 65 72 6f 32 00                       OpenAero2.

00001ca2 <Disarmed>:
    1ca2:	44 69 73 61 72 6d 65 64 00                          Disarmed.

00001cab <ErrorText10>:
    1cab:	4c 6f 77 00                                         Low.

00001caf <Status3>:
    1caf:	42 61 74 74 65 72 79 00                             Battery.

00001cb7 <ErrorText7>:
    1cb7:	4d 6f 64 65 6c 00                                   Model.

00001cbd <ErrorText6>:
    1cbd:	4c 6f 73 74 00                                      Lost.

00001cc2 <ErrorText5>:
    1cc2:	45 72 72 6f 72 00                                   Error.

00001cc8 <ErrorText4>:
    1cc8:	53 69 67 6e 61 6c 00                                Signal.

00001ccf <ErrorText3>:
    1ccf:	4e 6f 00                                            No.

00001cd2 <ChannelRef12>:
    1cd2:	45 6c 65 76 2e 00                                   Elev..

00001cd8 <ChannelRef10>:
    1cd8:	54 68 72 6f 74 2e 00                                Throt..

00001cdf <ChannelRef8>:
    1cdf:	4e 6f 6e 65 00                                      None.

00001ce4 <ChannelRef7>:
    1ce4:	41 55 58 33 00                                      AUX3.

00001ce9 <ChannelRef6>:
    1ce9:	41 55 58 32 00                                      AUX2.

00001cee <ChannelRef5>:
    1cee:	41 55 58 31 00                                      AUX1.

00001cf3 <ChannelRef4>:
    1cf3:	47 65 61 72 00                                      Gear.

00001cf8 <ChannelRef3>:
    1cf8:	52 75 64 64 65 72 00                                Rudder.

00001cff <ChannelRef2>:
    1cff:	45 6c 65 76 61 74 6f 72 00                          Elevator.

00001d08 <ChannelRef1>:
    1d08:	41 69 6c 65 72 6f 6e 00                             Aileron.

00001d10 <ChannelRef0>:
    1d10:	54 68 72 6f 74 74 6c 65 00                          Throttle.

00001d19 <MixerItem62>:
    1d19:	53 71 72 74 53 69 6e 65 00                          SqrtSine.

00001d22 <MixerItem61>:
    1d22:	53 69 6e 65 00                                      Sine.

00001d27 <MixerItem60>:
    1d27:	4c 69 6e 65 61 72 00                                Linear.

00001d2e <MixerItem49>:
    1d2e:	4d 6f 74 6f 72 00                                   Motor.

00001d34 <MixerItem41>:
    1d34:	44 2e 53 65 72 76 6f 00                             D.Servo.

00001d3c <MixerItem40>:
    1d3c:	41 2e 53 65 72 76 6f 00                             A.Servo.

00001d44 <MixerItem420>:
    1d44:	41 6c 74 2e 20 64 61 6d 70 00                       Alt. damp.

00001d4e <MixerItem800>:
    1d4e:	41 4c 20 59 61 77 00                                AL Yaw.

00001d55 <MixerItem81>:
    1d55:	41 4c 20 50 69 74 63 68 00                          AL Pitch.

00001d5e <MixerItem80>:
    1d5e:	41 4c 20 52 6f 6c 6c 00                             AL Roll.

00001d66 <MixerItemP730>:
    1d66:	41 63 63 20 5a 00                                   Acc Z.

00001d6c <MixerItemP74>:
    1d6c:	41 63 63 20 59 00                                   Acc Y.

00001d72 <MixerItemP73>:
    1d72:	41 63 63 20 58 00                                   Acc X.

00001d78 <MixerItem72>:
    1d78:	47 79 72 6f 59 61 77 00                             GyroYaw.

00001d80 <MixerItem71>:
    1d80:	47 79 72 6f 50 69 74 63 68 00                       GyroPitch.

00001d8a <MixerItem70>:
    1d8a:	47 79 72 6f 52 6f 6c 6c 00                          GyroRoll.

00001d93 <MixerItem31>:
    1d93:	50 32 20 53 6f 75 72 63 65 20 42 3a 00              P2 Source B:.

00001da0 <MixerItem21>:
    1da0:	50 31 20 53 6f 75 72 63 65 20 42 3a 00              P1 Source B:.

00001dad <MixerItem30>:
    1dad:	50 32 20 56 6f 6c 75 6d 65 3a 00                    P2 Volume:.

00001db8 <MixerItem29>:
    1db8:	50 32 20 53 6f 75 72 63 65 20 41 3a 00              P2 Source A:.

00001dc5 <MixerItem2>:
    1dc5:	50 31 20 56 6f 6c 75 6d 65 3a 00                    P1 Volume:.

00001dd0 <MixerItem0>:
    1dd0:	50 31 20 53 6f 75 72 63 65 20 41 3a 00              P1 Source A:.

00001ddd <MixerItem43>:
    1ddd:	50 32 20 41 6c 74 2e 20 64 61 6d 70 3a 00           P2 Alt. damp:.

00001deb <MixerItem42>:
    1deb:	50 31 20 41 6c 74 2e 20 64 61 6d 70 3a 00           P1 Alt. damp:.

00001df9 <MixerItem28>:
    1df9:	50 32 20 50 69 74 63 68 20 41 4c 3a 00              P2 Pitch AL:.

00001e06 <MixerItem3>:
    1e06:	50 31 20 50 69 74 63 68 20 41 4c 3a 00              P1 Pitch AL:.

00001e13 <MixerItem700>:
    1e13:	50 31 20 59 61 77 20 41 4c 3a 00                    P1 Yaw AL:.

00001e1e <MixerItem27>:
    1e1e:	50 32 20 52 6f 6c 6c 20 41 4c 3a 00                 P2 Roll AL:.

00001e2a <MixerItem7>:
    1e2a:	50 31 20 52 6f 6c 6c 20 41 4c 3a 00                 P1 Roll AL:.

00001e36 <MixerItem26>:
    1e36:	50 32 20 59 61 77 20 67 79 72 6f 3a 00              P2 Yaw gyro:.

00001e43 <MixerItem6>:
    1e43:	50 31 20 59 61 77 20 67 79 72 6f 3a 00              P1 Yaw gyro:.

00001e50 <MixerItem25>:
    1e50:	50 32 20 50 69 74 63 68 20 67 79 72 6f 3a 00        P2 Pitch gyro:.

00001e5f <MixerItem5>:
    1e5f:	50 31 20 50 69 74 63 68 20 67 79 72 6f 3a 00        P1 Pitch gyro:.

00001e6e <MixerItem24>:
    1e6e:	50 32 20 52 6f 6c 6c 20 67 79 72 6f 3a 00           P2 Roll gyro:.

00001e7c <MixerItem4>:
    1e7c:	50 31 20 52 6f 6c 6c 20 67 79 72 6f 3a 00           P1 Roll gyro:.

00001e8a <MixerItem56>:
    1e8a:	50 32 20 52 75 64 2e 20 76 6f 6c 75 6d 65 3a 00     P2 Rud. volume:.

00001e9a <MixerItem53>:
    1e9a:	50 31 20 52 75 64 2e 20 76 6f 6c 75 6d 65 3a 00     P1 Rud. volume:.

00001eaa <MixerItem55>:
    1eaa:	50 32 20 45 6c 65 2e 20 76 6f 6c 75 6d 65 3a 00     P2 Ele. volume:.

00001eba <MixerItem52>:
    1eba:	50 31 20 45 6c 65 2e 20 76 6f 6c 75 6d 65 3a 00     P1 Ele. volume:.

00001eca <MixerItem54>:
    1eca:	50 32 20 41 69 6c 2e 20 76 6f 6c 75 6d 65 3a 00     P2 Ail. volume:.

00001eda <MixerItem51>:
    1eda:	50 31 20 41 69 6c 2e 20 76 6f 6c 75 6d 65 3a 00     P1 Ail. volume:.

00001eea <Mixeritem50>:
    1eea:	54 72 61 6e 73 2e 20 63 75 72 76 65 3a 00           Trans. curve:.

00001ef8 <MixerItem33>:
    1ef8:	50 32 20 54 68 72 2e 20 76 6f 6c 75 6d 65 3a 00     P2 Thr. volume:.

00001f08 <MixerItem23>:
    1f08:	50 31 20 54 68 72 2e 20 76 6f 6c 75 6d 65 3a 00     P1 Thr. volume:.

00001f18 <MixerItem1>:
    1f18:	44 65 76 69 63 65 3a 00                             Device:.

00001f20 <P5text>:
    1f20:	50 31 2e 6e 20 2d 20 50 32 00                       P1.n - P2.

00001f2a <P4text>:
    1f2a:	50 31 20 2d 20 50 31 2e 6e 00                       P1 - P1.n.

00001f34 <P3text>:
    1f34:	50 32 00                                            P2.

00001f37 <P2text>:
    1f37:	50 31 2e 6e 00                                      P1.n.

00001f3c <P1text>:
    1f3c:	50 31 00                                            P1.

00001f3f <AdvancedDummy1>:
    1f3f:	20 00                                                .

00001f41 <AdvancedDummy0>:
    1f41:	20 00                                                .

00001f43 <MixerMenuItem8>:
    1f43:	50 31 20 72 65 66 72 6e 63 65 2e 3a 00              P1 refrnce.:.

00001f50 <MixerMenuItem1>:
    1f50:	50 31 20 6f 72 69 65 6e 74 6e 2e 3a 00              P1 orientn.:.

00001f5d <GeneralText21>:
    1f5d:	42 75 7a 7a 65 72 3a 00                             Buzzer:.

00001f65 <GeneralText20>:
    1f65:	50 72 65 73 65 74 3a 00                             Preset:.

00001f6d <BattMenuItem2>:
    1f6d:	4c 6f 77 20 56 20 61 6c 61 72 6d 3a 00              Low V alarm:.

00001f7a <GeneralText7>:
    1f7a:	41 4c 20 63 6f 72 72 65 63 74 3a 00                 AL correct:.

00001f86 <GeneralText16>:
    1f86:	47 79 72 6f 20 4c 50 46 3a 00                       Gyro LPF:.

00001f90 <GeneralText6>:
    1f90:	41 63 63 2e 20 4c 50 46 3a 00                       Acc. LPF:.

00001f9a <GeneralText3>:
    1f9a:	50 57 4d 20 72 61 74 65 3a 00                       PWM rate:.

00001fa4 <GeneralText2>:
    1fa4:	44 69 73 61 72 6d 20 74 69 6d 65 3a 00              Disarm time:.

00001fb1 <AutoMenuItem2>:
    1fb1:	53 61 66 65 74 79 3a 00                             Safety:.

00001fb9 <Contrast>:
    1fb9:	43 6f 6e 74 72 61 73 74 3a 00                       Contrast:.

00001fc3 <GeneralText100>:
    1fc3:	54 61 69 6c 20 73 69 74 74 65 72 3a 00              Tail sitter:.

00001fd0 <MixerMenuItem0>:
    1fd0:	4f 72 69 65 6e 74 61 74 69 6f 6e 3a 00              Orientation:.

00001fdd <RCMenuItem9>:
    1fdd:	43 75 73 74 6f 6d 00                                Custom.

00001fe4 <RCMenuItem8>:
    1fe4:	4d 75 6c 74 69 70 6c 65 78 00                       Multiplex.

00001fee <RCMenuItem7>:
    1fee:	46 75 74 61 62 61 00                                Futaba.

00001ff5 <RCMenuItem6>:
    1ff5:	4a 52 2f 53 70 65 6b 74 72 75 6d 00                 JR/Spektrum.

00002001 <RXMode6>:
    2001:	52 41 57 00                                         RAW.

00002005 <RXMode5>:
    2005:	4d 6f 64 65 20 42 2f 55 44 49 00                    Mode B/UDI.

00002010 <RXMode4>:
    2010:	58 74 72 65 6d 65 00                                Xtreme.

00002017 <RXMode3>:
    2017:	53 70 65 6b 74 72 75 6d 00                          Spektrum.

00002020 <RXMode2>:
    2020:	53 2d 42 75 73 00                                   S-Bus.

00002026 <RXMode1>:
    2026:	50 57 4d 00                                         PWM.

0000202a <RXMode0>:
    202a:	43 50 50 4d 00                                      CPPM.

0000202f <RCMenuItem300>:
    202f:	41 63 63 56 65 72 74 20 66 69 6c 74 65 72 3a 00     AccVert filter:.

0000203f <TransitionIn>:
    203f:	49 6e 62 6f 75 6e 64 20 74 72 61 6e 73 2e 3a 00     Inbound trans.:.

0000204f <TransitionOut>:
    204f:	4f 75 74 62 6f 75 6e 64 20 74 72 61 6e 73 2e 3a     Outbound trans.:
	...

00002060 <RCMenuItem30>:
    2060:	56 69 62 72 61 74 69 6f 6e 20 64 69 73 70 6c 61     Vibration displa
    2070:	79 3a 00                                            y:.

00002073 <Transition_P2>:
    2073:	54 72 61 6e 73 69 74 69 6f 6e 20 68 69 67 68 3a     Transition high:
	...

00002084 <Transition_P1n>:
    2084:	54 72 61 6e 73 69 74 69 6f 6e 20 6d 69 64 3a 00     Transition mid:.

00002094 <Transition_P1>:
    2094:	54 72 61 6e 73 69 74 69 6f 6e 20 6c 6f 77 3a 00     Transition low:.

000020a4 <Transition>:
    20a4:	54 72 61 6e 73 69 74 69 6f 6e 3a 00                 Transition:.

000020b0 <RCMenuItem2>:
    20b0:	50 72 6f 66 69 6c 65 20 63 68 61 6e 2e 3a 00        Profile chan.:.

000020bf <RCMenuItem0>:
    20bf:	43 68 2e 20 6f 72 64 65 72 3a 00                    Ch. order:.

000020ca <RCMenuItem20>:
    20ca:	50 57 4d 20 73 79 6e 63 3a 00                       PWM sync:.

000020d4 <RCMenuItem1>:
    20d4:	52 58 20 74 79 70 65 3a 00                          RX type:.

000020dd <AutoMenuItem15>:
    20dd:	4f 4e 00                                            ON.

000020e0 <AutoMenuItem11>:
    20e0:	4f 46 46 00                                         OFF.

000020e4 <StabMenuItem132>:
    20e4:	5a 2d 61 78 69 73 20 49 20 6c 69 6d 69 74 3a 00     Z-axis I limit:.

000020f4 <StabMenuItem131>:
    20f4:	5a 2d 61 78 69 73 20 49 3a 00                       Z-axis I:.

000020fe <StabMenuItem13>:
    20fe:	5a 2d 61 78 69 73 20 50 3a 00                       Z-axis P:.

00002108 <StabMenuItem30>:
    2108:	59 61 77 20 74 72 69 6d 3a 00                       Yaw trim:.

00002112 <StabMenuItem9>:
    2112:	59 61 77 20 49 20 72 61 74 65 3a 00                 Yaw I rate:.

0000211e <StabMenuItem12>:
    211e:	59 61 77 20 49 20 6c 69 6d 69 74 3a 00              Yaw I limit:.

0000212b <StabMenuItem8>:
    212b:	59 61 77 20 49 3a 00                                Yaw I:.

00002132 <StabMenuItem7>:
    2132:	59 61 77 20 50 3a 00                                Yaw P:.

00002139 <AutoMenuItem8>:
    2139:	50 69 74 63 68 20 74 72 69 6d 3a 00                 Pitch trim:.

00002145 <AutoMenuItem21>:
    2145:	50 69 74 63 68 20 61 75 74 6f 6c 65 76 65 6c 3a     Pitch autolevel:
	...

00002156 <StabMenuItem6>:
    2156:	50 69 74 63 68 20 49 20 72 61 74 65 3a 00           Pitch I rate:.

00002164 <StabMenuItem11>:
    2164:	50 69 74 63 68 20 49 20 6c 69 6d 69 74 3a 00        Pitch I limit:.

00002173 <StabMenuItem5>:
    2173:	50 69 74 63 68 20 49 3a 00                          Pitch I:.

0000217c <AutoMenuItem4>:
    217c:	50 69 74 63 68 20 50 3a 00                          Pitch P:.

00002185 <AutoMenuItem7>:
    2185:	52 6f 6c 6c 20 74 72 69 6d 3a 00                    Roll trim:.

00002190 <AutoMenuItem200>:
    2190:	59 61 77 20 61 75 74 6f 6c 65 76 65 6c 3a 00        Yaw autolevel:.

0000219f <AutoMenuItem20>:
    219f:	52 6f 6c 6c 20 61 75 74 6f 6c 65 76 65 6c 3a 00     Roll autolevel:.

000021af <StabMenuItem3>:
    21af:	52 6f 6c 6c 20 49 20 72 61 74 65 3a 00              Roll I rate:.

000021bc <StabMenuItem10>:
    21bc:	52 6f 6c 6c 20 49 20 6c 69 6d 69 74 3a 00           Roll I limit:.

000021ca <StabMenuItem2>:
    21ca:	52 6f 6c 6c 20 49 3a 00                             Roll I:.

000021d2 <AutoMenuItem1>:
    21d2:	52 6f 6c 6c 20 50 3a 00                             Roll P:.

000021da <SensorMenuItem2>:
    21da:	49 6e 76 2e 00                                      Inv..

000021df <SensorMenuItem1>:
    21df:	43 61 6c 2e 00                                      Cal..

000021e4 <PText20>:
    21e4:	49 4d 55 00                                         IMU.

000021e8 <PText19>:
    21e8:	41 63 63 00                                         Acc.

000021ec <PText18>:
    21ec:	59 61 77 00                                         Yaw.

000021f0 <PText17>:
    21f0:	50 69 74 63 68 00                                   Pitch.

000021f6 <PText16>:
    21f6:	52 6f 6c 6c 00                                      Roll.

000021fb <PText15>:
    21fb:	47 79 72 6f 00                                      Gyro.

00002200 <MainMenuItem24>:
    2200:	32 34 2e 20 45 72 72 6f 72 20 6c 6f 67 00           24. Error log.

0000220e <MainMenuItem31>:
    220e:	32 33 2e 20 49 6e 2f 4f 75 74 20 64 69 73 70 6c     23. In/Out displ
    221e:	61 79 00                                            ay.

00002221 <MainMenuItem32>:
    2221:	32 32 2e 20 43 75 73 74 6f 6d 20 43 68 2e 20 6f     22. Custom Ch. o
    2231:	72 64 65 72 00                                      rder.

00002236 <MainMenuItem23>:
    2236:	32 31 2e 20 50 6f 73 2e 20 53 65 72 76 6f 20 74     21. Pos. Servo t
    2246:	72 76 6c 2e 20 28 25 29 00                          rvl. (%).

0000224f <MainMenuItem22>:
    224f:	32 30 2e 20 4e 65 67 2e 20 53 65 72 76 6f 20 74     20. Neg. Servo t
    225f:	72 76 6c 2e 20 28 25 29 00                          rvl. (%).

00002268 <MainMenuItem20>:
    2268:	31 39 2e 20 53 65 72 76 6f 20 64 69 72 65 63 74     19. Servo direct
    2278:	69 6f 6e 00                                         ion.

0000227c <MainMenuItem18>:
    227c:	31 38 2e 20 4f 55 54 38 20 4d 69 78 65 72 00        18. OUT8 Mixer.

0000228b <MainMenuItem17>:
    228b:	31 37 2e 20 4f 55 54 37 20 4d 69 78 65 72 00        17. OUT7 Mixer.

0000229a <MainMenuItem16>:
    229a:	31 36 2e 20 4f 55 54 36 20 4d 69 78 65 72 00        16. OUT6 Mixer.

000022a9 <MainMenuItem15>:
    22a9:	31 35 2e 20 4f 55 54 35 20 4d 69 78 65 72 00        15. OUT5 Mixer.

000022b8 <MainMenuItem14>:
    22b8:	31 34 2e 20 4f 55 54 34 20 4d 69 78 65 72 00        14. OUT4 Mixer.

000022c7 <MainMenuItem13>:
    22c7:	31 33 2e 20 4f 55 54 33 20 4d 69 78 65 72 00        13. OUT3 Mixer.

000022d6 <MainMenuItem12>:
    22d6:	31 32 2e 20 4f 55 54 32 20 4d 69 78 65 72 00        12. OUT2 Mixer.

000022e5 <MainMenuItem11>:
    22e5:	31 31 2e 20 4f 55 54 31 20 4d 69 78 65 72 00        11. OUT1 Mixer.

000022f4 <MainMenuItem25>:
    22f4:	31 30 2e 20 4f 75 74 70 75 74 20 6f 66 66 73 65     10. Output offse
    2304:	74 73 00                                            ts.

00002307 <MainMenuItem30>:
    2307:	39 2e 20 43 75 72 76 65 73 00                       9. Curves.

00002311 <MainMenuItem3>:
    2311:	38 2e 20 46 6c 69 67 68 74 20 70 72 6f 66 69 6c     8. Flight profil
    2321:	65 20 32 00                                         e 2.

00002325 <MainMenuItem2>:
    2325:	37 2e 20 46 6c 69 67 68 74 20 70 72 6f 66 69 6c     7. Flight profil
    2335:	65 20 31 00                                         e 1.

00002339 <MainMenuItem10>:
    2339:	36 2e 20 4c 65 76 65 6c 20 6d 65 74 65 72 00        6. Level meter.

00002348 <MainMenuItem8>:
    2348:	35 2e 20 53 65 6e 73 6f 72 20 63 61 6c 69 62 72     5. Sensor calibr
    2358:	61 74 69 6f 6e 00                                   ation.

0000235e <MainMenuItem7>:
    235e:	34 2e 20 53 74 69 63 6b 20 70 6f 6c 61 72 69 74     4. Stick polarit
    236e:	79 00                                               y.

00002370 <MainMenuItem9>:
    2370:	33 2e 20 52 65 63 65 69 76 65 72 20 69 6e 70 75     3. Receiver inpu
    2380:	74 73 00                                            ts.

00002383 <MainMenuItem1>:
    2383:	32 2e 20 52 65 63 65 69 76 65 72 20 73 65 74 75     2. Receiver setu
    2393:	70 00                                               p.

00002395 <MainMenuItem0>:
    2395:	31 2e 20 47 65 6e 65 72 61 6c 00                    1. General.

000023a0 <MenuFrame9>:
    23a0:	41 62 6f 72 74 00                                   Abort.

000023a6 <MenuFrame8>:
    23a6:	53 61 76 65 00                                      Save.

000023ab <MenuFrame7>:
    23ab:	44 65 66 2e 00                                      Def..

000023b0 <MenuFrame6>:
    23b0:	42 61 63 6b 00                                      Back.

000023b5 <MenuFrame5>:
    23b5:	4d 65 6e 75 00                                      Menu.

000023ba <MenuFrame1>:
    23ba:	45 00                                               E.

000023bc <MenuFrame4>:
    23bc:	44 00                                               D.

000023be <MenuFrame3>:
    23be:	43 00                                               C.

000023c0 <MenuFrame2>:
    23c0:	42 00                                               B.

000023c2 <MenuFrame0>:
    23c2:	41 00                                               A.

000023c4 <StatusText9>:
    23c4:	4a 69 74 74 65 72 3a 00                             Jitter:.

000023cc <StatusText8>:
    23cc:	50 6f 73 3a 00                                      Pos:.

000023d1 <StatusText7>:
    23d1:	42 61 74 74 65 72 79 3a 00                          Battery:.

000023da <StatusText5>:
    23da:	30 00                                               0.

000023dc <StatusText4>:
    23dc:	2e 00                                               ..

000023de <StatusText3>:
    23de:	50 72 6f 66 69 6c 65 3a 00                          Profile:.

000023e7 <StatusText1>:
    23e7:	4d 6f 64 65 3a 00                                   Mode:.

000023ed <StatusText0>:
    23ed:	56 65 72 73 69 6f 6e 3a 20 31 2e 34 00              Version: 1.4.

000023fa <Gyro_Pol>:
    23fa:	01 01 01 ff 01 01 ff ff 01 01 ff 01 ff 01 01 ff     ................
    240a:	01 ff ff ff ff ff ff 01 01 ff ff ff ff ff ff 01     ................
    241a:	ff 01 01 ff 01 ff 01 01 ff ff 01 01 ff 01 01 01     ................
    242a:	ff ff 01 ff ff ff 01 ff ff 01 ff 01 01 01 01 01     ................
    243a:	01 ff ff 01 ff ff 01 01                             ........

00002442 <Gyro_RPY_Order>:
    2442:	00 01 02 01 00 02 00 01 02 01 00 02 02 01 00 02     ................
    2452:	00 01 02 01 00 02 00 01 00 01 02 01 00 02 00 01     ................
    2462:	02 01 00 02 02 01 00 02 00 01 02 01 00 02 00 01     ................
    2472:	01 02 00 00 02 01 01 02 00 00 02 01 01 02 00 00     ................
    2482:	02 01 01 02 00 00 02 01                             ........

0000248a <LPF_lookup_HS>:
    248a:	e1 7a 08 41 c3 f5 90 40 29 5c 1f 40 71 3d ca 3f     .z.A...@)\.@q=.?
    249a:	52 b8 9e 3f 00 00 80 3f 00 00 80 3f 00 00 80 3f     R..?...?...?...?

000024aa <LPF_lookup>:
    24aa:	00 00 b8 41 ae 47 39 41 33 33 bb 40 66 66 46 40     ...A.G9A33.@ffF@
    24ba:	c3 f5 e8 3f cd cc ac 3f 52 b8 9e 3f 00 00 80 3f     ...?...?R..?...?

000024ca <Ch_menu_ranges>:
    24ca:	00 07 01 01 00 00 07 01 01 01 00 07 01 01 02 00     ................
    24da:	07 01 01 03 00 07 01 01 04 00 07 01 01 05 00 07     ................
    24ea:	01 01 06 00 07 01 01 07                             ........

000024f2 <ChMenuOffsets>:
    24f2:	55 00 55 00 55 00 55 00 55 00 55 00 55 00 55 00     U.U.U.U.U.U.U.U.

00002502 <ChMenuText>:
    2502:	69 00 69 00 69 00 69 00 69 00 69 00 69 00 69 00     i.i.i.i.i.i.i.i.

00002512 <Curves_menu_ranges>:
    2512:	00 64 01 00 00 00 64 01 00 11 00 64 01 00 21 00     .d....d....d..!.
    2522:	64 01 00 32 00 64 01 00 42 00 64 01 00 53 00 64     d..2.d..B.d..S.d
    2532:	01 00 64 00 00 01 01 00 00 64 01 00 00 00 64 01     ..d......d....d.
    2542:	00 11 00 64 01 00 21 00 64 01 00 32 00 64 01 00     ...d..!.d..2.d..
    2552:	42 00 64 01 00 53 00 64 01 00 64 00 00 01 01 00     B.d..S.d..d.....
    2562:	9c 64 01 00 9c 9c 64 01 00 be 9c 64 01 00 df 9c     .d....d....d....
    2572:	64 01 00 00 9c 64 01 00 21 9c 64 01 00 42 9c 64     d....d..!.d..B.d
    2582:	01 00 64 00 00 01 01 00 9c 64 01 00 9c 9c 64 01     ..d......d....d.
    2592:	00 be 9c 64 01 00 df 9c 64 01 00 00 9c 64 01 00     ...d....d....d..
    25a2:	21 9c 64 01 00 42 9c 64 01 00 64 00 00 01 01 00     !.d..B.d..d.....
    25b2:	9c 64 01 00 9c 9c 64 01 00 be 9c 64 01 00 df 9c     .d....d....d....
    25c2:	64 01 00 00 9c 64 01 00 21 9c 64 01 00 42 9c 64     d....d..!.d..B.d
    25d2:	01 00 64 04 14 01 01 14 9c 64 01 00 9c 9c 64 01     ..d......d....d.
    25e2:	00 be 9c 64 01 00 df 9c 64 01 00 00 9c 64 01 00     ...d....d....d..
    25f2:	21 9c 64 01 00 42 9c 64 01 00 64 04 14 01 01 14     !.d..B.d..d.....

00002602 <CurvesMenuOffsets>:
    2602:	80 00 80 00 80 00 80 00 80 00 80 00                 ............

0000260e <CurvesMenuText>:
	...

0000261a <lines>:
    261a:	03 0f 1b 27                                         ...'

0000261e <flight_menu_ranges>:
    261e:	00 7f 01 00 28 00 7f 01 00 0a 00 7d 01 00 0a 00     ....(......}....
    262e:	07 01 00 02 00 7f 01 00 0a 81 7f 01 00 00 00 7f     ................
    263e:	01 00 28 00 7f 01 00 0a 00 7d 01 00 0a 00 07 01     ..(......}......
    264e:	00 02 00 7f 01 00 0a 81 7f 01 00 00 00 7f 01 00     ................
    265e:	3c 00 7f 01 00 28 00 7d 01 00 19 00 07 01 00 02     <....(.}........
    266e:	81 7f 01 00 00 00 7f 01 00 28 00 7f 01 00 14 00     .........(......
    267e:	7d 01 00 0a                                         }...

00002682 <FlightMenuOffsets>:
    2682:	55 00 55 00 55 00 55 00 55 00 55 00 55 00 55 00     U.U.U.U.U.U.U.U.
    2692:	55 00 55 00 55 00 55 00 55 00 55 00 55 00 55 00     U.U.U.U.U.U.U.U.
    26a2:	55 00 55 00 55 00 55 00                             U.U.U.U.

000026aa <FlightMenuText>:
	...

000026d2 <mixer_menu_ranges>:
    26d2:	00 02 01 01 02 00 7d 01 00 64 00 7d 01 00 64 00     ......}..d.}..d.
    26e2:	02 01 01 00 83 7d 01 00 00 83 7d 01 00 00 83 7d     .....}....}....}
    26f2:	01 00 00 83 7d 01 00 00 83 7d 01 00 00 83 7d 01     ....}....}....}.
    2702:	00 00 00 02 01 01 00 00 02 01 01 00 00 02 01 01     ................
    2712:	00 00 02 01 01 00 00 02 01 01 00 00 02 01 01 00     ................
    2722:	00 02 01 01 00 00 02 01 01 00 00 02 01 01 00 00     ................
    2732:	02 01 01 00 00 02 01 01 00 00 02 01 01 00 01 14     ................
    2742:	01 01 14 83 7d 01 00 00 01 14 01 01 14 83 7d 01     ....}.........}.
    2752:	00 00 01 14 01 01 14 83 7d 01 00 00 01 14 01 01     ........}.......
    2762:	14 83 7d 01 00 00                                   ..}...

00002768 <MixerMenuOffsets>:
    2768:	55 00 5c 00 5c 00 5c 00 5c 00 5c 00 5c 00 5c 00     U.\.\.\.\.\.\.\.
    2778:	5c 00 5c 00 5c 00 5c 00 5c 00 5c 00 5c 00 5c 00     \.\.\.\.\.\.\.\.
    2788:	5c 00 5c 00 5c 00 5c 00 5c 00 5c 00 4d 00 4d 00     \.\.\.\.\.\.M.M.
    2798:	4d 00 4d 00 4d 00 4d 00 4d 00 4d 00                 M.M.M.M.M.M.

000027a4 <MixerMenuTextM>:
    27a4:	e2 00 00 00 00 00 38 00 00 00 00 00 00 00 00 00     ......8.........
    27b4:	00 00 00 00 44 00 44 00 44 00 44 00 44 00 44 00     ....D.D.D.D.D.D.
    27c4:	44 00 44 00 44 00 44 00 44 00 44 00 ba 01 00 00     D.D.D.D.D.D.....
    27d4:	a5 01 00 00 ba 01 00 00 a5 01 00 00                 ............

000027e0 <MixerMenuTextE>:
    27e0:	e2 00 00 00 00 00 38 00 00 00 00 00 00 00 00 00     ......8.........
    27f0:	00 00 00 00 44 00 44 00 44 00 44 00 44 00 44 00     ....D.D.D.D.D.D.
    2800:	44 00 44 00 44 00 44 00 44 00 44 00 a5 01 00 00     D.D.D.D.D.D.....
    2810:	a5 01 00 00 a5 01 00 00 a5 01 00 00                 ............

0000281c <Offsets_menu_ranges>:
    281c:	83 7d 01 00 00 83 7d 01 00 00 83 7d 01 00 00 83     .}....}....}....
    282c:	7d 01 00 00 83 7d 01 00 00 83 7d 01 00 00 83 7d     }....}....}....}
    283c:	01 00 00 00 00 01 01 00 83 7d 01 00 00 83 7d 01     .........}....}.
    284c:	00 00 83 7d 01 00 00 83 7d 01 00 00 83 7d 01 00     ...}....}....}..
    285c:	00 83 7d 01 00 00 83 7d 01 00 00 00 00 01 01 00     ..}....}........
    286c:	83 7d 01 00 00 83 7d 01 00 00 83 7d 01 00 00 83     .}....}....}....
    287c:	7d 01 00 00 83 7d 01 00 00 83 7d 01 00 00 83 7d     }....}....}....}
    288c:	01 00 00 00 00 01 01 00 83 7d 01 00 00 83 7d 01     .........}....}.
    289c:	00 00 83 7d 01 00 00 83 7d 01 00 00 83 7d 01 00     ...}....}....}..
    28ac:	00 83 7d 01 00 00 83 7d 01 00 00 00 00 01 01 00     ..}....}........
    28bc:	83 7d 01 00 00 83 7d 01 00 00 83 7d 01 00 00 83     .}....}....}....
    28cc:	7d 01 00 00 83 7d 01 00 00 83 7d 01 00 00 83 7d     }....}....}....}
    28dc:	01 00 00 00 00 01 01 00 83 7d 01 00 00 83 7d 01     .........}....}.
    28ec:	00 00 83 7d 01 00 00 83 7d 01 00 00 83 7d 01 00     ...}....}....}..
    28fc:	00 83 7d 01 00 00 83 7d 01 00 00 00 00 01 01 00     ..}....}........
    290c:	83 7d 01 00 00 83 7d 01 00 00 83 7d 01 00 00 83     .}....}....}....
    291c:	7d 01 00 00 83 7d 01 00 00 83 7d 01 00 00 83 7d     }....}....}....}
    292c:	01 00 00 00 00 01 01 00 83 7d 01 00 00 83 7d 01     .........}....}.
    293c:	00 00 83 7d 01 00 00 83 7d 01 00 00 83 7d 01 00     ...}....}....}..
    294c:	00 83 7d 01 00 00 83 7d 01 00 00 00 00 01 01 00     ..}....}........

0000295c <OffsetsMenuOffsets>:
    295c:	80 00 80 00 80 00 80 00 80 00 80 00 80 00 80 00     ................

0000296c <OffsetsMenuText>:
	...

0000297c <servo_menu_ranges>:
    297c:	00 01 01 01 00 83 00 01 03 9c 00 7d 01 03 64        ...........}..d

0000298b <ServoMenuOffsets>:
    298b:	50 00 50 00 50 00 50 00 50 00 50 00 50 00 50 00     P.P.P.P.P.P.P.P.
    299b:	50 00 50 00 50 00 50 00 50 00 50 00 50 00 50 00     P.P.P.P.P.P.P.P.
    29ab:	50 00 50 00 50 00 50 00 50 00 50 00 50 00 50 00     P.P.P.P.P.P.P.P.

000029bb <ServoMenuText>:
    29bb:	8d 00 8d 00 8d 00 8d 00 8d 00 8d 00 8d 00 8d 00     ................
	...

000029eb <P1_Orientation_LUT>:
    29eb:	04 05 06 07 0a 0b 08 09 0c 0d 0e 0f 02 03 00 01     ................
    29fb:	11 12 13 10 17 14 15 16                             ........

00002a03 <rc_menu_ranges>:
    2a03:	00 05 01 01 02 00 02 01 01 02 00 04 01 01 04 00     ................
    2a13:	03 01 01 00 00 07 01 01 04 00 28 01 00 00 00 28     ..........(....(
    2a23:	01 00 00 00 63 01 00 00 01 63 01 00 32 01 64 01     ....c....c..2.d.
    2a33:	00 64 00 01 01 01 00 00 7f 01 00 14 00 17 01 01     .d..............
    2a43:	00 00 02 01 01 00 1c 32 01 00 24 00 01 01 01 01     .......2..$.....
    2a53:	00 7f 01 00 1e 00 08 01 01 00 00 06 01 01 03 00     ................
    2a63:	07 01 01 02 00 07 01 01 07 02 0b 01 00 06 00 03     ................
    2a73:	01 04 00 00 01 01 01 01                             ........

00002a7b <RCMenuOffsets>:
    2a7b:	41 00 41 00 41 00 3c 00 4b 00 5f 00 5f 00 5f 00     A.A.A.<.K._._._.
    2a8b:	5f 00 5f 00 5f 00 5f 00 46 00 43 00 43 00 43 00     _._._._.F.C.C.C.
    2a9b:	50 00 50 00 50 00 50 00 50 00 50 00 50 00 50 00     P.P.P.P.P.P.P.P.

00002aab <RCMenuText>:
    2aab:	8c 01 76 00 69 00 82 00 69 00 00 00 00 00 00 00     ..v.i...i.......
    2abb:	00 00 00 00 44 00 00 00 27 01 40 01 00 00 35 00     ....D...'.@...5.
    2acb:	00 00 00 00 25 00 25 00 25 00 00 00 11 01 44 00     ....%.%.%.....D.

00002adb <SQRTSIN>:
    2adb:	00 0d 12 16 19 1c 1f 21 23 26 28 29 2b 2d 2f 30     .......!#&()+-/0
    2aeb:	32 33 35 36 38 39 3a 3b 3d 3e 3f 40 41 42 43 44     235689:;=>?@ABCD
    2afb:	45 46 47 48 49 4a 4b 4c 4d 4d 4e 4f 50 51 51 52     EFGHIJKLMMNOPQQR
    2b0b:	53 53 54 55 55 56 57 57 58 58 59 59 5a 5a 5b 5b     SSTUUVWWXXYYZZ[[
    2b1b:	5c 5c 5d 5d 5e 5e 5e 5f 5f 5f 60 60 60 61 61 61     \\]]^^^___```aaa
    2b2b:	62 62 62 62 62 63 63 63 63 63 63 63 64 64 64 64     bbbbbcccccccdddd
    2b3b:	64 64 64 64 64                                      ddddd

00002b40 <SIN>:
    2b40:	00 02 03 05 06 08 0a 0b 0d 0e 10 11 13 14 16 17     ................
    2b50:	19 1a 1c 1d 1f 20 22 23 25 26 28 29 2b 2c 2d 2f     ..... "#%&()+,-/
    2b60:	30 32 33 34 36 37 38 3a 3b 3c 3d 3f 40 41 42 43     0234678:;<=?@ABC
    2b70:	44 46 47 48 49 4a 4b 4c 4d 4e 4f 50 51 52 53 54     DFGHIJKLMNOPQRST
    2b80:	54 55 56 57 58 58 59 5a 5a 5b 5c 5c 5d 5e 5e 5f     TUVWXXYZZ[\\]^^_
    2b90:	5f 60 60 60 61 61 62 62 62 63 63 63 63 63 64 64     _```aabbbcccccdd
    2ba0:	64 64 64 64 64 00                                   ddddd.

00002ba6 <__ctors_end>:
    2ba6:	11 24       	eor	r1, r1
    2ba8:	1f be       	out	0x3f, r1	; 63
    2baa:	cf ef       	ldi	r28, 0xFF	; 255
    2bac:	d0 e1       	ldi	r29, 0x10	; 16
    2bae:	de bf       	out	0x3e, r29	; 62
    2bb0:	cd bf       	out	0x3d, r28	; 61

00002bb2 <wdt_init>:
    2bb2:	14 be       	out	0x34, r1	; 52
		);
	}
	else
	{
        uint8_t register temp_reg;
		__asm__ __volatile__ (
    2bb4:	0f b6       	in	r0, 0x3f	; 63
    2bb6:	f8 94       	cli
    2bb8:	a8 95       	wdr
    2bba:	80 91 60 00 	lds	r24, 0x0060
    2bbe:	88 61       	ori	r24, 0x18	; 24
    2bc0:	80 93 60 00 	sts	0x0060, r24
    2bc4:	10 92 60 00 	sts	0x0060, r1
    2bc8:	0f be       	out	0x3f, r0	; 63

00002bca <__do_copy_data>:
    2bca:	15 e0       	ldi	r17, 0x05	; 5
    2bcc:	a0 e0       	ldi	r26, 0x00	; 0
    2bce:	b1 e0       	ldi	r27, 0x01	; 1
    2bd0:	e4 e1       	ldi	r30, 0x14	; 20
    2bd2:	ff ed       	ldi	r31, 0xDF	; 223
    2bd4:	02 c0       	rjmp	.+4      	; 0x2bda <__do_copy_data+0x10>
    2bd6:	05 90       	lpm	r0, Z+
    2bd8:	0d 92       	st	X+, r0
    2bda:	a6 32       	cpi	r26, 0x26	; 38
    2bdc:	b1 07       	cpc	r27, r17
    2bde:	d9 f7       	brne	.-10     	; 0x2bd6 <__do_copy_data+0xc>

00002be0 <__do_clear_bss>:
    2be0:	29 e0       	ldi	r18, 0x09	; 9
    2be2:	a6 e2       	ldi	r26, 0x26	; 38
    2be4:	b5 e0       	ldi	r27, 0x05	; 5
    2be6:	01 c0       	rjmp	.+2      	; 0x2bea <.do_clear_bss_start>

00002be8 <.do_clear_bss_loop>:
    2be8:	1d 92       	st	X+, r1

00002bea <.do_clear_bss_start>:
    2bea:	a5 38       	cpi	r26, 0x85	; 133
    2bec:	b2 07       	cpc	r27, r18
    2bee:	e1 f7       	brne	.-8      	; 0x2be8 <.do_clear_bss_loop>
    2bf0:	0e 94 a8 2e 	call	0x5d50	; 0x5d50 <main>
    2bf4:	0c 94 88 6f 	jmp	0xdf10	; 0xdf10 <_exit>

00002bf8 <__bad_interrupt>:
    2bf8:	0c 94 00 00 	jmp	0	; 0x0 <__vectors>

00002bfc <glcd_delay>:
    2bfc:	00 00       	nop
    2bfe:	08 95       	ret

00002c00 <glcd_delay_1us>:
    2c00:	fd df       	rcall	.-6      	; 0x2bfc <glcd_delay>
    2c02:	fc df       	rcall	.-8      	; 0x2bfc <glcd_delay>
    2c04:	fb df       	rcall	.-10     	; 0x2bfc <glcd_delay>
    2c06:	fa df       	rcall	.-12     	; 0x2bfc <glcd_delay>
    2c08:	08 95       	ret

00002c0a <bind_master>:
    2c0a:	cf 93       	push	r28

00002c0c <master_loop>:
    2c0c:	58 98       	cbi	0x0b, 0	; 11
    2c0e:	c6 e7       	ldi	r28, 0x76	; 118
    2c10:	0e 94 12 16 	call	0x2c24	; 0x2c24 <VarDelay>
    2c14:	58 9a       	sbi	0x0b, 0	; 11
    2c16:	ca e7       	ldi	r28, 0x7A	; 122
    2c18:	0e 94 12 16 	call	0x2c24	; 0x2c24 <VarDelay>
    2c1c:	8a 95       	dec	r24
    2c1e:	b1 f7       	brne	.-20     	; 0x2c0c <master_loop>
    2c20:	cf 91       	pop	r28
    2c22:	08 95       	ret

00002c24 <VarDelay>:
    2c24:	00 c0       	rjmp	.+0      	; 0x2c26 <VarDelay+0x2>
    2c26:	00 c0       	rjmp	.+0      	; 0x2c28 <VarDelay+0x4>
    2c28:	00 c0       	rjmp	.+0      	; 0x2c2a <VarDelay+0x6>
    2c2a:	00 c0       	rjmp	.+0      	; 0x2c2c <VarDelay+0x8>
    2c2c:	00 c0       	rjmp	.+0      	; 0x2c2e <VarDelay+0xa>
    2c2e:	00 c0       	rjmp	.+0      	; 0x2c30 <VarDelay+0xc>
    2c30:	00 c0       	rjmp	.+0      	; 0x2c32 <VarDelay+0xe>
    2c32:	00 c0       	rjmp	.+0      	; 0x2c34 <VarDelay+0x10>
    2c34:	00 00       	nop
    2c36:	ca 95       	dec	r28
    2c38:	a9 f7       	brne	.-22     	; 0x2c24 <VarDelay>
    2c3a:	08 95       	ret

00002c3c <output_servo_ppm_asm>:
    2c3c:	f6 2e       	mov	r15, r22
    2c3e:	ef 93       	push	r30
    2c40:	ff 93       	push	r31
    2c42:	af 93       	push	r26
    2c44:	bf 93       	push	r27
    2c46:	cf 93       	push	r28
    2c48:	df 93       	push	r29
    2c4a:	0f 93       	push	r16
    2c4c:	1f 93       	push	r17
    2c4e:	2f 93       	push	r18
    2c50:	3f 93       	push	r19
    2c52:	4f 93       	push	r20
    2c54:	5f 93       	push	r21
    2c56:	6f 93       	push	r22
    2c58:	7f 93       	push	r23
    2c5a:	e8 2f       	mov	r30, r24
    2c5c:	f9 2f       	mov	r31, r25
    2c5e:	8f 93       	push	r24
    2c60:	9f 93       	push	r25
    2c62:	a1 91       	ld	r26, Z+
    2c64:	b1 91       	ld	r27, Z+
    2c66:	a6 5c       	subi	r26, 0xC6	; 198
    2c68:	b0 40       	sbci	r27, 0x00	; 0
    2c6a:	af 93       	push	r26
    2c6c:	bf 93       	push	r27
    2c6e:	a7 70       	andi	r26, 0x07	; 7
    2c70:	7a 2f       	mov	r23, r26
    2c72:	a1 91       	ld	r26, Z+
    2c74:	b1 91       	ld	r27, Z+
    2c76:	ae 5b       	subi	r26, 0xBE	; 190
    2c78:	b0 40       	sbci	r27, 0x00	; 0
    2c7a:	af 93       	push	r26
    2c7c:	bf 93       	push	r27
    2c7e:	a7 70       	andi	r26, 0x07	; 7
    2c80:	6a 2f       	mov	r22, r26
    2c82:	a1 91       	ld	r26, Z+
    2c84:	b1 91       	ld	r27, Z+
    2c86:	a6 5b       	subi	r26, 0xB6	; 182
    2c88:	b0 40       	sbci	r27, 0x00	; 0
    2c8a:	af 93       	push	r26
    2c8c:	bf 93       	push	r27
    2c8e:	a7 70       	andi	r26, 0x07	; 7
    2c90:	5a 2f       	mov	r21, r26
    2c92:	a1 91       	ld	r26, Z+
    2c94:	b1 91       	ld	r27, Z+
    2c96:	ae 5a       	subi	r26, 0xAE	; 174
    2c98:	b0 40       	sbci	r27, 0x00	; 0
    2c9a:	af 93       	push	r26
    2c9c:	bf 93       	push	r27
    2c9e:	a7 70       	andi	r26, 0x07	; 7
    2ca0:	4a 2f       	mov	r20, r26
    2ca2:	a1 91       	ld	r26, Z+
    2ca4:	b1 91       	ld	r27, Z+
    2ca6:	a5 5a       	subi	r26, 0xA5	; 165
    2ca8:	b0 40       	sbci	r27, 0x00	; 0
    2caa:	af 93       	push	r26
    2cac:	bf 93       	push	r27
    2cae:	a7 70       	andi	r26, 0x07	; 7
    2cb0:	3a 2f       	mov	r19, r26
    2cb2:	a1 91       	ld	r26, Z+
    2cb4:	b1 91       	ld	r27, Z+
    2cb6:	ad 59       	subi	r26, 0x9D	; 157
    2cb8:	b0 40       	sbci	r27, 0x00	; 0
    2cba:	af 93       	push	r26
    2cbc:	bf 93       	push	r27
    2cbe:	a7 70       	andi	r26, 0x07	; 7
    2cc0:	2a 2f       	mov	r18, r26
    2cc2:	a1 91       	ld	r26, Z+
    2cc4:	b1 91       	ld	r27, Z+
    2cc6:	a5 59       	subi	r26, 0x95	; 149
    2cc8:	b0 40       	sbci	r27, 0x00	; 0
    2cca:	af 93       	push	r26
    2ccc:	bf 93       	push	r27
    2cce:	a7 70       	andi	r26, 0x07	; 7
    2cd0:	1a 2f       	mov	r17, r26
    2cd2:	a1 91       	ld	r26, Z+
    2cd4:	b1 91       	ld	r27, Z+
    2cd6:	ad 58       	subi	r26, 0x8D	; 141
    2cd8:	b0 40       	sbci	r27, 0x00	; 0
    2cda:	af 93       	push	r26
    2cdc:	bf 93       	push	r27
    2cde:	a7 70       	andi	r26, 0x07	; 7
    2ce0:	0a 2f       	mov	r16, r26
    2ce2:	97 2f       	mov	r25, r23
    2ce4:	0e 94 8c 17 	call	0x2f18	; 0x2f18 <DelayHigh>
    2ce8:	f0 fc       	sbrc	r15, 0
    2cea:	46 9a       	sbi	0x08, 6	; 8
    2cec:	0e 94 98 17 	call	0x2f30	; 0x2f30 <DelayLow>
    2cf0:	96 2f       	mov	r25, r22
    2cf2:	0e 94 8c 17 	call	0x2f18	; 0x2f18 <DelayHigh>
    2cf6:	f1 fc       	sbrc	r15, 1
    2cf8:	44 9a       	sbi	0x08, 4	; 8
    2cfa:	0e 94 98 17 	call	0x2f30	; 0x2f30 <DelayLow>
    2cfe:	95 2f       	mov	r25, r21
    2d00:	0e 94 8c 17 	call	0x2f18	; 0x2f18 <DelayHigh>
    2d04:	f2 fc       	sbrc	r15, 2
    2d06:	42 9a       	sbi	0x08, 2	; 8
    2d08:	0e 94 98 17 	call	0x2f30	; 0x2f30 <DelayLow>
    2d0c:	94 2f       	mov	r25, r20
    2d0e:	0e 94 8c 17 	call	0x2f18	; 0x2f18 <DelayHigh>
    2d12:	f3 fc       	sbrc	r15, 3
    2d14:	43 9a       	sbi	0x08, 3	; 8
    2d16:	0e 94 98 17 	call	0x2f30	; 0x2f30 <DelayLow>
    2d1a:	93 2f       	mov	r25, r19
    2d1c:	0e 94 8c 17 	call	0x2f18	; 0x2f18 <DelayHigh>
    2d20:	f4 fc       	sbrc	r15, 4
    2d22:	14 9a       	sbi	0x02, 4	; 2
    2d24:	0e 94 98 17 	call	0x2f30	; 0x2f30 <DelayLow>
    2d28:	92 2f       	mov	r25, r18
    2d2a:	0e 94 8c 17 	call	0x2f18	; 0x2f18 <DelayHigh>
    2d2e:	f5 fc       	sbrc	r15, 5
    2d30:	15 9a       	sbi	0x02, 5	; 2
    2d32:	0e 94 98 17 	call	0x2f30	; 0x2f30 <DelayLow>
    2d36:	91 2f       	mov	r25, r17
    2d38:	0e 94 8c 17 	call	0x2f18	; 0x2f18 <DelayHigh>
    2d3c:	f6 fc       	sbrc	r15, 6
    2d3e:	45 9a       	sbi	0x08, 5	; 8
    2d40:	0e 94 98 17 	call	0x2f30	; 0x2f30 <DelayLow>
    2d44:	90 2f       	mov	r25, r16
    2d46:	0e 94 8c 17 	call	0x2f18	; 0x2f18 <DelayHigh>
    2d4a:	f7 fc       	sbrc	r15, 7
    2d4c:	47 9a       	sbi	0x08, 7	; 8
    2d4e:	0e 94 98 17 	call	0x2f30	; 0x2f30 <DelayLow>
    2d52:	0e 94 6b 17 	call	0x2ed6	; 0x2ed6 <pwm_delay>
    2d56:	0e 94 6b 17 	call	0x2ed6	; 0x2ed6 <pwm_delay>
    2d5a:	0e 94 6b 17 	call	0x2ed6	; 0x2ed6 <pwm_delay>
    2d5e:	bf 91       	pop	r27
    2d60:	af 91       	pop	r26
    2d62:	0e 94 85 17 	call	0x2f0a	; 0x2f0a <shuffle_8>
    2d66:	0a 2f       	mov	r16, r26
    2d68:	bf 91       	pop	r27
    2d6a:	af 91       	pop	r26
    2d6c:	0e 94 85 17 	call	0x2f0a	; 0x2f0a <shuffle_8>
    2d70:	1a 2f       	mov	r17, r26
    2d72:	bf 91       	pop	r27
    2d74:	af 91       	pop	r26
    2d76:	0e 94 85 17 	call	0x2f0a	; 0x2f0a <shuffle_8>
    2d7a:	2a 2f       	mov	r18, r26
    2d7c:	bf 91       	pop	r27
    2d7e:	af 91       	pop	r26
    2d80:	0e 94 85 17 	call	0x2f0a	; 0x2f0a <shuffle_8>
    2d84:	3a 2f       	mov	r19, r26
    2d86:	bf 91       	pop	r27
    2d88:	af 91       	pop	r26
    2d8a:	0e 94 85 17 	call	0x2f0a	; 0x2f0a <shuffle_8>
    2d8e:	4a 2f       	mov	r20, r26
    2d90:	bf 91       	pop	r27
    2d92:	af 91       	pop	r26
    2d94:	0e 94 85 17 	call	0x2f0a	; 0x2f0a <shuffle_8>
    2d98:	5a 2f       	mov	r21, r26
    2d9a:	bf 91       	pop	r27
    2d9c:	af 91       	pop	r26
    2d9e:	0e 94 85 17 	call	0x2f0a	; 0x2f0a <shuffle_8>
    2da2:	6a 2f       	mov	r22, r26
    2da4:	bf 91       	pop	r27
    2da6:	af 91       	pop	r26
    2da8:	0e 94 85 17 	call	0x2f0a	; 0x2f0a <shuffle_8>
    2dac:	7a 2f       	mov	r23, r26
    2dae:	cf ef       	ldi	r28, 0xFF	; 255
    2db0:	d0 e0       	ldi	r29, 0x00	; 0
    2db2:	00 24       	eor	r0, r0

00002db4 <nloop>:
    2db4:	71 50       	subi	r23, 0x01	; 1
    2db6:	19 f4       	brne	.+6      	; 0x2dbe <j1>
    2db8:	46 98       	cbi	0x08, 6	; 8
    2dba:	0c 94 e1 16 	jmp	0x2dc2	; 0x2dc2 <jj1>

00002dbe <j1>:
    2dbe:	00 c0       	rjmp	.+0      	; 0x2dc0 <j1+0x2>
    2dc0:	00 c0       	rjmp	.+0      	; 0x2dc2 <jj1>

00002dc2 <jj1>:
    2dc2:	61 50       	subi	r22, 0x01	; 1
    2dc4:	19 f4       	brne	.+6      	; 0x2dcc <j2>
    2dc6:	44 98       	cbi	0x08, 4	; 8
    2dc8:	0c 94 e8 16 	jmp	0x2dd0	; 0x2dd0 <jj2>

00002dcc <j2>:
    2dcc:	00 c0       	rjmp	.+0      	; 0x2dce <j2+0x2>
    2dce:	00 c0       	rjmp	.+0      	; 0x2dd0 <jj2>

00002dd0 <jj2>:
    2dd0:	51 50       	subi	r21, 0x01	; 1
    2dd2:	19 f4       	brne	.+6      	; 0x2dda <j3>
    2dd4:	42 98       	cbi	0x08, 2	; 8
    2dd6:	0c 94 ef 16 	jmp	0x2dde	; 0x2dde <jj3>

00002dda <j3>:
    2dda:	00 c0       	rjmp	.+0      	; 0x2ddc <j3+0x2>
    2ddc:	00 c0       	rjmp	.+0      	; 0x2dde <jj3>

00002dde <jj3>:
    2dde:	41 50       	subi	r20, 0x01	; 1
    2de0:	19 f4       	brne	.+6      	; 0x2de8 <j4>
    2de2:	43 98       	cbi	0x08, 3	; 8
    2de4:	0c 94 f6 16 	jmp	0x2dec	; 0x2dec <jj4>

00002de8 <j4>:
    2de8:	00 c0       	rjmp	.+0      	; 0x2dea <j4+0x2>
    2dea:	00 c0       	rjmp	.+0      	; 0x2dec <jj4>

00002dec <jj4>:
    2dec:	31 50       	subi	r19, 0x01	; 1
    2dee:	19 f4       	brne	.+6      	; 0x2df6 <j5>
    2df0:	14 98       	cbi	0x02, 4	; 2
    2df2:	0c 94 fd 16 	jmp	0x2dfa	; 0x2dfa <jj5>

00002df6 <j5>:
    2df6:	00 c0       	rjmp	.+0      	; 0x2df8 <j5+0x2>
    2df8:	00 c0       	rjmp	.+0      	; 0x2dfa <jj5>

00002dfa <jj5>:
    2dfa:	21 50       	subi	r18, 0x01	; 1
    2dfc:	19 f4       	brne	.+6      	; 0x2e04 <j6>
    2dfe:	15 98       	cbi	0x02, 5	; 2
    2e00:	0c 94 04 17 	jmp	0x2e08	; 0x2e08 <jj6>

00002e04 <j6>:
    2e04:	00 c0       	rjmp	.+0      	; 0x2e06 <j6+0x2>
    2e06:	00 c0       	rjmp	.+0      	; 0x2e08 <jj6>

00002e08 <jj6>:
    2e08:	11 50       	subi	r17, 0x01	; 1
    2e0a:	19 f4       	brne	.+6      	; 0x2e12 <j7>
    2e0c:	45 98       	cbi	0x08, 5	; 8
    2e0e:	0c 94 0b 17 	jmp	0x2e16	; 0x2e16 <jj7>

00002e12 <j7>:
    2e12:	00 c0       	rjmp	.+0      	; 0x2e14 <j7+0x2>
    2e14:	00 c0       	rjmp	.+0      	; 0x2e16 <jj7>

00002e16 <jj7>:
    2e16:	01 50       	subi	r16, 0x01	; 1
    2e18:	19 f4       	brne	.+6      	; 0x2e20 <j8>
    2e1a:	47 98       	cbi	0x08, 7	; 8
    2e1c:	0c 94 12 17 	jmp	0x2e24	; 0x2e24 <jj8>

00002e20 <j8>:
    2e20:	00 c0       	rjmp	.+0      	; 0x2e22 <j8+0x2>
    2e22:	00 c0       	rjmp	.+0      	; 0x2e24 <jj8>

00002e24 <jj8>:
    2e24:	0e 94 74 17 	call	0x2ee8	; 0x2ee8 <pad_100_delay>
    2e28:	c1 50       	subi	r28, 0x01	; 1
    2e2a:	d0 09       	sbc	r29, r0
    2e2c:	11 f0       	breq	.+4      	; 0x2e32 <skiploop>
    2e2e:	0c 94 da 16 	jmp	0x2db4	; 0x2db4 <nloop>

00002e32 <skiploop>:
    2e32:	9f 91       	pop	r25
    2e34:	8f 91       	pop	r24
    2e36:	7f 91       	pop	r23
    2e38:	6f 91       	pop	r22
    2e3a:	5f 91       	pop	r21
    2e3c:	4f 91       	pop	r20
    2e3e:	3f 91       	pop	r19
    2e40:	2f 91       	pop	r18
    2e42:	1f 91       	pop	r17
    2e44:	0f 91       	pop	r16
    2e46:	df 91       	pop	r29
    2e48:	cf 91       	pop	r28
    2e4a:	bf 91       	pop	r27
    2e4c:	af 91       	pop	r26
    2e4e:	ff 91       	pop	r31
    2e50:	ef 91       	pop	r30
    2e52:	08 95       	ret

00002e54 <output_servo_ppm_asm3>:
    2e54:	0f 93       	push	r16
    2e56:	1f 93       	push	r17
    2e58:	2f 93       	push	r18
    2e5a:	0c ef       	ldi	r16, 0xFC	; 252
    2e5c:	18 e0       	ldi	r17, 0x08	; 8
    2e5e:	00 24       	eor	r0, r0

00002e60 <jump_table>:
    2e60:	80 30       	cpi	r24, 0x00	; 0
    2e62:	71 f0       	breq	.+28     	; 0x2e80 <in1>
    2e64:	81 30       	cpi	r24, 0x01	; 1
    2e66:	79 f0       	breq	.+30     	; 0x2e86 <in2>
    2e68:	82 30       	cpi	r24, 0x02	; 2
    2e6a:	81 f0       	breq	.+32     	; 0x2e8c <in3>
    2e6c:	83 30       	cpi	r24, 0x03	; 3
    2e6e:	89 f0       	breq	.+34     	; 0x2e92 <in4>
    2e70:	84 30       	cpi	r24, 0x04	; 4
    2e72:	91 f0       	breq	.+36     	; 0x2e98 <in5>
    2e74:	85 30       	cpi	r24, 0x05	; 5
    2e76:	99 f0       	breq	.+38     	; 0x2e9e <in6>
    2e78:	86 30       	cpi	r24, 0x06	; 6
    2e7a:	a1 f0       	breq	.+40     	; 0x2ea4 <in7>
    2e7c:	87 30       	cpi	r24, 0x07	; 7
    2e7e:	a9 f0       	breq	.+42     	; 0x2eaa <in8>

00002e80 <in1>:
    2e80:	46 9a       	sbi	0x08, 6	; 8
    2e82:	0c 94 58 17 	jmp	0x2eb0	; 0x2eb0 <loopin>

00002e86 <in2>:
    2e86:	44 9a       	sbi	0x08, 4	; 8
    2e88:	0c 94 58 17 	jmp	0x2eb0	; 0x2eb0 <loopin>

00002e8c <in3>:
    2e8c:	42 9a       	sbi	0x08, 2	; 8
    2e8e:	0c 94 58 17 	jmp	0x2eb0	; 0x2eb0 <loopin>

00002e92 <in4>:
    2e92:	43 9a       	sbi	0x08, 3	; 8
    2e94:	0c 94 58 17 	jmp	0x2eb0	; 0x2eb0 <loopin>

00002e98 <in5>:
    2e98:	14 9a       	sbi	0x02, 4	; 2
    2e9a:	0c 94 58 17 	jmp	0x2eb0	; 0x2eb0 <loopin>

00002e9e <in6>:
    2e9e:	15 9a       	sbi	0x02, 5	; 2
    2ea0:	0c 94 58 17 	jmp	0x2eb0	; 0x2eb0 <loopin>

00002ea4 <in7>:
    2ea4:	45 9a       	sbi	0x08, 5	; 8
    2ea6:	0c 94 58 17 	jmp	0x2eb0	; 0x2eb0 <loopin>

00002eaa <in8>:
    2eaa:	47 9a       	sbi	0x08, 7	; 8
    2eac:	0c 94 58 17 	jmp	0x2eb0	; 0x2eb0 <loopin>

00002eb0 <loopin>:
    2eb0:	00 c0       	rjmp	.+0      	; 0x2eb2 <loopin+0x2>
    2eb2:	00 c0       	rjmp	.+0      	; 0x2eb4 <loopin+0x4>
    2eb4:	00 c0       	rjmp	.+0      	; 0x2eb6 <loopin+0x6>
    2eb6:	00 c0       	rjmp	.+0      	; 0x2eb8 <loopin+0x8>
    2eb8:	00 c0       	rjmp	.+0      	; 0x2eba <loopin+0xa>
    2eba:	00 c0       	rjmp	.+0      	; 0x2ebc <loopin+0xc>
    2ebc:	61 50       	subi	r22, 0x01	; 1
    2ebe:	70 09       	sbc	r23, r0
    2ec0:	19 f4       	brne	.+6      	; 0x2ec8 <loopout>
    2ec2:	20 e0       	ldi	r18, 0x00	; 0
    2ec4:	28 b9       	out	0x08, r18	; 8
    2ec6:	22 b9       	out	0x02, r18	; 2

00002ec8 <loopout>:
    2ec8:	01 50       	subi	r16, 0x01	; 1
    2eca:	10 09       	sbc	r17, r0
    2ecc:	89 f7       	brne	.-30     	; 0x2eb0 <loopin>
    2ece:	2f 91       	pop	r18
    2ed0:	1f 91       	pop	r17
    2ed2:	0f 91       	pop	r16
    2ed4:	08 95       	ret

00002ed6 <pwm_delay>:
    2ed6:	0f 93       	push	r16
    2ed8:	05 e6       	ldi	r16, 0x65	; 101

00002eda <pwm_loop>:
    2eda:	00 c0       	rjmp	.+0      	; 0x2edc <pwm_loop+0x2>
    2edc:	00 c0       	rjmp	.+0      	; 0x2ede <pwm_loop+0x4>
    2ede:	00 c0       	rjmp	.+0      	; 0x2ee0 <pwm_loop+0x6>
    2ee0:	01 50       	subi	r16, 0x01	; 1
    2ee2:	d9 f7       	brne	.-10     	; 0x2eda <pwm_loop>

00002ee4 <pwm_exit>:
    2ee4:	0f 91       	pop	r16
    2ee6:	08 95       	ret

00002ee8 <pad_100_delay>:
    2ee8:	0f 93       	push	r16
    2eea:	09 e0       	ldi	r16, 0x09	; 9

00002eec <pad_100>:
    2eec:	00 c0       	rjmp	.+0      	; 0x2eee <pad_100+0x2>
    2eee:	00 c0       	rjmp	.+0      	; 0x2ef0 <pad_100+0x4>
    2ef0:	00 c0       	rjmp	.+0      	; 0x2ef2 <pad_100+0x6>
    2ef2:	01 50       	subi	r16, 0x01	; 1
    2ef4:	d9 f7       	brne	.-10     	; 0x2eec <pad_100>
    2ef6:	00 00       	nop
    2ef8:	00 c0       	rjmp	.+0      	; 0x2efa <pad_100+0xe>
    2efa:	00 c0       	rjmp	.+0      	; 0x2efc <pad_100+0x10>
    2efc:	0f 91       	pop	r16
    2efe:	08 95       	ret

00002f00 <us_delay>:
    2f00:	00 c0       	rjmp	.+0      	; 0x2f02 <us_delay+0x2>
    2f02:	00 c0       	rjmp	.+0      	; 0x2f04 <us_delay+0x4>
    2f04:	00 c0       	rjmp	.+0      	; 0x2f06 <us_delay+0x6>
    2f06:	00 c0       	rjmp	.+0      	; 0x2f08 <us_delay+0x8>
    2f08:	08 95       	ret

00002f0a <shuffle_8>:
    2f0a:	b6 95       	lsr	r27
    2f0c:	a7 95       	ror	r26
    2f0e:	b6 95       	lsr	r27
    2f10:	a7 95       	ror	r26
    2f12:	b6 95       	lsr	r27
    2f14:	a7 95       	ror	r26
    2f16:	08 95       	ret

00002f18 <DelayHigh>:
    2f18:	c7 e0       	ldi	r28, 0x07	; 7
    2f1a:	97 70       	andi	r25, 0x07	; 7
    2f1c:	c9 27       	eor	r28, r25
    2f1e:	31 f0       	breq	.+12     	; 0x2f2c <LoopHighOut1>

00002f20 <LoopHigh>:
    2f20:	0e 94 80 17 	call	0x2f00	; 0x2f00 <us_delay>
    2f24:	ca 95       	dec	r28
    2f26:	09 f0       	breq	.+2      	; 0x2f2a <LoopHighOut2>
    2f28:	fb cf       	rjmp	.-10     	; 0x2f20 <LoopHigh>

00002f2a <LoopHighOut2>:
    2f2a:	00 c0       	rjmp	.+0      	; 0x2f2c <LoopHighOut1>

00002f2c <LoopHighOut1>:
    2f2c:	00 00       	nop
    2f2e:	08 95       	ret

00002f30 <DelayLow>:
    2f30:	c9 2f       	mov	r28, r25
    2f32:	c7 70       	andi	r28, 0x07	; 7
    2f34:	31 f0       	breq	.+12     	; 0x2f42 <LoopLowOut1>

00002f36 <LoopLow>:
    2f36:	0e 94 80 17 	call	0x2f00	; 0x2f00 <us_delay>
    2f3a:	ca 95       	dec	r28
    2f3c:	09 f0       	breq	.+2      	; 0x2f40 <LoopLowOut2>
    2f3e:	fb cf       	rjmp	.-10     	; 0x2f36 <LoopLow>

00002f40 <LoopLowOut2>:
    2f40:	00 c0       	rjmp	.+0      	; 0x2f42 <LoopLowOut1>

00002f42 <LoopLowOut1>:
    2f42:	08 95       	ret

00002f44 <get_raw_accs>:
    2f44:	0f 93       	push	r16
    2f46:	1f 93       	push	r17
    2f48:	cf 93       	push	r28
    2f4a:	df 93       	push	r29
    2f4c:	cd b7       	in	r28, 0x3d	; 61
    2f4e:	de b7       	in	r29, 0x3e	; 62
    2f50:	2c 97       	sbiw	r28, 0x0c	; 12
    2f52:	0f b6       	in	r0, 0x3f	; 63
    2f54:	f8 94       	cli
    2f56:	de bf       	out	0x3e, r29	; 62
    2f58:	0f be       	out	0x3f, r0	; 63
    2f5a:	cd bf       	out	0x3d, r28	; 61
    2f5c:	26 e0       	ldi	r18, 0x06	; 6
    2f5e:	ae 01       	movw	r20, r28
    2f60:	4f 5f       	subi	r20, 0xFF	; 255
    2f62:	5f 4f       	sbci	r21, 0xFF	; 255
    2f64:	6b e3       	ldi	r22, 0x3B	; 59
    2f66:	80 ed       	ldi	r24, 0xD0	; 208
    2f68:	0e 94 bb 3b 	call	0x7776	; 0x7776 <readI2CbyteArray>
    2f6c:	89 81       	ldd	r24, Y+1	; 0x01
    2f6e:	90 e0       	ldi	r25, 0x00	; 0
    2f70:	98 2f       	mov	r25, r24
    2f72:	88 27       	eor	r24, r24
    2f74:	2a 81       	ldd	r18, Y+2	; 0x02
    2f76:	82 0f       	add	r24, r18
    2f78:	91 1d       	adc	r25, r1
    2f7a:	98 87       	std	Y+8, r25	; 0x08
    2f7c:	8f 83       	std	Y+7, r24	; 0x07
    2f7e:	8b 81       	ldd	r24, Y+3	; 0x03
    2f80:	90 e0       	ldi	r25, 0x00	; 0
    2f82:	98 2f       	mov	r25, r24
    2f84:	88 27       	eor	r24, r24
    2f86:	2c 81       	ldd	r18, Y+4	; 0x04
    2f88:	82 0f       	add	r24, r18
    2f8a:	91 1d       	adc	r25, r1
    2f8c:	91 95       	neg	r25
    2f8e:	81 95       	neg	r24
    2f90:	91 09       	sbc	r25, r1
    2f92:	9a 87       	std	Y+10, r25	; 0x0a
    2f94:	89 87       	std	Y+9, r24	; 0x09
    2f96:	8d 81       	ldd	r24, Y+5	; 0x05
    2f98:	90 e0       	ldi	r25, 0x00	; 0
    2f9a:	98 2f       	mov	r25, r24
    2f9c:	88 27       	eor	r24, r24
    2f9e:	2e 81       	ldd	r18, Y+6	; 0x06
    2fa0:	82 0f       	add	r24, r18
    2fa2:	91 1d       	adc	r25, r1
    2fa4:	9c 87       	std	Y+12, r25	; 0x0c
    2fa6:	8b 87       	std	Y+11, r24	; 0x0b
    2fa8:	40 91 43 08 	lds	r20, 0x0843
    2fac:	20 91 b8 06 	lds	r18, 0x06B8
    2fb0:	6a e6       	ldi	r22, 0x6A	; 106
    2fb2:	75 e0       	ldi	r23, 0x05	; 5
    2fb4:	a6 e7       	ldi	r26, 0x76	; 118
    2fb6:	b5 e0       	ldi	r27, 0x05	; 5
    2fb8:	03 e0       	ldi	r16, 0x03	; 3
    2fba:	40 02       	muls	r20, r16
    2fbc:	a0 01       	movw	r20, r0
    2fbe:	11 24       	eor	r1, r1
    2fc0:	13 e0       	ldi	r17, 0x03	; 3
    2fc2:	21 02       	muls	r18, r17
    2fc4:	90 01       	movw	r18, r0
    2fc6:	11 24       	eor	r1, r1
    2fc8:	80 e0       	ldi	r24, 0x00	; 0
    2fca:	90 e0       	ldi	r25, 0x00	; 0
    2fcc:	fc 01       	movw	r30, r24
    2fce:	e4 0f       	add	r30, r20
    2fd0:	f5 1f       	adc	r31, r21
    2fd2:	ea 57       	subi	r30, 0x7A	; 122
    2fd4:	fe 4f       	sbci	r31, 0xFE	; 254
    2fd6:	e4 91       	lpm	r30, Z
    2fd8:	ee 0f       	add	r30, r30
    2fda:	ff 0b       	sbc	r31, r31
    2fdc:	01 e0       	ldi	r16, 0x01	; 1
    2fde:	10 e0       	ldi	r17, 0x00	; 0
    2fe0:	0c 0f       	add	r16, r28
    2fe2:	1d 1f       	adc	r17, r29
    2fe4:	e0 0f       	add	r30, r16
    2fe6:	f1 1f       	adc	r31, r17
    2fe8:	06 80       	ldd	r0, Z+6	; 0x06
    2fea:	f7 81       	ldd	r31, Z+7	; 0x07
    2fec:	e0 2d       	mov	r30, r0
    2fee:	8f 01       	movw	r16, r30
    2ff0:	e6 e0       	ldi	r30, 0x06	; 6
    2ff2:	15 95       	asr	r17
    2ff4:	07 95       	ror	r16
    2ff6:	ea 95       	dec	r30
    2ff8:	e1 f7       	brne	.-8      	; 0x2ff2 <get_raw_accs+0xae>
    2ffa:	fb 01       	movw	r30, r22
    2ffc:	01 93       	st	Z+, r16
    2ffe:	11 93       	st	Z+, r17
    3000:	bf 01       	movw	r22, r30
    3002:	fc 01       	movw	r30, r24
    3004:	e2 0f       	add	r30, r18
    3006:	f3 1f       	adc	r31, r19
    3008:	ea 57       	subi	r30, 0x7A	; 122
    300a:	fe 4f       	sbci	r31, 0xFE	; 254
    300c:	e4 91       	lpm	r30, Z
    300e:	ee 0f       	add	r30, r30
    3010:	ff 0b       	sbc	r31, r31
    3012:	01 e0       	ldi	r16, 0x01	; 1
    3014:	10 e0       	ldi	r17, 0x00	; 0
    3016:	0c 0f       	add	r16, r28
    3018:	1d 1f       	adc	r17, r29
    301a:	e0 0f       	add	r30, r16
    301c:	f1 1f       	adc	r31, r17
    301e:	06 80       	ldd	r0, Z+6	; 0x06
    3020:	f7 81       	ldd	r31, Z+7	; 0x07
    3022:	e0 2d       	mov	r30, r0
    3024:	16 e0       	ldi	r17, 0x06	; 6
    3026:	f5 95       	asr	r31
    3028:	e7 95       	ror	r30
    302a:	1a 95       	dec	r17
    302c:	e1 f7       	brne	.-8      	; 0x3026 <get_raw_accs+0xe2>
    302e:	ed 93       	st	X+, r30
    3030:	fd 93       	st	X+, r31
    3032:	01 96       	adiw	r24, 0x01	; 1
    3034:	83 30       	cpi	r24, 0x03	; 3
    3036:	91 05       	cpc	r25, r1
    3038:	49 f6       	brne	.-110    	; 0x2fcc <get_raw_accs+0x88>
    303a:	2c 96       	adiw	r28, 0x0c	; 12
    303c:	0f b6       	in	r0, 0x3f	; 63
    303e:	f8 94       	cli
    3040:	de bf       	out	0x3e, r29	; 62
    3042:	0f be       	out	0x3f, r0	; 63
    3044:	cd bf       	out	0x3d, r28	; 61
    3046:	df 91       	pop	r29
    3048:	cf 91       	pop	r28
    304a:	1f 91       	pop	r17
    304c:	0f 91       	pop	r16
    304e:	08 95       	ret

00003050 <ReadAcc>:
    3050:	4f 92       	push	r4
    3052:	5f 92       	push	r5
    3054:	6f 92       	push	r6
    3056:	7f 92       	push	r7
    3058:	8f 92       	push	r8
    305a:	9f 92       	push	r9
    305c:	af 92       	push	r10
    305e:	bf 92       	push	r11
    3060:	cf 92       	push	r12
    3062:	df 92       	push	r13
    3064:	ef 92       	push	r14
    3066:	ff 92       	push	r15
    3068:	0f 93       	push	r16
    306a:	1f 93       	push	r17
    306c:	cf 93       	push	r28
    306e:	df 93       	push	r29
    3070:	0e 94 a2 17 	call	0x2f44	; 0x2f44 <get_raw_accs>
    3074:	20 91 19 08 	lds	r18, 0x0819
    3078:	20 fd       	sbrc	r18, 0
    307a:	05 c0       	rjmp	.+10     	; 0x3086 <ReadAcc+0x36>
    307c:	10 92 01 08 	sts	0x0801, r1
    3080:	10 92 00 08 	sts	0x0800, r1
    3084:	0e c0       	rjmp	.+28     	; 0x30a2 <ReadAcc+0x52>
    3086:	80 91 02 08 	lds	r24, 0x0802
    308a:	90 91 03 08 	lds	r25, 0x0803
    308e:	40 91 06 08 	lds	r20, 0x0806
    3092:	50 91 07 08 	lds	r21, 0x0807
    3096:	84 1b       	sub	r24, r20
    3098:	95 0b       	sbc	r25, r21
    309a:	90 93 01 08 	sts	0x0801, r25
    309e:	80 93 00 08 	sts	0x0800, r24
    30a2:	22 fd       	sbrc	r18, 2
    30a4:	05 c0       	rjmp	.+10     	; 0x30b0 <ReadAcc+0x60>
    30a6:	10 92 36 08 	sts	0x0836, r1
    30aa:	10 92 35 08 	sts	0x0835, r1
    30ae:	0e c0       	rjmp	.+28     	; 0x30cc <ReadAcc+0x7c>
    30b0:	80 91 37 08 	lds	r24, 0x0837
    30b4:	90 91 38 08 	lds	r25, 0x0838
    30b8:	20 91 3b 08 	lds	r18, 0x083B
    30bc:	30 91 3c 08 	lds	r19, 0x083C
    30c0:	82 1b       	sub	r24, r18
    30c2:	93 0b       	sbc	r25, r19
    30c4:	90 93 36 08 	sts	0x0836, r25
    30c8:	80 93 35 08 	sts	0x0835, r24
    30cc:	6a e6       	ldi	r22, 0x6A	; 106
    30ce:	66 2e       	mov	r6, r22
    30d0:	65 e0       	ldi	r22, 0x05	; 5
    30d2:	76 2e       	mov	r7, r22
    30d4:	76 e7       	ldi	r23, 0x76	; 118
    30d6:	c7 2e       	mov	r12, r23
    30d8:	75 e0       	ldi	r23, 0x05	; 5
    30da:	d7 2e       	mov	r13, r23
    30dc:	01 e3       	ldi	r16, 0x31	; 49
    30de:	18 e0       	ldi	r17, 0x08	; 8
    30e0:	e0 e7       	ldi	r30, 0x70	; 112
    30e2:	ee 2e       	mov	r14, r30
    30e4:	e5 e0       	ldi	r30, 0x05	; 5
    30e6:	fe 2e       	mov	r15, r30
    30e8:	c0 e0       	ldi	r28, 0x00	; 0
    30ea:	d0 e0       	ldi	r29, 0x00	; 0
    30ec:	f4 e6       	ldi	r31, 0x64	; 100
    30ee:	4f 2e       	mov	r4, r31
    30f0:	51 2c       	mov	r5, r1
    30f2:	80 91 b9 06 	lds	r24, 0x06B9
    30f6:	30 91 b8 06 	lds	r19, 0x06B8
    30fa:	88 23       	and	r24, r24
    30fc:	09 f4       	brne	.+2      	; 0x3100 <ReadAcc+0xb0>
    30fe:	4c c0       	rjmp	.+152    	; 0x3198 <ReadAcc+0x148>
    3100:	80 91 43 08 	lds	r24, 0x0843
    3104:	08 2e       	mov	r0, r24
    3106:	00 0c       	add	r0, r0
    3108:	99 0b       	sbc	r25, r25
    310a:	fc 01       	movw	r30, r24
    310c:	ee 0f       	add	r30, r30
    310e:	ff 1f       	adc	r31, r31
    3110:	8e 0f       	add	r24, r30
    3112:	9f 1f       	adc	r25, r31
    3114:	8c 0f       	add	r24, r28
    3116:	9d 1f       	adc	r25, r29
    3118:	fc 01       	movw	r30, r24
    311a:	e2 5c       	subi	r30, 0xC2	; 194
    311c:	fe 4f       	sbci	r31, 0xFE	; 254
    311e:	24 91       	lpm	r18, Z
    3120:	f3 01       	movw	r30, r6
    3122:	40 81       	ld	r20, Z
    3124:	51 81       	ldd	r21, Z+1	; 0x01
    3126:	f8 01       	movw	r30, r16
    3128:	f5 97       	sbiw	r30, 0x35	; 53
    312a:	80 81       	ld	r24, Z
    312c:	91 81       	ldd	r25, Z+1	; 0x01
    312e:	48 1b       	sub	r20, r24
    3130:	59 0b       	sbc	r21, r25
    3132:	24 03       	mulsu	r18, r20
    3134:	c0 01       	movw	r24, r0
    3136:	25 9f       	mul	r18, r21
    3138:	90 0d       	add	r25, r0
    313a:	11 24       	eor	r1, r1
    313c:	e3 2f       	mov	r30, r19
    313e:	33 0f       	add	r19, r19
    3140:	ff 0b       	sbc	r31, r31
    3142:	9f 01       	movw	r18, r30
    3144:	22 0f       	add	r18, r18
    3146:	33 1f       	adc	r19, r19
    3148:	e2 0f       	add	r30, r18
    314a:	f3 1f       	adc	r31, r19
    314c:	ec 0f       	add	r30, r28
    314e:	fd 1f       	adc	r31, r29
    3150:	e2 5c       	subi	r30, 0xC2	; 194
    3152:	fe 4f       	sbci	r31, 0xFE	; 254
    3154:	24 91       	lpm	r18, Z
    3156:	f6 01       	movw	r30, r12
    3158:	40 81       	ld	r20, Z
    315a:	51 81       	ldd	r21, Z+1	; 0x01
    315c:	f8 01       	movw	r30, r16
    315e:	60 81       	ld	r22, Z
    3160:	71 81       	ldd	r23, Z+1	; 0x01
    3162:	46 1b       	sub	r20, r22
    3164:	57 0b       	sbc	r21, r23
    3166:	24 03       	mulsu	r18, r20
    3168:	40 01       	movw	r8, r0
    316a:	25 9f       	mul	r18, r21
    316c:	90 0c       	add	r9, r0
    316e:	11 24       	eor	r1, r1
    3170:	20 91 38 05 	lds	r18, 0x0538
    3174:	30 91 39 05 	lds	r19, 0x0539
    3178:	b2 01       	movw	r22, r4
    317a:	62 1b       	sub	r22, r18
    317c:	73 0b       	sbc	r23, r19
    317e:	0e 94 92 58 	call	0xb124	; 0xb124 <scale32>
    3182:	5c 01       	movw	r10, r24
    3184:	60 91 38 05 	lds	r22, 0x0538
    3188:	70 91 39 05 	lds	r23, 0x0539
    318c:	c4 01       	movw	r24, r8
    318e:	0e 94 92 58 	call	0xb124	; 0xb124 <scale32>
    3192:	8a 0d       	add	r24, r10
    3194:	9b 1d       	adc	r25, r11
    3196:	1a c0       	rjmp	.+52     	; 0x31cc <ReadAcc+0x17c>
    3198:	e3 2f       	mov	r30, r19
    319a:	33 0f       	add	r19, r19
    319c:	ff 0b       	sbc	r31, r31
    319e:	cf 01       	movw	r24, r30
    31a0:	88 0f       	add	r24, r24
    31a2:	99 1f       	adc	r25, r25
    31a4:	e8 0f       	add	r30, r24
    31a6:	f9 1f       	adc	r31, r25
    31a8:	ec 0f       	add	r30, r28
    31aa:	fd 1f       	adc	r31, r29
    31ac:	e2 5c       	subi	r30, 0xC2	; 194
    31ae:	fe 4f       	sbci	r31, 0xFE	; 254
    31b0:	24 91       	lpm	r18, Z
    31b2:	f6 01       	movw	r30, r12
    31b4:	40 81       	ld	r20, Z
    31b6:	51 81       	ldd	r21, Z+1	; 0x01
    31b8:	f8 01       	movw	r30, r16
    31ba:	80 81       	ld	r24, Z
    31bc:	91 81       	ldd	r25, Z+1	; 0x01
    31be:	48 1b       	sub	r20, r24
    31c0:	59 0b       	sbc	r21, r25
    31c2:	24 03       	mulsu	r18, r20
    31c4:	c0 01       	movw	r24, r0
    31c6:	25 9f       	mul	r18, r21
    31c8:	90 0d       	add	r25, r0
    31ca:	11 24       	eor	r1, r1
    31cc:	f7 01       	movw	r30, r14
    31ce:	91 83       	std	Z+1, r25	; 0x01
    31d0:	80 83       	st	Z, r24
    31d2:	f2 e0       	ldi	r31, 0x02	; 2
    31d4:	6f 0e       	add	r6, r31
    31d6:	71 1c       	adc	r7, r1
    31d8:	82 e0       	ldi	r24, 0x02	; 2
    31da:	c8 0e       	add	r12, r24
    31dc:	d1 1c       	adc	r13, r1
    31de:	0e 5f       	subi	r16, 0xFE	; 254
    31e0:	1f 4f       	sbci	r17, 0xFF	; 255
    31e2:	e2 e0       	ldi	r30, 0x02	; 2
    31e4:	ee 0e       	add	r14, r30
    31e6:	f1 1c       	adc	r15, r1
    31e8:	21 97       	sbiw	r28, 0x01	; 1
    31ea:	19 f0       	breq	.+6      	; 0x31f2 <ReadAcc+0x1a2>
    31ec:	c1 e0       	ldi	r28, 0x01	; 1
    31ee:	d0 e0       	ldi	r29, 0x00	; 0
    31f0:	80 cf       	rjmp	.-256    	; 0x30f2 <ReadAcc+0xa2>
    31f2:	80 91 b9 06 	lds	r24, 0x06B9
    31f6:	90 91 b8 06 	lds	r25, 0x06B8
    31fa:	60 91 7a 05 	lds	r22, 0x057A
    31fe:	70 91 7b 05 	lds	r23, 0x057B
    3202:	40 91 35 08 	lds	r20, 0x0835
    3206:	50 91 36 08 	lds	r21, 0x0836
    320a:	88 23       	and	r24, r24
    320c:	09 f4       	brne	.+2      	; 0x3210 <ReadAcc+0x1c0>
    320e:	44 c0       	rjmp	.+136    	; 0x3298 <ReadAcc+0x248>
    3210:	e0 91 43 08 	lds	r30, 0x0843
    3214:	0e 2e       	mov	r0, r30
    3216:	00 0c       	add	r0, r0
    3218:	ff 0b       	sbc	r31, r31
    321a:	9f 01       	movw	r18, r30
    321c:	22 0f       	add	r18, r18
    321e:	33 1f       	adc	r19, r19
    3220:	e2 0f       	add	r30, r18
    3222:	f3 1f       	adc	r31, r19
    3224:	e0 5c       	subi	r30, 0xC0	; 192
    3226:	fe 4f       	sbci	r31, 0xFE	; 254
    3228:	24 91       	lpm	r18, Z
    322a:	00 91 6e 05 	lds	r16, 0x056E
    322e:	10 91 6f 05 	lds	r17, 0x056F
    3232:	20 03       	mulsu	r18, r16
    3234:	d0 01       	movw	r26, r0
    3236:	21 9f       	mul	r18, r17
    3238:	b0 0d       	add	r27, r0
    323a:	11 24       	eor	r1, r1
    323c:	20 91 00 08 	lds	r18, 0x0800
    3240:	30 91 01 08 	lds	r19, 0x0801
    3244:	a2 1b       	sub	r26, r18
    3246:	b3 0b       	sbc	r27, r19
    3248:	e9 2f       	mov	r30, r25
    324a:	99 0f       	add	r25, r25
    324c:	ff 0b       	sbc	r31, r31
    324e:	cf 01       	movw	r24, r30
    3250:	88 0f       	add	r24, r24
    3252:	99 1f       	adc	r25, r25
    3254:	e8 0f       	add	r30, r24
    3256:	f9 1f       	adc	r31, r25
    3258:	e0 5c       	subi	r30, 0xC0	; 192
    325a:	fe 4f       	sbci	r31, 0xFE	; 254
    325c:	24 91       	lpm	r18, Z
    325e:	26 03       	mulsu	r18, r22
    3260:	80 01       	movw	r16, r0
    3262:	27 9f       	mul	r18, r23
    3264:	10 0d       	add	r17, r0
    3266:	11 24       	eor	r1, r1
    3268:	04 1b       	sub	r16, r20
    326a:	15 0b       	sbc	r17, r21
    326c:	80 91 38 05 	lds	r24, 0x0538
    3270:	90 91 39 05 	lds	r25, 0x0539
    3274:	64 e6       	ldi	r22, 0x64	; 100
    3276:	70 e0       	ldi	r23, 0x00	; 0
    3278:	68 1b       	sub	r22, r24
    327a:	79 0b       	sbc	r23, r25
    327c:	cd 01       	movw	r24, r26
    327e:	0e 94 92 58 	call	0xb124	; 0xb124 <scale32>
    3282:	ec 01       	movw	r28, r24
    3284:	60 91 38 05 	lds	r22, 0x0538
    3288:	70 91 39 05 	lds	r23, 0x0539
    328c:	c8 01       	movw	r24, r16
    328e:	0e 94 92 58 	call	0xb124	; 0xb124 <scale32>
    3292:	8c 0f       	add	r24, r28
    3294:	9d 1f       	adc	r25, r29
    3296:	12 c0       	rjmp	.+36     	; 0x32bc <ReadAcc+0x26c>
    3298:	e9 2f       	mov	r30, r25
    329a:	99 0f       	add	r25, r25
    329c:	ff 0b       	sbc	r31, r31
    329e:	cf 01       	movw	r24, r30
    32a0:	88 0f       	add	r24, r24
    32a2:	99 1f       	adc	r25, r25
    32a4:	e8 0f       	add	r30, r24
    32a6:	f9 1f       	adc	r31, r25
    32a8:	e0 5c       	subi	r30, 0xC0	; 192
    32aa:	fe 4f       	sbci	r31, 0xFE	; 254
    32ac:	24 91       	lpm	r18, Z
    32ae:	26 03       	mulsu	r18, r22
    32b0:	c0 01       	movw	r24, r0
    32b2:	27 9f       	mul	r18, r23
    32b4:	90 0d       	add	r25, r0
    32b6:	11 24       	eor	r1, r1
    32b8:	84 1b       	sub	r24, r20
    32ba:	95 0b       	sbc	r25, r21
    32bc:	90 93 75 05 	sts	0x0575, r25
    32c0:	80 93 74 05 	sts	0x0574, r24
    32c4:	80 91 b9 06 	lds	r24, 0x06B9
    32c8:	c0 91 37 08 	lds	r28, 0x0837
    32cc:	d0 91 38 08 	lds	r29, 0x0838
    32d0:	00 91 35 08 	lds	r16, 0x0835
    32d4:	10 91 36 08 	lds	r17, 0x0836
    32d8:	88 23       	and	r24, r24
    32da:	09 f4       	brne	.+2      	; 0x32de <ReadAcc+0x28e>
    32dc:	5c c0       	rjmp	.+184    	; 0x3396 <ReadAcc+0x346>
    32de:	c0 90 09 06 	lds	r12, 0x0609
    32e2:	d0 90 0a 06 	lds	r13, 0x060A
    32e6:	e0 90 0b 06 	lds	r14, 0x060B
    32ea:	f0 90 0c 06 	lds	r15, 0x060C
    32ee:	80 91 02 08 	lds	r24, 0x0802
    32f2:	90 91 03 08 	lds	r25, 0x0803
    32f6:	20 91 00 08 	lds	r18, 0x0800
    32fa:	30 91 01 08 	lds	r19, 0x0801
    32fe:	82 1b       	sub	r24, r18
    3300:	93 0b       	sbc	r25, r19
    3302:	bc 01       	movw	r22, r24
    3304:	99 0f       	add	r25, r25
    3306:	88 0b       	sbc	r24, r24
    3308:	99 0b       	sbc	r25, r25
    330a:	0e 94 47 6d 	call	0xda8e	; 0xda8e <__floatsisf>
    330e:	9b 01       	movw	r18, r22
    3310:	ac 01       	movw	r20, r24
    3312:	c7 01       	movw	r24, r14
    3314:	b6 01       	movw	r22, r12
    3316:	0e 94 2c 6c 	call	0xd858	; 0xd858 <__addsf3>
    331a:	0e 94 0f 6d 	call	0xda1e	; 0xda1e <__fixsfsi>
    331e:	4b 01       	movw	r8, r22
    3320:	5c 01       	movw	r10, r24
    3322:	c0 1b       	sub	r28, r16
    3324:	d1 0b       	sbc	r29, r17
    3326:	be 01       	movw	r22, r28
    3328:	dd 0f       	add	r29, r29
    332a:	88 0b       	sbc	r24, r24
    332c:	99 0b       	sbc	r25, r25
    332e:	0e 94 47 6d 	call	0xda8e	; 0xda8e <__floatsisf>
    3332:	9b 01       	movw	r18, r22
    3334:	ac 01       	movw	r20, r24
    3336:	c7 01       	movw	r24, r14
    3338:	b6 01       	movw	r22, r12
    333a:	0e 94 2c 6c 	call	0xd858	; 0xd858 <__addsf3>
    333e:	0e 94 0f 6d 	call	0xda1e	; 0xda1e <__fixsfsi>
    3342:	6b 01       	movw	r12, r22
    3344:	7c 01       	movw	r14, r24
    3346:	80 91 38 05 	lds	r24, 0x0538
    334a:	90 91 39 05 	lds	r25, 0x0539
    334e:	24 e6       	ldi	r18, 0x64	; 100
    3350:	30 e0       	ldi	r19, 0x00	; 0
    3352:	b9 01       	movw	r22, r18
    3354:	68 1b       	sub	r22, r24
    3356:	79 0b       	sbc	r23, r25
    3358:	c4 01       	movw	r24, r8
    335a:	0e 94 92 58 	call	0xb124	; 0xb124 <scale32>
    335e:	8c 01       	movw	r16, r24
    3360:	60 91 38 05 	lds	r22, 0x0538
    3364:	70 91 39 05 	lds	r23, 0x0539
    3368:	c6 01       	movw	r24, r12
    336a:	0e 94 92 58 	call	0xb124	; 0xb124 <scale32>
    336e:	ec 01       	movw	r28, r24
    3370:	b8 01       	movw	r22, r16
    3372:	11 0f       	add	r17, r17
    3374:	88 0b       	sbc	r24, r24
    3376:	99 0b       	sbc	r25, r25
    3378:	0e 94 47 6d 	call	0xda8e	; 0xda8e <__floatsisf>
    337c:	6b 01       	movw	r12, r22
    337e:	7c 01       	movw	r14, r24
    3380:	be 01       	movw	r22, r28
    3382:	dd 0f       	add	r29, r29
    3384:	88 0b       	sbc	r24, r24
    3386:	99 0b       	sbc	r25, r25
    3388:	0e 94 47 6d 	call	0xda8e	; 0xda8e <__floatsisf>
    338c:	9b 01       	movw	r18, r22
    338e:	ac 01       	movw	r20, r24
    3390:	c7 01       	movw	r24, r14
    3392:	b6 01       	movw	r22, r12
    3394:	13 c0       	rjmp	.+38     	; 0x33bc <ReadAcc+0x36c>
    3396:	be 01       	movw	r22, r28
    3398:	60 1b       	sub	r22, r16
    339a:	71 0b       	sbc	r23, r17
    339c:	07 2e       	mov	r0, r23
    339e:	00 0c       	add	r0, r0
    33a0:	88 0b       	sbc	r24, r24
    33a2:	99 0b       	sbc	r25, r25
    33a4:	0e 94 47 6d 	call	0xda8e	; 0xda8e <__floatsisf>
    33a8:	9b 01       	movw	r18, r22
    33aa:	ac 01       	movw	r20, r24
    33ac:	60 91 09 06 	lds	r22, 0x0609
    33b0:	70 91 0a 06 	lds	r23, 0x060A
    33b4:	80 91 0b 06 	lds	r24, 0x060B
    33b8:	90 91 0c 06 	lds	r25, 0x060C
    33bc:	0e 94 2c 6c 	call	0xd858	; 0xd858 <__addsf3>
    33c0:	60 93 26 05 	sts	0x0526, r22
    33c4:	70 93 27 05 	sts	0x0527, r23
    33c8:	80 93 28 05 	sts	0x0528, r24
    33cc:	90 93 29 05 	sts	0x0529, r25
    33d0:	df 91       	pop	r29
    33d2:	cf 91       	pop	r28
    33d4:	1f 91       	pop	r17
    33d6:	0f 91       	pop	r16
    33d8:	ff 90       	pop	r15
    33da:	ef 90       	pop	r14
    33dc:	df 90       	pop	r13
    33de:	cf 90       	pop	r12
    33e0:	bf 90       	pop	r11
    33e2:	af 90       	pop	r10
    33e4:	9f 90       	pop	r9
    33e6:	8f 90       	pop	r8
    33e8:	7f 90       	pop	r7
    33ea:	6f 90       	pop	r6
    33ec:	5f 90       	pop	r5
    33ee:	4f 90       	pop	r4
    33f0:	08 95       	ret

000033f2 <CalibrateAcc>:
    33f2:	1f 93       	push	r17
    33f4:	cf 93       	push	r28
    33f6:	df 93       	push	r29
    33f8:	00 d0       	rcall	.+0      	; 0x33fa <CalibrateAcc+0x8>
    33fa:	00 d0       	rcall	.+0      	; 0x33fc <CalibrateAcc+0xa>
    33fc:	00 d0       	rcall	.+0      	; 0x33fe <CalibrateAcc+0xc>
    33fe:	cd b7       	in	r28, 0x3d	; 61
    3400:	de b7       	in	r29, 0x3e	; 62
    3402:	1a 82       	std	Y+2, r1	; 0x02
    3404:	19 82       	std	Y+1, r1	; 0x01
    3406:	1c 82       	std	Y+4, r1	; 0x04
    3408:	1b 82       	std	Y+3, r1	; 0x03
    340a:	1e 82       	std	Y+6, r1	; 0x06
    340c:	1d 82       	std	Y+5, r1	; 0x05
    340e:	20 91 38 05 	lds	r18, 0x0538
    3412:	30 91 39 05 	lds	r19, 0x0539
    3416:	81 11       	cpse	r24, r1
    3418:	e0 c0       	rjmp	.+448    	; 0x35da <CalibrateAcc+0x1e8>
    341a:	20 36       	cpi	r18, 0x60	; 96
    341c:	31 05       	cpc	r19, r1
    341e:	24 f4       	brge	.+8      	; 0x3428 <CalibrateAcc+0x36>
    3420:	80 91 b9 06 	lds	r24, 0x06B9
    3424:	81 11       	cpse	r24, r1
    3426:	63 c0       	rjmp	.+198    	; 0x34ee <CalibrateAcc+0xfc>
    3428:	10 e2       	ldi	r17, 0x20	; 32
    342a:	0e 94 a2 17 	call	0x2f44	; 0x2f44 <get_raw_accs>
    342e:	29 81       	ldd	r18, Y+1	; 0x01
    3430:	3a 81       	ldd	r19, Y+2	; 0x02
    3432:	80 91 76 05 	lds	r24, 0x0576
    3436:	90 91 77 05 	lds	r25, 0x0577
    343a:	82 0f       	add	r24, r18
    343c:	93 1f       	adc	r25, r19
    343e:	9a 83       	std	Y+2, r25	; 0x02
    3440:	89 83       	std	Y+1, r24	; 0x01
    3442:	2b 81       	ldd	r18, Y+3	; 0x03
    3444:	3c 81       	ldd	r19, Y+4	; 0x04
    3446:	80 91 78 05 	lds	r24, 0x0578
    344a:	90 91 79 05 	lds	r25, 0x0579
    344e:	82 0f       	add	r24, r18
    3450:	93 1f       	adc	r25, r19
    3452:	9c 83       	std	Y+4, r25	; 0x04
    3454:	8b 83       	std	Y+3, r24	; 0x03
    3456:	2d 81       	ldd	r18, Y+5	; 0x05
    3458:	3e 81       	ldd	r19, Y+6	; 0x06
    345a:	80 91 7a 05 	lds	r24, 0x057A
    345e:	90 91 7b 05 	lds	r25, 0x057B
    3462:	82 0f       	add	r24, r18
    3464:	93 1f       	adc	r25, r19
    3466:	9e 83       	std	Y+6, r25	; 0x06
    3468:	8d 83       	std	Y+5, r24	; 0x05
	#else
		//round up by default
		__ticks_dc = (uint32_t)(ceil(fabs(__tmp)));
	#endif

	__builtin_avr_delay_cycles(__ticks_dc);
    346a:	8f e4       	ldi	r24, 0x4F	; 79
    346c:	93 ec       	ldi	r25, 0xC3	; 195
    346e:	01 97       	sbiw	r24, 0x01	; 1
    3470:	f1 f7       	brne	.-4      	; 0x346e <CalibrateAcc+0x7c>
    3472:	00 c0       	rjmp	.+0      	; 0x3474 <CalibrateAcc+0x82>
    3474:	00 00       	nop
    3476:	11 50       	subi	r17, 0x01	; 1
    3478:	c1 f6       	brne	.-80     	; 0x342a <CalibrateAcc+0x38>
    347a:	fe 01       	movw	r30, r28
    347c:	31 96       	adiw	r30, 0x01	; 1
    347e:	9e 01       	movw	r18, r28
    3480:	29 5f       	subi	r18, 0xF9	; 249
    3482:	3f 4f       	sbci	r19, 0xFF	; 255
    3484:	80 81       	ld	r24, Z
    3486:	91 81       	ldd	r25, Z+1	; 0x01
    3488:	40 96       	adiw	r24, 0x10	; 16
    348a:	65 e0       	ldi	r22, 0x05	; 5
    348c:	95 95       	asr	r25
    348e:	87 95       	ror	r24
    3490:	6a 95       	dec	r22
    3492:	e1 f7       	brne	.-8      	; 0x348c <CalibrateAcc+0x9a>
    3494:	81 93       	st	Z+, r24
    3496:	91 93       	st	Z+, r25
    3498:	e2 17       	cp	r30, r18
    349a:	f3 07       	cpc	r31, r19
    349c:	99 f7       	brne	.-26     	; 0x3484 <CalibrateAcc+0x92>
    349e:	89 81       	ldd	r24, Y+1	; 0x01
    34a0:	9a 81       	ldd	r25, Y+2	; 0x02
    34a2:	90 93 32 08 	sts	0x0832, r25
    34a6:	80 93 31 08 	sts	0x0831, r24
    34aa:	8b 81       	ldd	r24, Y+3	; 0x03
    34ac:	9c 81       	ldd	r25, Y+4	; 0x04
    34ae:	90 93 34 08 	sts	0x0834, r25
    34b2:	80 93 33 08 	sts	0x0833, r24
    34b6:	e0 91 b8 06 	lds	r30, 0x06B8
    34ba:	0e 2e       	mov	r0, r30
    34bc:	00 0c       	add	r0, r0
    34be:	ff 0b       	sbc	r31, r31
    34c0:	cf 01       	movw	r24, r30
    34c2:	88 0f       	add	r24, r24
    34c4:	99 1f       	adc	r25, r25
    34c6:	e8 0f       	add	r30, r24
    34c8:	f9 1f       	adc	r31, r25
    34ca:	e0 5c       	subi	r30, 0xC0	; 192
    34cc:	fe 4f       	sbci	r31, 0xFE	; 254
    34ce:	24 91       	lpm	r18, Z
    34d0:	4d 81       	ldd	r20, Y+5	; 0x05
    34d2:	5e 81       	ldd	r21, Y+6	; 0x06
    34d4:	24 03       	mulsu	r18, r20
    34d6:	c0 01       	movw	r24, r0
    34d8:	25 9f       	mul	r18, r21
    34da:	90 0d       	add	r25, r0
    34dc:	11 24       	eor	r1, r1
    34de:	90 93 38 08 	sts	0x0838, r25
    34e2:	80 93 37 08 	sts	0x0837, r24
    34e6:	80 91 19 08 	lds	r24, 0x0819
    34ea:	88 60       	ori	r24, 0x08	; 8
    34ec:	66 c0       	rjmp	.+204    	; 0x35ba <CalibrateAcc+0x1c8>
    34ee:	26 30       	cpi	r18, 0x06	; 6
    34f0:	31 05       	cpc	r19, r1
    34f2:	0c f0       	brlt	.+2      	; 0x34f6 <CalibrateAcc+0x104>
    34f4:	47 c1       	rjmp	.+654    	; 0x3784 <CalibrateAcc+0x392>
    34f6:	10 e2       	ldi	r17, 0x20	; 32
    34f8:	0e 94 a2 17 	call	0x2f44	; 0x2f44 <get_raw_accs>
    34fc:	29 81       	ldd	r18, Y+1	; 0x01
    34fe:	3a 81       	ldd	r19, Y+2	; 0x02
    3500:	80 91 6a 05 	lds	r24, 0x056A
    3504:	90 91 6b 05 	lds	r25, 0x056B
    3508:	82 0f       	add	r24, r18
    350a:	93 1f       	adc	r25, r19
    350c:	9a 83       	std	Y+2, r25	; 0x02
    350e:	89 83       	std	Y+1, r24	; 0x01
    3510:	2b 81       	ldd	r18, Y+3	; 0x03
    3512:	3c 81       	ldd	r19, Y+4	; 0x04
    3514:	80 91 6c 05 	lds	r24, 0x056C
    3518:	90 91 6d 05 	lds	r25, 0x056D
    351c:	82 0f       	add	r24, r18
    351e:	93 1f       	adc	r25, r19
    3520:	9c 83       	std	Y+4, r25	; 0x04
    3522:	8b 83       	std	Y+3, r24	; 0x03
    3524:	2d 81       	ldd	r18, Y+5	; 0x05
    3526:	3e 81       	ldd	r19, Y+6	; 0x06
    3528:	80 91 6e 05 	lds	r24, 0x056E
    352c:	90 91 6f 05 	lds	r25, 0x056F
    3530:	82 0f       	add	r24, r18
    3532:	93 1f       	adc	r25, r19
    3534:	9e 83       	std	Y+6, r25	; 0x06
    3536:	8d 83       	std	Y+5, r24	; 0x05
    3538:	8f e4       	ldi	r24, 0x4F	; 79
    353a:	93 ec       	ldi	r25, 0xC3	; 195
    353c:	01 97       	sbiw	r24, 0x01	; 1
    353e:	f1 f7       	brne	.-4      	; 0x353c <CalibrateAcc+0x14a>
    3540:	00 c0       	rjmp	.+0      	; 0x3542 <CalibrateAcc+0x150>
    3542:	00 00       	nop
    3544:	11 50       	subi	r17, 0x01	; 1
    3546:	c1 f6       	brne	.-80     	; 0x34f8 <CalibrateAcc+0x106>
    3548:	fe 01       	movw	r30, r28
    354a:	31 96       	adiw	r30, 0x01	; 1
    354c:	9e 01       	movw	r18, r28
    354e:	29 5f       	subi	r18, 0xF9	; 249
    3550:	3f 4f       	sbci	r19, 0xFF	; 255
    3552:	80 81       	ld	r24, Z
    3554:	91 81       	ldd	r25, Z+1	; 0x01
    3556:	40 96       	adiw	r24, 0x10	; 16
    3558:	45 e0       	ldi	r20, 0x05	; 5
    355a:	95 95       	asr	r25
    355c:	87 95       	ror	r24
    355e:	4a 95       	dec	r20
    3560:	e1 f7       	brne	.-8      	; 0x355a <CalibrateAcc+0x168>
    3562:	81 93       	st	Z+, r24
    3564:	91 93       	st	Z+, r25
    3566:	e2 17       	cp	r30, r18
    3568:	f3 07       	cpc	r31, r19
    356a:	99 f7       	brne	.-26     	; 0x3552 <CalibrateAcc+0x160>
    356c:	89 81       	ldd	r24, Y+1	; 0x01
    356e:	9a 81       	ldd	r25, Y+2	; 0x02
    3570:	90 93 fd 07 	sts	0x07FD, r25
    3574:	80 93 fc 07 	sts	0x07FC, r24
    3578:	8b 81       	ldd	r24, Y+3	; 0x03
    357a:	9c 81       	ldd	r25, Y+4	; 0x04
    357c:	90 93 ff 07 	sts	0x07FF, r25
    3580:	80 93 fe 07 	sts	0x07FE, r24
    3584:	e0 91 43 08 	lds	r30, 0x0843
    3588:	0e 2e       	mov	r0, r30
    358a:	00 0c       	add	r0, r0
    358c:	ff 0b       	sbc	r31, r31
    358e:	cf 01       	movw	r24, r30
    3590:	88 0f       	add	r24, r24
    3592:	99 1f       	adc	r25, r25
    3594:	e8 0f       	add	r30, r24
    3596:	f9 1f       	adc	r31, r25
    3598:	e0 5c       	subi	r30, 0xC0	; 192
    359a:	fe 4f       	sbci	r31, 0xFE	; 254
    359c:	24 91       	lpm	r18, Z
    359e:	4d 81       	ldd	r20, Y+5	; 0x05
    35a0:	5e 81       	ldd	r21, Y+6	; 0x06
    35a2:	24 03       	mulsu	r18, r20
    35a4:	c0 01       	movw	r24, r0
    35a6:	25 9f       	mul	r18, r21
    35a8:	90 0d       	add	r25, r0
    35aa:	11 24       	eor	r1, r1
    35ac:	90 93 03 08 	sts	0x0803, r25
    35b0:	80 93 02 08 	sts	0x0802, r24
    35b4:	80 91 19 08 	lds	r24, 0x0819
    35b8:	82 60       	ori	r24, 0x02	; 2
    35ba:	80 93 19 08 	sts	0x0819, r24
    35be:	0e 94 4e 26 	call	0x4c9c	; 0x4c9c <Save_Config_to_EEPROM>
    35c2:	2b 9a       	sbi	0x05, 3	; 5
    35c4:	9f e7       	ldi	r25, 0x7F	; 127
    35c6:	24 e8       	ldi	r18, 0x84	; 132
    35c8:	8e e1       	ldi	r24, 0x1E	; 30
    35ca:	91 50       	subi	r25, 0x01	; 1
    35cc:	20 40       	sbci	r18, 0x00	; 0
    35ce:	80 40       	sbci	r24, 0x00	; 0
    35d0:	e1 f7       	brne	.-8      	; 0x35ca <CalibrateAcc+0x1d8>
    35d2:	00 c0       	rjmp	.+0      	; 0x35d4 <CalibrateAcc+0x1e2>
    35d4:	00 00       	nop
    35d6:	2b 98       	cbi	0x05, 3	; 5
    35d8:	d5 c0       	rjmp	.+426    	; 0x3784 <CalibrateAcc+0x392>
    35da:	80 91 19 08 	lds	r24, 0x0819
    35de:	20 36       	cpi	r18, 0x60	; 96
    35e0:	31 05       	cpc	r19, r1
    35e2:	24 f4       	brge	.+8      	; 0x35ec <CalibrateAcc+0x1fa>
    35e4:	90 91 b9 06 	lds	r25, 0x06B9
    35e8:	91 11       	cpse	r25, r1
    35ea:	59 c0       	rjmp	.+178    	; 0x369e <CalibrateAcc+0x2ac>
    35ec:	83 ff       	sbrs	r24, 3
    35ee:	ca c0       	rjmp	.+404    	; 0x3784 <CalibrateAcc+0x392>
    35f0:	10 92 3a 08 	sts	0x083A, r1
    35f4:	10 92 39 08 	sts	0x0839, r1
    35f8:	10 e2       	ldi	r17, 0x20	; 32
    35fa:	0e 94 a2 17 	call	0x2f44	; 0x2f44 <get_raw_accs>
    35fe:	20 91 39 08 	lds	r18, 0x0839
    3602:	30 91 3a 08 	lds	r19, 0x083A
    3606:	80 91 7a 05 	lds	r24, 0x057A
    360a:	90 91 7b 05 	lds	r25, 0x057B
    360e:	82 0f       	add	r24, r18
    3610:	93 1f       	adc	r25, r19
    3612:	90 93 3a 08 	sts	0x083A, r25
    3616:	80 93 39 08 	sts	0x0839, r24
    361a:	8f e4       	ldi	r24, 0x4F	; 79
    361c:	93 ec       	ldi	r25, 0xC3	; 195
    361e:	01 97       	sbiw	r24, 0x01	; 1
    3620:	f1 f7       	brne	.-4      	; 0x361e <CalibrateAcc+0x22c>
    3622:	00 c0       	rjmp	.+0      	; 0x3624 <CalibrateAcc+0x232>
    3624:	00 00       	nop
    3626:	11 50       	subi	r17, 0x01	; 1
    3628:	41 f7       	brne	.-48     	; 0x35fa <CalibrateAcc+0x208>
    362a:	e0 91 b8 06 	lds	r30, 0x06B8
    362e:	0e 2e       	mov	r0, r30
    3630:	00 0c       	add	r0, r0
    3632:	ff 0b       	sbc	r31, r31
    3634:	cf 01       	movw	r24, r30
    3636:	88 0f       	add	r24, r24
    3638:	99 1f       	adc	r25, r25
    363a:	e8 0f       	add	r30, r24
    363c:	f9 1f       	adc	r31, r25
    363e:	e0 5c       	subi	r30, 0xC0	; 192
    3640:	fe 4f       	sbci	r31, 0xFE	; 254
    3642:	24 91       	lpm	r18, Z
    3644:	40 91 39 08 	lds	r20, 0x0839
    3648:	50 91 3a 08 	lds	r21, 0x083A
    364c:	40 5f       	subi	r20, 0xF0	; 240
    364e:	5f 4f       	sbci	r21, 0xFF	; 255
    3650:	b5 e0       	ldi	r27, 0x05	; 5
    3652:	55 95       	asr	r21
    3654:	47 95       	ror	r20
    3656:	ba 95       	dec	r27
    3658:	e1 f7       	brne	.-8      	; 0x3652 <CalibrateAcc+0x260>
    365a:	24 03       	mulsu	r18, r20
    365c:	b0 01       	movw	r22, r0
    365e:	25 9f       	mul	r18, r21
    3660:	70 0d       	add	r23, r0
    3662:	11 24       	eor	r1, r1
    3664:	70 93 3a 08 	sts	0x083A, r23
    3668:	60 93 39 08 	sts	0x0839, r22
    366c:	77 ff       	sbrs	r23, 7
    366e:	8a c0       	rjmp	.+276    	; 0x3784 <CalibrateAcc+0x392>
    3670:	80 91 37 08 	lds	r24, 0x0837
    3674:	90 91 38 08 	lds	r25, 0x0838
    3678:	9c 01       	movw	r18, r24
    367a:	26 1b       	sub	r18, r22
    367c:	37 0b       	sbc	r19, r23
    367e:	35 95       	asr	r19
    3680:	27 95       	ror	r18
    3682:	30 93 3c 08 	sts	0x083C, r19
    3686:	20 93 3b 08 	sts	0x083B, r18
    368a:	82 1b       	sub	r24, r18
    368c:	93 0b       	sbc	r25, r19
    368e:	90 93 36 08 	sts	0x0836, r25
    3692:	80 93 35 08 	sts	0x0835, r24
    3696:	80 91 19 08 	lds	r24, 0x0819
    369a:	84 60       	ori	r24, 0x04	; 4
    369c:	58 c0       	rjmp	.+176    	; 0x374e <CalibrateAcc+0x35c>
    369e:	81 ff       	sbrs	r24, 1
    36a0:	71 c0       	rjmp	.+226    	; 0x3784 <CalibrateAcc+0x392>
    36a2:	10 92 05 08 	sts	0x0805, r1
    36a6:	10 92 04 08 	sts	0x0804, r1
    36aa:	10 e2       	ldi	r17, 0x20	; 32
    36ac:	0e 94 a2 17 	call	0x2f44	; 0x2f44 <get_raw_accs>
    36b0:	20 91 04 08 	lds	r18, 0x0804
    36b4:	30 91 05 08 	lds	r19, 0x0805
    36b8:	80 91 6e 05 	lds	r24, 0x056E
    36bc:	90 91 6f 05 	lds	r25, 0x056F
    36c0:	82 0f       	add	r24, r18
    36c2:	93 1f       	adc	r25, r19
    36c4:	90 93 05 08 	sts	0x0805, r25
    36c8:	80 93 04 08 	sts	0x0804, r24
    36cc:	8f e4       	ldi	r24, 0x4F	; 79
    36ce:	93 ec       	ldi	r25, 0xC3	; 195
    36d0:	01 97       	sbiw	r24, 0x01	; 1
    36d2:	f1 f7       	brne	.-4      	; 0x36d0 <CalibrateAcc+0x2de>
    36d4:	00 c0       	rjmp	.+0      	; 0x36d6 <CalibrateAcc+0x2e4>
    36d6:	00 00       	nop
    36d8:	11 50       	subi	r17, 0x01	; 1
    36da:	41 f7       	brne	.-48     	; 0x36ac <CalibrateAcc+0x2ba>
    36dc:	e0 91 43 08 	lds	r30, 0x0843
    36e0:	0e 2e       	mov	r0, r30
    36e2:	00 0c       	add	r0, r0
    36e4:	ff 0b       	sbc	r31, r31
    36e6:	cf 01       	movw	r24, r30
    36e8:	88 0f       	add	r24, r24
    36ea:	99 1f       	adc	r25, r25
    36ec:	e8 0f       	add	r30, r24
    36ee:	f9 1f       	adc	r31, r25
    36f0:	e0 5c       	subi	r30, 0xC0	; 192
    36f2:	fe 4f       	sbci	r31, 0xFE	; 254
    36f4:	24 91       	lpm	r18, Z
    36f6:	40 91 04 08 	lds	r20, 0x0804
    36fa:	50 91 05 08 	lds	r21, 0x0805
    36fe:	40 5f       	subi	r20, 0xF0	; 240
    3700:	5f 4f       	sbci	r21, 0xFF	; 255
    3702:	65 e0       	ldi	r22, 0x05	; 5
    3704:	55 95       	asr	r21
    3706:	47 95       	ror	r20
    3708:	6a 95       	dec	r22
    370a:	e1 f7       	brne	.-8      	; 0x3704 <CalibrateAcc+0x312>
    370c:	24 03       	mulsu	r18, r20
    370e:	b0 01       	movw	r22, r0
    3710:	25 9f       	mul	r18, r21
    3712:	70 0d       	add	r23, r0
    3714:	11 24       	eor	r1, r1
    3716:	70 93 05 08 	sts	0x0805, r23
    371a:	60 93 04 08 	sts	0x0804, r22
    371e:	77 ff       	sbrs	r23, 7
    3720:	31 c0       	rjmp	.+98     	; 0x3784 <CalibrateAcc+0x392>
    3722:	80 91 02 08 	lds	r24, 0x0802
    3726:	90 91 03 08 	lds	r25, 0x0803
    372a:	9c 01       	movw	r18, r24
    372c:	26 1b       	sub	r18, r22
    372e:	37 0b       	sbc	r19, r23
    3730:	35 95       	asr	r19
    3732:	27 95       	ror	r18
    3734:	30 93 07 08 	sts	0x0807, r19
    3738:	20 93 06 08 	sts	0x0806, r18
    373c:	82 1b       	sub	r24, r18
    373e:	93 0b       	sbc	r25, r19
    3740:	90 93 01 08 	sts	0x0801, r25
    3744:	80 93 00 08 	sts	0x0800, r24
    3748:	80 91 19 08 	lds	r24, 0x0819
    374c:	81 60       	ori	r24, 0x01	; 1
    374e:	80 93 19 08 	sts	0x0819, r24
    3752:	0e 94 4e 26 	call	0x4c9c	; 0x4c9c <Save_Config_to_EEPROM>
    3756:	2b 9a       	sbi	0x05, 3	; 5
    3758:	9f e7       	ldi	r25, 0x7F	; 127
    375a:	24 e8       	ldi	r18, 0x84	; 132
    375c:	8e e1       	ldi	r24, 0x1E	; 30
    375e:	91 50       	subi	r25, 0x01	; 1
    3760:	20 40       	sbci	r18, 0x00	; 0
    3762:	80 40       	sbci	r24, 0x00	; 0
    3764:	e1 f7       	brne	.-8      	; 0x375e <CalibrateAcc+0x36c>
    3766:	00 c0       	rjmp	.+0      	; 0x3768 <CalibrateAcc+0x376>
    3768:	00 00       	nop
    376a:	2b 98       	cbi	0x05, 3	; 5
    376c:	85 e0       	ldi	r24, 0x05	; 5
    376e:	26 96       	adiw	r28, 0x06	; 6
    3770:	0f b6       	in	r0, 0x3f	; 63
    3772:	f8 94       	cli
    3774:	de bf       	out	0x3e, r29	; 62
    3776:	0f be       	out	0x3f, r0	; 63
    3778:	cd bf       	out	0x3d, r28	; 61
    377a:	df 91       	pop	r29
    377c:	cf 91       	pop	r28
    377e:	1f 91       	pop	r17
    3780:	0c 94 c0 4f 	jmp	0x9f80	; 0x9f80 <menu_beep>
    3784:	26 96       	adiw	r28, 0x06	; 6
    3786:	0f b6       	in	r0, 0x3f	; 63
    3788:	f8 94       	cli
    378a:	de bf       	out	0x3e, r29	; 62
    378c:	0f be       	out	0x3f, r0	; 63
    378e:	cd bf       	out	0x3d, r28	; 61
    3790:	df 91       	pop	r29
    3792:	cf 91       	pop	r28
    3794:	1f 91       	pop	r17
    3796:	08 95       	ret

00003798 <init_i2c_accs>:
    3798:	41 e0       	ldi	r20, 0x01	; 1
    379a:	6b e6       	ldi	r22, 0x6B	; 107
    379c:	80 ed       	ldi	r24, 0xD0	; 208
    379e:	0e 94 a4 3b 	call	0x7748	; 0x7748 <writeI2Cbyte>
    37a2:	48 e0       	ldi	r20, 0x08	; 8
    37a4:	6c e1       	ldi	r22, 0x1C	; 28
    37a6:	80 ed       	ldi	r24, 0xD0	; 208
    37a8:	0c 94 a4 3b 	jmp	0x7748	; 0x7748 <writeI2Cbyte>

000037ac <Init_ADC>:
    37ac:	8f ef       	ldi	r24, 0xFF	; 255
    37ae:	80 93 7e 00 	sts	0x007E, r24
    37b2:	10 92 7b 00 	sts	0x007B, r1
    37b6:	08 95       	ret

000037b8 <read_adc>:
    37b8:	80 93 7c 00 	sts	0x007C, r24
    37bc:	86 ec       	ldi	r24, 0xC6	; 198
    37be:	80 93 7a 00 	sts	0x007A, r24
    37c2:	80 91 7a 00 	lds	r24, 0x007A
    37c6:	86 fd       	sbrc	r24, 6
    37c8:	fc cf       	rjmp	.-8      	; 0x37c2 <read_adc+0xa>
    37ca:	08 95       	ret

000037cc <Display_balance>:
    37cc:	cf 92       	push	r12
    37ce:	df 92       	push	r13
    37d0:	ef 92       	push	r14
    37d2:	0f 93       	push	r16
    37d4:	cf 93       	push	r28
    37d6:	df 93       	push	r29
    37d8:	cb e0       	ldi	r28, 0x0B	; 11
    37da:	d0 e0       	ldi	r29, 0x00	; 0
    37dc:	1f 9b       	sbis	0x03, 7	; 3
    37de:	82 c0       	rjmp	.+260    	; 0x38e4 <Display_balance+0x118>
    37e0:	0e 94 c3 68 	call	0xd186	; 0xd186 <RxGetChannels>
    37e4:	0e 94 b3 69 	call	0xd366	; 0xd366 <UpdateTransition>
    37e8:	0e 94 28 18 	call	0x3050	; 0x3050 <ReadAcc>
    37ec:	60 e0       	ldi	r22, 0x00	; 0
    37ee:	70 e0       	ldi	r23, 0x00	; 0
    37f0:	cb 01       	movw	r24, r22
    37f2:	0e 94 1b 3e 	call	0x7c36	; 0x7c36 <imu_update>
    37f6:	21 97       	sbiw	r28, 0x01	; 1
    37f8:	89 f7       	brne	.-30     	; 0x37dc <Display_balance+0x10>
    37fa:	20 e0       	ldi	r18, 0x00	; 0
    37fc:	30 e0       	ldi	r19, 0x00	; 0
    37fe:	40 e0       	ldi	r20, 0x00	; 0
    3800:	52 e4       	ldi	r21, 0x42	; 66
    3802:	60 91 05 06 	lds	r22, 0x0605
    3806:	70 91 06 06 	lds	r23, 0x0606
    380a:	80 91 07 06 	lds	r24, 0x0607
    380e:	90 91 08 06 	lds	r25, 0x0608
    3812:	0e 94 2c 6c 	call	0xd858	; 0xd858 <__addsf3>
    3816:	0e 94 0f 6d 	call	0xda1e	; 0xda1e <__fixsfsi>
    381a:	6b 01       	movw	r12, r22
    381c:	20 e0       	ldi	r18, 0x00	; 0
    381e:	30 e0       	ldi	r19, 0x00	; 0
    3820:	40 e8       	ldi	r20, 0x80	; 128
    3822:	52 e4       	ldi	r21, 0x42	; 66
    3824:	60 91 01 06 	lds	r22, 0x0601
    3828:	70 91 02 06 	lds	r23, 0x0602
    382c:	80 91 03 06 	lds	r24, 0x0603
    3830:	90 91 04 06 	lds	r25, 0x0604
    3834:	0e 94 2c 6c 	call	0xd858	; 0xd858 <__addsf3>
    3838:	0e 94 0f 6d 	call	0xda1e	; 0xda1e <__fixsfsi>
    383c:	eb 01       	movw	r28, r22
    383e:	d7 fc       	sbrc	r13, 7
    3840:	08 c0       	rjmp	.+16     	; 0x3852 <Display_balance+0x86>
    3842:	81 e4       	ldi	r24, 0x41	; 65
    3844:	c8 16       	cp	r12, r24
    3846:	d1 04       	cpc	r13, r1
    3848:	34 f0       	brlt	.+12     	; 0x3856 <Display_balance+0x8a>
    384a:	80 e4       	ldi	r24, 0x40	; 64
    384c:	c8 2e       	mov	r12, r24
    384e:	d1 2c       	mov	r13, r1
    3850:	02 c0       	rjmp	.+4      	; 0x3856 <Display_balance+0x8a>
    3852:	c1 2c       	mov	r12, r1
    3854:	d1 2c       	mov	r13, r1
    3856:	d7 fd       	sbrc	r29, 7
    3858:	06 c0       	rjmp	.+12     	; 0x3866 <Display_balance+0x9a>
    385a:	c1 38       	cpi	r28, 0x81	; 129
    385c:	d1 05       	cpc	r29, r1
    385e:	2c f0       	brlt	.+10     	; 0x386a <Display_balance+0x9e>
    3860:	c0 e8       	ldi	r28, 0x80	; 128
    3862:	d0 e0       	ldi	r29, 0x00	; 0
    3864:	02 c0       	rjmp	.+4      	; 0x386a <Display_balance+0x9e>
    3866:	c0 e0       	ldi	r28, 0x00	; 0
    3868:	d0 e0       	ldi	r29, 0x00	; 0
    386a:	27 e3       	ldi	r18, 0x37	; 55
    386c:	30 e0       	ldi	r19, 0x00	; 0
    386e:	42 e0       	ldi	r20, 0x02	; 2
    3870:	50 e0       	ldi	r21, 0x00	; 0
    3872:	6f ee       	ldi	r22, 0xEF	; 239
    3874:	71 e0       	ldi	r23, 0x01	; 1
    3876:	8c e0       	ldi	r24, 0x0C	; 12
    3878:	90 e0       	ldi	r25, 0x00	; 0
    387a:	0e 94 2e 38 	call	0x705c	; 0x705c <LCD_Display_Text>
    387e:	ee 24       	eor	r14, r14
    3880:	e3 94       	inc	r14
    3882:	00 e4       	ldi	r16, 0x40	; 64
    3884:	20 e8       	ldi	r18, 0x80	; 128
    3886:	40 e0       	ldi	r20, 0x00	; 0
    3888:	60 e0       	ldi	r22, 0x00	; 0
    388a:	80 e0       	ldi	r24, 0x00	; 0
    388c:	91 e0       	ldi	r25, 0x01	; 1
    388e:	0e 94 4f 37 	call	0x6e9e	; 0x6e9e <drawrect>
    3892:	05 e1       	ldi	r16, 0x15	; 21
    3894:	25 e1       	ldi	r18, 0x15	; 21
    3896:	46 e1       	ldi	r20, 0x16	; 22
    3898:	66 e3       	ldi	r22, 0x36	; 54
    389a:	80 e0       	ldi	r24, 0x00	; 0
    389c:	91 e0       	ldi	r25, 0x01	; 1
    389e:	0e 94 4f 37 	call	0x6e9e	; 0x6e9e <drawrect>
    38a2:	08 e3       	ldi	r16, 0x38	; 56
    38a4:	20 e4       	ldi	r18, 0x40	; 64
    38a6:	48 e0       	ldi	r20, 0x08	; 8
    38a8:	60 e4       	ldi	r22, 0x40	; 64
    38aa:	80 e0       	ldi	r24, 0x00	; 0
    38ac:	91 e0       	ldi	r25, 0x01	; 1
    38ae:	0e 94 b1 36 	call	0x6d62	; 0x6d62 <drawline>
    38b2:	00 e2       	ldi	r16, 0x20	; 32
    38b4:	20 e6       	ldi	r18, 0x60	; 96
    38b6:	40 e2       	ldi	r20, 0x20	; 32
    38b8:	60 e2       	ldi	r22, 0x20	; 32
    38ba:	80 e0       	ldi	r24, 0x00	; 0
    38bc:	91 e0       	ldi	r25, 0x01	; 1
    38be:	0e 94 b1 36 	call	0x6d62	; 0x6d62 <drawline>
    38c2:	01 e0       	ldi	r16, 0x01	; 1
    38c4:	28 e0       	ldi	r18, 0x08	; 8
    38c6:	4c 2d       	mov	r20, r12
    38c8:	6c 2f       	mov	r22, r28
    38ca:	80 e0       	ldi	r24, 0x00	; 0
    38cc:	91 e0       	ldi	r25, 0x01	; 1
    38ce:	0e 94 9e 37 	call	0x6f3c	; 0x6f3c <fillcircle>
    38d2:	80 e0       	ldi	r24, 0x00	; 0
    38d4:	91 e0       	ldi	r25, 0x01	; 1
    38d6:	0e 94 1d 36 	call	0x6c3a	; 0x6c3a <write_buffer>
    38da:	80 e0       	ldi	r24, 0x00	; 0
    38dc:	91 e0       	ldi	r25, 0x01	; 1
    38de:	0e 94 52 36 	call	0x6ca4	; 0x6ca4 <clear_buffer>
    38e2:	7a cf       	rjmp	.-268    	; 0x37d8 <Display_balance+0xc>
    38e4:	df 91       	pop	r29
    38e6:	cf 91       	pop	r28
    38e8:	0f 91       	pop	r16
    38ea:	ef 90       	pop	r14
    38ec:	df 90       	pop	r13
    38ee:	cf 90       	pop	r12
    38f0:	08 95       	ret

000038f2 <Display_in_out>:
    38f2:	2f 92       	push	r2
    38f4:	3f 92       	push	r3
    38f6:	4f 92       	push	r4
    38f8:	5f 92       	push	r5
    38fa:	6f 92       	push	r6
    38fc:	7f 92       	push	r7
    38fe:	8f 92       	push	r8
    3900:	9f 92       	push	r9
    3902:	af 92       	push	r10
    3904:	bf 92       	push	r11
    3906:	cf 92       	push	r12
    3908:	df 92       	push	r13
    390a:	ef 92       	push	r14
    390c:	ff 92       	push	r15
    390e:	0f 93       	push	r16
    3910:	1f 93       	push	r17
    3912:	cf 93       	push	r28
    3914:	df 93       	push	r29
    3916:	cd b7       	in	r28, 0x3d	; 61
    3918:	de b7       	in	r29, 0x3e	; 62
    391a:	a5 97       	sbiw	r28, 0x25	; 37
    391c:	0f b6       	in	r0, 0x3f	; 63
    391e:	f8 94       	cli
    3920:	de bf       	out	0x3e, r29	; 62
    3922:	0f be       	out	0x3f, r0	; 63
    3924:	cd bf       	out	0x3d, r28	; 61
    3926:	0e 94 6d 47 	call	0x8eda	; 0x8eda <init_int>
    392a:	0a e0       	ldi	r16, 0x0A	; 10
    392c:	20 2e       	mov	r2, r16
    392e:	31 2c       	mov	r3, r1
    3930:	88 ee       	ldi	r24, 0xE8	; 232
    3932:	48 2e       	mov	r4, r24
    3934:	83 e0       	ldi	r24, 0x03	; 3
    3936:	58 2e       	mov	r5, r24
    3938:	95 e0       	ldi	r25, 0x05	; 5
    393a:	a9 2e       	mov	r10, r25
    393c:	b1 2c       	mov	r11, r1
    393e:	24 e1       	ldi	r18, 0x14	; 20
    3940:	62 2e       	mov	r6, r18
    3942:	71 2c       	mov	r7, r1
    3944:	34 e6       	ldi	r19, 0x64	; 100
    3946:	83 2e       	mov	r8, r19
    3948:	91 2c       	mov	r9, r1
    394a:	1f 9b       	sbis	0x03, 7	; 3
    394c:	2e c3       	rjmp	.+1628   	; 0x3faa <Display_in_out+0x6b8>
    394e:	0e 94 c3 68 	call	0xd186	; 0xd186 <RxGetChannels>
    3952:	0e 94 2d 39 	call	0x725a	; 0x725a <ReadGyros>
    3956:	0e 94 28 18 	call	0x3050	; 0x3050 <ReadAcc>
    395a:	0e 94 9c 43 	call	0x8738	; 0x8738 <TIM16_ReadTCNT1>
    395e:	16 bc       	out	0x26, r1	; 38
    3960:	20 91 2f 05 	lds	r18, 0x052F
    3964:	30 91 30 05 	lds	r19, 0x0530
    3968:	20 91 2f 05 	lds	r18, 0x052F
    396c:	30 91 30 05 	lds	r19, 0x0530
    3970:	6c 01       	movw	r12, r24
    3972:	c2 1a       	sub	r12, r18
    3974:	d3 0a       	sbc	r13, r19
    3976:	90 93 30 05 	sts	0x0530, r25
    397a:	80 93 2f 05 	sts	0x052F, r24
    397e:	80 91 e1 08 	lds	r24, 0x08E1
    3982:	90 91 e2 08 	lds	r25, 0x08E2
    3986:	e1 2c       	mov	r14, r1
    3988:	f1 2c       	mov	r15, r1
    398a:	02 97       	sbiw	r24, 0x02	; 2
    398c:	88 f0       	brcs	.+34     	; 0x39b0 <Display_in_out+0xbe>
    398e:	80 91 e1 08 	lds	r24, 0x08E1
    3992:	90 91 e2 08 	lds	r25, 0x08E2
    3996:	a0 e0       	ldi	r26, 0x00	; 0
    3998:	b0 e0       	ldi	r27, 0x00	; 0
    399a:	1f e0       	ldi	r17, 0x0F	; 15
    399c:	88 0f       	add	r24, r24
    399e:	99 1f       	adc	r25, r25
    39a0:	aa 1f       	adc	r26, r26
    39a2:	bb 1f       	adc	r27, r27
    39a4:	1a 95       	dec	r17
    39a6:	d1 f7       	brne	.-12     	; 0x399c <Display_in_out+0xaa>
    39a8:	c8 0e       	add	r12, r24
    39aa:	d9 1e       	adc	r13, r25
    39ac:	ea 1e       	adc	r14, r26
    39ae:	fb 1e       	adc	r15, r27
    39b0:	10 92 e2 08 	sts	0x08E2, r1
    39b4:	10 92 e1 08 	sts	0x08E1, r1
    39b8:	c7 01       	movw	r24, r14
    39ba:	b6 01       	movw	r22, r12
    39bc:	0e 94 1b 3e 	call	0x7c36	; 0x7c36 <imu_update>
    39c0:	c7 01       	movw	r24, r14
    39c2:	b6 01       	movw	r22, r12
    39c4:	0e 94 79 62 	call	0xc4f2	; 0xc4f2 <Sensor_PID>
    39c8:	0e 94 ea 65 	call	0xcbd4	; 0xcbd4 <Calculate_PID>
    39cc:	0e 94 b3 69 	call	0xd366	; 0xd366 <UpdateTransition>
    39d0:	0e 94 6d 5a 	call	0xb4da	; 0xb4da <ProcessMixer>
    39d4:	0e 94 73 58 	call	0xb0e6	; 0xb0e6 <UpdateServos>
    39d8:	08 ec       	ldi	r16, 0xC8	; 200
    39da:	16 e0       	ldi	r17, 0x06	; 6
    39dc:	78 01       	movw	r14, r16
    39de:	20 e0       	ldi	r18, 0x00	; 0
    39e0:	30 e0       	ldi	r19, 0x00	; 0
    39e2:	f9 01       	movw	r30, r18
    39e4:	ee 0f       	add	r30, r30
    39e6:	ff 1f       	adc	r31, r31
    39e8:	df 01       	movw	r26, r30
    39ea:	ab 58       	subi	r26, 0x8B	; 139
    39ec:	b6 4f       	sbci	r27, 0xF6	; 246
    39ee:	8d 91       	ld	r24, X+
    39f0:	9c 91       	ld	r25, X
    39f2:	d7 01       	movw	r26, r14
    39f4:	4c 91       	ld	r20, X
    39f6:	42 30       	cpi	r20, 0x02	; 2
    39f8:	51 f0       	breq	.+20     	; 0x3a0e <Display_in_out+0x11c>
    39fa:	bc 01       	movw	r22, r24
    39fc:	66 5a       	subi	r22, 0xA6	; 166
    39fe:	7e 40       	sbci	r23, 0x0E	; 14
    3a00:	cb 01       	movw	r24, r22
    3a02:	95 95       	asr	r25
    3a04:	87 95       	ror	r24
    3a06:	bc 01       	movw	r22, r24
    3a08:	64 52       	subi	r22, 0x24	; 36
    3a0a:	7a 4f       	sbci	r23, 0xFA	; 250
    3a0c:	08 c0       	rjmp	.+16     	; 0x3a1e <Display_in_out+0x12c>
    3a0e:	88 0f       	add	r24, r24
    3a10:	99 1f       	adc	r25, r25
    3a12:	88 0f       	add	r24, r24
    3a14:	99 1f       	adc	r25, r25
    3a16:	05 96       	adiw	r24, 0x05	; 5
    3a18:	b1 01       	movw	r22, r2
    3a1a:	0e 94 7d 6e 	call	0xdcfa	; 0xdcfa <__divmodhi4>
    3a1e:	eb 58       	subi	r30, 0x8B	; 139
    3a20:	f6 4f       	sbci	r31, 0xF6	; 246
    3a22:	71 83       	std	Z+1, r23	; 0x01
    3a24:	60 83       	st	Z, r22
    3a26:	2f 5f       	subi	r18, 0xFF	; 255
    3a28:	3f 4f       	sbci	r19, 0xFF	; 255
    3a2a:	b2 e2       	ldi	r27, 0x22	; 34
    3a2c:	eb 0e       	add	r14, r27
    3a2e:	f1 1c       	adc	r15, r1
    3a30:	28 30       	cpi	r18, 0x08	; 8
    3a32:	31 05       	cpc	r19, r1
    3a34:	b1 f6       	brne	.-84     	; 0x39e2 <Display_in_out+0xf0>
    3a36:	e9 e1       	ldi	r30, 0x19	; 25
    3a38:	f6 e0       	ldi	r31, 0x06	; 6
    3a3a:	20 e0       	ldi	r18, 0x00	; 0
    3a3c:	30 e0       	ldi	r19, 0x00	; 0
    3a3e:	a9 01       	movw	r20, r18
    3a40:	44 0f       	add	r20, r20
    3a42:	55 1f       	adc	r21, r21
    3a44:	da 01       	movw	r26, r20
    3a46:	ab 58       	subi	r26, 0x8B	; 139
    3a48:	b6 4f       	sbci	r27, 0xF6	; 246
    3a4a:	0d 90       	ld	r0, X+
    3a4c:	bc 91       	ld	r27, X
    3a4e:	a0 2d       	mov	r26, r0
    3a50:	83 85       	ldd	r24, Z+11	; 0x0b
    3a52:	94 85       	ldd	r25, Z+12	; 0x0c
    3a54:	8a 17       	cp	r24, r26
    3a56:	9b 07       	cpc	r25, r27
    3a58:	3c f0       	brlt	.+14     	; 0x3a68 <Display_in_out+0x176>
    3a5a:	61 85       	ldd	r22, Z+9	; 0x09
    3a5c:	72 85       	ldd	r23, Z+10	; 0x0a
    3a5e:	cd 01       	movw	r24, r26
    3a60:	a6 17       	cp	r26, r22
    3a62:	b7 07       	cpc	r27, r23
    3a64:	0c f4       	brge	.+2      	; 0x3a68 <Display_in_out+0x176>
    3a66:	cb 01       	movw	r24, r22
    3a68:	da 01       	movw	r26, r20
    3a6a:	ab 58       	subi	r26, 0x8B	; 139
    3a6c:	b6 4f       	sbci	r27, 0xF6	; 246
    3a6e:	11 96       	adiw	r26, 0x01	; 1
    3a70:	9c 93       	st	X, r25
    3a72:	8e 93       	st	-X, r24
    3a74:	2f 5f       	subi	r18, 0xFF	; 255
    3a76:	3f 4f       	sbci	r19, 0xFF	; 255
    3a78:	34 96       	adiw	r30, 0x04	; 4
    3a7a:	28 30       	cpi	r18, 0x08	; 8
    3a7c:	31 05       	cpc	r19, r1
    3a7e:	f9 f6       	brne	.-66     	; 0x3a3e <Display_in_out+0x14c>
    3a80:	80 91 61 09 	lds	r24, 0x0961
    3a84:	90 91 62 09 	lds	r25, 0x0962
    3a88:	c2 97       	sbiw	r24, 0x32	; 50
    3a8a:	2c f0       	brlt	.+10     	; 0x3a96 <Display_in_out+0x1a4>
    3a8c:	fe 01       	movw	r30, r28
    3a8e:	71 96       	adiw	r30, 0x11	; 17
    3a90:	20 e0       	ldi	r18, 0x00	; 0
    3a92:	30 e0       	ldi	r19, 0x00	; 0
    3a94:	14 c0       	rjmp	.+40     	; 0x3abe <Display_in_out+0x1cc>
    3a96:	80 e0       	ldi	r24, 0x00	; 0
    3a98:	90 e0       	ldi	r25, 0x00	; 0
    3a9a:	f8 01       	movw	r30, r16
    3a9c:	20 81       	ld	r18, Z
    3a9e:	22 30       	cpi	r18, 0x02	; 2
    3aa0:	39 f4       	brne	.+14     	; 0x3ab0 <Display_in_out+0x1be>
    3aa2:	fc 01       	movw	r30, r24
    3aa4:	ee 0f       	add	r30, r30
    3aa6:	ff 1f       	adc	r31, r31
    3aa8:	eb 58       	subi	r30, 0x8B	; 139
    3aaa:	f6 4f       	sbci	r31, 0xF6	; 246
    3aac:	51 82       	std	Z+1, r5	; 0x01
    3aae:	40 82       	st	Z, r4
    3ab0:	01 96       	adiw	r24, 0x01	; 1
    3ab2:	0e 5d       	subi	r16, 0xDE	; 222
    3ab4:	1f 4f       	sbci	r17, 0xFF	; 255
    3ab6:	88 30       	cpi	r24, 0x08	; 8
    3ab8:	91 05       	cpc	r25, r1
    3aba:	79 f7       	brne	.-34     	; 0x3a9a <Display_in_out+0x1a8>
    3abc:	e7 cf       	rjmp	.-50     	; 0x3a8c <Display_in_out+0x19a>
    3abe:	d9 01       	movw	r26, r18
    3ac0:	aa 0f       	add	r26, r26
    3ac2:	bb 1f       	adc	r27, r27
    3ac4:	ab 58       	subi	r26, 0x8B	; 139
    3ac6:	b6 4f       	sbci	r27, 0xF6	; 246
    3ac8:	8d 91       	ld	r24, X+
    3aca:	9c 91       	ld	r25, X
    3acc:	ac 01       	movw	r20, r24
    3ace:	4c 5d       	subi	r20, 0xDC	; 220
    3ad0:	55 40       	sbci	r21, 0x05	; 5
    3ad2:	51 83       	std	Z+1, r21	; 0x01
    3ad4:	40 83       	st	Z, r20
    3ad6:	57 fd       	sbrc	r21, 7
    3ad8:	03 c0       	rjmp	.+6      	; 0x3ae0 <Display_in_out+0x1ee>
    3ada:	8a 5d       	subi	r24, 0xDA	; 218
    3adc:	95 40       	sbci	r25, 0x05	; 5
    3ade:	02 c0       	rjmp	.+4      	; 0x3ae4 <Display_in_out+0x1f2>
    3ae0:	8e 5d       	subi	r24, 0xDE	; 222
    3ae2:	95 40       	sbci	r25, 0x05	; 5
    3ae4:	b5 01       	movw	r22, r10
    3ae6:	0e 94 7d 6e 	call	0xdcfa	; 0xdcfa <__divmodhi4>
    3aea:	71 83       	std	Z+1, r23	; 0x01
    3aec:	60 83       	st	Z, r22
    3aee:	2f 5f       	subi	r18, 0xFF	; 255
    3af0:	3f 4f       	sbci	r19, 0xFF	; 255
    3af2:	32 96       	adiw	r30, 0x02	; 2
    3af4:	28 30       	cpi	r18, 0x08	; 8
    3af6:	31 05       	cpc	r19, r1
    3af8:	11 f7       	brne	.-60     	; 0x3abe <Display_in_out+0x1cc>
    3afa:	ae 01       	movw	r20, r28
    3afc:	4f 5f       	subi	r20, 0xFF	; 255
    3afe:	5f 4f       	sbci	r21, 0xFF	; 255
    3b00:	7a 01       	movw	r14, r20
    3b02:	00 e0       	ldi	r16, 0x00	; 0
    3b04:	10 e0       	ldi	r17, 0x00	; 0
    3b06:	f8 01       	movw	r30, r16
    3b08:	ee 0f       	add	r30, r30
    3b0a:	ff 1f       	adc	r31, r31
    3b0c:	ed 59       	subi	r30, 0x9D	; 157
    3b0e:	f6 4f       	sbci	r31, 0xF6	; 246
    3b10:	60 81       	ld	r22, Z
    3b12:	71 81       	ldd	r23, Z+1	; 0x01
    3b14:	07 2e       	mov	r0, r23
    3b16:	00 0c       	add	r0, r0
    3b18:	88 0b       	sbc	r24, r24
    3b1a:	99 0b       	sbc	r25, r25
    3b1c:	0e 94 47 6d 	call	0xda8e	; 0xda8e <__floatsisf>
    3b20:	20 e0       	ldi	r18, 0x00	; 0
    3b22:	30 e0       	ldi	r19, 0x00	; 0
    3b24:	40 e2       	ldi	r20, 0x20	; 32
    3b26:	51 e4       	ldi	r21, 0x41	; 65
    3b28:	0e 94 9d 6c 	call	0xd93a	; 0xd93a <__divsf3>
    3b2c:	0e 94 0f 6d 	call	0xda1e	; 0xda1e <__fixsfsi>
    3b30:	d7 01       	movw	r26, r14
    3b32:	6d 93       	st	X+, r22
    3b34:	7d 93       	st	X+, r23
    3b36:	7d 01       	movw	r14, r26
    3b38:	0f 5f       	subi	r16, 0xFF	; 255
    3b3a:	1f 4f       	sbci	r17, 0xFF	; 255
    3b3c:	08 30       	cpi	r16, 0x08	; 8
    3b3e:	11 05       	cpc	r17, r1
    3b40:	11 f7       	brne	.-60     	; 0x3b06 <Display_in_out+0x214>
    3b42:	23 e0       	ldi	r18, 0x03	; 3
    3b44:	30 e0       	ldi	r19, 0x00	; 0
    3b46:	40 e0       	ldi	r20, 0x00	; 0
    3b48:	50 e0       	ldi	r21, 0x00	; 0
    3b4a:	6d e7       	ldi	r22, 0x7D	; 125
    3b4c:	7f e0       	ldi	r23, 0x0F	; 15
    3b4e:	8e ed       	ldi	r24, 0xDE	; 222
    3b50:	91 e0       	ldi	r25, 0x01	; 1
    3b52:	0e 94 2e 38 	call	0x705c	; 0x705c <LCD_Display_Text>
    3b56:	2d e0       	ldi	r18, 0x0D	; 13
    3b58:	30 e0       	ldi	r19, 0x00	; 0
    3b5a:	40 e0       	ldi	r20, 0x00	; 0
    3b5c:	50 e0       	ldi	r21, 0x00	; 0
    3b5e:	6d e7       	ldi	r22, 0x7D	; 125
    3b60:	7f e0       	ldi	r23, 0x0F	; 15
    3b62:	8f ed       	ldi	r24, 0xDF	; 223
    3b64:	91 e0       	ldi	r25, 0x01	; 1
    3b66:	0e 94 2e 38 	call	0x705c	; 0x705c <LCD_Display_Text>
    3b6a:	27 e1       	ldi	r18, 0x17	; 23
    3b6c:	30 e0       	ldi	r19, 0x00	; 0
    3b6e:	40 e0       	ldi	r20, 0x00	; 0
    3b70:	50 e0       	ldi	r21, 0x00	; 0
    3b72:	6d e7       	ldi	r22, 0x7D	; 125
    3b74:	7f e0       	ldi	r23, 0x0F	; 15
    3b76:	80 ee       	ldi	r24, 0xE0	; 224
    3b78:	91 e0       	ldi	r25, 0x01	; 1
    3b7a:	0e 94 2e 38 	call	0x705c	; 0x705c <LCD_Display_Text>
    3b7e:	21 e2       	ldi	r18, 0x21	; 33
    3b80:	30 e0       	ldi	r19, 0x00	; 0
    3b82:	40 e0       	ldi	r20, 0x00	; 0
    3b84:	50 e0       	ldi	r21, 0x00	; 0
    3b86:	6d e7       	ldi	r22, 0x7D	; 125
    3b88:	7f e0       	ldi	r23, 0x0F	; 15
    3b8a:	81 ee       	ldi	r24, 0xE1	; 225
    3b8c:	91 e0       	ldi	r25, 0x01	; 1
    3b8e:	0e 94 2e 38 	call	0x705c	; 0x705c <LCD_Display_Text>
    3b92:	2b e2       	ldi	r18, 0x2B	; 43
    3b94:	30 e0       	ldi	r19, 0x00	; 0
    3b96:	40 e0       	ldi	r20, 0x00	; 0
    3b98:	50 e0       	ldi	r21, 0x00	; 0
    3b9a:	6d e7       	ldi	r22, 0x7D	; 125
    3b9c:	7f e0       	ldi	r23, 0x0F	; 15
    3b9e:	82 ee       	ldi	r24, 0xE2	; 226
    3ba0:	91 e0       	ldi	r25, 0x01	; 1
    3ba2:	0e 94 2e 38 	call	0x705c	; 0x705c <LCD_Display_Text>
    3ba6:	25 e3       	ldi	r18, 0x35	; 53
    3ba8:	30 e0       	ldi	r19, 0x00	; 0
    3baa:	40 e0       	ldi	r20, 0x00	; 0
    3bac:	50 e0       	ldi	r21, 0x00	; 0
    3bae:	6d e7       	ldi	r22, 0x7D	; 125
    3bb0:	7f e0       	ldi	r23, 0x0F	; 15
    3bb2:	83 ee       	ldi	r24, 0xE3	; 227
    3bb4:	91 e0       	ldi	r25, 0x01	; 1
    3bb6:	0e 94 2e 38 	call	0x705c	; 0x705c <LCD_Display_Text>
    3bba:	80 91 61 09 	lds	r24, 0x0961
    3bbe:	90 91 62 09 	lds	r25, 0x0962
    3bc2:	b3 01       	movw	r22, r6
    3bc4:	0e 94 7d 6e 	call	0xdcfa	; 0xdcfa <__divmodhi4>
    3bc8:	cb 01       	movw	r24, r22
    } else if (__radix < 2 || __radix > 36) {
	*__s = 0;
	return __s;
    } else {
	extern char *__itoa_ncheck (int, char *, unsigned char);
	return __itoa_ncheck (__val, __s, __radix);
    3bca:	4a e0       	ldi	r20, 0x0A	; 10
    3bcc:	62 ea       	ldi	r22, 0xA2	; 162
    3bce:	75 e0       	ldi	r23, 0x05	; 5
    3bd0:	0e 94 24 6f 	call	0xde48	; 0xde48 <__itoa_ncheck>
    3bd4:	23 e0       	ldi	r18, 0x03	; 3
    3bd6:	30 e0       	ldi	r19, 0x00	; 0
    3bd8:	49 e1       	ldi	r20, 0x19	; 25
    3bda:	50 e0       	ldi	r21, 0x00	; 0
    3bdc:	6d e7       	ldi	r22, 0x7D	; 125
    3bde:	7f e0       	ldi	r23, 0x0F	; 15
    3be0:	0e 94 44 62 	call	0xc488	; 0xc488 <mugui_lcd_puts>
    3be4:	4a e0       	ldi	r20, 0x0A	; 10
    3be6:	62 ea       	ldi	r22, 0xA2	; 162
    3be8:	75 e0       	ldi	r23, 0x05	; 5
    3bea:	8b 81       	ldd	r24, Y+3	; 0x03
    3bec:	9c 81       	ldd	r25, Y+4	; 0x04
    3bee:	0e 94 24 6f 	call	0xde48	; 0xde48 <__itoa_ncheck>
    3bf2:	2d e0       	ldi	r18, 0x0D	; 13
    3bf4:	30 e0       	ldi	r19, 0x00	; 0
    3bf6:	49 e1       	ldi	r20, 0x19	; 25
    3bf8:	50 e0       	ldi	r21, 0x00	; 0
    3bfa:	6d e7       	ldi	r22, 0x7D	; 125
    3bfc:	7f e0       	ldi	r23, 0x0F	; 15
    3bfe:	0e 94 44 62 	call	0xc488	; 0xc488 <mugui_lcd_puts>
    3c02:	4a e0       	ldi	r20, 0x0A	; 10
    3c04:	62 ea       	ldi	r22, 0xA2	; 162
    3c06:	75 e0       	ldi	r23, 0x05	; 5
    3c08:	8d 81       	ldd	r24, Y+5	; 0x05
    3c0a:	9e 81       	ldd	r25, Y+6	; 0x06
    3c0c:	0e 94 24 6f 	call	0xde48	; 0xde48 <__itoa_ncheck>
    3c10:	27 e1       	ldi	r18, 0x17	; 23
    3c12:	30 e0       	ldi	r19, 0x00	; 0
    3c14:	49 e1       	ldi	r20, 0x19	; 25
    3c16:	50 e0       	ldi	r21, 0x00	; 0
    3c18:	6d e7       	ldi	r22, 0x7D	; 125
    3c1a:	7f e0       	ldi	r23, 0x0F	; 15
    3c1c:	0e 94 44 62 	call	0xc488	; 0xc488 <mugui_lcd_puts>
    3c20:	4a e0       	ldi	r20, 0x0A	; 10
    3c22:	62 ea       	ldi	r22, 0xA2	; 162
    3c24:	75 e0       	ldi	r23, 0x05	; 5
    3c26:	8f 81       	ldd	r24, Y+7	; 0x07
    3c28:	98 85       	ldd	r25, Y+8	; 0x08
    3c2a:	0e 94 24 6f 	call	0xde48	; 0xde48 <__itoa_ncheck>
    3c2e:	21 e2       	ldi	r18, 0x21	; 33
    3c30:	30 e0       	ldi	r19, 0x00	; 0
    3c32:	49 e1       	ldi	r20, 0x19	; 25
    3c34:	50 e0       	ldi	r21, 0x00	; 0
    3c36:	6d e7       	ldi	r22, 0x7D	; 125
    3c38:	7f e0       	ldi	r23, 0x0F	; 15
    3c3a:	0e 94 44 62 	call	0xc488	; 0xc488 <mugui_lcd_puts>
    3c3e:	4a e0       	ldi	r20, 0x0A	; 10
    3c40:	62 ea       	ldi	r22, 0xA2	; 162
    3c42:	75 e0       	ldi	r23, 0x05	; 5
    3c44:	89 85       	ldd	r24, Y+9	; 0x09
    3c46:	9a 85       	ldd	r25, Y+10	; 0x0a
    3c48:	0e 94 24 6f 	call	0xde48	; 0xde48 <__itoa_ncheck>
    3c4c:	2b e2       	ldi	r18, 0x2B	; 43
    3c4e:	30 e0       	ldi	r19, 0x00	; 0
    3c50:	49 e1       	ldi	r20, 0x19	; 25
    3c52:	50 e0       	ldi	r21, 0x00	; 0
    3c54:	6d e7       	ldi	r22, 0x7D	; 125
    3c56:	7f e0       	ldi	r23, 0x0F	; 15
    3c58:	0e 94 44 62 	call	0xc488	; 0xc488 <mugui_lcd_puts>
    3c5c:	4a e0       	ldi	r20, 0x0A	; 10
    3c5e:	62 ea       	ldi	r22, 0xA2	; 162
    3c60:	75 e0       	ldi	r23, 0x05	; 5
    3c62:	8b 85       	ldd	r24, Y+11	; 0x0b
    3c64:	9c 85       	ldd	r25, Y+12	; 0x0c
    3c66:	0e 94 24 6f 	call	0xde48	; 0xde48 <__itoa_ncheck>
    3c6a:	25 e3       	ldi	r18, 0x35	; 53
    3c6c:	30 e0       	ldi	r19, 0x00	; 0
    3c6e:	49 e1       	ldi	r20, 0x19	; 25
    3c70:	50 e0       	ldi	r21, 0x00	; 0
    3c72:	6d e7       	ldi	r22, 0x7D	; 125
    3c74:	7f e0       	ldi	r23, 0x0F	; 15
    3c76:	0e 94 44 62 	call	0xc488	; 0xc488 <mugui_lcd_puts>
    3c7a:	23 e0       	ldi	r18, 0x03	; 3
    3c7c:	30 e0       	ldi	r19, 0x00	; 0
    3c7e:	40 e3       	ldi	r20, 0x30	; 48
    3c80:	50 e0       	ldi	r21, 0x00	; 0
    3c82:	6d e7       	ldi	r22, 0x7D	; 125
    3c84:	7f e0       	ldi	r23, 0x0F	; 15
    3c86:	84 ee       	ldi	r24, 0xE4	; 228
    3c88:	91 e0       	ldi	r25, 0x01	; 1
    3c8a:	0e 94 2e 38 	call	0x705c	; 0x705c <LCD_Display_Text>
    3c8e:	2d e0       	ldi	r18, 0x0D	; 13
    3c90:	30 e0       	ldi	r19, 0x00	; 0
    3c92:	40 e3       	ldi	r20, 0x30	; 48
    3c94:	50 e0       	ldi	r21, 0x00	; 0
    3c96:	6d e7       	ldi	r22, 0x7D	; 125
    3c98:	7f e0       	ldi	r23, 0x0F	; 15
    3c9a:	85 ee       	ldi	r24, 0xE5	; 229
    3c9c:	91 e0       	ldi	r25, 0x01	; 1
    3c9e:	0e 94 2e 38 	call	0x705c	; 0x705c <LCD_Display_Text>
    3ca2:	27 e1       	ldi	r18, 0x17	; 23
    3ca4:	30 e0       	ldi	r19, 0x00	; 0
    3ca6:	40 e3       	ldi	r20, 0x30	; 48
    3ca8:	50 e0       	ldi	r21, 0x00	; 0
    3caa:	6d e7       	ldi	r22, 0x7D	; 125
    3cac:	7f e0       	ldi	r23, 0x0F	; 15
    3cae:	8d ed       	ldi	r24, 0xDD	; 221
    3cb0:	91 e0       	ldi	r25, 0x01	; 1
    3cb2:	0e 94 2e 38 	call	0x705c	; 0x705c <LCD_Display_Text>
    3cb6:	21 e2       	ldi	r18, 0x21	; 33
    3cb8:	30 e0       	ldi	r19, 0x00	; 0
    3cba:	40 e3       	ldi	r20, 0x30	; 48
    3cbc:	50 e0       	ldi	r21, 0x00	; 0
    3cbe:	6d e7       	ldi	r22, 0x7D	; 125
    3cc0:	7f e0       	ldi	r23, 0x0F	; 15
    3cc2:	84 ed       	ldi	r24, 0xD4	; 212
    3cc4:	91 e0       	ldi	r25, 0x01	; 1
    3cc6:	0e 94 2e 38 	call	0x705c	; 0x705c <LCD_Display_Text>
    3cca:	2b e2       	ldi	r18, 0x2B	; 43
    3ccc:	30 e0       	ldi	r19, 0x00	; 0
    3cce:	40 e3       	ldi	r20, 0x30	; 48
    3cd0:	50 e0       	ldi	r21, 0x00	; 0
    3cd2:	6d e7       	ldi	r22, 0x7D	; 125
    3cd4:	7f e0       	ldi	r23, 0x0F	; 15
    3cd6:	85 ed       	ldi	r24, 0xD5	; 213
    3cd8:	91 e0       	ldi	r25, 0x01	; 1
    3cda:	0e 94 2e 38 	call	0x705c	; 0x705c <LCD_Display_Text>
    3cde:	25 e3       	ldi	r18, 0x35	; 53
    3ce0:	30 e0       	ldi	r19, 0x00	; 0
    3ce2:	40 e3       	ldi	r20, 0x30	; 48
    3ce4:	50 e0       	ldi	r21, 0x00	; 0
    3ce6:	6d e7       	ldi	r22, 0x7D	; 125
    3ce8:	7f e0       	ldi	r23, 0x0F	; 15
    3cea:	86 ed       	ldi	r24, 0xD6	; 214
    3cec:	91 e0       	ldi	r25, 0x01	; 1
    3cee:	0e 94 2e 38 	call	0x705c	; 0x705c <LCD_Display_Text>
    3cf2:	4a e0       	ldi	r20, 0x0A	; 10
    3cf4:	62 ea       	ldi	r22, 0xA2	; 162
    3cf6:	75 e0       	ldi	r23, 0x05	; 5
    3cf8:	8d 85       	ldd	r24, Y+13	; 0x0d
    3cfa:	9e 85       	ldd	r25, Y+14	; 0x0e
    3cfc:	0e 94 24 6f 	call	0xde48	; 0xde48 <__itoa_ncheck>
    3d00:	23 e0       	ldi	r18, 0x03	; 3
    3d02:	30 e0       	ldi	r19, 0x00	; 0
    3d04:	47 e4       	ldi	r20, 0x47	; 71
    3d06:	50 e0       	ldi	r21, 0x00	; 0
    3d08:	6d e7       	ldi	r22, 0x7D	; 125
    3d0a:	7f e0       	ldi	r23, 0x0F	; 15
    3d0c:	0e 94 44 62 	call	0xc488	; 0xc488 <mugui_lcd_puts>
    3d10:	4a e0       	ldi	r20, 0x0A	; 10
    3d12:	62 ea       	ldi	r22, 0xA2	; 162
    3d14:	75 e0       	ldi	r23, 0x05	; 5
    3d16:	8f 85       	ldd	r24, Y+15	; 0x0f
    3d18:	98 89       	ldd	r25, Y+16	; 0x10
    3d1a:	0e 94 24 6f 	call	0xde48	; 0xde48 <__itoa_ncheck>
    3d1e:	2d e0       	ldi	r18, 0x0D	; 13
    3d20:	30 e0       	ldi	r19, 0x00	; 0
    3d22:	47 e4       	ldi	r20, 0x47	; 71
    3d24:	50 e0       	ldi	r21, 0x00	; 0
    3d26:	6d e7       	ldi	r22, 0x7D	; 125
    3d28:	7f e0       	ldi	r23, 0x0F	; 15
    3d2a:	0e 94 44 62 	call	0xc488	; 0xc488 <mugui_lcd_puts>
    3d2e:	4a e0       	ldi	r20, 0x0A	; 10
    3d30:	62 ea       	ldi	r22, 0xA2	; 162
    3d32:	75 e0       	ldi	r23, 0x05	; 5
    3d34:	89 89       	ldd	r24, Y+17	; 0x11
    3d36:	9a 89       	ldd	r25, Y+18	; 0x12
    3d38:	0e 94 24 6f 	call	0xde48	; 0xde48 <__itoa_ncheck>
    3d3c:	21 e2       	ldi	r18, 0x21	; 33
    3d3e:	30 e0       	ldi	r19, 0x00	; 0
    3d40:	49 e3       	ldi	r20, 0x39	; 57
    3d42:	50 e0       	ldi	r21, 0x00	; 0
    3d44:	6d e7       	ldi	r22, 0x7D	; 125
    3d46:	7f e0       	ldi	r23, 0x0F	; 15
    3d48:	0e 94 44 62 	call	0xc488	; 0xc488 <mugui_lcd_puts>
    3d4c:	4a e0       	ldi	r20, 0x0A	; 10
    3d4e:	62 ea       	ldi	r22, 0xA2	; 162
    3d50:	75 e0       	ldi	r23, 0x05	; 5
    3d52:	8b 89       	ldd	r24, Y+19	; 0x13
    3d54:	9c 89       	ldd	r25, Y+20	; 0x14
    3d56:	0e 94 24 6f 	call	0xde48	; 0xde48 <__itoa_ncheck>
    3d5a:	2b e2       	ldi	r18, 0x2B	; 43
    3d5c:	30 e0       	ldi	r19, 0x00	; 0
    3d5e:	49 e3       	ldi	r20, 0x39	; 57
    3d60:	50 e0       	ldi	r21, 0x00	; 0
    3d62:	6d e7       	ldi	r22, 0x7D	; 125
    3d64:	7f e0       	ldi	r23, 0x0F	; 15
    3d66:	0e 94 44 62 	call	0xc488	; 0xc488 <mugui_lcd_puts>
    3d6a:	4a e0       	ldi	r20, 0x0A	; 10
    3d6c:	62 ea       	ldi	r22, 0xA2	; 162
    3d6e:	75 e0       	ldi	r23, 0x05	; 5
    3d70:	8d 89       	ldd	r24, Y+21	; 0x15
    3d72:	9e 89       	ldd	r25, Y+22	; 0x16
    3d74:	0e 94 24 6f 	call	0xde48	; 0xde48 <__itoa_ncheck>
    3d78:	25 e3       	ldi	r18, 0x35	; 53
    3d7a:	30 e0       	ldi	r19, 0x00	; 0
    3d7c:	49 e3       	ldi	r20, 0x39	; 57
    3d7e:	50 e0       	ldi	r21, 0x00	; 0
    3d80:	6d e7       	ldi	r22, 0x7D	; 125
    3d82:	7f e0       	ldi	r23, 0x0F	; 15
    3d84:	0e 94 44 62 	call	0xc488	; 0xc488 <mugui_lcd_puts>
    3d88:	23 e0       	ldi	r18, 0x03	; 3
    3d8a:	30 e0       	ldi	r19, 0x00	; 0
    3d8c:	4e e5       	ldi	r20, 0x5E	; 94
    3d8e:	50 e0       	ldi	r21, 0x00	; 0
    3d90:	6d e7       	ldi	r22, 0x7D	; 125
    3d92:	7f e0       	ldi	r23, 0x0F	; 15
    3d94:	87 ed       	ldi	r24, 0xD7	; 215
    3d96:	91 e0       	ldi	r25, 0x01	; 1
    3d98:	0e 94 2e 38 	call	0x705c	; 0x705c <LCD_Display_Text>
    3d9c:	2d e0       	ldi	r18, 0x0D	; 13
    3d9e:	30 e0       	ldi	r19, 0x00	; 0
    3da0:	4e e5       	ldi	r20, 0x5E	; 94
    3da2:	50 e0       	ldi	r21, 0x00	; 0
    3da4:	6d e7       	ldi	r22, 0x7D	; 125
    3da6:	7f e0       	ldi	r23, 0x0F	; 15
    3da8:	88 ed       	ldi	r24, 0xD8	; 216
    3daa:	91 e0       	ldi	r25, 0x01	; 1
    3dac:	0e 94 2e 38 	call	0x705c	; 0x705c <LCD_Display_Text>
    3db0:	27 e1       	ldi	r18, 0x17	; 23
    3db2:	30 e0       	ldi	r19, 0x00	; 0
    3db4:	4e e5       	ldi	r20, 0x5E	; 94
    3db6:	50 e0       	ldi	r21, 0x00	; 0
    3db8:	6d e7       	ldi	r22, 0x7D	; 125
    3dba:	7f e0       	ldi	r23, 0x0F	; 15
    3dbc:	89 ed       	ldi	r24, 0xD9	; 217
    3dbe:	91 e0       	ldi	r25, 0x01	; 1
    3dc0:	0e 94 2e 38 	call	0x705c	; 0x705c <LCD_Display_Text>
    3dc4:	21 e2       	ldi	r18, 0x21	; 33
    3dc6:	30 e0       	ldi	r19, 0x00	; 0
    3dc8:	4e e5       	ldi	r20, 0x5E	; 94
    3dca:	50 e0       	ldi	r21, 0x00	; 0
    3dcc:	6d e7       	ldi	r22, 0x7D	; 125
    3dce:	7f e0       	ldi	r23, 0x0F	; 15
    3dd0:	8a ed       	ldi	r24, 0xDA	; 218
    3dd2:	91 e0       	ldi	r25, 0x01	; 1
    3dd4:	0e 94 2e 38 	call	0x705c	; 0x705c <LCD_Display_Text>
    3dd8:	2b e2       	ldi	r18, 0x2B	; 43
    3dda:	30 e0       	ldi	r19, 0x00	; 0
    3ddc:	4e e5       	ldi	r20, 0x5E	; 94
    3dde:	50 e0       	ldi	r21, 0x00	; 0
    3de0:	6d e7       	ldi	r22, 0x7D	; 125
    3de2:	7f e0       	ldi	r23, 0x0F	; 15
    3de4:	8b ed       	ldi	r24, 0xDB	; 219
    3de6:	91 e0       	ldi	r25, 0x01	; 1
    3de8:	0e 94 2e 38 	call	0x705c	; 0x705c <LCD_Display_Text>
    3dec:	25 e3       	ldi	r18, 0x35	; 53
    3dee:	30 e0       	ldi	r19, 0x00	; 0
    3df0:	48 e5       	ldi	r20, 0x58	; 88
    3df2:	50 e0       	ldi	r21, 0x00	; 0
    3df4:	6d e7       	ldi	r22, 0x7D	; 125
    3df6:	7f e0       	ldi	r23, 0x0F	; 15
    3df8:	8c ed       	ldi	r24, 0xDC	; 220
    3dfa:	91 e0       	ldi	r25, 0x01	; 1
    3dfc:	0e 94 2e 38 	call	0x705c	; 0x705c <LCD_Display_Text>
    3e00:	4a e0       	ldi	r20, 0x0A	; 10
    3e02:	62 ea       	ldi	r22, 0xA2	; 162
    3e04:	75 e0       	ldi	r23, 0x05	; 5
    3e06:	8f 89       	ldd	r24, Y+23	; 0x17
    3e08:	98 8d       	ldd	r25, Y+24	; 0x18
    3e0a:	0e 94 24 6f 	call	0xde48	; 0xde48 <__itoa_ncheck>
    3e0e:	23 e0       	ldi	r18, 0x03	; 3
    3e10:	30 e0       	ldi	r19, 0x00	; 0
    3e12:	48 e6       	ldi	r20, 0x68	; 104
    3e14:	50 e0       	ldi	r21, 0x00	; 0
    3e16:	6d e7       	ldi	r22, 0x7D	; 125
    3e18:	7f e0       	ldi	r23, 0x0F	; 15
    3e1a:	0e 94 44 62 	call	0xc488	; 0xc488 <mugui_lcd_puts>
    3e1e:	4a e0       	ldi	r20, 0x0A	; 10
    3e20:	62 ea       	ldi	r22, 0xA2	; 162
    3e22:	75 e0       	ldi	r23, 0x05	; 5
    3e24:	89 8d       	ldd	r24, Y+25	; 0x19
    3e26:	9a 8d       	ldd	r25, Y+26	; 0x1a
    3e28:	0e 94 24 6f 	call	0xde48	; 0xde48 <__itoa_ncheck>
    3e2c:	2d e0       	ldi	r18, 0x0D	; 13
    3e2e:	30 e0       	ldi	r19, 0x00	; 0
    3e30:	48 e6       	ldi	r20, 0x68	; 104
    3e32:	50 e0       	ldi	r21, 0x00	; 0
    3e34:	6d e7       	ldi	r22, 0x7D	; 125
    3e36:	7f e0       	ldi	r23, 0x0F	; 15
    3e38:	0e 94 44 62 	call	0xc488	; 0xc488 <mugui_lcd_puts>
    3e3c:	4a e0       	ldi	r20, 0x0A	; 10
    3e3e:	62 ea       	ldi	r22, 0xA2	; 162
    3e40:	75 e0       	ldi	r23, 0x05	; 5
    3e42:	8b 8d       	ldd	r24, Y+27	; 0x1b
    3e44:	9c 8d       	ldd	r25, Y+28	; 0x1c
    3e46:	0e 94 24 6f 	call	0xde48	; 0xde48 <__itoa_ncheck>
    3e4a:	27 e1       	ldi	r18, 0x17	; 23
    3e4c:	30 e0       	ldi	r19, 0x00	; 0
    3e4e:	48 e6       	ldi	r20, 0x68	; 104
    3e50:	50 e0       	ldi	r21, 0x00	; 0
    3e52:	6d e7       	ldi	r22, 0x7D	; 125
    3e54:	7f e0       	ldi	r23, 0x0F	; 15
    3e56:	0e 94 44 62 	call	0xc488	; 0xc488 <mugui_lcd_puts>
    3e5a:	4a e0       	ldi	r20, 0x0A	; 10
    3e5c:	62 ea       	ldi	r22, 0xA2	; 162
    3e5e:	75 e0       	ldi	r23, 0x05	; 5
    3e60:	8d 8d       	ldd	r24, Y+29	; 0x1d
    3e62:	9e 8d       	ldd	r25, Y+30	; 0x1e
    3e64:	0e 94 24 6f 	call	0xde48	; 0xde48 <__itoa_ncheck>
    3e68:	21 e2       	ldi	r18, 0x21	; 33
    3e6a:	30 e0       	ldi	r19, 0x00	; 0
    3e6c:	48 e6       	ldi	r20, 0x68	; 104
    3e6e:	50 e0       	ldi	r21, 0x00	; 0
    3e70:	6d e7       	ldi	r22, 0x7D	; 125
    3e72:	7f e0       	ldi	r23, 0x0F	; 15
    3e74:	0e 94 44 62 	call	0xc488	; 0xc488 <mugui_lcd_puts>
    3e78:	4a e0       	ldi	r20, 0x0A	; 10
    3e7a:	62 ea       	ldi	r22, 0xA2	; 162
    3e7c:	75 e0       	ldi	r23, 0x05	; 5
    3e7e:	8f 8d       	ldd	r24, Y+31	; 0x1f
    3e80:	98 a1       	ldd	r25, Y+32	; 0x20
    3e82:	0e 94 24 6f 	call	0xde48	; 0xde48 <__itoa_ncheck>
    3e86:	2b e2       	ldi	r18, 0x2B	; 43
    3e88:	30 e0       	ldi	r19, 0x00	; 0
    3e8a:	48 e6       	ldi	r20, 0x68	; 104
    3e8c:	50 e0       	ldi	r21, 0x00	; 0
    3e8e:	6d e7       	ldi	r22, 0x7D	; 125
    3e90:	7f e0       	ldi	r23, 0x0F	; 15
    3e92:	0e 94 44 62 	call	0xc488	; 0xc488 <mugui_lcd_puts>
    3e96:	c0 90 38 05 	lds	r12, 0x0538
    3e9a:	d0 90 39 05 	lds	r13, 0x0539
    3e9e:	86 01       	movw	r16, r12
    3ea0:	0c 59       	subi	r16, 0x9C	; 156
    3ea2:	1f 4f       	sbci	r17, 0xFF	; 255
    3ea4:	c8 01       	movw	r24, r16
    3ea6:	b4 01       	movw	r22, r8
    3ea8:	0e 94 69 6e 	call	0xdcd2	; 0xdcd2 <__udivmodhi4>
    3eac:	7b 01       	movw	r14, r22
    3eae:	4a e0       	ldi	r20, 0x0A	; 10
    3eb0:	62 ea       	ldi	r22, 0xA2	; 162
    3eb2:	75 e0       	ldi	r23, 0x05	; 5
    3eb4:	c7 01       	movw	r24, r14
    3eb6:	0e 94 24 6f 	call	0xde48	; 0xde48 <__itoa_ncheck>
    3eba:	ae 01       	movw	r20, r28
    3ebc:	4f 5d       	subi	r20, 0xDF	; 223
    3ebe:	5f 4f       	sbci	r21, 0xFF	; 255
    3ec0:	6d e7       	ldi	r22, 0x7D	; 125
    3ec2:	7f e0       	ldi	r23, 0x0F	; 15
    3ec4:	0e 94 f1 60 	call	0xc1e2	; 0xc1e2 <mugui_text_sizestring>
    3ec8:	4a e0       	ldi	r20, 0x0A	; 10
    3eca:	62 ea       	ldi	r22, 0xA2	; 162
    3ecc:	75 e0       	ldi	r23, 0x05	; 5
    3ece:	c7 01       	movw	r24, r14
    3ed0:	0e 94 24 6f 	call	0xde48	; 0xde48 <__itoa_ncheck>
    3ed4:	25 e3       	ldi	r18, 0x35	; 53
    3ed6:	30 e0       	ldi	r19, 0x00	; 0
    3ed8:	48 e6       	ldi	r20, 0x68	; 104
    3eda:	50 e0       	ldi	r21, 0x00	; 0
    3edc:	6d e7       	ldi	r22, 0x7D	; 125
    3ede:	7f e0       	ldi	r23, 0x0F	; 15
    3ee0:	0e 94 44 62 	call	0xc488	; 0xc488 <mugui_lcd_puts>
    3ee4:	2c e9       	ldi	r18, 0x9C	; 156
    3ee6:	a7 01       	movw	r20, r14
    3ee8:	24 03       	mulsu	r18, r20
    3eea:	60 01       	movw	r12, r0
    3eec:	25 9f       	mul	r18, r21
    3eee:	d0 0c       	add	r13, r0
    3ef0:	11 24       	eor	r1, r1
    3ef2:	c0 0e       	add	r12, r16
    3ef4:	d1 1e       	adc	r13, r17
    3ef6:	09 a1       	ldd	r16, Y+33	; 0x21
    3ef8:	00 2e       	mov	r0, r16
    3efa:	00 0c       	add	r0, r0
    3efc:	11 0b       	sbc	r17, r17
    3efe:	08 59       	subi	r16, 0x98	; 152
    3f00:	1f 4f       	sbci	r17, 0xFF	; 255
    3f02:	25 e3       	ldi	r18, 0x35	; 53
    3f04:	30 e0       	ldi	r19, 0x00	; 0
    3f06:	a8 01       	movw	r20, r16
    3f08:	6d e7       	ldi	r22, 0x7D	; 125
    3f0a:	7f e0       	ldi	r23, 0x0F	; 15
    3f0c:	8c e0       	ldi	r24, 0x0C	; 12
    3f0e:	91 e0       	ldi	r25, 0x01	; 1
    3f10:	0e 94 2e 38 	call	0x705c	; 0x705c <LCD_Display_Text>
    3f14:	ae 01       	movw	r20, r28
    3f16:	4f 5d       	subi	r20, 0xDF	; 223
    3f18:	5f 4f       	sbci	r21, 0xFF	; 255
    3f1a:	6d e7       	ldi	r22, 0x7D	; 125
    3f1c:	7f e0       	ldi	r23, 0x0F	; 15
    3f1e:	8b e0       	ldi	r24, 0x0B	; 11
    3f20:	95 e0       	ldi	r25, 0x05	; 5
    3f22:	0e 94 f1 60 	call	0xc1e2	; 0xc1e2 <mugui_text_sizestring>
    3f26:	e9 a0       	ldd	r14, Y+33	; 0x21
    3f28:	ae 01       	movw	r20, r28
    3f2a:	4f 5d       	subi	r20, 0xDF	; 223
    3f2c:	5f 4f       	sbci	r21, 0xFF	; 255
    3f2e:	6d e7       	ldi	r22, 0x7D	; 125
    3f30:	7f e0       	ldi	r23, 0x0F	; 15
    3f32:	8d e0       	ldi	r24, 0x0D	; 13
    3f34:	95 e0       	ldi	r25, 0x05	; 5
    3f36:	0e 94 f1 60 	call	0xc1e2	; 0xc1e2 <mugui_text_sizestring>
    3f3a:	59 a1       	ldd	r21, Y+33	; 0x21
    3f3c:	5d a3       	std	Y+37, r21	; 0x25
    3f3e:	0e 2c       	mov	r0, r14
    3f40:	00 0c       	add	r0, r0
    3f42:	ff 08       	sbc	r15, r15
    3f44:	8a e0       	ldi	r24, 0x0A	; 10
    3f46:	c8 16       	cp	r12, r24
    3f48:	d1 04       	cpc	r13, r1
    3f4a:	38 f0       	brcs	.+14     	; 0x3f5a <Display_in_out+0x668>
    3f4c:	4a e0       	ldi	r20, 0x0A	; 10
    3f4e:	62 ea       	ldi	r22, 0xA2	; 162
    3f50:	75 e0       	ldi	r23, 0x05	; 5
    3f52:	c6 01       	movw	r24, r12
    3f54:	0e 94 24 6f 	call	0xde48	; 0xde48 <__itoa_ncheck>
    3f58:	16 c0       	rjmp	.+44     	; 0x3f86 <Display_in_out+0x694>
    3f5a:	a8 01       	movw	r20, r16
    3f5c:	4e 0d       	add	r20, r14
    3f5e:	5f 1d       	adc	r21, r15
    3f60:	25 e3       	ldi	r18, 0x35	; 53
    3f62:	30 e0       	ldi	r19, 0x00	; 0
    3f64:	6d e7       	ldi	r22, 0x7D	; 125
    3f66:	7f e0       	ldi	r23, 0x0F	; 15
    3f68:	8d e0       	ldi	r24, 0x0D	; 13
    3f6a:	91 e0       	ldi	r25, 0x01	; 1
    3f6c:	0e 94 2e 38 	call	0x705c	; 0x705c <LCD_Display_Text>
    3f70:	4a e0       	ldi	r20, 0x0A	; 10
    3f72:	62 ea       	ldi	r22, 0xA2	; 162
    3f74:	75 e0       	ldi	r23, 0x05	; 5
    3f76:	c6 01       	movw	r24, r12
    3f78:	0e 94 24 6f 	call	0xde48	; 0xde48 <__itoa_ncheck>
    3f7c:	ad a1       	ldd	r26, Y+37	; 0x25
    3f7e:	0a 0f       	add	r16, r26
    3f80:	11 1d       	adc	r17, r1
    3f82:	a7 fd       	sbrc	r26, 7
    3f84:	1a 95       	dec	r17
    3f86:	a8 01       	movw	r20, r16
    3f88:	4e 0d       	add	r20, r14
    3f8a:	5f 1d       	adc	r21, r15
    3f8c:	25 e3       	ldi	r18, 0x35	; 53
    3f8e:	30 e0       	ldi	r19, 0x00	; 0
    3f90:	6d e7       	ldi	r22, 0x7D	; 125
    3f92:	7f e0       	ldi	r23, 0x0F	; 15
    3f94:	0e 94 44 62 	call	0xc488	; 0xc488 <mugui_lcd_puts>
    3f98:	80 e0       	ldi	r24, 0x00	; 0
    3f9a:	91 e0       	ldi	r25, 0x01	; 1
    3f9c:	0e 94 1d 36 	call	0x6c3a	; 0x6c3a <write_buffer>
    3fa0:	80 e0       	ldi	r24, 0x00	; 0
    3fa2:	91 e0       	ldi	r25, 0x01	; 1
    3fa4:	0e 94 52 36 	call	0x6ca4	; 0x6ca4 <clear_buffer>
    3fa8:	d0 cc       	rjmp	.-1632   	; 0x394a <Display_in_out+0x58>
    3faa:	a5 96       	adiw	r28, 0x25	; 37
    3fac:	0f b6       	in	r0, 0x3f	; 63
    3fae:	f8 94       	cli
    3fb0:	de bf       	out	0x3e, r29	; 62
    3fb2:	0f be       	out	0x3f, r0	; 63
    3fb4:	cd bf       	out	0x3d, r28	; 61
    3fb6:	df 91       	pop	r29
    3fb8:	cf 91       	pop	r28
    3fba:	1f 91       	pop	r17
    3fbc:	0f 91       	pop	r16
    3fbe:	ff 90       	pop	r15
    3fc0:	ef 90       	pop	r14
    3fc2:	df 90       	pop	r13
    3fc4:	cf 90       	pop	r12
    3fc6:	bf 90       	pop	r11
    3fc8:	af 90       	pop	r10
    3fca:	9f 90       	pop	r9
    3fcc:	8f 90       	pop	r8
    3fce:	7f 90       	pop	r7
    3fd0:	6f 90       	pop	r6
    3fd2:	5f 90       	pop	r5
    3fd4:	4f 90       	pop	r4
    3fd6:	3f 90       	pop	r3
    3fd8:	2f 90       	pop	r2
    3fda:	08 95       	ret

00003fdc <menu_log>:
    3fdc:	cf 92       	push	r12
    3fde:	df 92       	push	r13
    3fe0:	ef 92       	push	r14
    3fe2:	ff 92       	push	r15
    3fe4:	0f 93       	push	r16
    3fe6:	1f 93       	push	r17
    3fe8:	cf 93       	push	r28
    3fea:	df 93       	push	r29
    3fec:	c0 e0       	ldi	r28, 0x00	; 0
    3fee:	8d e1       	ldi	r24, 0x1D	; 29
    3ff0:	c8 2e       	mov	r12, r24
    3ff2:	88 e0       	ldi	r24, 0x08	; 8
    3ff4:	d8 2e       	mov	r13, r24
    3ff6:	d4 e1       	ldi	r29, 0x14	; 20
    3ff8:	1f 9b       	sbis	0x03, 7	; 3
    3ffa:	45 c0       	rjmp	.+138    	; 0x4086 <menu_log+0xaa>
    3ffc:	1c 99       	sbic	0x03, 4	; 3
    3ffe:	09 c0       	rjmp	.+18     	; 0x4012 <menu_log+0x36>
    4000:	f6 01       	movw	r30, r12
    4002:	2d 2f       	mov	r18, r29
    4004:	11 92       	st	Z+, r1
    4006:	2a 95       	dec	r18
    4008:	e9 f7       	brne	.-6      	; 0x4004 <menu_log+0x28>
    400a:	10 92 1c 08 	sts	0x081C, r1
    400e:	0e 94 4e 26 	call	0x4c9c	; 0x4c9c <Save_Config_to_EEPROM>
    4012:	1e 99       	sbic	0x03, 6	; 3
    4014:	03 c0       	rjmp	.+6      	; 0x401c <menu_log+0x40>
    4016:	c1 50       	subi	r28, 0x01	; 1
    4018:	c7 fd       	sbrc	r28, 7
    401a:	c0 e0       	ldi	r28, 0x00	; 0
    401c:	1d 99       	sbic	0x03, 5	; 3
    401e:	04 c0       	rjmp	.+8      	; 0x4028 <menu_log+0x4c>
    4020:	cf 5f       	subi	r28, 0xFF	; 255
    4022:	cf 30       	cpi	r28, 0x0F	; 15
    4024:	0c f0       	brlt	.+2      	; 0x4028 <menu_log+0x4c>
    4026:	cf e0       	ldi	r28, 0x0F	; 15
    4028:	8c 2f       	mov	r24, r28
    402a:	0c 2e       	mov	r0, r28
    402c:	00 0c       	add	r0, r0
    402e:	99 0b       	sbc	r25, r25
    4030:	fc 01       	movw	r30, r24
    4032:	e3 5e       	subi	r30, 0xE3	; 227
    4034:	f7 4f       	sbci	r31, 0xF7	; 247
    4036:	7f 01       	movw	r14, r30
    4038:	00 e0       	ldi	r16, 0x00	; 0
    403a:	10 e0       	ldi	r17, 0x00	; 0
    403c:	f7 01       	movw	r30, r14
    403e:	81 91       	ld	r24, Z+
    4040:	7f 01       	movw	r14, r30
    4042:	08 2e       	mov	r0, r24
    4044:	00 0c       	add	r0, r0
    4046:	99 0b       	sbc	r25, r25
    4048:	98 01       	movw	r18, r16
    404a:	40 e0       	ldi	r20, 0x00	; 0
    404c:	50 e0       	ldi	r21, 0x00	; 0
    404e:	6d e7       	ldi	r22, 0x7D	; 125
    4050:	7f e0       	ldi	r23, 0x0F	; 15
    4052:	85 5e       	subi	r24, 0xE5	; 229
    4054:	9e 4f       	sbci	r25, 0xFE	; 254
    4056:	0e 94 2e 38 	call	0x705c	; 0x705c <LCD_Display_Text>
    405a:	06 5f       	subi	r16, 0xF6	; 246
    405c:	1f 4f       	sbci	r17, 0xFF	; 255
    405e:	02 33       	cpi	r16, 0x32	; 50
    4060:	11 05       	cpc	r17, r1
    4062:	61 f7       	brne	.-40     	; 0x403c <menu_log+0x60>
    4064:	83 e0       	ldi	r24, 0x03	; 3
    4066:	0e 94 c2 48 	call	0x9184	; 0x9184 <print_menu_frame>
    406a:	80 e0       	ldi	r24, 0x00	; 0
    406c:	91 e0       	ldi	r25, 0x01	; 1
    406e:	0e 94 52 36 	call	0x6ca4	; 0x6ca4 <clear_buffer>
    4072:	ff e7       	ldi	r31, 0x7F	; 127
    4074:	2a e1       	ldi	r18, 0x1A	; 26
    4076:	36 e0       	ldi	r19, 0x06	; 6
    4078:	f1 50       	subi	r31, 0x01	; 1
    407a:	20 40       	sbci	r18, 0x00	; 0
    407c:	30 40       	sbci	r19, 0x00	; 0
    407e:	e1 f7       	brne	.-8      	; 0x4078 <menu_log+0x9c>
    4080:	00 c0       	rjmp	.+0      	; 0x4082 <menu_log+0xa6>
    4082:	00 00       	nop
    4084:	b9 cf       	rjmp	.-142    	; 0x3ff8 <menu_log+0x1c>
    4086:	df 91       	pop	r29
    4088:	cf 91       	pop	r28
    408a:	1f 91       	pop	r17
    408c:	0f 91       	pop	r16
    408e:	ff 90       	pop	r15
    4090:	ef 90       	pop	r14
    4092:	df 90       	pop	r13
    4094:	cf 90       	pop	r12
    4096:	08 95       	ret

00004098 <Display_rcinput>:
    4098:	0e 94 6d 47 	call	0x8eda	; 0x8eda <init_int>
    409c:	1f 9b       	sbis	0x03, 7	; 3
    409e:	fa c0       	rjmp	.+500    	; 0x4294 <Display_rcinput+0x1fc>
    40a0:	1c 9b       	sbis	0x03, 4	; 3
    40a2:	0e 94 58 69 	call	0xd2b0	; 0xd2b0 <CenterSticks>
    40a6:	0e 94 c3 68 	call	0xd186	; 0xd186 <RxGetChannels>
    40aa:	20 e0       	ldi	r18, 0x00	; 0
    40ac:	30 e0       	ldi	r19, 0x00	; 0
    40ae:	40 e0       	ldi	r20, 0x00	; 0
    40b0:	50 e0       	ldi	r21, 0x00	; 0
    40b2:	6d e7       	ldi	r22, 0x7D	; 125
    40b4:	7f e0       	ldi	r23, 0x0F	; 15
    40b6:	82 e7       	ldi	r24, 0x72	; 114
    40b8:	90 e0       	ldi	r25, 0x00	; 0
    40ba:	0e 94 2e 38 	call	0x705c	; 0x705c <LCD_Display_Text>
    40be:	2a e0       	ldi	r18, 0x0A	; 10
    40c0:	30 e0       	ldi	r19, 0x00	; 0
    40c2:	40 e0       	ldi	r20, 0x00	; 0
    40c4:	50 e0       	ldi	r21, 0x00	; 0
    40c6:	6d e7       	ldi	r22, 0x7D	; 125
    40c8:	7f e0       	ldi	r23, 0x0F	; 15
    40ca:	80 e2       	ldi	r24, 0x20	; 32
    40cc:	90 e0       	ldi	r25, 0x00	; 0
    40ce:	0e 94 2e 38 	call	0x705c	; 0x705c <LCD_Display_Text>
    40d2:	24 e1       	ldi	r18, 0x14	; 20
    40d4:	30 e0       	ldi	r19, 0x00	; 0
    40d6:	40 e0       	ldi	r20, 0x00	; 0
    40d8:	50 e0       	ldi	r21, 0x00	; 0
    40da:	6d e7       	ldi	r22, 0x7D	; 125
    40dc:	7f e0       	ldi	r23, 0x0F	; 15
    40de:	83 e7       	ldi	r24, 0x73	; 115
    40e0:	90 e0       	ldi	r25, 0x00	; 0
    40e2:	0e 94 2e 38 	call	0x705c	; 0x705c <LCD_Display_Text>
    40e6:	2e e1       	ldi	r18, 0x1E	; 30
    40e8:	30 e0       	ldi	r19, 0x00	; 0
    40ea:	40 e0       	ldi	r20, 0x00	; 0
    40ec:	50 e0       	ldi	r21, 0x00	; 0
    40ee:	6d e7       	ldi	r22, 0x7D	; 125
    40f0:	7f e0       	ldi	r23, 0x0F	; 15
    40f2:	83 e2       	ldi	r24, 0x23	; 35
    40f4:	90 e0       	ldi	r25, 0x00	; 0
    40f6:	0e 94 2e 38 	call	0x705c	; 0x705c <LCD_Display_Text>
    40fa:	20 e0       	ldi	r18, 0x00	; 0
    40fc:	30 e0       	ldi	r19, 0x00	; 0
    40fe:	46 e4       	ldi	r20, 0x46	; 70
    4100:	50 e0       	ldi	r21, 0x00	; 0
    4102:	6d e7       	ldi	r22, 0x7D	; 125
    4104:	7f e0       	ldi	r23, 0x0F	; 15
    4106:	8d e6       	ldi	r24, 0x6D	; 109
    4108:	90 e0       	ldi	r25, 0x00	; 0
    410a:	0e 94 2e 38 	call	0x705c	; 0x705c <LCD_Display_Text>
    410e:	2a e0       	ldi	r18, 0x0A	; 10
    4110:	30 e0       	ldi	r19, 0x00	; 0
    4112:	46 e4       	ldi	r20, 0x46	; 70
    4114:	50 e0       	ldi	r21, 0x00	; 0
    4116:	6d e7       	ldi	r22, 0x7D	; 125
    4118:	7f e0       	ldi	r23, 0x0F	; 15
    411a:	8e e6       	ldi	r24, 0x6E	; 110
    411c:	90 e0       	ldi	r25, 0x00	; 0
    411e:	0e 94 2e 38 	call	0x705c	; 0x705c <LCD_Display_Text>
    4122:	24 e1       	ldi	r18, 0x14	; 20
    4124:	30 e0       	ldi	r19, 0x00	; 0
    4126:	46 e4       	ldi	r20, 0x46	; 70
    4128:	50 e0       	ldi	r21, 0x00	; 0
    412a:	6d e7       	ldi	r22, 0x7D	; 125
    412c:	7f e0       	ldi	r23, 0x0F	; 15
    412e:	8f e6       	ldi	r24, 0x6F	; 111
    4130:	90 e0       	ldi	r25, 0x00	; 0
    4132:	0e 94 2e 38 	call	0x705c	; 0x705c <LCD_Display_Text>
    4136:	2e e1       	ldi	r18, 0x1E	; 30
    4138:	30 e0       	ldi	r19, 0x00	; 0
    413a:	46 e4       	ldi	r20, 0x46	; 70
    413c:	50 e0       	ldi	r21, 0x00	; 0
    413e:	6d e7       	ldi	r22, 0x7D	; 125
    4140:	7f e0       	ldi	r23, 0x0F	; 15
    4142:	80 e7       	ldi	r24, 0x70	; 112
    4144:	90 e0       	ldi	r25, 0x00	; 0
    4146:	0e 94 2e 38 	call	0x705c	; 0x705c <LCD_Display_Text>
    414a:	80 91 61 09 	lds	r24, 0x0961
    414e:	90 91 62 09 	lds	r25, 0x0962
    4152:	4a e0       	ldi	r20, 0x0A	; 10
    4154:	62 ea       	ldi	r22, 0xA2	; 162
    4156:	75 e0       	ldi	r23, 0x05	; 5
    4158:	0e 94 24 6f 	call	0xde48	; 0xde48 <__itoa_ncheck>
    415c:	20 e0       	ldi	r18, 0x00	; 0
    415e:	30 e0       	ldi	r19, 0x00	; 0
    4160:	45 e2       	ldi	r20, 0x25	; 37
    4162:	50 e0       	ldi	r21, 0x00	; 0
    4164:	6d e7       	ldi	r22, 0x7D	; 125
    4166:	7f e0       	ldi	r23, 0x0F	; 15
    4168:	0e 94 44 62 	call	0xc488	; 0xc488 <mugui_lcd_puts>
    416c:	80 91 65 09 	lds	r24, 0x0965
    4170:	90 91 66 09 	lds	r25, 0x0966
    4174:	4a e0       	ldi	r20, 0x0A	; 10
    4176:	62 ea       	ldi	r22, 0xA2	; 162
    4178:	75 e0       	ldi	r23, 0x05	; 5
    417a:	0e 94 24 6f 	call	0xde48	; 0xde48 <__itoa_ncheck>
    417e:	2a e0       	ldi	r18, 0x0A	; 10
    4180:	30 e0       	ldi	r19, 0x00	; 0
    4182:	45 e2       	ldi	r20, 0x25	; 37
    4184:	50 e0       	ldi	r21, 0x00	; 0
    4186:	6d e7       	ldi	r22, 0x7D	; 125
    4188:	7f e0       	ldi	r23, 0x0F	; 15
    418a:	0e 94 44 62 	call	0xc488	; 0xc488 <mugui_lcd_puts>
    418e:	80 91 67 09 	lds	r24, 0x0967
    4192:	90 91 68 09 	lds	r25, 0x0968
    4196:	4a e0       	ldi	r20, 0x0A	; 10
    4198:	62 ea       	ldi	r22, 0xA2	; 162
    419a:	75 e0       	ldi	r23, 0x05	; 5
    419c:	0e 94 24 6f 	call	0xde48	; 0xde48 <__itoa_ncheck>
    41a0:	24 e1       	ldi	r18, 0x14	; 20
    41a2:	30 e0       	ldi	r19, 0x00	; 0
    41a4:	45 e2       	ldi	r20, 0x25	; 37
    41a6:	50 e0       	ldi	r21, 0x00	; 0
    41a8:	6d e7       	ldi	r22, 0x7D	; 125
    41aa:	7f e0       	ldi	r23, 0x0F	; 15
    41ac:	0e 94 44 62 	call	0xc488	; 0xc488 <mugui_lcd_puts>
    41b0:	80 91 69 09 	lds	r24, 0x0969
    41b4:	90 91 6a 09 	lds	r25, 0x096A
    41b8:	4a e0       	ldi	r20, 0x0A	; 10
    41ba:	62 ea       	ldi	r22, 0xA2	; 162
    41bc:	75 e0       	ldi	r23, 0x05	; 5
    41be:	0e 94 24 6f 	call	0xde48	; 0xde48 <__itoa_ncheck>
    41c2:	2e e1       	ldi	r18, 0x1E	; 30
    41c4:	30 e0       	ldi	r19, 0x00	; 0
    41c6:	45 e2       	ldi	r20, 0x25	; 37
    41c8:	50 e0       	ldi	r21, 0x00	; 0
    41ca:	6d e7       	ldi	r22, 0x7D	; 125
    41cc:	7f e0       	ldi	r23, 0x0F	; 15
    41ce:	0e 94 44 62 	call	0xc488	; 0xc488 <mugui_lcd_puts>
    41d2:	80 91 6b 09 	lds	r24, 0x096B
    41d6:	90 91 6c 09 	lds	r25, 0x096C
    41da:	4a e0       	ldi	r20, 0x0A	; 10
    41dc:	62 ea       	ldi	r22, 0xA2	; 162
    41de:	75 e0       	ldi	r23, 0x05	; 5
    41e0:	0e 94 24 6f 	call	0xde48	; 0xde48 <__itoa_ncheck>
    41e4:	20 e0       	ldi	r18, 0x00	; 0
    41e6:	30 e0       	ldi	r19, 0x00	; 0
    41e8:	44 e6       	ldi	r20, 0x64	; 100
    41ea:	50 e0       	ldi	r21, 0x00	; 0
    41ec:	6d e7       	ldi	r22, 0x7D	; 125
    41ee:	7f e0       	ldi	r23, 0x0F	; 15
    41f0:	0e 94 44 62 	call	0xc488	; 0xc488 <mugui_lcd_puts>
    41f4:	80 91 6d 09 	lds	r24, 0x096D
    41f8:	90 91 6e 09 	lds	r25, 0x096E
    41fc:	4a e0       	ldi	r20, 0x0A	; 10
    41fe:	62 ea       	ldi	r22, 0xA2	; 162
    4200:	75 e0       	ldi	r23, 0x05	; 5
    4202:	0e 94 24 6f 	call	0xde48	; 0xde48 <__itoa_ncheck>
    4206:	2a e0       	ldi	r18, 0x0A	; 10
    4208:	30 e0       	ldi	r19, 0x00	; 0
    420a:	44 e6       	ldi	r20, 0x64	; 100
    420c:	50 e0       	ldi	r21, 0x00	; 0
    420e:	6d e7       	ldi	r22, 0x7D	; 125
    4210:	7f e0       	ldi	r23, 0x0F	; 15
    4212:	0e 94 44 62 	call	0xc488	; 0xc488 <mugui_lcd_puts>
    4216:	80 91 6f 09 	lds	r24, 0x096F
    421a:	90 91 70 09 	lds	r25, 0x0970
    421e:	4a e0       	ldi	r20, 0x0A	; 10
    4220:	62 ea       	ldi	r22, 0xA2	; 162
    4222:	75 e0       	ldi	r23, 0x05	; 5
    4224:	0e 94 24 6f 	call	0xde48	; 0xde48 <__itoa_ncheck>
    4228:	24 e1       	ldi	r18, 0x14	; 20
    422a:	30 e0       	ldi	r19, 0x00	; 0
    422c:	44 e6       	ldi	r20, 0x64	; 100
    422e:	50 e0       	ldi	r21, 0x00	; 0
    4230:	6d e7       	ldi	r22, 0x7D	; 125
    4232:	7f e0       	ldi	r23, 0x0F	; 15
    4234:	0e 94 44 62 	call	0xc488	; 0xc488 <mugui_lcd_puts>
    4238:	80 91 71 09 	lds	r24, 0x0971
    423c:	90 91 72 09 	lds	r25, 0x0972
    4240:	4a e0       	ldi	r20, 0x0A	; 10
    4242:	62 ea       	ldi	r22, 0xA2	; 162
    4244:	75 e0       	ldi	r23, 0x05	; 5
    4246:	0e 94 24 6f 	call	0xde48	; 0xde48 <__itoa_ncheck>
    424a:	2e e1       	ldi	r18, 0x1E	; 30
    424c:	30 e0       	ldi	r19, 0x00	; 0
    424e:	44 e6       	ldi	r20, 0x64	; 100
    4250:	50 e0       	ldi	r21, 0x00	; 0
    4252:	6d e7       	ldi	r22, 0x7D	; 125
    4254:	7f e0       	ldi	r23, 0x0F	; 15
    4256:	0e 94 44 62 	call	0xc488	; 0xc488 <mugui_lcd_puts>
    425a:	29 e3       	ldi	r18, 0x39	; 57
    425c:	30 e0       	ldi	r19, 0x00	; 0
    425e:	40 e0       	ldi	r20, 0x00	; 0
    4260:	50 e0       	ldi	r21, 0x00	; 0
    4262:	6f ee       	ldi	r22, 0xEF	; 239
    4264:	71 e0       	ldi	r23, 0x01	; 1
    4266:	8c e0       	ldi	r24, 0x0C	; 12
    4268:	90 e0       	ldi	r25, 0x00	; 0
    426a:	0e 94 2e 38 	call	0x705c	; 0x705c <LCD_Display_Text>
    426e:	27 e3       	ldi	r18, 0x37	; 55
    4270:	30 e0       	ldi	r19, 0x00	; 0
    4272:	4e e6       	ldi	r20, 0x6E	; 110
    4274:	50 e0       	ldi	r21, 0x00	; 0
    4276:	6d e7       	ldi	r22, 0x7D	; 125
    4278:	7f e0       	ldi	r23, 0x0F	; 15
    427a:	8c e3       	ldi	r24, 0x3C	; 60
    427c:	90 e0       	ldi	r25, 0x00	; 0
    427e:	0e 94 2e 38 	call	0x705c	; 0x705c <LCD_Display_Text>
    4282:	80 e0       	ldi	r24, 0x00	; 0
    4284:	91 e0       	ldi	r25, 0x01	; 1
    4286:	0e 94 1d 36 	call	0x6c3a	; 0x6c3a <write_buffer>
    428a:	80 e0       	ldi	r24, 0x00	; 0
    428c:	91 e0       	ldi	r25, 0x01	; 1
    428e:	0e 94 52 36 	call	0x6ca4	; 0x6ca4 <clear_buffer>
    4292:	04 cf       	rjmp	.-504    	; 0x409c <Display_rcinput+0x4>
    4294:	08 95       	ret

00004296 <Display_sensors>:
    4296:	cf 92       	push	r12
    4298:	df 92       	push	r13
    429a:	ef 92       	push	r14
    429c:	ff 92       	push	r15
    429e:	1f 93       	push	r17
    42a0:	cf 93       	push	r28
    42a2:	df 93       	push	r29
    42a4:	80 e0       	ldi	r24, 0x00	; 0
    42a6:	91 e0       	ldi	r25, 0x01	; 1
    42a8:	0e 94 52 36 	call	0x6ca4	; 0x6ca4 <clear_buffer>
    42ac:	11 e0       	ldi	r17, 0x01	; 1
    42ae:	c4 e6       	ldi	r28, 0x64	; 100
    42b0:	d0 e0       	ldi	r29, 0x00	; 0
    42b2:	1f 9b       	sbis	0x03, 7	; 3
    42b4:	79 c1       	rjmp	.+754    	; 0x45a8 <Display_sensors+0x312>
    42b6:	0e 94 c3 68 	call	0xd186	; 0xd186 <RxGetChannels>
    42ba:	0e 94 b3 69 	call	0xd366	; 0xd366 <UpdateTransition>
    42be:	0e 94 2d 39 	call	0x725a	; 0x725a <ReadGyros>
    42c2:	0e 94 28 18 	call	0x3050	; 0x3050 <ReadAcc>
    42c6:	0e 94 9c 43 	call	0x8738	; 0x8738 <TIM16_ReadTCNT1>
    42ca:	16 bc       	out	0x26, r1	; 38
    42cc:	20 91 2f 05 	lds	r18, 0x052F
    42d0:	30 91 30 05 	lds	r19, 0x0530
    42d4:	20 91 2f 05 	lds	r18, 0x052F
    42d8:	30 91 30 05 	lds	r19, 0x0530
    42dc:	6c 01       	movw	r12, r24
    42de:	c2 1a       	sub	r12, r18
    42e0:	d3 0a       	sbc	r13, r19
    42e2:	90 93 30 05 	sts	0x0530, r25
    42e6:	80 93 2f 05 	sts	0x052F, r24
    42ea:	80 91 e1 08 	lds	r24, 0x08E1
    42ee:	90 91 e2 08 	lds	r25, 0x08E2
    42f2:	e1 2c       	mov	r14, r1
    42f4:	f1 2c       	mov	r15, r1
    42f6:	02 97       	sbiw	r24, 0x02	; 2
    42f8:	88 f0       	brcs	.+34     	; 0x431c <Display_sensors+0x86>
    42fa:	80 91 e1 08 	lds	r24, 0x08E1
    42fe:	90 91 e2 08 	lds	r25, 0x08E2
    4302:	a0 e0       	ldi	r26, 0x00	; 0
    4304:	b0 e0       	ldi	r27, 0x00	; 0
    4306:	2f e0       	ldi	r18, 0x0F	; 15
    4308:	88 0f       	add	r24, r24
    430a:	99 1f       	adc	r25, r25
    430c:	aa 1f       	adc	r26, r26
    430e:	bb 1f       	adc	r27, r27
    4310:	2a 95       	dec	r18
    4312:	d1 f7       	brne	.-12     	; 0x4308 <Display_sensors+0x72>
    4314:	c8 0e       	add	r12, r24
    4316:	d9 1e       	adc	r13, r25
    4318:	ea 1e       	adc	r14, r26
    431a:	fb 1e       	adc	r15, r27
    431c:	10 92 e2 08 	sts	0x08E2, r1
    4320:	10 92 e1 08 	sts	0x08E1, r1
    4324:	c7 01       	movw	r24, r14
    4326:	b6 01       	movw	r22, r12
    4328:	0e 94 1b 3e 	call	0x7c36	; 0x7c36 <imu_update>
    432c:	c7 01       	movw	r24, r14
    432e:	b6 01       	movw	r22, r12
    4330:	0e 94 79 62 	call	0xc4f2	; 0xc4f2 <Sensor_PID>
    4334:	20 e0       	ldi	r18, 0x00	; 0
    4336:	30 e0       	ldi	r19, 0x00	; 0
    4338:	45 e2       	ldi	r20, 0x25	; 37
    433a:	50 e0       	ldi	r21, 0x00	; 0
    433c:	6d e7       	ldi	r22, 0x7D	; 125
    433e:	7f e0       	ldi	r23, 0x0F	; 15
    4340:	8a e1       	ldi	r24, 0x1A	; 26
    4342:	90 e0       	ldi	r25, 0x00	; 0
    4344:	0e 94 2e 38 	call	0x705c	; 0x705c <LCD_Display_Text>
    4348:	20 e0       	ldi	r18, 0x00	; 0
    434a:	30 e0       	ldi	r19, 0x00	; 0
    434c:	48 e4       	ldi	r20, 0x48	; 72
    434e:	50 e0       	ldi	r21, 0x00	; 0
    4350:	6d e7       	ldi	r22, 0x7D	; 125
    4352:	7f e0       	ldi	r23, 0x0F	; 15
    4354:	8e e1       	ldi	r24, 0x1E	; 30
    4356:	90 e0       	ldi	r25, 0x00	; 0
    4358:	0e 94 2e 38 	call	0x705c	; 0x705c <LCD_Display_Text>
    435c:	20 e0       	ldi	r18, 0x00	; 0
    435e:	30 e0       	ldi	r19, 0x00	; 0
    4360:	4b e6       	ldi	r20, 0x6B	; 107
    4362:	50 e0       	ldi	r21, 0x00	; 0
    4364:	6d e7       	ldi	r22, 0x7D	; 125
    4366:	7f e0       	ldi	r23, 0x0F	; 15
    4368:	8f e1       	ldi	r24, 0x1F	; 31
    436a:	90 e0       	ldi	r25, 0x00	; 0
    436c:	0e 94 2e 38 	call	0x705c	; 0x705c <LCD_Display_Text>
    4370:	2d e0       	ldi	r18, 0x0D	; 13
    4372:	30 e0       	ldi	r19, 0x00	; 0
    4374:	45 e0       	ldi	r20, 0x05	; 5
    4376:	50 e0       	ldi	r21, 0x00	; 0
    4378:	6d e7       	ldi	r22, 0x7D	; 125
    437a:	7f e0       	ldi	r23, 0x0F	; 15
    437c:	8b e1       	ldi	r24, 0x1B	; 27
    437e:	90 e0       	ldi	r25, 0x00	; 0
    4380:	0e 94 2e 38 	call	0x705c	; 0x705c <LCD_Display_Text>
    4384:	27 e1       	ldi	r18, 0x17	; 23
    4386:	30 e0       	ldi	r19, 0x00	; 0
    4388:	45 e0       	ldi	r20, 0x05	; 5
    438a:	50 e0       	ldi	r21, 0x00	; 0
    438c:	6d e7       	ldi	r22, 0x7D	; 125
    438e:	7f e0       	ldi	r23, 0x0F	; 15
    4390:	8c e1       	ldi	r24, 0x1C	; 28
    4392:	90 e0       	ldi	r25, 0x00	; 0
    4394:	0e 94 2e 38 	call	0x705c	; 0x705c <LCD_Display_Text>
    4398:	21 e2       	ldi	r18, 0x21	; 33
    439a:	30 e0       	ldi	r19, 0x00	; 0
    439c:	45 e0       	ldi	r20, 0x05	; 5
    439e:	50 e0       	ldi	r21, 0x00	; 0
    43a0:	6d e7       	ldi	r22, 0x7D	; 125
    43a2:	7f e0       	ldi	r23, 0x0F	; 15
    43a4:	8d e1       	ldi	r24, 0x1D	; 29
    43a6:	90 e0       	ldi	r25, 0x00	; 0
    43a8:	0e 94 2e 38 	call	0x705c	; 0x705c <LCD_Display_Text>
    43ac:	4a e0       	ldi	r20, 0x0A	; 10
    43ae:	62 ea       	ldi	r22, 0xA2	; 162
    43b0:	75 e0       	ldi	r23, 0x05	; 5
    43b2:	80 91 cd 05 	lds	r24, 0x05CD
    43b6:	90 91 ce 05 	lds	r25, 0x05CE
    43ba:	0e 94 24 6f 	call	0xde48	; 0xde48 <__itoa_ncheck>
    43be:	2d e0       	ldi	r18, 0x0D	; 13
    43c0:	30 e0       	ldi	r19, 0x00	; 0
    43c2:	48 e2       	ldi	r20, 0x28	; 40
    43c4:	50 e0       	ldi	r21, 0x00	; 0
    43c6:	6d e7       	ldi	r22, 0x7D	; 125
    43c8:	7f e0       	ldi	r23, 0x0F	; 15
    43ca:	0e 94 44 62 	call	0xc488	; 0xc488 <mugui_lcd_puts>
    43ce:	4a e0       	ldi	r20, 0x0A	; 10
    43d0:	62 ea       	ldi	r22, 0xA2	; 162
    43d2:	75 e0       	ldi	r23, 0x05	; 5
    43d4:	80 91 cf 05 	lds	r24, 0x05CF
    43d8:	90 91 d0 05 	lds	r25, 0x05D0
    43dc:	0e 94 24 6f 	call	0xde48	; 0xde48 <__itoa_ncheck>
    43e0:	27 e1       	ldi	r18, 0x17	; 23
    43e2:	30 e0       	ldi	r19, 0x00	; 0
    43e4:	48 e2       	ldi	r20, 0x28	; 40
    43e6:	50 e0       	ldi	r21, 0x00	; 0
    43e8:	6d e7       	ldi	r22, 0x7D	; 125
    43ea:	7f e0       	ldi	r23, 0x0F	; 15
    43ec:	0e 94 44 62 	call	0xc488	; 0xc488 <mugui_lcd_puts>
    43f0:	4a e0       	ldi	r20, 0x0A	; 10
    43f2:	62 ea       	ldi	r22, 0xA2	; 162
    43f4:	75 e0       	ldi	r23, 0x05	; 5
    43f6:	80 91 d1 05 	lds	r24, 0x05D1
    43fa:	90 91 d2 05 	lds	r25, 0x05D2
    43fe:	0e 94 24 6f 	call	0xde48	; 0xde48 <__itoa_ncheck>
    4402:	21 e2       	ldi	r18, 0x21	; 33
    4404:	30 e0       	ldi	r19, 0x00	; 0
    4406:	48 e2       	ldi	r20, 0x28	; 40
    4408:	50 e0       	ldi	r21, 0x00	; 0
    440a:	6d e7       	ldi	r22, 0x7D	; 125
    440c:	7f e0       	ldi	r23, 0x0F	; 15
    440e:	0e 94 44 62 	call	0xc488	; 0xc488 <mugui_lcd_puts>
    4412:	4a e0       	ldi	r20, 0x0A	; 10
    4414:	62 ea       	ldi	r22, 0xA2	; 162
    4416:	75 e0       	ldi	r23, 0x05	; 5
    4418:	80 91 70 05 	lds	r24, 0x0570
    441c:	90 91 71 05 	lds	r25, 0x0571
    4420:	0e 94 24 6f 	call	0xde48	; 0xde48 <__itoa_ncheck>
    4424:	2d e0       	ldi	r18, 0x0D	; 13
    4426:	30 e0       	ldi	r19, 0x00	; 0
    4428:	4b e4       	ldi	r20, 0x4B	; 75
    442a:	50 e0       	ldi	r21, 0x00	; 0
    442c:	6d e7       	ldi	r22, 0x7D	; 125
    442e:	7f e0       	ldi	r23, 0x0F	; 15
    4430:	0e 94 44 62 	call	0xc488	; 0xc488 <mugui_lcd_puts>
    4434:	4a e0       	ldi	r20, 0x0A	; 10
    4436:	62 ea       	ldi	r22, 0xA2	; 162
    4438:	75 e0       	ldi	r23, 0x05	; 5
    443a:	80 91 72 05 	lds	r24, 0x0572
    443e:	90 91 73 05 	lds	r25, 0x0573
    4442:	0e 94 24 6f 	call	0xde48	; 0xde48 <__itoa_ncheck>
    4446:	27 e1       	ldi	r18, 0x17	; 23
    4448:	30 e0       	ldi	r19, 0x00	; 0
    444a:	4b e4       	ldi	r20, 0x4B	; 75
    444c:	50 e0       	ldi	r21, 0x00	; 0
    444e:	6d e7       	ldi	r22, 0x7D	; 125
    4450:	7f e0       	ldi	r23, 0x0F	; 15
    4452:	0e 94 44 62 	call	0xc488	; 0xc488 <mugui_lcd_puts>
    4456:	4a e0       	ldi	r20, 0x0A	; 10
    4458:	62 ea       	ldi	r22, 0xA2	; 162
    445a:	75 e0       	ldi	r23, 0x05	; 5
    445c:	80 91 74 05 	lds	r24, 0x0574
    4460:	90 91 75 05 	lds	r25, 0x0575
    4464:	0e 94 24 6f 	call	0xde48	; 0xde48 <__itoa_ncheck>
    4468:	21 e2       	ldi	r18, 0x21	; 33
    446a:	30 e0       	ldi	r19, 0x00	; 0
    446c:	4b e4       	ldi	r20, 0x4B	; 75
    446e:	50 e0       	ldi	r21, 0x00	; 0
    4470:	6d e7       	ldi	r22, 0x7D	; 125
    4472:	7f e0       	ldi	r23, 0x0F	; 15
    4474:	0e 94 44 62 	call	0xc488	; 0xc488 <mugui_lcd_puts>
    4478:	80 91 f9 05 	lds	r24, 0x05F9
    447c:	90 91 fa 05 	lds	r25, 0x05FA
    4480:	be 01       	movw	r22, r28
    4482:	0e 94 7d 6e 	call	0xdcfa	; 0xdcfa <__divmodhi4>
    4486:	cb 01       	movw	r24, r22
    4488:	4a e0       	ldi	r20, 0x0A	; 10
    448a:	62 ea       	ldi	r22, 0xA2	; 162
    448c:	75 e0       	ldi	r23, 0x05	; 5
    448e:	0e 94 24 6f 	call	0xde48	; 0xde48 <__itoa_ncheck>
    4492:	2d e0       	ldi	r18, 0x0D	; 13
    4494:	30 e0       	ldi	r19, 0x00	; 0
    4496:	4b e6       	ldi	r20, 0x6B	; 107
    4498:	50 e0       	ldi	r21, 0x00	; 0
    449a:	6d e7       	ldi	r22, 0x7D	; 125
    449c:	7f e0       	ldi	r23, 0x0F	; 15
    449e:	0e 94 44 62 	call	0xc488	; 0xc488 <mugui_lcd_puts>
    44a2:	80 91 fb 05 	lds	r24, 0x05FB
    44a6:	90 91 fc 05 	lds	r25, 0x05FC
    44aa:	be 01       	movw	r22, r28
    44ac:	0e 94 7d 6e 	call	0xdcfa	; 0xdcfa <__divmodhi4>
    44b0:	cb 01       	movw	r24, r22
    44b2:	4a e0       	ldi	r20, 0x0A	; 10
    44b4:	62 ea       	ldi	r22, 0xA2	; 162
    44b6:	75 e0       	ldi	r23, 0x05	; 5
    44b8:	0e 94 24 6f 	call	0xde48	; 0xde48 <__itoa_ncheck>
    44bc:	27 e1       	ldi	r18, 0x17	; 23
    44be:	30 e0       	ldi	r19, 0x00	; 0
    44c0:	4b e6       	ldi	r20, 0x6B	; 107
    44c2:	50 e0       	ldi	r21, 0x00	; 0
    44c4:	6d e7       	ldi	r22, 0x7D	; 125
    44c6:	7f e0       	ldi	r23, 0x0F	; 15
    44c8:	0e 94 44 62 	call	0xc488	; 0xc488 <mugui_lcd_puts>
    44cc:	2d e2       	ldi	r18, 0x2D	; 45
    44ce:	30 e0       	ldi	r19, 0x00	; 0
    44d0:	45 e0       	ldi	r20, 0x05	; 5
    44d2:	50 e0       	ldi	r21, 0x00	; 0
    44d4:	6d e7       	ldi	r22, 0x7D	; 125
    44d6:	7f e0       	ldi	r23, 0x0F	; 15
    44d8:	85 ee       	ldi	r24, 0xE5	; 229
    44da:	90 e0       	ldi	r25, 0x00	; 0
    44dc:	0e 94 2e 38 	call	0x705c	; 0x705c <LCD_Display_Text>
    44e0:	60 91 26 05 	lds	r22, 0x0526
    44e4:	70 91 27 05 	lds	r23, 0x0527
    44e8:	80 91 28 05 	lds	r24, 0x0528
    44ec:	90 91 29 05 	lds	r25, 0x0529
    44f0:	0e 94 0f 6d 	call	0xda1e	; 0xda1e <__fixsfsi>
    44f4:	dc 01       	movw	r26, r24
    44f6:	cb 01       	movw	r24, r22
    44f8:	4a e0       	ldi	r20, 0x0A	; 10
    44fa:	62 ea       	ldi	r22, 0xA2	; 162
    44fc:	75 e0       	ldi	r23, 0x05	; 5
    44fe:	0e 94 24 6f 	call	0xde48	; 0xde48 <__itoa_ncheck>
    4502:	2d e2       	ldi	r18, 0x2D	; 45
    4504:	30 e0       	ldi	r19, 0x00	; 0
    4506:	48 e2       	ldi	r20, 0x28	; 40
    4508:	50 e0       	ldi	r21, 0x00	; 0
    450a:	6d e7       	ldi	r22, 0x7D	; 125
    450c:	7f e0       	ldi	r23, 0x0F	; 15
    450e:	0e 94 44 62 	call	0xc488	; 0xc488 <mugui_lcd_puts>
    4512:	29 e3       	ldi	r18, 0x39	; 57
    4514:	30 e0       	ldi	r19, 0x00	; 0
    4516:	40 e0       	ldi	r20, 0x00	; 0
    4518:	50 e0       	ldi	r21, 0x00	; 0
    451a:	6f ee       	ldi	r22, 0xEF	; 239
    451c:	71 e0       	ldi	r23, 0x01	; 1
    451e:	8c e0       	ldi	r24, 0x0C	; 12
    4520:	90 e0       	ldi	r25, 0x00	; 0
    4522:	0e 94 2e 38 	call	0x705c	; 0x705c <LCD_Display_Text>
    4526:	27 e3       	ldi	r18, 0x37	; 55
    4528:	30 e0       	ldi	r19, 0x00	; 0
    452a:	4c e6       	ldi	r20, 0x6C	; 108
    452c:	50 e0       	ldi	r21, 0x00	; 0
    452e:	6d e7       	ldi	r22, 0x7D	; 125
    4530:	7f e0       	ldi	r23, 0x0F	; 15
    4532:	8c e3       	ldi	r24, 0x3C	; 60
    4534:	90 e0       	ldi	r25, 0x00	; 0
    4536:	0e 94 2e 38 	call	0x705c	; 0x705c <LCD_Display_Text>
    453a:	27 e3       	ldi	r18, 0x37	; 55
    453c:	30 e0       	ldi	r19, 0x00	; 0
    453e:	4b e4       	ldi	r20, 0x4B	; 75
    4540:	50 e0       	ldi	r21, 0x00	; 0
    4542:	6d e7       	ldi	r22, 0x7D	; 125
    4544:	7f e0       	ldi	r23, 0x0F	; 15
    4546:	89 e1       	ldi	r24, 0x19	; 25
    4548:	90 e0       	ldi	r25, 0x00	; 0
    454a:	0e 94 2e 38 	call	0x705c	; 0x705c <LCD_Display_Text>
    454e:	80 e0       	ldi	r24, 0x00	; 0
    4550:	91 e0       	ldi	r25, 0x01	; 1
    4552:	0e 94 1d 36 	call	0x6c3a	; 0x6c3a <write_buffer>
    4556:	80 e0       	ldi	r24, 0x00	; 0
    4558:	91 e0       	ldi	r25, 0x01	; 1
    455a:	0e 94 52 36 	call	0x6ca4	; 0x6ca4 <clear_buffer>
    455e:	11 11       	cpse	r17, r1
    4560:	0e 94 ef 52 	call	0xa5de	; 0xa5de <Wait_BUTTON4>
    4564:	1c 99       	sbic	0x03, 4	; 3
    4566:	10 c0       	rjmp	.+32     	; 0x4588 <Display_sensors+0x2f2>
    4568:	0e 94 ef 52 	call	0xa5de	; 0xa5de <Wait_BUTTON4>
    456c:	2f e3       	ldi	r18, 0x3F	; 63
    456e:	82 e4       	ldi	r24, 0x42	; 66
    4570:	9f e0       	ldi	r25, 0x0F	; 15
    4572:	21 50       	subi	r18, 0x01	; 1
    4574:	80 40       	sbci	r24, 0x00	; 0
    4576:	90 40       	sbci	r25, 0x00	; 0
    4578:	e1 f7       	brne	.-8      	; 0x4572 <Display_sensors+0x2dc>
    457a:	00 c0       	rjmp	.+0      	; 0x457c <Display_sensors+0x2e6>
    457c:	00 00       	nop
    457e:	0e 94 fa 39 	call	0x73f4	; 0x73f4 <CalibrateGyrosFast>
    4582:	80 e0       	ldi	r24, 0x00	; 0
    4584:	0e 94 f9 19 	call	0x33f2	; 0x33f2 <CalibrateAcc>
    4588:	1d 99       	sbic	0x03, 5	; 3
    458a:	0c c0       	rjmp	.+24     	; 0x45a4 <Display_sensors+0x30e>
    458c:	2f e3       	ldi	r18, 0x3F	; 63
    458e:	82 e4       	ldi	r24, 0x42	; 66
    4590:	9f e0       	ldi	r25, 0x0F	; 15
    4592:	21 50       	subi	r18, 0x01	; 1
    4594:	80 40       	sbci	r24, 0x00	; 0
    4596:	90 40       	sbci	r25, 0x00	; 0
    4598:	e1 f7       	brne	.-8      	; 0x4592 <Display_sensors+0x2fc>
    459a:	00 c0       	rjmp	.+0      	; 0x459c <Display_sensors+0x306>
    459c:	00 00       	nop
    459e:	81 e0       	ldi	r24, 0x01	; 1
    45a0:	0e 94 f9 19 	call	0x33f2	; 0x33f2 <CalibrateAcc>
    45a4:	10 e0       	ldi	r17, 0x00	; 0
    45a6:	85 ce       	rjmp	.-758    	; 0x42b2 <Display_sensors+0x1c>
    45a8:	df 91       	pop	r29
    45aa:	cf 91       	pop	r28
    45ac:	1f 91       	pop	r17
    45ae:	ff 90       	pop	r15
    45b0:	ef 90       	pop	r14
    45b2:	df 90       	pop	r13
    45b4:	cf 90       	pop	r12
    45b6:	08 95       	ret

000045b8 <Display_status>:
    45b8:	bf 92       	push	r11
    45ba:	cf 92       	push	r12
    45bc:	df 92       	push	r13
    45be:	ef 92       	push	r14
    45c0:	ff 92       	push	r15
    45c2:	0f 93       	push	r16
    45c4:	1f 93       	push	r17
    45c6:	cf 93       	push	r28
    45c8:	df 93       	push	r29
    45ca:	00 d0       	rcall	.+0      	; 0x45cc <Display_status+0x14>
    45cc:	00 d0       	rcall	.+0      	; 0x45ce <Display_status+0x16>
    45ce:	cd b7       	in	r28, 0x3d	; 61
    45d0:	de b7       	in	r29, 0x3e	; 62
    45d2:	80 e0       	ldi	r24, 0x00	; 0
    45d4:	91 e0       	ldi	r25, 0x01	; 1
    45d6:	0e 94 52 36 	call	0x6ca4	; 0x6ca4 <clear_buffer>
    45da:	20 e0       	ldi	r18, 0x00	; 0
    45dc:	30 e0       	ldi	r19, 0x00	; 0
    45de:	40 e0       	ldi	r20, 0x00	; 0
    45e0:	50 e0       	ldi	r21, 0x00	; 0
    45e2:	6d e7       	ldi	r22, 0x7D	; 125
    45e4:	7f e0       	ldi	r23, 0x0F	; 15
    45e6:	88 e0       	ldi	r24, 0x08	; 8
    45e8:	91 e0       	ldi	r25, 0x01	; 1
    45ea:	0e 94 2e 38 	call	0x705c	; 0x705c <LCD_Display_Text>
    45ee:	2c e0       	ldi	r18, 0x0C	; 12
    45f0:	30 e0       	ldi	r19, 0x00	; 0
    45f2:	40 e0       	ldi	r20, 0x00	; 0
    45f4:	50 e0       	ldi	r21, 0x00	; 0
    45f6:	6d e7       	ldi	r22, 0x7D	; 125
    45f8:	7f e0       	ldi	r23, 0x0F	; 15
    45fa:	8a e0       	ldi	r24, 0x0A	; 10
    45fc:	91 e0       	ldi	r25, 0x01	; 1
    45fe:	0e 94 2e 38 	call	0x705c	; 0x705c <LCD_Display_Text>
    4602:	28 e1       	ldi	r18, 0x18	; 24
    4604:	30 e0       	ldi	r19, 0x00	; 0
    4606:	40 e0       	ldi	r20, 0x00	; 0
    4608:	50 e0       	ldi	r21, 0x00	; 0
    460a:	6d e7       	ldi	r22, 0x7D	; 125
    460c:	7f e0       	ldi	r23, 0x0F	; 15
    460e:	8b e0       	ldi	r24, 0x0B	; 11
    4610:	91 e0       	ldi	r25, 0x01	; 1
    4612:	0e 94 2e 38 	call	0x705c	; 0x705c <LCD_Display_Text>
    4616:	28 e1       	ldi	r18, 0x18	; 24
    4618:	30 e0       	ldi	r19, 0x00	; 0
    461a:	48 e5       	ldi	r20, 0x58	; 88
    461c:	50 e0       	ldi	r21, 0x00	; 0
    461e:	6d e7       	ldi	r22, 0x7D	; 125
    4620:	7f e0       	ldi	r23, 0x0F	; 15
    4622:	87 e1       	ldi	r24, 0x17	; 23
    4624:	90 e0       	ldi	r25, 0x00	; 0
    4626:	0e 94 2e 38 	call	0x705c	; 0x705c <LCD_Display_Text>
    462a:	2b e3       	ldi	r18, 0x3B	; 59
    462c:	30 e0       	ldi	r19, 0x00	; 0
    462e:	40 e0       	ldi	r20, 0x00	; 0
    4630:	50 e0       	ldi	r21, 0x00	; 0
    4632:	6f ee       	ldi	r22, 0xEF	; 239
    4634:	71 e0       	ldi	r23, 0x01	; 1
    4636:	89 e0       	ldi	r24, 0x09	; 9
    4638:	90 e0       	ldi	r25, 0x00	; 0
    463a:	0e 94 2e 38 	call	0x705c	; 0x705c <LCD_Display_Text>
    463e:	27 e3       	ldi	r18, 0x37	; 55
    4640:	30 e0       	ldi	r19, 0x00	; 0
    4642:	4a e0       	ldi	r20, 0x0A	; 10
    4644:	50 e0       	ldi	r21, 0x00	; 0
    4646:	6d e7       	ldi	r22, 0x7D	; 125
    4648:	7f e0       	ldi	r23, 0x0F	; 15
    464a:	8e e0       	ldi	r24, 0x0E	; 14
    464c:	90 e0       	ldi	r25, 0x00	; 0
    464e:	0e 94 2e 38 	call	0x705c	; 0x705c <LCD_Display_Text>
    4652:	40 91 42 06 	lds	r20, 0x0642
    4656:	04 2e       	mov	r0, r20
    4658:	00 0c       	add	r0, r0
    465a:	55 0b       	sbc	r21, r21
    465c:	42 5c       	subi	r20, 0xC2	; 194
    465e:	5f 4f       	sbci	r21, 0xFF	; 255
    4660:	0c e0       	ldi	r16, 0x0C	; 12
    4662:	2d e2       	ldi	r18, 0x2D	; 45
    4664:	61 e0       	ldi	r22, 0x01	; 1
    4666:	80 e0       	ldi	r24, 0x00	; 0
    4668:	90 e0       	ldi	r25, 0x00	; 0
    466a:	0e 94 8f 49 	call	0x931e	; 0x931e <print_menu_text>
    466e:	4a e0       	ldi	r20, 0x0A	; 10
    4670:	62 ea       	ldi	r22, 0xA2	; 162
    4672:	75 e0       	ldi	r23, 0x05	; 5
    4674:	80 91 38 05 	lds	r24, 0x0538
    4678:	90 91 39 05 	lds	r25, 0x0539
    467c:	0e 94 24 6f 	call	0xde48	; 0xde48 <__itoa_ncheck>
    4680:	28 e1       	ldi	r18, 0x18	; 24
    4682:	30 e0       	ldi	r19, 0x00	; 0
    4684:	4e e6       	ldi	r20, 0x6E	; 110
    4686:	50 e0       	ldi	r21, 0x00	; 0
    4688:	6d e7       	ldi	r22, 0x7D	; 125
    468a:	7f e0       	ldi	r23, 0x0F	; 15
    468c:	0e 94 44 62 	call	0xc488	; 0xc488 <mugui_lcd_puts>
    4690:	80 91 42 06 	lds	r24, 0x0642
    4694:	81 30       	cpi	r24, 0x01	; 1
    4696:	d9 f4       	brne	.+54     	; 0x46ce <Display_status+0x116>
    4698:	2c e0       	ldi	r18, 0x0C	; 12
    469a:	30 e0       	ldi	r19, 0x00	; 0
    469c:	4d e4       	ldi	r20, 0x4D	; 77
    469e:	50 e0       	ldi	r21, 0x00	; 0
    46a0:	6d e7       	ldi	r22, 0x7D	; 125
    46a2:	7f e0       	ldi	r23, 0x0F	; 15
    46a4:	88 e1       	ldi	r24, 0x18	; 24
    46a6:	90 e0       	ldi	r25, 0x00	; 0
    46a8:	0e 94 2e 38 	call	0x705c	; 0x705c <LCD_Display_Text>
    46ac:	80 91 31 05 	lds	r24, 0x0531
    46b0:	90 91 32 05 	lds	r25, 0x0532
    46b4:	4a e0       	ldi	r20, 0x0A	; 10
    46b6:	62 ea       	ldi	r22, 0xA2	; 162
    46b8:	75 e0       	ldi	r23, 0x05	; 5
    46ba:	0e 94 24 6f 	call	0xde48	; 0xde48 <__itoa_ncheck>
    46be:	2c e0       	ldi	r18, 0x0C	; 12
    46c0:	30 e0       	ldi	r19, 0x00	; 0
    46c2:	4e e6       	ldi	r20, 0x6E	; 110
    46c4:	50 e0       	ldi	r21, 0x00	; 0
    46c6:	6d e7       	ldi	r22, 0x7D	; 125
    46c8:	7f e0       	ldi	r23, 0x0F	; 15
    46ca:	0e 94 44 62 	call	0xc488	; 0xc488 <mugui_lcd_puts>
    46ce:	20 91 38 05 	lds	r18, 0x0538
    46d2:	30 91 39 05 	lds	r19, 0x0539
    46d6:	12 16       	cp	r1, r18
    46d8:	13 06       	cpc	r1, r19
    46da:	4c f0       	brlt	.+18     	; 0x46ee <Display_status+0x136>
    46dc:	28 e1       	ldi	r18, 0x18	; 24
    46de:	30 e0       	ldi	r19, 0x00	; 0
    46e0:	4d e2       	ldi	r20, 0x2D	; 45
    46e2:	50 e0       	ldi	r21, 0x00	; 0
    46e4:	6d e7       	ldi	r22, 0x7D	; 125
    46e6:	7f e0       	ldi	r23, 0x0F	; 15
    46e8:	80 e3       	ldi	r24, 0x30	; 48
    46ea:	90 e0       	ldi	r25, 0x00	; 0
    46ec:	31 c0       	rjmp	.+98     	; 0x4750 <Display_status+0x198>
    46ee:	24 36       	cpi	r18, 0x64	; 100
    46f0:	31 05       	cpc	r19, r1
    46f2:	4c f0       	brlt	.+18     	; 0x4706 <Display_status+0x14e>
    46f4:	28 e1       	ldi	r18, 0x18	; 24
    46f6:	30 e0       	ldi	r19, 0x00	; 0
    46f8:	4d e2       	ldi	r20, 0x2D	; 45
    46fa:	50 e0       	ldi	r21, 0x00	; 0
    46fc:	6d e7       	ldi	r22, 0x7D	; 125
    46fe:	7f e0       	ldi	r23, 0x0F	; 15
    4700:	82 e3       	ldi	r24, 0x32	; 50
    4702:	90 e0       	ldi	r25, 0x00	; 0
    4704:	25 c0       	rjmp	.+74     	; 0x4750 <Display_status+0x198>
    4706:	80 91 4a 06 	lds	r24, 0x064A
    470a:	08 2e       	mov	r0, r24
    470c:	00 0c       	add	r0, r0
    470e:	99 0b       	sbc	r25, r25
    4710:	28 17       	cp	r18, r24
    4712:	39 07       	cpc	r19, r25
    4714:	49 f4       	brne	.+18     	; 0x4728 <Display_status+0x170>
    4716:	28 e1       	ldi	r18, 0x18	; 24
    4718:	30 e0       	ldi	r19, 0x00	; 0
    471a:	4d e2       	ldi	r20, 0x2D	; 45
    471c:	50 e0       	ldi	r21, 0x00	; 0
    471e:	6d e7       	ldi	r22, 0x7D	; 125
    4720:	7f e0       	ldi	r23, 0x0F	; 15
    4722:	81 e3       	ldi	r24, 0x31	; 49
    4724:	90 e0       	ldi	r25, 0x00	; 0
    4726:	14 c0       	rjmp	.+40     	; 0x4750 <Display_status+0x198>
    4728:	28 17       	cp	r18, r24
    472a:	39 07       	cpc	r19, r25
    472c:	4c f4       	brge	.+18     	; 0x4740 <Display_status+0x188>
    472e:	28 e1       	ldi	r18, 0x18	; 24
    4730:	30 e0       	ldi	r19, 0x00	; 0
    4732:	4d e2       	ldi	r20, 0x2D	; 45
    4734:	50 e0       	ldi	r21, 0x00	; 0
    4736:	6d e7       	ldi	r22, 0x7D	; 125
    4738:	7f e0       	ldi	r23, 0x0F	; 15
    473a:	83 e3       	ldi	r24, 0x33	; 51
    473c:	90 e0       	ldi	r25, 0x00	; 0
    473e:	08 c0       	rjmp	.+16     	; 0x4750 <Display_status+0x198>
    4740:	28 e1       	ldi	r18, 0x18	; 24
    4742:	30 e0       	ldi	r19, 0x00	; 0
    4744:	4d e2       	ldi	r20, 0x2D	; 45
    4746:	50 e0       	ldi	r21, 0x00	; 0
    4748:	6d e7       	ldi	r22, 0x7D	; 125
    474a:	7f e0       	ldi	r23, 0x0F	; 15
    474c:	84 e3       	ldi	r24, 0x34	; 52
    474e:	90 e0       	ldi	r25, 0x00	; 0
    4750:	0e 94 2e 38 	call	0x705c	; 0x705c <LCD_Display_Text>
    4754:	80 91 35 05 	lds	r24, 0x0535
    4758:	81 11       	cpse	r24, r1
    475a:	ca c0       	rjmp	.+404    	; 0x48f0 <Display_status+0x338>
    475c:	24 e2       	ldi	r18, 0x24	; 36
    475e:	30 e0       	ldi	r19, 0x00	; 0
    4760:	40 e0       	ldi	r20, 0x00	; 0
    4762:	50 e0       	ldi	r21, 0x00	; 0
    4764:	6d e7       	ldi	r22, 0x7D	; 125
    4766:	7f e0       	ldi	r23, 0x0F	; 15
    4768:	81 e2       	ldi	r24, 0x21	; 33
    476a:	91 e0       	ldi	r25, 0x01	; 1
    476c:	0e 94 2e 38 	call	0x705c	; 0x705c <LCD_Display_Text>
    4770:	0e 94 0c 6c 	call	0xd818	; 0xd818 <GetVbat>
    4774:	7c 01       	movw	r14, r24
    4776:	64 e6       	ldi	r22, 0x64	; 100
    4778:	70 e0       	ldi	r23, 0x00	; 0
    477a:	0e 94 69 6e 	call	0xdcd2	; 0xdcd2 <__udivmodhi4>
    477e:	8b 01       	movw	r16, r22
    4780:	4a e0       	ldi	r20, 0x0A	; 10
    4782:	62 ea       	ldi	r22, 0xA2	; 162
    4784:	75 e0       	ldi	r23, 0x05	; 5
    4786:	c8 01       	movw	r24, r16
    4788:	0e 94 24 6f 	call	0xde48	; 0xde48 <__itoa_ncheck>
    478c:	ae 01       	movw	r20, r28
    478e:	4f 5f       	subi	r20, 0xFF	; 255
    4790:	5f 4f       	sbci	r21, 0xFF	; 255
    4792:	6d e7       	ldi	r22, 0x7D	; 125
    4794:	7f e0       	ldi	r23, 0x0F	; 15
    4796:	0e 94 f1 60 	call	0xc1e2	; 0xc1e2 <mugui_text_sizestring>
    479a:	4a e0       	ldi	r20, 0x0A	; 10
    479c:	62 ea       	ldi	r22, 0xA2	; 162
    479e:	75 e0       	ldi	r23, 0x05	; 5
    47a0:	c8 01       	movw	r24, r16
    47a2:	0e 94 24 6f 	call	0xde48	; 0xde48 <__itoa_ncheck>
    47a6:	24 e2       	ldi	r18, 0x24	; 36
    47a8:	30 e0       	ldi	r19, 0x00	; 0
    47aa:	4d e2       	ldi	r20, 0x2D	; 45
    47ac:	50 e0       	ldi	r21, 0x00	; 0
    47ae:	6d e7       	ldi	r22, 0x7D	; 125
    47b0:	7f e0       	ldi	r23, 0x0F	; 15
    47b2:	0e 94 44 62 	call	0xc488	; 0xc488 <mugui_lcd_puts>
    47b6:	2c e9       	ldi	r18, 0x9C	; 156
    47b8:	20 03       	mulsu	r18, r16
    47ba:	60 01       	movw	r12, r0
    47bc:	21 9f       	mul	r18, r17
    47be:	d0 0c       	add	r13, r0
    47c0:	11 24       	eor	r1, r1
    47c2:	ce 0c       	add	r12, r14
    47c4:	df 1c       	adc	r13, r15
    47c6:	09 81       	ldd	r16, Y+1	; 0x01
    47c8:	00 2e       	mov	r0, r16
    47ca:	00 0c       	add	r0, r0
    47cc:	11 0b       	sbc	r17, r17
    47ce:	03 5d       	subi	r16, 0xD3	; 211
    47d0:	1f 4f       	sbci	r17, 0xFF	; 255
    47d2:	24 e2       	ldi	r18, 0x24	; 36
    47d4:	30 e0       	ldi	r19, 0x00	; 0
    47d6:	a8 01       	movw	r20, r16
    47d8:	6d e7       	ldi	r22, 0x7D	; 125
    47da:	7f e0       	ldi	r23, 0x0F	; 15
    47dc:	8c e0       	ldi	r24, 0x0C	; 12
    47de:	91 e0       	ldi	r25, 0x01	; 1
    47e0:	0e 94 2e 38 	call	0x705c	; 0x705c <LCD_Display_Text>
    47e4:	ae 01       	movw	r20, r28
    47e6:	4f 5f       	subi	r20, 0xFF	; 255
    47e8:	5f 4f       	sbci	r21, 0xFF	; 255
    47ea:	6d e7       	ldi	r22, 0x7D	; 125
    47ec:	7f e0       	ldi	r23, 0x0F	; 15
    47ee:	8b e0       	ldi	r24, 0x0B	; 11
    47f0:	95 e0       	ldi	r25, 0x05	; 5
    47f2:	0e 94 f1 60 	call	0xc1e2	; 0xc1e2 <mugui_text_sizestring>
    47f6:	e9 80       	ldd	r14, Y+1	; 0x01
    47f8:	ae 01       	movw	r20, r28
    47fa:	4f 5f       	subi	r20, 0xFF	; 255
    47fc:	5f 4f       	sbci	r21, 0xFF	; 255
    47fe:	6d e7       	ldi	r22, 0x7D	; 125
    4800:	7f e0       	ldi	r23, 0x0F	; 15
    4802:	8d e0       	ldi	r24, 0x0D	; 13
    4804:	95 e0       	ldi	r25, 0x05	; 5
    4806:	0e 94 f1 60 	call	0xc1e2	; 0xc1e2 <mugui_text_sizestring>
    480a:	b9 80       	ldd	r11, Y+1	; 0x01
    480c:	0e 2c       	mov	r0, r14
    480e:	00 0c       	add	r0, r0
    4810:	ff 08       	sbc	r15, r15
    4812:	8a e0       	ldi	r24, 0x0A	; 10
    4814:	c8 16       	cp	r12, r24
    4816:	d1 04       	cpc	r13, r1
    4818:	38 f0       	brcs	.+14     	; 0x4828 <Display_status+0x270>
    481a:	4a e0       	ldi	r20, 0x0A	; 10
    481c:	62 ea       	ldi	r22, 0xA2	; 162
    481e:	75 e0       	ldi	r23, 0x05	; 5
    4820:	c6 01       	movw	r24, r12
    4822:	0e 94 24 6f 	call	0xde48	; 0xde48 <__itoa_ncheck>
    4826:	15 c0       	rjmp	.+42     	; 0x4852 <Display_status+0x29a>
    4828:	a8 01       	movw	r20, r16
    482a:	4e 0d       	add	r20, r14
    482c:	5f 1d       	adc	r21, r15
    482e:	24 e2       	ldi	r18, 0x24	; 36
    4830:	30 e0       	ldi	r19, 0x00	; 0
    4832:	6d e7       	ldi	r22, 0x7D	; 125
    4834:	7f e0       	ldi	r23, 0x0F	; 15
    4836:	8d e0       	ldi	r24, 0x0D	; 13
    4838:	91 e0       	ldi	r25, 0x01	; 1
    483a:	0e 94 2e 38 	call	0x705c	; 0x705c <LCD_Display_Text>
    483e:	4a e0       	ldi	r20, 0x0A	; 10
    4840:	62 ea       	ldi	r22, 0xA2	; 162
    4842:	75 e0       	ldi	r23, 0x05	; 5
    4844:	c6 01       	movw	r24, r12
    4846:	0e 94 24 6f 	call	0xde48	; 0xde48 <__itoa_ncheck>
    484a:	0b 0d       	add	r16, r11
    484c:	11 1d       	adc	r17, r1
    484e:	b7 fc       	sbrc	r11, 7
    4850:	1a 95       	dec	r17
    4852:	a8 01       	movw	r20, r16
    4854:	4e 0d       	add	r20, r14
    4856:	5f 1d       	adc	r21, r15
    4858:	24 e2       	ldi	r18, 0x24	; 36
    485a:	30 e0       	ldi	r19, 0x00	; 0
    485c:	6d e7       	ldi	r22, 0x7D	; 125
    485e:	7f e0       	ldi	r23, 0x0F	; 15
    4860:	0e 94 44 62 	call	0xc488	; 0xc488 <mugui_lcd_puts>
    4864:	80 91 4c 06 	lds	r24, 0x064C
    4868:	81 30       	cpi	r24, 0x01	; 1
    486a:	09 f0       	breq	.+2      	; 0x486e <Display_status+0x2b6>
    486c:	94 c0       	rjmp	.+296    	; 0x4996 <Display_status+0x3de>
    486e:	e1 2c       	mov	r14, r1
    4870:	0a e2       	ldi	r16, 0x2A	; 42
    4872:	26 e4       	ldi	r18, 0x46	; 70
    4874:	4b e0       	ldi	r20, 0x0B	; 11
    4876:	6d e1       	ldi	r22, 0x1D	; 29
    4878:	80 e0       	ldi	r24, 0x00	; 0
    487a:	91 e0       	ldi	r25, 0x01	; 1
    487c:	0e 94 1b 37 	call	0x6e36	; 0x6e36 <fillrect>
    4880:	ee 24       	eor	r14, r14
    4882:	e3 94       	inc	r14
    4884:	26 e4       	ldi	r18, 0x46	; 70
    4886:	4b e0       	ldi	r20, 0x0B	; 11
    4888:	6d e1       	ldi	r22, 0x1D	; 29
    488a:	80 e0       	ldi	r24, 0x00	; 0
    488c:	91 e0       	ldi	r25, 0x01	; 1
    488e:	0e 94 4f 37 	call	0x6e9e	; 0x6e9e <drawrect>
    4892:	60 91 5d 09 	lds	r22, 0x095D
    4896:	70 91 5e 09 	lds	r23, 0x095E
    489a:	80 91 5f 09 	lds	r24, 0x095F
    489e:	90 91 60 09 	lds	r25, 0x0960
    48a2:	0e 94 0f 6d 	call	0xda1e	; 0xda1e <__fixsfsi>
    48a6:	6b 01       	movw	r12, r22
    48a8:	7c 01       	movw	r14, r24
    48aa:	4a e0       	ldi	r20, 0x0A	; 10
    48ac:	62 ea       	ldi	r22, 0xA2	; 162
    48ae:	75 e0       	ldi	r23, 0x05	; 5
    48b0:	c6 01       	movw	r24, r12
    48b2:	0e 94 24 6f 	call	0xde48	; 0xde48 <__itoa_ncheck>
    48b6:	ae 01       	movw	r20, r28
    48b8:	4f 5f       	subi	r20, 0xFF	; 255
    48ba:	5f 4f       	sbci	r21, 0xFF	; 255
    48bc:	69 e5       	ldi	r22, 0x59	; 89
    48be:	72 e0       	ldi	r23, 0x02	; 2
    48c0:	0e 94 f1 60 	call	0xc1e2	; 0xc1e2 <mugui_text_sizestring>
    48c4:	29 81       	ldd	r18, Y+1	; 0x01
    48c6:	3a 81       	ldd	r19, Y+2	; 0x02
    48c8:	36 95       	lsr	r19
    48ca:	27 95       	ror	r18
    48cc:	00 e4       	ldi	r16, 0x40	; 64
    48ce:	10 e0       	ldi	r17, 0x00	; 0
    48d0:	02 1b       	sub	r16, r18
    48d2:	13 0b       	sbc	r17, r19
    48d4:	4a e0       	ldi	r20, 0x0A	; 10
    48d6:	62 ea       	ldi	r22, 0xA2	; 162
    48d8:	75 e0       	ldi	r23, 0x05	; 5
    48da:	c6 01       	movw	r24, r12
    48dc:	0e 94 24 6f 	call	0xde48	; 0xde48 <__itoa_ncheck>
    48e0:	24 e1       	ldi	r18, 0x14	; 20
    48e2:	30 e0       	ldi	r19, 0x00	; 0
    48e4:	a8 01       	movw	r20, r16
    48e6:	69 e5       	ldi	r22, 0x59	; 89
    48e8:	72 e0       	ldi	r23, 0x02	; 2
    48ea:	0e 94 44 62 	call	0xc488	; 0xc488 <mugui_lcd_puts>
    48ee:	53 c0       	rjmp	.+166    	; 0x4996 <Display_status+0x3de>
    48f0:	80 91 35 05 	lds	r24, 0x0535
    48f4:	83 ff       	sbrs	r24, 3
    48f6:	13 c0       	rjmp	.+38     	; 0x491e <Display_status+0x366>
    48f8:	25 e2       	ldi	r18, 0x25	; 37
    48fa:	30 e0       	ldi	r19, 0x00	; 0
    48fc:	4f e0       	ldi	r20, 0x0F	; 15
    48fe:	50 e0       	ldi	r21, 0x00	; 0
    4900:	6f ec       	ldi	r22, 0xCF	; 207
    4902:	74 e0       	ldi	r23, 0x04	; 4
    4904:	86 e8       	ldi	r24, 0x86	; 134
    4906:	90 e0       	ldi	r25, 0x00	; 0
    4908:	0e 94 2e 38 	call	0x705c	; 0x705c <LCD_Display_Text>
    490c:	25 e2       	ldi	r18, 0x25	; 37
    490e:	30 e0       	ldi	r19, 0x00	; 0
    4910:	4f e4       	ldi	r20, 0x4F	; 79
    4912:	50 e0       	ldi	r21, 0x00	; 0
    4914:	6f ec       	ldi	r22, 0xCF	; 207
    4916:	74 e0       	ldi	r23, 0x04	; 4
    4918:	8f e0       	ldi	r24, 0x0F	; 15
    491a:	91 e0       	ldi	r25, 0x01	; 1
    491c:	3a c0       	rjmp	.+116    	; 0x4992 <Display_status+0x3da>
    491e:	80 91 35 05 	lds	r24, 0x0535
    4922:	81 ff       	sbrs	r24, 1
    4924:	13 c0       	rjmp	.+38     	; 0x494c <Display_status+0x394>
    4926:	25 e2       	ldi	r18, 0x25	; 37
    4928:	30 e0       	ldi	r19, 0x00	; 0
    492a:	4e e1       	ldi	r20, 0x1E	; 30
    492c:	50 e0       	ldi	r21, 0x00	; 0
    492e:	6f ec       	ldi	r22, 0xCF	; 207
    4930:	74 e0       	ldi	r23, 0x04	; 4
    4932:	8b e4       	ldi	r24, 0x4B	; 75
    4934:	90 e0       	ldi	r25, 0x00	; 0
    4936:	0e 94 2e 38 	call	0x705c	; 0x705c <LCD_Display_Text>
    493a:	25 e2       	ldi	r18, 0x25	; 37
    493c:	30 e0       	ldi	r19, 0x00	; 0
    493e:	47 e3       	ldi	r20, 0x37	; 55
    4940:	50 e0       	ldi	r21, 0x00	; 0
    4942:	6f ec       	ldi	r22, 0xCF	; 207
    4944:	74 e0       	ldi	r23, 0x04	; 4
    4946:	80 e1       	ldi	r24, 0x10	; 16
    4948:	91 e0       	ldi	r25, 0x01	; 1
    494a:	23 c0       	rjmp	.+70     	; 0x4992 <Display_status+0x3da>
    494c:	80 91 35 05 	lds	r24, 0x0535
    4950:	80 ff       	sbrs	r24, 0
    4952:	13 c0       	rjmp	.+38     	; 0x497a <Display_status+0x3c2>
    4954:	25 e2       	ldi	r18, 0x25	; 37
    4956:	30 e0       	ldi	r19, 0x00	; 0
    4958:	4b e0       	ldi	r20, 0x0B	; 11
    495a:	50 e0       	ldi	r21, 0x00	; 0
    495c:	6f ec       	ldi	r22, 0xCF	; 207
    495e:	74 e0       	ldi	r23, 0x04	; 4
    4960:	89 e6       	ldi	r24, 0x69	; 105
    4962:	90 e0       	ldi	r25, 0x00	; 0
    4964:	0e 94 2e 38 	call	0x705c	; 0x705c <LCD_Display_Text>
    4968:	25 e2       	ldi	r18, 0x25	; 37
    496a:	30 e0       	ldi	r19, 0x00	; 0
    496c:	42 e5       	ldi	r20, 0x52	; 82
    496e:	50 e0       	ldi	r21, 0x00	; 0
    4970:	6f ec       	ldi	r22, 0xCF	; 207
    4972:	74 e0       	ldi	r23, 0x04	; 4
    4974:	8e e0       	ldi	r24, 0x0E	; 14
    4976:	91 e0       	ldi	r25, 0x01	; 1
    4978:	0c c0       	rjmp	.+24     	; 0x4992 <Display_status+0x3da>
    497a:	80 91 35 05 	lds	r24, 0x0535
    497e:	82 ff       	sbrs	r24, 2
    4980:	0a c0       	rjmp	.+20     	; 0x4996 <Display_status+0x3de>
    4982:	25 e2       	ldi	r18, 0x25	; 37
    4984:	30 e0       	ldi	r19, 0x00	; 0
    4986:	49 e1       	ldi	r20, 0x19	; 25
    4988:	50 e0       	ldi	r21, 0x00	; 0
    498a:	6f ec       	ldi	r22, 0xCF	; 207
    498c:	74 e0       	ldi	r23, 0x04	; 4
    498e:	82 e1       	ldi	r24, 0x12	; 18
    4990:	90 e0       	ldi	r25, 0x00	; 0
    4992:	0e 94 2e 38 	call	0x705c	; 0x705c <LCD_Display_Text>
    4996:	80 e0       	ldi	r24, 0x00	; 0
    4998:	91 e0       	ldi	r25, 0x01	; 1
    499a:	0e 94 1d 36 	call	0x6c3a	; 0x6c3a <write_buffer>
    499e:	80 e0       	ldi	r24, 0x00	; 0
    49a0:	91 e0       	ldi	r25, 0x01	; 1
    49a2:	0e 94 52 36 	call	0x6ca4	; 0x6ca4 <clear_buffer>
    49a6:	0f 90       	pop	r0
    49a8:	0f 90       	pop	r0
    49aa:	0f 90       	pop	r0
    49ac:	0f 90       	pop	r0
    49ae:	df 91       	pop	r29
    49b0:	cf 91       	pop	r28
    49b2:	1f 91       	pop	r17
    49b4:	0f 91       	pop	r16
    49b6:	ff 90       	pop	r15
    49b8:	ef 90       	pop	r14
    49ba:	df 90       	pop	r13
    49bc:	cf 90       	pop	r12
    49be:	bf 90       	pop	r11
    49c0:	08 95       	ret

000049c2 <Display_sticks>:
    49c2:	af 92       	push	r10
    49c4:	bf 92       	push	r11
    49c6:	cf 92       	push	r12
    49c8:	df 92       	push	r13
    49ca:	ef 92       	push	r14
    49cc:	ff 92       	push	r15
    49ce:	0f 93       	push	r16
    49d0:	1f 93       	push	r17
    49d2:	cf 93       	push	r28
    49d4:	df 93       	push	r29
    49d6:	00 d0       	rcall	.+0      	; 0x49d8 <Display_sticks+0x16>
    49d8:	cd b7       	in	r28, 0x3d	; 61
    49da:	de b7       	in	r29, 0x3e	; 62
    49dc:	b0 90 1b 08 	lds	r11, 0x081B
    49e0:	c0 90 bc 08 	lds	r12, 0x08BC
    49e4:	d0 90 1a 08 	lds	r13, 0x081A
    49e8:	10 92 1b 08 	sts	0x081B, r1
    49ec:	10 92 bc 08 	sts	0x08BC, r1
    49f0:	10 92 1a 08 	sts	0x081A, r1
    49f4:	10 e0       	ldi	r17, 0x00	; 0
    49f6:	a1 2c       	mov	r10, r1
    49f8:	1f 9b       	sbis	0x03, 7	; 3
    49fa:	d9 c0       	rjmp	.+434    	; 0x4bae <Display_sticks+0x1ec>
    49fc:	a1 10       	cpse	r10, r1
    49fe:	d9 c0       	rjmp	.+434    	; 0x4bb2 <Display_sticks+0x1f0>
    4a00:	80 e0       	ldi	r24, 0x00	; 0
    4a02:	91 e0       	ldi	r25, 0x01	; 1
    4a04:	0e 94 52 36 	call	0x6ca4	; 0x6ca4 <clear_buffer>
    4a08:	32 e0       	ldi	r19, 0x02	; 2
    4a0a:	50 e0       	ldi	r21, 0x00	; 0
    4a0c:	61 e1       	ldi	r22, 0x11	; 17
    4a0e:	65 0f       	add	r22, r21
    4a10:	ee 24       	eor	r14, r14
    4a12:	e3 94       	inc	r14
    4a14:	08 e2       	ldi	r16, 0x28	; 40
    4a16:	28 e2       	ldi	r18, 0x28	; 40
    4a18:	40 e0       	ldi	r20, 0x00	; 0
    4a1a:	80 e0       	ldi	r24, 0x00	; 0
    4a1c:	91 e0       	ldi	r25, 0x01	; 1
    4a1e:	3a 83       	std	Y+2, r19	; 0x02
    4a20:	59 83       	std	Y+1, r21	; 0x01
    4a22:	0e 94 4f 37 	call	0x6e9e	; 0x6e9e <drawrect>
    4a26:	59 81       	ldd	r21, Y+1	; 0x01
    4a28:	86 e2       	ldi	r24, 0x26	; 38
    4a2a:	f8 2e       	mov	r15, r24
    4a2c:	f5 0e       	add	r15, r21
    4a2e:	20 e3       	ldi	r18, 0x30	; 48
    4a30:	25 0f       	add	r18, r21
    4a32:	03 e0       	ldi	r16, 0x03	; 3
    4a34:	44 e1       	ldi	r20, 0x14	; 20
    4a36:	6f 2d       	mov	r22, r15
    4a38:	80 e0       	ldi	r24, 0x00	; 0
    4a3a:	91 e0       	ldi	r25, 0x01	; 1
    4a3c:	0e 94 b1 36 	call	0x6d62	; 0x6d62 <drawline>
    4a40:	59 81       	ldd	r21, Y+1	; 0x01
    4a42:	28 e3       	ldi	r18, 0x38	; 56
    4a44:	25 0f       	add	r18, r21
    4a46:	69 e2       	ldi	r22, 0x29	; 41
    4a48:	65 0f       	add	r22, r21
    4a4a:	06 e0       	ldi	r16, 0x06	; 6
    4a4c:	45 e1       	ldi	r20, 0x15	; 21
    4a4e:	80 e0       	ldi	r24, 0x00	; 0
    4a50:	91 e0       	ldi	r25, 0x01	; 1
    4a52:	0e 94 b1 36 	call	0x6d62	; 0x6d62 <drawline>
    4a56:	01 e0       	ldi	r16, 0x01	; 1
    4a58:	22 e0       	ldi	r18, 0x02	; 2
    4a5a:	45 e1       	ldi	r20, 0x15	; 21
    4a5c:	6f 2d       	mov	r22, r15
    4a5e:	80 e0       	ldi	r24, 0x00	; 0
    4a60:	91 e0       	ldi	r25, 0x01	; 1
    4a62:	0e 94 9e 37 	call	0x6f3c	; 0x6f3c <fillcircle>
    4a66:	59 81       	ldd	r21, Y+1	; 0x01
    4a68:	63 e3       	ldi	r22, 0x33	; 51
    4a6a:	65 0f       	add	r22, r21
    4a6c:	24 e0       	ldi	r18, 0x04	; 4
    4a6e:	45 e0       	ldi	r20, 0x05	; 5
    4a70:	80 e0       	ldi	r24, 0x00	; 0
    4a72:	91 e0       	ldi	r25, 0x01	; 1
    4a74:	0e 94 9e 37 	call	0x6f3c	; 0x6f3c <fillcircle>
    4a78:	54 e3       	ldi	r21, 0x34	; 52
    4a7a:	3a 81       	ldd	r19, Y+2	; 0x02
    4a7c:	31 30       	cpi	r19, 0x01	; 1
    4a7e:	11 f0       	breq	.+4      	; 0x4a84 <Display_sticks+0xc2>
    4a80:	31 e0       	ldi	r19, 0x01	; 1
    4a82:	c4 cf       	rjmp	.-120    	; 0x4a0c <Display_sticks+0x4a>
    4a84:	29 e3       	ldi	r18, 0x39	; 57
    4a86:	30 e0       	ldi	r19, 0x00	; 0
    4a88:	40 e0       	ldi	r20, 0x00	; 0
    4a8a:	50 e0       	ldi	r21, 0x00	; 0
    4a8c:	6f ee       	ldi	r22, 0xEF	; 239
    4a8e:	71 e0       	ldi	r23, 0x01	; 1
    4a90:	8c e0       	ldi	r24, 0x0C	; 12
    4a92:	90 e0       	ldi	r25, 0x00	; 0
    4a94:	0e 94 2e 38 	call	0x705c	; 0x705c <LCD_Display_Text>
    4a98:	0e 94 c3 68 	call	0xd186	; 0xd186 <RxGetChannels>
    4a9c:	80 91 65 09 	lds	r24, 0x0965
    4aa0:	90 91 66 09 	lds	r25, 0x0966
    4aa4:	80 33       	cpi	r24, 0x30	; 48
    4aa6:	98 4f       	sbci	r25, 0xF8	; 248
    4aa8:	3c f0       	brlt	.+14     	; 0x4ab8 <Display_sticks+0xf6>
    4aaa:	80 91 65 09 	lds	r24, 0x0965
    4aae:	90 91 66 09 	lds	r25, 0x0966
    4ab2:	81 3d       	cpi	r24, 0xD1	; 209
    4ab4:	97 40       	sbci	r25, 0x07	; 7
    4ab6:	6c f0       	brlt	.+26     	; 0x4ad2 <Display_sticks+0x110>
    4ab8:	11 11       	cpse	r17, r1
    4aba:	0b c0       	rjmp	.+22     	; 0x4ad2 <Display_sticks+0x110>
    4abc:	2b e2       	ldi	r18, 0x2B	; 43
    4abe:	30 e0       	ldi	r19, 0x00	; 0
    4ac0:	40 e1       	ldi	r20, 0x10	; 16
    4ac2:	50 e0       	ldi	r21, 0x00	; 0
    4ac4:	6f ec       	ldi	r22, 0xCF	; 207
    4ac6:	74 e0       	ldi	r23, 0x04	; 4
    4ac8:	87 e8       	ldi	r24, 0x87	; 135
    4aca:	90 e0       	ldi	r25, 0x00	; 0
    4acc:	0e 94 2e 38 	call	0x705c	; 0x705c <LCD_Display_Text>
    4ad0:	69 c0       	rjmp	.+210    	; 0x4ba4 <Display_sticks+0x1e2>
    4ad2:	80 91 65 09 	lds	r24, 0x0965
    4ad6:	90 91 66 09 	lds	r25, 0x0966
    4ada:	84 3f       	cpi	r24, 0xF4	; 244
    4adc:	91 40       	sbci	r25, 0x01	; 1
    4ade:	3c f4       	brge	.+14     	; 0x4aee <Display_sticks+0x12c>
    4ae0:	80 91 65 09 	lds	r24, 0x0965
    4ae4:	90 91 66 09 	lds	r25, 0x0966
    4ae8:	8d 30       	cpi	r24, 0x0D	; 13
    4aea:	9e 4f       	sbci	r25, 0xFE	; 254
    4aec:	e4 f4       	brge	.+56     	; 0x4b26 <Display_sticks+0x164>
    4aee:	80 91 67 09 	lds	r24, 0x0967
    4af2:	90 91 68 09 	lds	r25, 0x0968
    4af6:	84 3f       	cpi	r24, 0xF4	; 244
    4af8:	91 40       	sbci	r25, 0x01	; 1
    4afa:	3c f4       	brge	.+14     	; 0x4b0a <Display_sticks+0x148>
    4afc:	80 91 67 09 	lds	r24, 0x0967
    4b00:	90 91 68 09 	lds	r25, 0x0968
    4b04:	8d 30       	cpi	r24, 0x0D	; 13
    4b06:	9e 4f       	sbci	r25, 0xFE	; 254
    4b08:	74 f4       	brge	.+28     	; 0x4b26 <Display_sticks+0x164>
    4b0a:	80 91 69 09 	lds	r24, 0x0969
    4b0e:	90 91 6a 09 	lds	r25, 0x096A
    4b12:	84 3f       	cpi	r24, 0xF4	; 244
    4b14:	91 40       	sbci	r25, 0x01	; 1
    4b16:	9c f4       	brge	.+38     	; 0x4b3e <Display_sticks+0x17c>
    4b18:	80 91 69 09 	lds	r24, 0x0969
    4b1c:	90 91 6a 09 	lds	r25, 0x096A
    4b20:	8d 30       	cpi	r24, 0x0D	; 13
    4b22:	9e 4f       	sbci	r25, 0xFE	; 254
    4b24:	64 f0       	brlt	.+24     	; 0x4b3e <Display_sticks+0x17c>
    4b26:	2b e2       	ldi	r18, 0x2B	; 43
    4b28:	30 e0       	ldi	r19, 0x00	; 0
    4b2a:	49 e0       	ldi	r20, 0x09	; 9
    4b2c:	50 e0       	ldi	r21, 0x00	; 0
    4b2e:	6f ec       	ldi	r22, 0xCF	; 207
    4b30:	74 e0       	ldi	r23, 0x04	; 4
    4b32:	88 e8       	ldi	r24, 0x88	; 136
    4b34:	90 e0       	ldi	r25, 0x00	; 0
    4b36:	0e 94 2e 38 	call	0x705c	; 0x705c <LCD_Display_Text>
    4b3a:	11 e0       	ldi	r17, 0x01	; 1
    4b3c:	33 c0       	rjmp	.+102    	; 0x4ba4 <Display_sticks+0x1e2>
    4b3e:	80 91 65 09 	lds	r24, 0x0965
    4b42:	90 91 66 09 	lds	r25, 0x0966
    4b46:	97 ff       	sbrs	r25, 7
    4b48:	03 c0       	rjmp	.+6      	; 0x4b50 <Display_sticks+0x18e>
    4b4a:	81 e0       	ldi	r24, 0x01	; 1
    4b4c:	80 93 1b 08 	sts	0x081B, r24
    4b50:	80 91 67 09 	lds	r24, 0x0967
    4b54:	90 91 68 09 	lds	r25, 0x0968
    4b58:	97 ff       	sbrs	r25, 7
    4b5a:	03 c0       	rjmp	.+6      	; 0x4b62 <Display_sticks+0x1a0>
    4b5c:	81 e0       	ldi	r24, 0x01	; 1
    4b5e:	80 93 bc 08 	sts	0x08BC, r24
    4b62:	80 91 69 09 	lds	r24, 0x0969
    4b66:	90 91 6a 09 	lds	r25, 0x096A
    4b6a:	97 ff       	sbrs	r25, 7
    4b6c:	03 c0       	rjmp	.+6      	; 0x4b74 <Display_sticks+0x1b2>
    4b6e:	81 e0       	ldi	r24, 0x01	; 1
    4b70:	80 93 1a 08 	sts	0x081A, r24
    4b74:	80 91 65 09 	lds	r24, 0x0965
    4b78:	90 91 66 09 	lds	r25, 0x0966
    4b7c:	18 16       	cp	r1, r24
    4b7e:	19 06       	cpc	r1, r25
    4b80:	8c f4       	brge	.+34     	; 0x4ba4 <Display_sticks+0x1e2>
    4b82:	80 91 67 09 	lds	r24, 0x0967
    4b86:	90 91 68 09 	lds	r25, 0x0968
    4b8a:	18 16       	cp	r1, r24
    4b8c:	19 06       	cpc	r1, r25
    4b8e:	54 f4       	brge	.+20     	; 0x4ba4 <Display_sticks+0x1e2>
    4b90:	80 91 69 09 	lds	r24, 0x0969
    4b94:	90 91 6a 09 	lds	r25, 0x096A
    4b98:	aa 24       	eor	r10, r10
    4b9a:	a3 94       	inc	r10
    4b9c:	18 16       	cp	r1, r24
    4b9e:	19 06       	cpc	r1, r25
    4ba0:	0c f0       	brlt	.+2      	; 0x4ba4 <Display_sticks+0x1e2>
    4ba2:	a1 2c       	mov	r10, r1
    4ba4:	80 e0       	ldi	r24, 0x00	; 0
    4ba6:	91 e0       	ldi	r25, 0x01	; 1
    4ba8:	0e 94 1d 36 	call	0x6c3a	; 0x6c3a <write_buffer>
    4bac:	25 cf       	rjmp	.-438    	; 0x49f8 <Display_sticks+0x36>
    4bae:	aa 20       	and	r10, r10
    4bb0:	49 f1       	breq	.+82     	; 0x4c04 <Display_sticks+0x242>
    4bb2:	2b e2       	ldi	r18, 0x2B	; 43
    4bb4:	30 e0       	ldi	r19, 0x00	; 0
    4bb6:	48 e2       	ldi	r20, 0x28	; 40
    4bb8:	50 e0       	ldi	r21, 0x00	; 0
    4bba:	6f ec       	ldi	r22, 0xCF	; 207
    4bbc:	74 e0       	ldi	r23, 0x04	; 4
    4bbe:	89 e8       	ldi	r24, 0x89	; 137
    4bc0:	90 e0       	ldi	r25, 0x00	; 0
    4bc2:	0e 94 2e 38 	call	0x705c	; 0x705c <LCD_Display_Text>
    4bc6:	80 e0       	ldi	r24, 0x00	; 0
    4bc8:	91 e0       	ldi	r25, 0x01	; 1
    4bca:	0e 94 1d 36 	call	0x6c3a	; 0x6c3a <write_buffer>
    4bce:	80 e0       	ldi	r24, 0x00	; 0
    4bd0:	91 e0       	ldi	r25, 0x01	; 1
    4bd2:	0e 94 52 36 	call	0x6ca4	; 0x6ca4 <clear_buffer>
    4bd6:	8f e7       	ldi	r24, 0x7F	; 127
    4bd8:	94 e8       	ldi	r25, 0x84	; 132
    4bda:	2e e1       	ldi	r18, 0x1E	; 30
    4bdc:	81 50       	subi	r24, 0x01	; 1
    4bde:	90 40       	sbci	r25, 0x00	; 0
    4be0:	20 40       	sbci	r18, 0x00	; 0
    4be2:	e1 f7       	brne	.-8      	; 0x4bdc <Display_sticks+0x21a>
    4be4:	00 c0       	rjmp	.+0      	; 0x4be6 <Display_sticks+0x224>
    4be6:	00 00       	nop
    4be8:	0f 90       	pop	r0
    4bea:	0f 90       	pop	r0
    4bec:	df 91       	pop	r29
    4bee:	cf 91       	pop	r28
    4bf0:	1f 91       	pop	r17
    4bf2:	0f 91       	pop	r16
    4bf4:	ff 90       	pop	r15
    4bf6:	ef 90       	pop	r14
    4bf8:	df 90       	pop	r13
    4bfa:	cf 90       	pop	r12
    4bfc:	bf 90       	pop	r11
    4bfe:	af 90       	pop	r10
    4c00:	0c 94 4e 26 	jmp	0x4c9c	; 0x4c9c <Save_Config_to_EEPROM>
    4c04:	b0 92 1b 08 	sts	0x081B, r11
    4c08:	c0 92 bc 08 	sts	0x08BC, r12
    4c0c:	d0 92 1a 08 	sts	0x081A, r13
    4c10:	0f 90       	pop	r0
    4c12:	0f 90       	pop	r0
    4c14:	df 91       	pop	r29
    4c16:	cf 91       	pop	r28
    4c18:	1f 91       	pop	r17
    4c1a:	0f 91       	pop	r16
    4c1c:	ff 90       	pop	r15
    4c1e:	ef 90       	pop	r14
    4c20:	df 90       	pop	r13
    4c22:	cf 90       	pop	r12
    4c24:	bf 90       	pop	r11
    4c26:	af 90       	pop	r10
    4c28:	08 95       	ret

00004c2a <eeprom_write_byte_changed>:
    4c2a:	0f 93       	push	r16
    4c2c:	1f 93       	push	r17
    4c2e:	cf 93       	push	r28
    4c30:	df 93       	push	r29
    4c32:	1f 92       	push	r1
    4c34:	cd b7       	in	r28, 0x3d	; 61
    4c36:	de b7       	in	r29, 0x3e	; 62
    4c38:	8c 01       	movw	r16, r24
    4c3a:	69 83       	std	Y+1, r22	; 0x01
    4c3c:	0e 94 72 6f 	call	0xdee4	; 0xdee4 <eeprom_read_byte>
    4c40:	69 81       	ldd	r22, Y+1	; 0x01
    4c42:	86 17       	cp	r24, r22
    4c44:	41 f0       	breq	.+16     	; 0x4c56 <eeprom_write_byte_changed+0x2c>
    4c46:	c8 01       	movw	r24, r16
    4c48:	0f 90       	pop	r0
    4c4a:	df 91       	pop	r29
    4c4c:	cf 91       	pop	r28
    4c4e:	1f 91       	pop	r17
    4c50:	0f 91       	pop	r16
    4c52:	0c 94 7a 6f 	jmp	0xdef4	; 0xdef4 <eeprom_write_byte>
    4c56:	0f 90       	pop	r0
    4c58:	df 91       	pop	r29
    4c5a:	cf 91       	pop	r28
    4c5c:	1f 91       	pop	r17
    4c5e:	0f 91       	pop	r16
    4c60:	08 95       	ret

00004c62 <eeprom_write_block_changes>:
    4c62:	ef 92       	push	r14
    4c64:	ff 92       	push	r15
    4c66:	0f 93       	push	r16
    4c68:	1f 93       	push	r17
    4c6a:	cf 93       	push	r28
    4c6c:	df 93       	push	r29
    4c6e:	ec 01       	movw	r28, r24
    4c70:	7b 01       	movw	r14, r22
    4c72:	8c 01       	movw	r16, r24
    4c74:	04 0f       	add	r16, r20
    4c76:	15 1f       	adc	r17, r21
    4c78:	c0 17       	cp	r28, r16
    4c7a:	d1 07       	cpc	r29, r17
    4c7c:	41 f0       	breq	.+16     	; 0x4c8e <eeprom_write_block_changes+0x2c>
    4c7e:	69 91       	ld	r22, Y+
    4c80:	c7 01       	movw	r24, r14
    4c82:	0e 94 15 26 	call	0x4c2a	; 0x4c2a <eeprom_write_byte_changed>
    4c86:	8f ef       	ldi	r24, 0xFF	; 255
    4c88:	e8 1a       	sub	r14, r24
    4c8a:	f8 0a       	sbc	r15, r24
    4c8c:	f5 cf       	rjmp	.-22     	; 0x4c78 <eeprom_write_block_changes+0x16>
    4c8e:	df 91       	pop	r29
    4c90:	cf 91       	pop	r28
    4c92:	1f 91       	pop	r17
    4c94:	0f 91       	pop	r16
    4c96:	ff 90       	pop	r15
    4c98:	ef 90       	pop	r14
    4c9a:	08 95       	ret

00004c9c <Save_Config_to_EEPROM>:
    4c9c:	f8 94       	cli
    4c9e:	44 ea       	ldi	r20, 0xA4	; 164
    4ca0:	52 e0       	ldi	r21, 0x02	; 2
    4ca2:	60 e0       	ldi	r22, 0x00	; 0
    4ca4:	70 e0       	ldi	r23, 0x00	; 0
    4ca6:	89 e1       	ldi	r24, 0x19	; 25
    4ca8:	96 e0       	ldi	r25, 0x06	; 6
    4caa:	0e 94 31 26 	call	0x4c62	; 0x4c62 <eeprom_write_block_changes>
    4cae:	78 94       	sei
    4cb0:	08 95       	ret

00004cb2 <Update_V1_0_to_V1_1>:
    4cb2:	2f 92       	push	r2
    4cb4:	3f 92       	push	r3
    4cb6:	4f 92       	push	r4
    4cb8:	5f 92       	push	r5
    4cba:	6f 92       	push	r6
    4cbc:	7f 92       	push	r7
    4cbe:	8f 92       	push	r8
    4cc0:	9f 92       	push	r9
    4cc2:	af 92       	push	r10
    4cc4:	bf 92       	push	r11
    4cc6:	cf 92       	push	r12
    4cc8:	df 92       	push	r13
    4cca:	ef 92       	push	r14
    4ccc:	ff 92       	push	r15
    4cce:	0f 93       	push	r16
    4cd0:	1f 93       	push	r17
    4cd2:	cf 93       	push	r28
    4cd4:	df 93       	push	r29
    4cd6:	cd b7       	in	r28, 0x3d	; 61
    4cd8:	de b7       	in	r29, 0x3e	; 62
    4cda:	c3 55       	subi	r28, 0x53	; 83
    4cdc:	d1 40       	sbci	r29, 0x01	; 1
    4cde:	0f b6       	in	r0, 0x3f	; 63
    4ce0:	f8 94       	cli
    4ce2:	de bf       	out	0x3e, r29	; 62
    4ce4:	0f be       	out	0x3f, r0	; 63
    4ce6:	cd bf       	out	0x3d, r28	; 61
    4ce8:	80 91 42 06 	lds	r24, 0x0642
    4cec:	cf 5c       	subi	r28, 0xCF	; 207
    4cee:	de 4f       	sbci	r29, 0xFE	; 254
    4cf0:	88 83       	st	Y, r24
    4cf2:	c1 53       	subi	r28, 0x31	; 49
    4cf4:	d1 40       	sbci	r29, 0x01	; 1
    4cf6:	80 91 a6 06 	lds	r24, 0x06A6
    4cfa:	ce 5c       	subi	r28, 0xCE	; 206
    4cfc:	de 4f       	sbci	r29, 0xFE	; 254
    4cfe:	88 83       	st	Y, r24
    4d00:	c2 53       	subi	r28, 0x32	; 50
    4d02:	d1 40       	sbci	r29, 0x01	; 1
    4d04:	80 91 43 06 	lds	r24, 0x0643
    4d08:	cd 5c       	subi	r28, 0xCD	; 205
    4d0a:	de 4f       	sbci	r29, 0xFE	; 254
    4d0c:	88 83       	st	Y, r24
    4d0e:	c3 53       	subi	r28, 0x33	; 51
    4d10:	d1 40       	sbci	r29, 0x01	; 1
    4d12:	80 91 44 06 	lds	r24, 0x0644
    4d16:	cc 5c       	subi	r28, 0xCC	; 204
    4d18:	de 4f       	sbci	r29, 0xFE	; 254
    4d1a:	88 83       	st	Y, r24
    4d1c:	c4 53       	subi	r28, 0x34	; 52
    4d1e:	d1 40       	sbci	r29, 0x01	; 1
    4d20:	80 91 45 06 	lds	r24, 0x0645
    4d24:	cb 5c       	subi	r28, 0xCB	; 203
    4d26:	de 4f       	sbci	r29, 0xFE	; 254
    4d28:	88 83       	st	Y, r24
    4d2a:	c5 53       	subi	r28, 0x35	; 53
    4d2c:	d1 40       	sbci	r29, 0x01	; 1
    4d2e:	90 91 49 06 	lds	r25, 0x0649
    4d32:	ca 5c       	subi	r28, 0xCA	; 202
    4d34:	de 4f       	sbci	r29, 0xFE	; 254
    4d36:	98 83       	st	Y, r25
    4d38:	c6 53       	subi	r28, 0x36	; 54
    4d3a:	d1 40       	sbci	r29, 0x01	; 1
    4d3c:	90 91 4a 06 	lds	r25, 0x064A
    4d40:	c9 5c       	subi	r28, 0xC9	; 201
    4d42:	de 4f       	sbci	r29, 0xFE	; 254
    4d44:	98 83       	st	Y, r25
    4d46:	c7 53       	subi	r28, 0x37	; 55
    4d48:	d1 40       	sbci	r29, 0x01	; 1
    4d4a:	90 91 46 06 	lds	r25, 0x0646
    4d4e:	c8 5c       	subi	r28, 0xC8	; 200
    4d50:	de 4f       	sbci	r29, 0xFE	; 254
    4d52:	98 83       	st	Y, r25
    4d54:	c8 53       	subi	r28, 0x38	; 56
    4d56:	d1 40       	sbci	r29, 0x01	; 1
    4d58:	90 91 47 06 	lds	r25, 0x0647
    4d5c:	c7 5c       	subi	r28, 0xC7	; 199
    4d5e:	de 4f       	sbci	r29, 0xFE	; 254
    4d60:	98 83       	st	Y, r25
    4d62:	c9 53       	subi	r28, 0x39	; 57
    4d64:	d1 40       	sbci	r29, 0x01	; 1
    4d66:	20 90 48 06 	lds	r2, 0x0648
    4d6a:	c6 5c       	subi	r28, 0xC6	; 198
    4d6c:	de 4f       	sbci	r29, 0xFE	; 254
    4d6e:	28 82       	st	Y, r2
    4d70:	ca 53       	subi	r28, 0x3A	; 58
    4d72:	d1 40       	sbci	r29, 0x01	; 1
    4d74:	99 e0       	ldi	r25, 0x09	; 9
    4d76:	fe 01       	movw	r30, r28
    4d78:	ef 5c       	subi	r30, 0xCF	; 207
    4d7a:	fe 4f       	sbci	r31, 0xFE	; 254
    4d7c:	a2 e4       	ldi	r26, 0x42	; 66
    4d7e:	b6 e0       	ldi	r27, 0x06	; 6
    4d80:	01 90       	ld	r0, Z+
    4d82:	0d 92       	st	X+, r0
    4d84:	9a 95       	dec	r25
    4d86:	e1 f7       	brne	.-8      	; 0x4d80 <Update_V1_0_to_V1_1+0xce>
    4d88:	90 91 aa 06 	lds	r25, 0x06AA
    4d8c:	cf 5c       	subi	r28, 0xCF	; 207
    4d8e:	de 4f       	sbci	r29, 0xFE	; 254
    4d90:	98 83       	st	Y, r25
    4d92:	c1 53       	subi	r28, 0x31	; 49
    4d94:	d1 40       	sbci	r29, 0x01	; 1
    4d96:	90 91 a7 06 	lds	r25, 0x06A7
    4d9a:	cf 5a       	subi	r28, 0xAF	; 175
    4d9c:	de 4f       	sbci	r29, 0xFE	; 254
    4d9e:	98 83       	st	Y, r25
    4da0:	c1 55       	subi	r28, 0x51	; 81
    4da2:	d1 40       	sbci	r29, 0x01	; 1
    4da4:	ce 5c       	subi	r28, 0xCE	; 206
    4da6:	de 4f       	sbci	r29, 0xFE	; 254
    4da8:	98 83       	st	Y, r25
    4daa:	c2 53       	subi	r28, 0x32	; 50
    4dac:	d1 40       	sbci	r29, 0x01	; 1
    4dae:	e0 91 a8 06 	lds	r30, 0x06A8
    4db2:	ce 5a       	subi	r28, 0xAE	; 174
    4db4:	de 4f       	sbci	r29, 0xFE	; 254
    4db6:	e8 83       	st	Y, r30
    4db8:	c2 55       	subi	r28, 0x52	; 82
    4dba:	d1 40       	sbci	r29, 0x01	; 1
    4dbc:	cd 5c       	subi	r28, 0xCD	; 205
    4dbe:	de 4f       	sbci	r29, 0xFE	; 254
    4dc0:	e8 83       	st	Y, r30
    4dc2:	c3 53       	subi	r28, 0x33	; 51
    4dc4:	d1 40       	sbci	r29, 0x01	; 1
    4dc6:	90 91 a9 06 	lds	r25, 0x06A9
    4dca:	cc 5c       	subi	r28, 0xCC	; 204
    4dcc:	de 4f       	sbci	r29, 0xFE	; 254
    4dce:	98 83       	st	Y, r25
    4dd0:	c4 53       	subi	r28, 0x34	; 52
    4dd2:	d1 40       	sbci	r29, 0x01	; 1
    4dd4:	cf 5c       	subi	r28, 0xCF	; 207
    4dd6:	de 4f       	sbci	r29, 0xFE	; 254
    4dd8:	48 81       	ld	r20, Y
    4dda:	59 81       	ldd	r21, Y+1	; 0x01
    4ddc:	6a 81       	ldd	r22, Y+2	; 0x02
    4dde:	7b 81       	ldd	r23, Y+3	; 0x03
    4de0:	c1 53       	subi	r28, 0x31	; 49
    4de2:	d1 40       	sbci	r29, 0x01	; 1
    4de4:	40 93 a6 06 	sts	0x06A6, r20
    4de8:	50 93 a7 06 	sts	0x06A7, r21
    4dec:	60 93 a8 06 	sts	0x06A8, r22
    4df0:	70 93 a9 06 	sts	0x06A9, r23
    4df4:	88 30       	cpi	r24, 0x08	; 8
    4df6:	19 f4       	brne	.+6      	; 0x4dfe <Update_V1_0_to_V1_1+0x14c>
    4df8:	87 e0       	ldi	r24, 0x07	; 7
    4dfa:	80 93 46 06 	sts	0x0646, r24
    4dfe:	10 92 aa 06 	sts	0x06AA, r1
    4e02:	48 e4       	ldi	r20, 0x48	; 72
    4e04:	50 e0       	ldi	r21, 0x00	; 0
    4e06:	63 e9       	ldi	r22, 0x93	; 147
    4e08:	77 e0       	ldi	r23, 0x07	; 7
    4e0a:	8b ed       	ldi	r24, 0xDB	; 219
    4e0c:	97 e0       	ldi	r25, 0x07	; 7
    4e0e:	0e 94 12 6f 	call	0xde24	; 0xde24 <memmove>
    4e12:	9e 01       	movw	r18, r28
    4e14:	2f 5f       	subi	r18, 0xFF	; 255
    4e16:	3f 4f       	sbci	r19, 0xFF	; 255
    4e18:	80 e0       	ldi	r24, 0x00	; 0
    4e1a:	90 e0       	ldi	r25, 0x00	; 0
    4e1c:	4d e1       	ldi	r20, 0x1D	; 29
    4e1e:	fc 01       	movw	r30, r24
    4e20:	e5 55       	subi	r30, 0x55	; 85
    4e22:	f9 4f       	sbci	r31, 0xF9	; 249
    4e24:	d9 01       	movw	r26, r18
    4e26:	54 2f       	mov	r21, r20
    4e28:	01 90       	ld	r0, Z+
    4e2a:	0d 92       	st	X+, r0
    4e2c:	5a 95       	dec	r21
    4e2e:	e1 f7       	brne	.-8      	; 0x4e28 <Update_V1_0_to_V1_1+0x176>
    4e30:	2a 5d       	subi	r18, 0xDA	; 218
    4e32:	3f 4f       	sbci	r19, 0xFF	; 255
    4e34:	4d 96       	adiw	r24, 0x1d	; 29
    4e36:	88 3e       	cpi	r24, 0xE8	; 232
    4e38:	91 05       	cpc	r25, r1
    4e3a:	89 f7       	brne	.-30     	; 0x4e1e <Update_V1_0_to_V1_1+0x16c>
    4e3c:	4e 01       	movw	r8, r28
    4e3e:	f5 e0       	ldi	r31, 0x05	; 5
    4e40:	8f 0e       	add	r8, r31
    4e42:	91 1c       	adc	r9, r1
    4e44:	ce 01       	movw	r24, r28
    4e46:	43 96       	adiw	r24, 0x13	; 19
    4e48:	c1 5c       	subi	r28, 0xC1	; 193
    4e4a:	de 4f       	sbci	r29, 0xFE	; 254
    4e4c:	99 83       	std	Y+1, r25	; 0x01
    4e4e:	88 83       	st	Y, r24
    4e50:	cf 53       	subi	r28, 0x3F	; 63
    4e52:	d1 40       	sbci	r29, 0x01	; 1
    4e54:	fe 01       	movw	r30, r28
    4e56:	74 96       	adiw	r30, 0x14	; 20
    4e58:	cd 5b       	subi	r28, 0xBD	; 189
    4e5a:	de 4f       	sbci	r29, 0xFE	; 254
    4e5c:	f9 83       	std	Y+1, r31	; 0x01
    4e5e:	e8 83       	st	Y, r30
    4e60:	c3 54       	subi	r28, 0x43	; 67
    4e62:	d1 40       	sbci	r29, 0x01	; 1
    4e64:	02 96       	adiw	r24, 0x02	; 2
    4e66:	cf 5b       	subi	r28, 0xBF	; 191
    4e68:	de 4f       	sbci	r29, 0xFE	; 254
    4e6a:	99 83       	std	Y+1, r25	; 0x01
    4e6c:	88 83       	st	Y, r24
    4e6e:	c1 54       	subi	r28, 0x41	; 65
    4e70:	d1 40       	sbci	r29, 0x01	; 1
    4e72:	6e 01       	movw	r12, r28
    4e74:	96 e1       	ldi	r25, 0x16	; 22
    4e76:	c9 0e       	add	r12, r25
    4e78:	d1 1c       	adc	r13, r1
    4e7a:	7e 01       	movw	r14, r28
    4e7c:	ee e1       	ldi	r30, 0x1E	; 30
    4e7e:	ee 0e       	add	r14, r30
    4e80:	f1 1c       	adc	r15, r1
    4e82:	ce 01       	movw	r24, r28
    4e84:	4d 96       	adiw	r24, 0x1d	; 29
    4e86:	c5 5b       	subi	r28, 0xB5	; 181
    4e88:	de 4f       	sbci	r29, 0xFE	; 254
    4e8a:	99 83       	std	Y+1, r25	; 0x01
    4e8c:	88 83       	st	Y, r24
    4e8e:	cb 54       	subi	r28, 0x4B	; 75
    4e90:	d1 40       	sbci	r29, 0x01	; 1
    4e92:	fe 01       	movw	r30, r28
    4e94:	7c 96       	adiw	r30, 0x1c	; 28
    4e96:	c7 5b       	subi	r28, 0xB7	; 183
    4e98:	de 4f       	sbci	r29, 0xFE	; 254
    4e9a:	f9 83       	std	Y+1, r31	; 0x01
    4e9c:	e8 83       	st	Y, r30
    4e9e:	c9 54       	subi	r28, 0x49	; 73
    4ea0:	d1 40       	sbci	r29, 0x01	; 1
    4ea2:	02 97       	sbiw	r24, 0x02	; 2
    4ea4:	c9 5b       	subi	r28, 0xB9	; 185
    4ea6:	de 4f       	sbci	r29, 0xFE	; 254
    4ea8:	99 83       	std	Y+1, r25	; 0x01
    4eaa:	88 83       	st	Y, r24
    4eac:	c7 54       	subi	r28, 0x47	; 71
    4eae:	d1 40       	sbci	r29, 0x01	; 1
    4eb0:	32 97       	sbiw	r30, 0x02	; 2
    4eb2:	cb 5b       	subi	r28, 0xBB	; 187
    4eb4:	de 4f       	sbci	r29, 0xFE	; 254
    4eb6:	f9 83       	std	Y+1, r31	; 0x01
    4eb8:	e8 83       	st	Y, r30
    4eba:	c5 54       	subi	r28, 0x45	; 69
    4ebc:	d1 40       	sbci	r29, 0x01	; 1
    4ebe:	02 97       	sbiw	r24, 0x02	; 2
    4ec0:	c1 5b       	subi	r28, 0xB1	; 177
    4ec2:	de 4f       	sbci	r29, 0xFE	; 254
    4ec4:	99 83       	std	Y+1, r25	; 0x01
    4ec6:	88 83       	st	Y, r24
    4ec8:	cf 54       	subi	r28, 0x4F	; 79
    4eca:	d1 40       	sbci	r29, 0x01	; 1
    4ecc:	32 97       	sbiw	r30, 0x02	; 2
    4ece:	c3 5b       	subi	r28, 0xB3	; 179
    4ed0:	de 4f       	sbci	r29, 0xFE	; 254
    4ed2:	f9 83       	std	Y+1, r31	; 0x01
    4ed4:	e8 83       	st	Y, r30
    4ed6:	cd 54       	subi	r28, 0x4D	; 77
    4ed8:	d1 40       	sbci	r29, 0x01	; 1
    4eda:	5e 01       	movw	r10, r28
    4edc:	f7 e1       	ldi	r31, 0x17	; 23
    4ede:	af 0e       	add	r10, r31
    4ee0:	b1 1c       	adc	r11, r1
    4ee2:	8b 5c       	subi	r24, 0xCB	; 203
    4ee4:	9e 4f       	sbci	r25, 0xFE	; 254
    4ee6:	c3 5c       	subi	r28, 0xC3	; 195
    4ee8:	de 4f       	sbci	r29, 0xFE	; 254
    4eea:	99 83       	std	Y+1, r25	; 0x01
    4eec:	88 83       	st	Y, r24
    4eee:	cd 53       	subi	r28, 0x3D	; 61
    4ef0:	d1 40       	sbci	r29, 0x01	; 1
    4ef2:	12 e0       	ldi	r17, 0x02	; 2
    4ef4:	01 e0       	ldi	r16, 0x01	; 1
    4ef6:	49 e1       	ldi	r20, 0x19	; 25
    4ef8:	50 e0       	ldi	r21, 0x00	; 0
    4efa:	b4 01       	movw	r22, r8
    4efc:	c7 01       	movw	r24, r14
    4efe:	48 97       	sbiw	r24, 0x18	; 24
    4f00:	0e 94 12 6f 	call	0xde24	; 0xde24 <memmove>
    4f04:	c1 5c       	subi	r28, 0xC1	; 193
    4f06:	de 4f       	sbci	r29, 0xFE	; 254
    4f08:	e8 81       	ld	r30, Y
    4f0a:	f9 81       	ldd	r31, Y+1	; 0x01
    4f0c:	cf 53       	subi	r28, 0x3F	; 63
    4f0e:	d1 40       	sbci	r29, 0x01	; 1
    4f10:	50 80       	ld	r5, Z
    4f12:	cd 5b       	subi	r28, 0xBD	; 189
    4f14:	de 4f       	sbci	r29, 0xFE	; 254
    4f16:	e8 81       	ld	r30, Y
    4f18:	f9 81       	ldd	r31, Y+1	; 0x01
    4f1a:	c3 54       	subi	r28, 0x43	; 67
    4f1c:	d1 40       	sbci	r29, 0x01	; 1
    4f1e:	30 80       	ld	r3, Z
    4f20:	cf 5b       	subi	r28, 0xBF	; 191
    4f22:	de 4f       	sbci	r29, 0xFE	; 254
    4f24:	e8 81       	ld	r30, Y
    4f26:	f9 81       	ldd	r31, Y+1	; 0x01
    4f28:	c1 54       	subi	r28, 0x41	; 65
    4f2a:	d1 40       	sbci	r29, 0x01	; 1
    4f2c:	20 81       	ld	r18, Z
    4f2e:	f6 01       	movw	r30, r12
    4f30:	40 80       	ld	r4, Z
    4f32:	f4 01       	movw	r30, r8
    4f34:	56 fe       	sbrs	r5, 6
    4f36:	02 c0       	rjmp	.+4      	; 0x4f3c <Update_V1_0_to_V1_1+0x28a>
    4f38:	10 83       	st	Z, r17
    4f3a:	01 c0       	rjmp	.+2      	; 0x4f3e <Update_V1_0_to_V1_1+0x28c>
    4f3c:	10 82       	st	Z, r1
    4f3e:	37 01       	movw	r6, r14
    4f40:	ff ef       	ldi	r31, 0xFF	; 255
    4f42:	6f 1a       	sub	r6, r31
    4f44:	7f 0a       	sbc	r7, r31
    4f46:	48 e0       	ldi	r20, 0x08	; 8
    4f48:	50 e0       	ldi	r21, 0x00	; 0
    4f4a:	b5 01       	movw	r22, r10
    4f4c:	c3 01       	movw	r24, r6
    4f4e:	cd 5a       	subi	r28, 0xAD	; 173
    4f50:	de 4f       	sbci	r29, 0xFE	; 254
    4f52:	28 83       	st	Y, r18
    4f54:	c3 55       	subi	r28, 0x53	; 83
    4f56:	d1 40       	sbci	r29, 0x01	; 1
    4f58:	0e 94 12 6f 	call	0xde24	; 0xde24 <memmove>
    4f5c:	80 e0       	ldi	r24, 0x00	; 0
    4f5e:	cd 5a       	subi	r28, 0xAD	; 173
    4f60:	de 4f       	sbci	r29, 0xFE	; 254
    4f62:	28 81       	ld	r18, Y
    4f64:	c3 55       	subi	r28, 0x53	; 83
    4f66:	d1 40       	sbci	r29, 0x01	; 1
    4f68:	f3 01       	movw	r30, r6
    4f6a:	90 81       	ld	r25, Z
    4f6c:	9d 30       	cpi	r25, 0x0D	; 13
    4f6e:	11 f4       	brne	.+4      	; 0x4f74 <Update_V1_0_to_V1_1+0x2c2>
    4f70:	94 e1       	ldi	r25, 0x14	; 20
    4f72:	90 83       	st	Z, r25
    4f74:	8e 5f       	subi	r24, 0xFE	; 254
    4f76:	e2 e0       	ldi	r30, 0x02	; 2
    4f78:	6e 0e       	add	r6, r30
    4f7a:	71 1c       	adc	r7, r1
    4f7c:	88 30       	cpi	r24, 0x08	; 8
    4f7e:	a1 f7       	brne	.-24     	; 0x4f68 <Update_V1_0_to_V1_1+0x2b6>
    4f80:	c1 5c       	subi	r28, 0xC1	; 193
    4f82:	de 4f       	sbci	r29, 0xFE	; 254
    4f84:	e8 81       	ld	r30, Y
    4f86:	f9 81       	ldd	r31, Y+1	; 0x01
    4f88:	cf 53       	subi	r28, 0x3F	; 63
    4f8a:	d1 40       	sbci	r29, 0x01	; 1
    4f8c:	50 fe       	sbrs	r5, 0
    4f8e:	06 c0       	rjmp	.+12     	; 0x4f9c <Update_V1_0_to_V1_1+0x2ea>
    4f90:	20 ff       	sbrs	r18, 0
    4f92:	02 c0       	rjmp	.+4      	; 0x4f98 <Update_V1_0_to_V1_1+0x2e6>
    4f94:	10 83       	st	Z, r17
    4f96:	03 c0       	rjmp	.+6      	; 0x4f9e <Update_V1_0_to_V1_1+0x2ec>
    4f98:	00 83       	st	Z, r16
    4f9a:	01 c0       	rjmp	.+2      	; 0x4f9e <Update_V1_0_to_V1_1+0x2ec>
    4f9c:	10 82       	st	Z, r1
    4f9e:	cd 5b       	subi	r28, 0xBD	; 189
    4fa0:	de 4f       	sbci	r29, 0xFE	; 254
    4fa2:	e8 81       	ld	r30, Y
    4fa4:	f9 81       	ldd	r31, Y+1	; 0x01
    4fa6:	c3 54       	subi	r28, 0x43	; 67
    4fa8:	d1 40       	sbci	r29, 0x01	; 1
    4faa:	30 fe       	sbrs	r3, 0
    4fac:	06 c0       	rjmp	.+12     	; 0x4fba <Update_V1_0_to_V1_1+0x308>
    4fae:	40 fe       	sbrs	r4, 0
    4fb0:	02 c0       	rjmp	.+4      	; 0x4fb6 <Update_V1_0_to_V1_1+0x304>
    4fb2:	10 83       	st	Z, r17
    4fb4:	03 c0       	rjmp	.+6      	; 0x4fbc <Update_V1_0_to_V1_1+0x30a>
    4fb6:	00 83       	st	Z, r16
    4fb8:	01 c0       	rjmp	.+2      	; 0x4fbc <Update_V1_0_to_V1_1+0x30a>
    4fba:	10 82       	st	Z, r1
    4fbc:	cf 5b       	subi	r28, 0xBF	; 191
    4fbe:	de 4f       	sbci	r29, 0xFE	; 254
    4fc0:	e8 81       	ld	r30, Y
    4fc2:	f9 81       	ldd	r31, Y+1	; 0x01
    4fc4:	c1 54       	subi	r28, 0x41	; 65
    4fc6:	d1 40       	sbci	r29, 0x01	; 1
    4fc8:	51 fe       	sbrs	r5, 1
    4fca:	06 c0       	rjmp	.+12     	; 0x4fd8 <Update_V1_0_to_V1_1+0x326>
    4fcc:	21 ff       	sbrs	r18, 1
    4fce:	02 c0       	rjmp	.+4      	; 0x4fd4 <Update_V1_0_to_V1_1+0x322>
    4fd0:	10 83       	st	Z, r17
    4fd2:	03 c0       	rjmp	.+6      	; 0x4fda <Update_V1_0_to_V1_1+0x328>
    4fd4:	00 83       	st	Z, r16
    4fd6:	01 c0       	rjmp	.+2      	; 0x4fda <Update_V1_0_to_V1_1+0x328>
    4fd8:	10 82       	st	Z, r1
    4fda:	f6 01       	movw	r30, r12
    4fdc:	31 fe       	sbrs	r3, 1
    4fde:	06 c0       	rjmp	.+12     	; 0x4fec <Update_V1_0_to_V1_1+0x33a>
    4fe0:	41 fe       	sbrs	r4, 1
    4fe2:	02 c0       	rjmp	.+4      	; 0x4fe8 <Update_V1_0_to_V1_1+0x336>
    4fe4:	10 83       	st	Z, r17
    4fe6:	03 c0       	rjmp	.+6      	; 0x4fee <Update_V1_0_to_V1_1+0x33c>
    4fe8:	00 83       	st	Z, r16
    4fea:	01 c0       	rjmp	.+2      	; 0x4fee <Update_V1_0_to_V1_1+0x33c>
    4fec:	10 82       	st	Z, r1
    4fee:	f5 01       	movw	r30, r10
    4ff0:	52 fe       	sbrs	r5, 2
    4ff2:	06 c0       	rjmp	.+12     	; 0x5000 <Update_V1_0_to_V1_1+0x34e>
    4ff4:	22 ff       	sbrs	r18, 2
    4ff6:	02 c0       	rjmp	.+4      	; 0x4ffc <Update_V1_0_to_V1_1+0x34a>
    4ff8:	10 83       	st	Z, r17
    4ffa:	03 c0       	rjmp	.+6      	; 0x5002 <Update_V1_0_to_V1_1+0x350>
    4ffc:	00 83       	st	Z, r16
    4ffe:	01 c0       	rjmp	.+2      	; 0x5002 <Update_V1_0_to_V1_1+0x350>
    5000:	10 82       	st	Z, r1
    5002:	c3 5b       	subi	r28, 0xB3	; 179
    5004:	de 4f       	sbci	r29, 0xFE	; 254
    5006:	e8 81       	ld	r30, Y
    5008:	f9 81       	ldd	r31, Y+1	; 0x01
    500a:	cd 54       	subi	r28, 0x4D	; 77
    500c:	d1 40       	sbci	r29, 0x01	; 1
    500e:	32 fe       	sbrs	r3, 2
    5010:	06 c0       	rjmp	.+12     	; 0x501e <Update_V1_0_to_V1_1+0x36c>
    5012:	42 fe       	sbrs	r4, 2
    5014:	02 c0       	rjmp	.+4      	; 0x501a <Update_V1_0_to_V1_1+0x368>
    5016:	10 83       	st	Z, r17
    5018:	03 c0       	rjmp	.+6      	; 0x5020 <Update_V1_0_to_V1_1+0x36e>
    501a:	00 83       	st	Z, r16
    501c:	01 c0       	rjmp	.+2      	; 0x5020 <Update_V1_0_to_V1_1+0x36e>
    501e:	10 82       	st	Z, r1
    5020:	c1 5b       	subi	r28, 0xB1	; 177
    5022:	de 4f       	sbci	r29, 0xFE	; 254
    5024:	e8 81       	ld	r30, Y
    5026:	f9 81       	ldd	r31, Y+1	; 0x01
    5028:	cf 54       	subi	r28, 0x4F	; 79
    502a:	d1 40       	sbci	r29, 0x01	; 1
    502c:	53 fe       	sbrs	r5, 3
    502e:	06 c0       	rjmp	.+12     	; 0x503c <Update_V1_0_to_V1_1+0x38a>
    5030:	23 ff       	sbrs	r18, 3
    5032:	02 c0       	rjmp	.+4      	; 0x5038 <Update_V1_0_to_V1_1+0x386>
    5034:	10 83       	st	Z, r17
    5036:	03 c0       	rjmp	.+6      	; 0x503e <Update_V1_0_to_V1_1+0x38c>
    5038:	00 83       	st	Z, r16
    503a:	01 c0       	rjmp	.+2      	; 0x503e <Update_V1_0_to_V1_1+0x38c>
    503c:	10 82       	st	Z, r1
    503e:	cb 5b       	subi	r28, 0xBB	; 187
    5040:	de 4f       	sbci	r29, 0xFE	; 254
    5042:	e8 81       	ld	r30, Y
    5044:	f9 81       	ldd	r31, Y+1	; 0x01
    5046:	c5 54       	subi	r28, 0x45	; 69
    5048:	d1 40       	sbci	r29, 0x01	; 1
    504a:	33 fe       	sbrs	r3, 3
    504c:	06 c0       	rjmp	.+12     	; 0x505a <Update_V1_0_to_V1_1+0x3a8>
    504e:	43 fe       	sbrs	r4, 3
    5050:	02 c0       	rjmp	.+4      	; 0x5056 <Update_V1_0_to_V1_1+0x3a4>
    5052:	10 83       	st	Z, r17
    5054:	03 c0       	rjmp	.+6      	; 0x505c <Update_V1_0_to_V1_1+0x3aa>
    5056:	00 83       	st	Z, r16
    5058:	01 c0       	rjmp	.+2      	; 0x505c <Update_V1_0_to_V1_1+0x3aa>
    505a:	10 82       	st	Z, r1
    505c:	c9 5b       	subi	r28, 0xB9	; 185
    505e:	de 4f       	sbci	r29, 0xFE	; 254
    5060:	e8 81       	ld	r30, Y
    5062:	f9 81       	ldd	r31, Y+1	; 0x01
    5064:	c7 54       	subi	r28, 0x47	; 71
    5066:	d1 40       	sbci	r29, 0x01	; 1
    5068:	54 fe       	sbrs	r5, 4
    506a:	06 c0       	rjmp	.+12     	; 0x5078 <Update_V1_0_to_V1_1+0x3c6>
    506c:	24 ff       	sbrs	r18, 4
    506e:	02 c0       	rjmp	.+4      	; 0x5074 <Update_V1_0_to_V1_1+0x3c2>
    5070:	10 83       	st	Z, r17
    5072:	03 c0       	rjmp	.+6      	; 0x507a <Update_V1_0_to_V1_1+0x3c8>
    5074:	00 83       	st	Z, r16
    5076:	01 c0       	rjmp	.+2      	; 0x507a <Update_V1_0_to_V1_1+0x3c8>
    5078:	10 82       	st	Z, r1
    507a:	c7 5b       	subi	r28, 0xB7	; 183
    507c:	de 4f       	sbci	r29, 0xFE	; 254
    507e:	e8 81       	ld	r30, Y
    5080:	f9 81       	ldd	r31, Y+1	; 0x01
    5082:	c9 54       	subi	r28, 0x49	; 73
    5084:	d1 40       	sbci	r29, 0x01	; 1
    5086:	34 fe       	sbrs	r3, 4
    5088:	06 c0       	rjmp	.+12     	; 0x5096 <Update_V1_0_to_V1_1+0x3e4>
    508a:	44 fe       	sbrs	r4, 4
    508c:	02 c0       	rjmp	.+4      	; 0x5092 <Update_V1_0_to_V1_1+0x3e0>
    508e:	10 83       	st	Z, r17
    5090:	03 c0       	rjmp	.+6      	; 0x5098 <Update_V1_0_to_V1_1+0x3e6>
    5092:	00 83       	st	Z, r16
    5094:	01 c0       	rjmp	.+2      	; 0x5098 <Update_V1_0_to_V1_1+0x3e6>
    5096:	10 82       	st	Z, r1
    5098:	c5 5b       	subi	r28, 0xB5	; 181
    509a:	de 4f       	sbci	r29, 0xFE	; 254
    509c:	e8 81       	ld	r30, Y
    509e:	f9 81       	ldd	r31, Y+1	; 0x01
    50a0:	cb 54       	subi	r28, 0x4B	; 75
    50a2:	d1 40       	sbci	r29, 0x01	; 1
    50a4:	55 fe       	sbrs	r5, 5
    50a6:	06 c0       	rjmp	.+12     	; 0x50b4 <Update_V1_0_to_V1_1+0x402>
    50a8:	25 ff       	sbrs	r18, 5
    50aa:	02 c0       	rjmp	.+4      	; 0x50b0 <Update_V1_0_to_V1_1+0x3fe>
    50ac:	10 83       	st	Z, r17
    50ae:	03 c0       	rjmp	.+6      	; 0x50b6 <Update_V1_0_to_V1_1+0x404>
    50b0:	00 83       	st	Z, r16
    50b2:	01 c0       	rjmp	.+2      	; 0x50b6 <Update_V1_0_to_V1_1+0x404>
    50b4:	10 82       	st	Z, r1
    50b6:	f7 01       	movw	r30, r14
    50b8:	35 fe       	sbrs	r3, 5
    50ba:	06 c0       	rjmp	.+12     	; 0x50c8 <Update_V1_0_to_V1_1+0x416>
    50bc:	45 fe       	sbrs	r4, 5
    50be:	02 c0       	rjmp	.+4      	; 0x50c4 <Update_V1_0_to_V1_1+0x412>
    50c0:	10 83       	st	Z, r17
    50c2:	03 c0       	rjmp	.+6      	; 0x50ca <Update_V1_0_to_V1_1+0x418>
    50c4:	00 83       	st	Z, r16
    50c6:	01 c0       	rjmp	.+2      	; 0x50ca <Update_V1_0_to_V1_1+0x418>
    50c8:	10 82       	st	Z, r1
    50ca:	f6 e2       	ldi	r31, 0x26	; 38
    50cc:	8f 0e       	add	r8, r31
    50ce:	91 1c       	adc	r9, r1
    50d0:	c1 5c       	subi	r28, 0xC1	; 193
    50d2:	de 4f       	sbci	r29, 0xFE	; 254
    50d4:	88 81       	ld	r24, Y
    50d6:	99 81       	ldd	r25, Y+1	; 0x01
    50d8:	cf 53       	subi	r28, 0x3F	; 63
    50da:	d1 40       	sbci	r29, 0x01	; 1
    50dc:	86 96       	adiw	r24, 0x26	; 38
    50de:	c1 5c       	subi	r28, 0xC1	; 193
    50e0:	de 4f       	sbci	r29, 0xFE	; 254
    50e2:	99 83       	std	Y+1, r25	; 0x01
    50e4:	88 83       	st	Y, r24
    50e6:	cf 53       	subi	r28, 0x3F	; 63
    50e8:	d1 40       	sbci	r29, 0x01	; 1
    50ea:	cd 5b       	subi	r28, 0xBD	; 189
    50ec:	de 4f       	sbci	r29, 0xFE	; 254
    50ee:	e8 81       	ld	r30, Y
    50f0:	f9 81       	ldd	r31, Y+1	; 0x01
    50f2:	c3 54       	subi	r28, 0x43	; 67
    50f4:	d1 40       	sbci	r29, 0x01	; 1
    50f6:	b6 96       	adiw	r30, 0x26	; 38
    50f8:	cd 5b       	subi	r28, 0xBD	; 189
    50fa:	de 4f       	sbci	r29, 0xFE	; 254
    50fc:	f9 83       	std	Y+1, r31	; 0x01
    50fe:	e8 83       	st	Y, r30
    5100:	c3 54       	subi	r28, 0x43	; 67
    5102:	d1 40       	sbci	r29, 0x01	; 1
    5104:	cf 5b       	subi	r28, 0xBF	; 191
    5106:	de 4f       	sbci	r29, 0xFE	; 254
    5108:	88 81       	ld	r24, Y
    510a:	99 81       	ldd	r25, Y+1	; 0x01
    510c:	c1 54       	subi	r28, 0x41	; 65
    510e:	d1 40       	sbci	r29, 0x01	; 1
    5110:	86 96       	adiw	r24, 0x26	; 38
    5112:	cf 5b       	subi	r28, 0xBF	; 191
    5114:	de 4f       	sbci	r29, 0xFE	; 254
    5116:	99 83       	std	Y+1, r25	; 0x01
    5118:	88 83       	st	Y, r24
    511a:	c1 54       	subi	r28, 0x41	; 65
    511c:	d1 40       	sbci	r29, 0x01	; 1
    511e:	96 e2       	ldi	r25, 0x26	; 38
    5120:	c9 0e       	add	r12, r25
    5122:	d1 1c       	adc	r13, r1
    5124:	e6 e2       	ldi	r30, 0x26	; 38
    5126:	ee 0e       	add	r14, r30
    5128:	f1 1c       	adc	r15, r1
    512a:	c5 5b       	subi	r28, 0xB5	; 181
    512c:	de 4f       	sbci	r29, 0xFE	; 254
    512e:	88 81       	ld	r24, Y
    5130:	99 81       	ldd	r25, Y+1	; 0x01
    5132:	cb 54       	subi	r28, 0x4B	; 75
    5134:	d1 40       	sbci	r29, 0x01	; 1
    5136:	86 96       	adiw	r24, 0x26	; 38
    5138:	c5 5b       	subi	r28, 0xB5	; 181
    513a:	de 4f       	sbci	r29, 0xFE	; 254
    513c:	99 83       	std	Y+1, r25	; 0x01
    513e:	88 83       	st	Y, r24
    5140:	cb 54       	subi	r28, 0x4B	; 75
    5142:	d1 40       	sbci	r29, 0x01	; 1
    5144:	c7 5b       	subi	r28, 0xB7	; 183
    5146:	de 4f       	sbci	r29, 0xFE	; 254
    5148:	e8 81       	ld	r30, Y
    514a:	f9 81       	ldd	r31, Y+1	; 0x01
    514c:	c9 54       	subi	r28, 0x49	; 73
    514e:	d1 40       	sbci	r29, 0x01	; 1
    5150:	b6 96       	adiw	r30, 0x26	; 38
    5152:	c7 5b       	subi	r28, 0xB7	; 183
    5154:	de 4f       	sbci	r29, 0xFE	; 254
    5156:	f9 83       	std	Y+1, r31	; 0x01
    5158:	e8 83       	st	Y, r30
    515a:	c9 54       	subi	r28, 0x49	; 73
    515c:	d1 40       	sbci	r29, 0x01	; 1
    515e:	c9 5b       	subi	r28, 0xB9	; 185
    5160:	de 4f       	sbci	r29, 0xFE	; 254
    5162:	88 81       	ld	r24, Y
    5164:	99 81       	ldd	r25, Y+1	; 0x01
    5166:	c7 54       	subi	r28, 0x47	; 71
    5168:	d1 40       	sbci	r29, 0x01	; 1
    516a:	86 96       	adiw	r24, 0x26	; 38
    516c:	c9 5b       	subi	r28, 0xB9	; 185
    516e:	de 4f       	sbci	r29, 0xFE	; 254
    5170:	99 83       	std	Y+1, r25	; 0x01
    5172:	88 83       	st	Y, r24
    5174:	c7 54       	subi	r28, 0x47	; 71
    5176:	d1 40       	sbci	r29, 0x01	; 1
    5178:	cb 5b       	subi	r28, 0xBB	; 187
    517a:	de 4f       	sbci	r29, 0xFE	; 254
    517c:	e8 81       	ld	r30, Y
    517e:	f9 81       	ldd	r31, Y+1	; 0x01
    5180:	c5 54       	subi	r28, 0x45	; 69
    5182:	d1 40       	sbci	r29, 0x01	; 1
    5184:	b6 96       	adiw	r30, 0x26	; 38
    5186:	cb 5b       	subi	r28, 0xBB	; 187
    5188:	de 4f       	sbci	r29, 0xFE	; 254
    518a:	f9 83       	std	Y+1, r31	; 0x01
    518c:	e8 83       	st	Y, r30
    518e:	c5 54       	subi	r28, 0x45	; 69
    5190:	d1 40       	sbci	r29, 0x01	; 1
    5192:	c1 5b       	subi	r28, 0xB1	; 177
    5194:	de 4f       	sbci	r29, 0xFE	; 254
    5196:	88 81       	ld	r24, Y
    5198:	99 81       	ldd	r25, Y+1	; 0x01
    519a:	cf 54       	subi	r28, 0x4F	; 79
    519c:	d1 40       	sbci	r29, 0x01	; 1
    519e:	86 96       	adiw	r24, 0x26	; 38
    51a0:	c1 5b       	subi	r28, 0xB1	; 177
    51a2:	de 4f       	sbci	r29, 0xFE	; 254
    51a4:	99 83       	std	Y+1, r25	; 0x01
    51a6:	88 83       	st	Y, r24
    51a8:	cf 54       	subi	r28, 0x4F	; 79
    51aa:	d1 40       	sbci	r29, 0x01	; 1
    51ac:	c3 5b       	subi	r28, 0xB3	; 179
    51ae:	de 4f       	sbci	r29, 0xFE	; 254
    51b0:	e8 81       	ld	r30, Y
    51b2:	f9 81       	ldd	r31, Y+1	; 0x01
    51b4:	cd 54       	subi	r28, 0x4D	; 77
    51b6:	d1 40       	sbci	r29, 0x01	; 1
    51b8:	b6 96       	adiw	r30, 0x26	; 38
    51ba:	c3 5b       	subi	r28, 0xB3	; 179
    51bc:	de 4f       	sbci	r29, 0xFE	; 254
    51be:	f9 83       	std	Y+1, r31	; 0x01
    51c0:	e8 83       	st	Y, r30
    51c2:	cd 54       	subi	r28, 0x4D	; 77
    51c4:	d1 40       	sbci	r29, 0x01	; 1
    51c6:	f6 e2       	ldi	r31, 0x26	; 38
    51c8:	af 0e       	add	r10, r31
    51ca:	b1 1c       	adc	r11, r1
    51cc:	c3 5c       	subi	r28, 0xC3	; 195
    51ce:	de 4f       	sbci	r29, 0xFE	; 254
    51d0:	88 81       	ld	r24, Y
    51d2:	99 81       	ldd	r25, Y+1	; 0x01
    51d4:	cd 53       	subi	r28, 0x3D	; 61
    51d6:	d1 40       	sbci	r29, 0x01	; 1
    51d8:	e8 16       	cp	r14, r24
    51da:	f9 06       	cpc	r15, r25
    51dc:	09 f0       	breq	.+2      	; 0x51e0 <Update_V1_0_to_V1_1+0x52e>
    51de:	8b ce       	rjmp	.-746    	; 0x4ef6 <Update_V1_0_to_V1_1+0x244>
    51e0:	80 e3       	ldi	r24, 0x30	; 48
    51e2:	91 e0       	ldi	r25, 0x01	; 1
    51e4:	fe 01       	movw	r30, r28
    51e6:	31 96       	adiw	r30, 0x01	; 1
    51e8:	ab ea       	ldi	r26, 0xAB	; 171
    51ea:	b6 e0       	ldi	r27, 0x06	; 6
    51ec:	01 90       	ld	r0, Z+
    51ee:	0d 92       	st	X+, r0
    51f0:	01 97       	sbiw	r24, 0x01	; 1
    51f2:	e1 f7       	brne	.-8      	; 0x51ec <Update_V1_0_to_V1_1+0x53a>
    51f4:	cf 5a       	subi	r28, 0xAF	; 175
    51f6:	de 4f       	sbci	r29, 0xFE	; 254
    51f8:	98 81       	ld	r25, Y
    51fa:	c1 55       	subi	r28, 0x51	; 81
    51fc:	d1 40       	sbci	r29, 0x01	; 1
    51fe:	97 30       	cpi	r25, 0x07	; 7
    5200:	30 f4       	brcc	.+12     	; 0x520e <Update_V1_0_to_V1_1+0x55c>
    5202:	e9 2f       	mov	r30, r25
    5204:	f0 e0       	ldi	r31, 0x00	; 0
    5206:	e1 5f       	subi	r30, 0xF1	; 241
    5208:	fa 4f       	sbci	r31, 0xFA	; 250
    520a:	80 81       	ld	r24, Z
    520c:	01 c0       	rjmp	.+2      	; 0x5210 <Update_V1_0_to_V1_1+0x55e>
    520e:	87 e0       	ldi	r24, 0x07	; 7
    5210:	80 93 a7 06 	sts	0x06A7, r24
    5214:	ce 5a       	subi	r28, 0xAE	; 174
    5216:	de 4f       	sbci	r29, 0xFE	; 254
    5218:	e8 81       	ld	r30, Y
    521a:	c2 55       	subi	r28, 0x52	; 82
    521c:	d1 40       	sbci	r29, 0x01	; 1
    521e:	e7 30       	cpi	r30, 0x07	; 7
    5220:	28 f4       	brcc	.+10     	; 0x522c <Update_V1_0_to_V1_1+0x57a>
    5222:	f0 e0       	ldi	r31, 0x00	; 0
    5224:	e1 5f       	subi	r30, 0xF1	; 241
    5226:	fa 4f       	sbci	r31, 0xFA	; 250
    5228:	80 81       	ld	r24, Z
    522a:	01 c0       	rjmp	.+2      	; 0x522e <Update_V1_0_to_V1_1+0x57c>
    522c:	87 e0       	ldi	r24, 0x07	; 7
    522e:	80 93 a8 06 	sts	0x06A8, r24
    5232:	20 92 21 08 	sts	0x0821, r2
    5236:	cd 5a       	subi	r28, 0xAD	; 173
    5238:	de 4f       	sbci	r29, 0xFE	; 254
    523a:	0f b6       	in	r0, 0x3f	; 63
    523c:	f8 94       	cli
    523e:	de bf       	out	0x3e, r29	; 62
    5240:	0f be       	out	0x3f, r0	; 63
    5242:	cd bf       	out	0x3d, r28	; 61
    5244:	df 91       	pop	r29
    5246:	cf 91       	pop	r28
    5248:	1f 91       	pop	r17
    524a:	0f 91       	pop	r16
    524c:	ff 90       	pop	r15
    524e:	ef 90       	pop	r14
    5250:	df 90       	pop	r13
    5252:	cf 90       	pop	r12
    5254:	bf 90       	pop	r11
    5256:	af 90       	pop	r10
    5258:	9f 90       	pop	r9
    525a:	8f 90       	pop	r8
    525c:	7f 90       	pop	r7
    525e:	6f 90       	pop	r6
    5260:	5f 90       	pop	r5
    5262:	4f 90       	pop	r4
    5264:	3f 90       	pop	r3
    5266:	2f 90       	pop	r2
    5268:	08 95       	ret

0000526a <Update_V1_1_to_V1_2>:
    526a:	cf 93       	push	r28
    526c:	e0 91 a9 06 	lds	r30, 0x06A9
    5270:	e1 50       	subi	r30, 0x01	; 1
    5272:	ea 30       	cpi	r30, 0x0A	; 10
    5274:	28 f4       	brcc	.+10     	; 0x5280 <Update_V1_1_to_V1_2+0x16>
    5276:	f0 e0       	ldi	r31, 0x00	; 0
    5278:	e5 5e       	subi	r30, 0xE5	; 229
    527a:	fa 4f       	sbci	r31, 0xFA	; 250
    527c:	80 81       	ld	r24, Z
    527e:	01 c0       	rjmp	.+2      	; 0x5282 <Update_V1_1_to_V1_2+0x18>
    5280:	86 e0       	ldi	r24, 0x06	; 6
    5282:	80 93 a9 06 	sts	0x06A9, r24
    5286:	80 91 49 06 	lds	r24, 0x0649
    528a:	80 93 22 08 	sts	0x0822, r24
    528e:	10 92 49 06 	sts	0x0649, r1
    5292:	e0 91 a1 06 	lds	r30, 0x06A1
    5296:	e1 50       	subi	r30, 0x01	; 1
    5298:	e5 30       	cpi	r30, 0x05	; 5
    529a:	28 f4       	brcc	.+10     	; 0x52a6 <Update_V1_1_to_V1_2+0x3c>
    529c:	f0 e0       	ldi	r31, 0x00	; 0
    529e:	ea 5e       	subi	r30, 0xEA	; 234
    52a0:	fa 4f       	sbci	r31, 0xFA	; 250
    52a2:	c0 81       	ld	r28, Z
    52a4:	01 c0       	rjmp	.+2      	; 0x52a8 <Update_V1_1_to_V1_2+0x3e>
    52a6:	c0 e0       	ldi	r28, 0x00	; 0
    52a8:	8b e2       	ldi	r24, 0x2B	; 43
    52aa:	e3 e2       	ldi	r30, 0x23	; 35
    52ac:	f8 e0       	ldi	r31, 0x08	; 8
    52ae:	df 01       	movw	r26, r30
    52b0:	1d 92       	st	X+, r1
    52b2:	8a 95       	dec	r24
    52b4:	e9 f7       	brne	.-6      	; 0x52b0 <Update_V1_1_to_V1_2+0x46>
    52b6:	40 e8       	ldi	r20, 0x80	; 128
    52b8:	51 e0       	ldi	r21, 0x01	; 1
    52ba:	62 ea       	ldi	r22, 0xA2	; 162
    52bc:	76 e0       	ldi	r23, 0x06	; 6
    52be:	83 ea       	ldi	r24, 0xA3	; 163
    52c0:	96 e0       	ldi	r25, 0x06	; 6
    52c2:	0e 94 12 6f 	call	0xde24	; 0xde24 <memmove>
    52c6:	c0 93 a1 06 	sts	0x06A1, r28
    52ca:	10 92 a2 06 	sts	0x06A2, r1
    52ce:	cf 91       	pop	r28
    52d0:	08 95       	ret

000052d2 <Update_V1_2_to_V1_3B1>:
    52d2:	e0 ed       	ldi	r30, 0xD0	; 208
    52d4:	f6 e0       	ldi	r31, 0x06	; 6
    52d6:	df 01       	movw	r26, r30
    52d8:	16 97       	sbiw	r26, 0x06	; 6
    52da:	8c 91       	ld	r24, X
    52dc:	8c 5f       	subi	r24, 0xFC	; 252
    52de:	8c 93       	st	X, r24
    52e0:	12 96       	adiw	r26, 0x02	; 2
    52e2:	8c 91       	ld	r24, X
    52e4:	8c 5f       	subi	r24, 0xFC	; 252
    52e6:	8c 93       	st	X, r24
    52e8:	12 96       	adiw	r26, 0x02	; 2
    52ea:	8c 91       	ld	r24, X
    52ec:	8c 5f       	subi	r24, 0xFC	; 252
    52ee:	8c 93       	st	X, r24
    52f0:	80 81       	ld	r24, Z
    52f2:	8c 5f       	subi	r24, 0xFC	; 252
    52f4:	80 83       	st	Z, r24
    52f6:	b6 96       	adiw	r30, 0x26	; 38
    52f8:	68 e0       	ldi	r22, 0x08	; 8
    52fa:	e0 30       	cpi	r30, 0x00	; 0
    52fc:	f6 07       	cpc	r31, r22
    52fe:	59 f7       	brne	.-42     	; 0x52d6 <Update_V1_2_to_V1_3B1+0x4>
    5300:	10 92 4c 08 	sts	0x084C, r1
    5304:	51 e1       	ldi	r21, 0x11	; 17
    5306:	50 93 4d 08 	sts	0x084D, r21
    530a:	41 e2       	ldi	r20, 0x21	; 33
    530c:	40 93 4e 08 	sts	0x084E, r20
    5310:	32 e3       	ldi	r19, 0x32	; 50
    5312:	30 93 4f 08 	sts	0x084F, r19
    5316:	23 e4       	ldi	r18, 0x43	; 67
    5318:	20 93 50 08 	sts	0x0850, r18
    531c:	93 e5       	ldi	r25, 0x53	; 83
    531e:	90 93 51 08 	sts	0x0851, r25
    5322:	84 e6       	ldi	r24, 0x64	; 100
    5324:	80 93 52 08 	sts	0x0852, r24
    5328:	10 92 54 08 	sts	0x0854, r1
    532c:	50 93 55 08 	sts	0x0855, r21
    5330:	40 93 56 08 	sts	0x0856, r20
    5334:	30 93 57 08 	sts	0x0857, r19
    5338:	20 93 58 08 	sts	0x0858, r18
    533c:	90 93 59 08 	sts	0x0859, r25
    5340:	80 93 5a 08 	sts	0x085A, r24
    5344:	ec e5       	ldi	r30, 0x5C	; 92
    5346:	f8 e0       	ldi	r31, 0x08	; 8
    5348:	5c e9       	ldi	r21, 0x9C	; 156
    534a:	4d eb       	ldi	r20, 0xBD	; 189
    534c:	3f ed       	ldi	r19, 0xDF	; 223
    534e:	21 e2       	ldi	r18, 0x21	; 33
    5350:	93 e4       	ldi	r25, 0x43	; 67
    5352:	50 83       	st	Z, r21
    5354:	41 83       	std	Z+1, r20	; 0x01
    5356:	32 83       	std	Z+2, r19	; 0x02
    5358:	13 82       	std	Z+3, r1	; 0x03
    535a:	24 83       	std	Z+4, r18	; 0x04
    535c:	95 83       	std	Z+5, r25	; 0x05
    535e:	86 83       	std	Z+6, r24	; 0x06
    5360:	38 96       	adiw	r30, 0x08	; 8
    5362:	68 e0       	ldi	r22, 0x08	; 8
    5364:	ec 37       	cpi	r30, 0x7C	; 124
    5366:	f6 07       	cpc	r31, r22
    5368:	a1 f7       	brne	.-24     	; 0x5352 <Update_V1_2_to_V1_3B1+0x80>
    536a:	10 92 53 08 	sts	0x0853, r1
    536e:	10 92 5b 08 	sts	0x085B, r1
    5372:	10 92 63 08 	sts	0x0863, r1
    5376:	10 92 6b 08 	sts	0x086B, r1
    537a:	84 e1       	ldi	r24, 0x14	; 20
    537c:	80 93 73 08 	sts	0x0873, r24
    5380:	80 93 7b 08 	sts	0x087B, r24
    5384:	80 e0       	ldi	r24, 0x00	; 0
    5386:	90 e0       	ldi	r25, 0x00	; 0
    5388:	fc 01       	movw	r30, r24
    538a:	e2 52       	subi	r30, 0x22	; 34
    538c:	fe 4f       	sbci	r31, 0xFE	; 254
    538e:	e4 91       	lpm	r30, Z
    5390:	dc 01       	movw	r26, r24
    5392:	a4 58       	subi	r26, 0x84	; 132
    5394:	b7 4f       	sbci	r27, 0xF7	; 247
    5396:	ec 93       	st	X, r30
    5398:	01 96       	adiw	r24, 0x01	; 1
    539a:	88 30       	cpi	r24, 0x08	; 8
    539c:	91 05       	cpc	r25, r1
    539e:	a1 f7       	brne	.-24     	; 0x5388 <Update_V1_2_to_V1_3B1+0xb6>
    53a0:	08 95       	ret

000053a2 <Update_V1_3B1_to_V1_3B14>:
    53a2:	1f 93       	push	r17
    53a4:	cf 93       	push	r28
    53a6:	df 93       	push	r29
    53a8:	c9 e1       	ldi	r28, 0x19	; 25
    53aa:	d6 e0       	ldi	r29, 0x06	; 6
    53ac:	1e a5       	ldd	r17, Y+46	; 0x2e
    53ae:	4c e3       	ldi	r20, 0x3C	; 60
    53b0:	52 e0       	ldi	r21, 0x02	; 2
    53b2:	68 e4       	ldi	r22, 0x48	; 72
    53b4:	76 e0       	ldi	r23, 0x06	; 6
    53b6:	89 e4       	ldi	r24, 0x49	; 73
    53b8:	96 e0       	ldi	r25, 0x06	; 6
    53ba:	0e 94 12 6f 	call	0xde24	; 0xde24 <memmove>
    53be:	1f a7       	std	Y+47, r17	; 0x2f
    53c0:	8f e3       	ldi	r24, 0x3F	; 63
    53c2:	88 83       	st	Y, r24
    53c4:	df 91       	pop	r29
    53c6:	cf 91       	pop	r28
    53c8:	1f 91       	pop	r17
    53ca:	08 95       	ret

000053cc <Update_V1_3B14_to_V1_3B15>:
    53cc:	0f 93       	push	r16
    53ce:	1f 93       	push	r17
    53d0:	cf 93       	push	r28
    53d2:	df 93       	push	r29
    53d4:	cd b7       	in	r28, 0x3d	; 61
    53d6:	de b7       	in	r29, 0x3e	; 62
    53d8:	c0 53       	subi	r28, 0x30	; 48
    53da:	d1 40       	sbci	r29, 0x01	; 1
    53dc:	0f b6       	in	r0, 0x3f	; 63
    53de:	f8 94       	cli
    53e0:	de bf       	out	0x3e, r29	; 62
    53e2:	0f be       	out	0x3f, r0	; 63
    53e4:	cd bf       	out	0x3d, r28	; 61
    53e6:	80 e3       	ldi	r24, 0x30	; 48
    53e8:	91 e0       	ldi	r25, 0x01	; 1
    53ea:	ed ea       	ldi	r30, 0xAD	; 173
    53ec:	f6 e0       	ldi	r31, 0x06	; 6
    53ee:	de 01       	movw	r26, r28
    53f0:	11 96       	adiw	r26, 0x01	; 1
    53f2:	01 90       	ld	r0, Z+
    53f4:	0d 92       	st	X+, r0
    53f6:	01 97       	sbiw	r24, 0x01	; 1
    53f8:	e1 f7       	brne	.-8      	; 0x53f2 <Update_V1_3B14_to_V1_3B15+0x26>
    53fa:	ce 01       	movw	r24, r28
    53fc:	01 96       	adiw	r24, 0x01	; 1
    53fe:	20 e0       	ldi	r18, 0x00	; 0
    5400:	30 e0       	ldi	r19, 0x00	; 0
    5402:	45 e0       	ldi	r20, 0x05	; 5
    5404:	d9 01       	movw	r26, r18
    5406:	a3 55       	subi	r26, 0x53	; 83
    5408:	b9 4f       	sbci	r27, 0xF9	; 249
    540a:	fc 01       	movw	r30, r24
    540c:	54 2f       	mov	r21, r20
    540e:	01 90       	ld	r0, Z+
    5410:	0d 92       	st	X+, r0
    5412:	5a 95       	dec	r21
    5414:	e1 f7       	brne	.-8      	; 0x540e <Update_V1_3B14_to_V1_3B15+0x42>
    5416:	2e 5d       	subi	r18, 0xDE	; 222
    5418:	3f 4f       	sbci	r19, 0xFF	; 255
    541a:	86 96       	adiw	r24, 0x26	; 38
    541c:	20 31       	cpi	r18, 0x10	; 16
    541e:	51 e0       	ldi	r21, 0x01	; 1
    5420:	35 07       	cpc	r19, r21
    5422:	81 f7       	brne	.-32     	; 0x5404 <Update_V1_3B14_to_V1_3B15+0x38>
    5424:	9e 01       	movw	r18, r28
    5426:	26 5f       	subi	r18, 0xF6	; 246
    5428:	3f 4f       	sbci	r19, 0xFF	; 255
    542a:	80 e0       	ldi	r24, 0x00	; 0
    542c:	90 e0       	ldi	r25, 0x00	; 0
    542e:	4d e1       	ldi	r20, 0x1D	; 29
    5430:	dc 01       	movw	r26, r24
    5432:	ae 54       	subi	r26, 0x4E	; 78
    5434:	b9 4f       	sbci	r27, 0xF9	; 249
    5436:	f9 01       	movw	r30, r18
    5438:	54 2f       	mov	r21, r20
    543a:	01 90       	ld	r0, Z+
    543c:	0d 92       	st	X+, r0
    543e:	5a 95       	dec	r21
    5440:	e1 f7       	brne	.-8      	; 0x543a <Update_V1_3B14_to_V1_3B15+0x6e>
    5442:	82 96       	adiw	r24, 0x22	; 34
    5444:	2a 5d       	subi	r18, 0xDA	; 218
    5446:	3f 4f       	sbci	r19, 0xFF	; 255
    5448:	80 31       	cpi	r24, 0x10	; 16
    544a:	a1 e0       	ldi	r26, 0x01	; 1
    544c:	9a 07       	cpc	r25, r26
    544e:	81 f7       	brne	.-32     	; 0x5430 <Update_V1_3B14_to_V1_3B15+0x64>
    5450:	47 ea       	ldi	r20, 0xA7	; 167
    5452:	50 e0       	ldi	r21, 0x00	; 0
    5454:	6d ed       	ldi	r22, 0xDD	; 221
    5456:	77 e0       	ldi	r23, 0x07	; 7
    5458:	8d eb       	ldi	r24, 0xBD	; 189
    545a:	97 e0       	ldi	r25, 0x07	; 7
    545c:	0e 94 12 6f 	call	0xde24	; 0xde24 <memmove>
    5460:	10 e4       	ldi	r17, 0x40	; 64
    5462:	e5 e6       	ldi	r30, 0x65	; 101
    5464:	f8 e0       	ldi	r31, 0x08	; 8
    5466:	df 01       	movw	r26, r30
    5468:	51 2f       	mov	r21, r17
    546a:	1d 92       	st	X+, r1
    546c:	5a 95       	dec	r21
    546e:	e9 f7       	brne	.-6      	; 0x546a <Update_V1_3B14_to_V1_3B15+0x9e>
    5470:	00 91 49 06 	lds	r16, 0x0649
    5474:	4d e5       	ldi	r20, 0x5D	; 93
    5476:	52 e0       	ldi	r21, 0x02	; 2
    5478:	69 e4       	ldi	r22, 0x49	; 73
    547a:	76 e0       	ldi	r23, 0x06	; 6
    547c:	8b e4       	ldi	r24, 0x4B	; 75
    547e:	96 e0       	ldi	r25, 0x06	; 6
    5480:	0e 94 12 6f 	call	0xde24	; 0xde24 <memmove>
    5484:	10 92 49 06 	sts	0x0649, r1
    5488:	00 93 4a 06 	sts	0x064A, r16
    548c:	84 e6       	ldi	r24, 0x64	; 100
    548e:	80 93 4b 06 	sts	0x064B, r24
    5492:	10 93 19 06 	sts	0x0619, r17
    5496:	c0 5d       	subi	r28, 0xD0	; 208
    5498:	de 4f       	sbci	r29, 0xFE	; 254
    549a:	0f b6       	in	r0, 0x3f	; 63
    549c:	f8 94       	cli
    549e:	de bf       	out	0x3e, r29	; 62
    54a0:	0f be       	out	0x3f, r0	; 63
    54a2:	cd bf       	out	0x3d, r28	; 61
    54a4:	df 91       	pop	r29
    54a6:	cf 91       	pop	r28
    54a8:	1f 91       	pop	r17
    54aa:	0f 91       	pop	r16
    54ac:	08 95       	ret

000054ae <Update_V1_3B15_to_V1_3B17>:
    54ae:	e4 ee       	ldi	r30, 0xE4	; 228
    54b0:	f6 e0       	ldi	r31, 0x06	; 6
    54b2:	84 e1       	ldi	r24, 0x14	; 20
    54b4:	df 01       	movw	r26, r30
    54b6:	16 97       	sbiw	r26, 0x06	; 6
    54b8:	9c 91       	ld	r25, X
    54ba:	93 31       	cpi	r25, 0x13	; 19
    54bc:	09 f4       	brne	.+2      	; 0x54c0 <Update_V1_3B15_to_V1_3B17+0x12>
    54be:	8c 93       	st	X, r24
    54c0:	df 01       	movw	r26, r30
    54c2:	12 97       	sbiw	r26, 0x02	; 2
    54c4:	9c 91       	ld	r25, X
    54c6:	93 31       	cpi	r25, 0x13	; 19
    54c8:	09 f4       	brne	.+2      	; 0x54cc <Update_V1_3B15_to_V1_3B17+0x1e>
    54ca:	8c 93       	st	X, r24
    54cc:	df 01       	movw	r26, r30
    54ce:	14 97       	sbiw	r26, 0x04	; 4
    54d0:	9c 91       	ld	r25, X
    54d2:	93 31       	cpi	r25, 0x13	; 19
    54d4:	09 f4       	brne	.+2      	; 0x54d8 <Update_V1_3B15_to_V1_3B17+0x2a>
    54d6:	8c 93       	st	X, r24
    54d8:	90 81       	ld	r25, Z
    54da:	93 31       	cpi	r25, 0x13	; 19
    54dc:	09 f4       	brne	.+2      	; 0x54e0 <Update_V1_3B15_to_V1_3B17+0x32>
    54de:	80 83       	st	Z, r24
    54e0:	b2 96       	adiw	r30, 0x22	; 34
    54e2:	97 e0       	ldi	r25, 0x07	; 7
    54e4:	e4 3f       	cpi	r30, 0xF4	; 244
    54e6:	f9 07       	cpc	r31, r25
    54e8:	29 f7       	brne	.-54     	; 0x54b4 <Update_V1_3B15_to_V1_3B17+0x6>
    54ea:	81 e4       	ldi	r24, 0x41	; 65
    54ec:	80 93 19 06 	sts	0x0619, r24
    54f0:	08 95       	ret

000054f2 <Update_V1_3_to_V1_4B2>:
    54f2:	ff 92       	push	r15
    54f4:	0f 93       	push	r16
    54f6:	1f 93       	push	r17
    54f8:	cf 93       	push	r28
    54fa:	df 93       	push	r29
    54fc:	c9 e1       	ldi	r28, 0x19	; 25
    54fe:	d6 e0       	ldi	r29, 0x06	; 6
    5500:	fc a8       	ldd	r15, Y+52	; 0x34
    5502:	14 e1       	ldi	r17, 0x14	; 20
    5504:	10 93 4d 06 	sts	0x064D, r17
    5508:	44 e0       	ldi	r20, 0x04	; 4
    550a:	52 e0       	ldi	r21, 0x02	; 2
    550c:	62 ea       	ldi	r22, 0xA2	; 162
    550e:	76 e0       	ldi	r23, 0x06	; 6
    5510:	86 eb       	ldi	r24, 0xB6	; 182
    5512:	96 e0       	ldi	r25, 0x06	; 6
    5514:	0e 94 12 6f 	call	0xde24	; 0xde24 <memmove>
    5518:	48 e1       	ldi	r20, 0x18	; 24
    551a:	50 e0       	ldi	r21, 0x00	; 0
    551c:	6a e8       	ldi	r22, 0x8A	; 138
    551e:	76 e0       	ldi	r23, 0x06	; 6
    5520:	86 e9       	ldi	r24, 0x96	; 150
    5522:	96 e0       	ldi	r25, 0x06	; 6
    5524:	0e 94 12 6f 	call	0xde24	; 0xde24 <memmove>
    5528:	00 e2       	ldi	r16, 0x20	; 32
    552a:	e6 e9       	ldi	r30, 0x96	; 150
    552c:	f6 e0       	ldi	r31, 0x06	; 6
    552e:	df 01       	movw	r26, r30
    5530:	80 2f       	mov	r24, r16
    5532:	1d 92       	st	X+, r1
    5534:	8a 95       	dec	r24
    5536:	e9 f7       	brne	.-6      	; 0x5532 <Update_V1_3_to_V1_4B2+0x40>
    5538:	48 e1       	ldi	r20, 0x18	; 24
    553a:	50 e0       	ldi	r21, 0x00	; 0
    553c:	62 e7       	ldi	r22, 0x72	; 114
    553e:	76 e0       	ldi	r23, 0x06	; 6
    5540:	86 e7       	ldi	r24, 0x76	; 118
    5542:	96 e0       	ldi	r25, 0x06	; 6
    5544:	0e 94 12 6f 	call	0xde24	; 0xde24 <memmove>
    5548:	e6 e7       	ldi	r30, 0x76	; 118
    554a:	f6 e0       	ldi	r31, 0x06	; 6
    554c:	df 01       	movw	r26, r30
    554e:	1d 92       	st	X+, r1
    5550:	0a 95       	dec	r16
    5552:	e9 f7       	brne	.-6      	; 0x554e <Update_V1_3_to_V1_4B2+0x5c>
    5554:	44 e1       	ldi	r20, 0x14	; 20
    5556:	50 e0       	ldi	r21, 0x00	; 0
    5558:	60 e6       	ldi	r22, 0x60	; 96
    555a:	76 e0       	ldi	r23, 0x06	; 6
    555c:	82 e6       	ldi	r24, 0x62	; 98
    555e:	96 e0       	ldi	r25, 0x06	; 6
    5560:	0e 94 12 6f 	call	0xde24	; 0xde24 <memmove>
    5564:	88 e2       	ldi	r24, 0x28	; 40
    5566:	80 93 5f 06 	sts	0x065F, r24
    556a:	10 93 60 06 	sts	0x0660, r17
    556e:	8a e0       	ldi	r24, 0x0A	; 10
    5570:	80 93 61 06 	sts	0x0661, r24
    5574:	10 92 73 06 	sts	0x0673, r1
    5578:	10 92 74 06 	sts	0x0674, r1
    557c:	10 92 75 06 	sts	0x0675, r1
    5580:	f0 92 bb 08 	sts	0x08BB, r15
    5584:	82 e4       	ldi	r24, 0x42	; 66
    5586:	88 83       	st	Y, r24
    5588:	df 91       	pop	r29
    558a:	cf 91       	pop	r28
    558c:	1f 91       	pop	r17
    558e:	0f 91       	pop	r16
    5590:	ff 90       	pop	r15
    5592:	08 95       	ret

00005594 <Update_V1_4B2_to_V1_4B8>:
    5594:	48 ef       	ldi	r20, 0xF8	; 248
    5596:	51 e0       	ldi	r21, 0x01	; 1
    5598:	63 ec       	ldi	r22, 0xC3	; 195
    559a:	76 e0       	ldi	r23, 0x06	; 6
    559c:	84 ec       	ldi	r24, 0xC4	; 196
    559e:	96 e0       	ldi	r25, 0x06	; 6
    55a0:	0e 94 12 6f 	call	0xde24	; 0xde24 <memmove>
    55a4:	81 e0       	ldi	r24, 0x01	; 1
    55a6:	80 93 c3 06 	sts	0x06C3, r24
    55aa:	83 e4       	ldi	r24, 0x43	; 67
    55ac:	80 93 19 06 	sts	0x0619, r24
    55b0:	08 95       	ret

000055b2 <Load_eeprom_preset>:
    55b2:	cf 93       	push	r28
    55b4:	94 e1       	ldi	r25, 0x14	; 20
    55b6:	ee e4       	ldi	r30, 0x4E	; 78
    55b8:	f6 e0       	ldi	r31, 0x06	; 6
    55ba:	df 01       	movw	r26, r30
    55bc:	29 2f       	mov	r18, r25
    55be:	1d 92       	st	X+, r1
    55c0:	2a 95       	dec	r18
    55c2:	e9 f7       	brne	.-6      	; 0x55be <Load_eeprom_preset+0xc>
    55c4:	e2 e6       	ldi	r30, 0x62	; 98
    55c6:	f6 e0       	ldi	r31, 0x06	; 6
    55c8:	df 01       	movw	r26, r30
    55ca:	1d 92       	st	X+, r1
    55cc:	9a 95       	dec	r25
    55ce:	e9 f7       	brne	.-6      	; 0x55ca <Load_eeprom_preset+0x18>
    55d0:	20 e1       	ldi	r18, 0x10	; 16
    55d2:	31 e0       	ldi	r19, 0x01	; 1
    55d4:	e4 ec       	ldi	r30, 0xC4	; 196
    55d6:	f6 e0       	ldi	r31, 0x06	; 6
    55d8:	df 01       	movw	r26, r30
    55da:	a9 01       	movw	r20, r18
    55dc:	1d 92       	st	X+, r1
    55de:	41 50       	subi	r20, 0x01	; 1
    55e0:	50 40       	sbci	r21, 0x00	; 0
    55e2:	e1 f7       	brne	.-8      	; 0x55dc <Load_eeprom_preset+0x2a>
    55e4:	a4 ee       	ldi	r26, 0xE4	; 228
    55e6:	b7 e0       	ldi	r27, 0x07	; 7
    55e8:	60 e0       	ldi	r22, 0x00	; 0
    55ea:	70 e0       	ldi	r23, 0x00	; 0
    55ec:	94 e1       	ldi	r25, 0x14	; 20
    55ee:	cc e9       	ldi	r28, 0x9C	; 156
    55f0:	54 e6       	ldi	r21, 0x64	; 100
    55f2:	9b 01       	movw	r18, r22
    55f4:	27 5e       	subi	r18, 0xE7	; 231
    55f6:	39 4f       	sbci	r19, 0xF9	; 249
    55f8:	f9 01       	movw	r30, r18
    55fa:	eb 53       	subi	r30, 0x3B	; 59
    55fc:	ff 4f       	sbci	r31, 0xFF	; 255
    55fe:	44 e1       	ldi	r20, 0x14	; 20
    5600:	90 83       	st	Z, r25
    5602:	34 96       	adiw	r30, 0x04	; 4
    5604:	90 83       	st	Z, r25
    5606:	32 97       	sbiw	r30, 0x02	; 2
    5608:	90 83       	st	Z, r25
    560a:	34 96       	adiw	r30, 0x04	; 4
    560c:	90 83       	st	Z, r25
    560e:	fd 01       	movw	r30, r26
    5610:	38 97       	sbiw	r30, 0x08	; 8
    5612:	c0 83       	st	Z, r28
    5614:	24 e6       	ldi	r18, 0x64	; 100
    5616:	5d 93       	st	X+, r21
    5618:	6e 5d       	subi	r22, 0xDE	; 222
    561a:	7f 4f       	sbci	r23, 0xFF	; 255
    561c:	60 31       	cpi	r22, 0x10	; 16
    561e:	31 e0       	ldi	r19, 0x01	; 1
    5620:	73 07       	cpc	r23, r19
    5622:	39 f7       	brne	.-50     	; 0x55f2 <Load_eeprom_preset+0x40>
    5624:	81 30       	cpi	r24, 0x01	; 1
    5626:	61 f0       	breq	.+24     	; 0x5640 <Load_eeprom_preset+0x8e>
    5628:	08 f4       	brcc	.+2      	; 0x562c <Load_eeprom_preset+0x7a>
    562a:	e7 c0       	rjmp	.+462    	; 0x57fa <Load_eeprom_preset+0x248>
    562c:	82 30       	cpi	r24, 0x02	; 2
    562e:	09 f4       	brne	.+2      	; 0x5632 <Load_eeprom_preset+0x80>
    5630:	b3 c1       	rjmp	.+870    	; 0x5998 <Load_eeprom_preset+0x3e6>
    5632:	83 30       	cpi	r24, 0x03	; 3
    5634:	09 f0       	breq	.+2      	; 0x5638 <Load_eeprom_preset+0x86>
    5636:	83 c2       	rjmp	.+1286   	; 0x5b3e <Load_eeprom_preset+0x58c>
    5638:	81 e0       	ldi	r24, 0x01	; 1
    563a:	80 93 bb 06 	sts	0x06BB, r24
    563e:	7f c2       	rjmp	.+1278   	; 0x5b3e <Load_eeprom_preset+0x58c>
    5640:	80 93 bb 06 	sts	0x06BB, r24
    5644:	40 93 4d 06 	sts	0x064D, r20
    5648:	28 e2       	ldi	r18, 0x28	; 40
    564a:	20 93 5f 06 	sts	0x065F, r18
    564e:	40 93 60 06 	sts	0x0660, r20
    5652:	9a e0       	ldi	r25, 0x0A	; 10
    5654:	90 93 61 06 	sts	0x0661, r25
    5658:	42 e3       	ldi	r20, 0x32	; 50
    565a:	40 93 4e 06 	sts	0x064E, r20
    565e:	90 93 4f 06 	sts	0x064F, r25
    5662:	90 93 50 06 	sts	0x0650, r25
    5666:	32 e0       	ldi	r19, 0x02	; 2
    5668:	30 93 51 06 	sts	0x0651, r19
    566c:	90 93 52 06 	sts	0x0652, r25
    5670:	40 93 54 06 	sts	0x0654, r20
    5674:	90 93 55 06 	sts	0x0655, r25
    5678:	90 93 56 06 	sts	0x0656, r25
    567c:	30 93 57 06 	sts	0x0657, r19
    5680:	90 93 58 06 	sts	0x0658, r25
    5684:	5c e3       	ldi	r21, 0x3C	; 60
    5686:	50 93 5a 06 	sts	0x065A, r21
    568a:	20 93 5b 06 	sts	0x065B, r18
    568e:	49 e1       	ldi	r20, 0x19	; 25
    5690:	40 93 5c 06 	sts	0x065C, r20
    5694:	30 93 5d 06 	sts	0x065D, r19
    5698:	20 93 62 06 	sts	0x0662, r18
    569c:	63 e1       	ldi	r22, 0x13	; 19
    569e:	60 93 63 06 	sts	0x0663, r22
    56a2:	3e e0       	ldi	r19, 0x0E	; 14
    56a4:	30 93 64 06 	sts	0x0664, r19
    56a8:	93 e0       	ldi	r25, 0x03	; 3
    56aa:	90 93 65 06 	sts	0x0665, r25
    56ae:	80 93 66 06 	sts	0x0666, r24
    56b2:	20 93 68 06 	sts	0x0668, r18
    56b6:	60 93 69 06 	sts	0x0669, r22
    56ba:	30 93 6a 06 	sts	0x066A, r19
    56be:	90 93 6b 06 	sts	0x066B, r25
    56c2:	80 93 6c 06 	sts	0x066C, r24
    56c6:	50 93 6e 06 	sts	0x066E, r21
    56ca:	20 93 6f 06 	sts	0x066F, r18
    56ce:	40 93 70 06 	sts	0x0670, r20
    56d2:	90 93 71 06 	sts	0x0671, r25
    56d6:	40 e0       	ldi	r20, 0x00	; 0
    56d8:	50 e0       	ldi	r21, 0x00	; 0
    56da:	74 e6       	ldi	r23, 0x64	; 100
    56dc:	a2 e0       	ldi	r26, 0x02	; 2
    56de:	61 e0       	ldi	r22, 0x01	; 1
    56e0:	9a 01       	movw	r18, r20
    56e2:	27 5e       	subi	r18, 0xE7	; 231
    56e4:	39 4f       	sbci	r19, 0xF9	; 249
    56e6:	f9 01       	movw	r30, r18
    56e8:	e0 55       	subi	r30, 0x50	; 80
    56ea:	ff 4f       	sbci	r31, 0xFF	; 255
    56ec:	94 e6       	ldi	r25, 0x64	; 100
    56ee:	70 83       	st	Z, r23
    56f0:	31 96       	adiw	r30, 0x01	; 1
    56f2:	70 83       	st	Z, r23
    56f4:	32 97       	sbiw	r30, 0x02	; 2
    56f6:	a0 83       	st	Z, r26
    56f8:	74 96       	adiw	r30, 0x14	; 20
    56fa:	81 e0       	ldi	r24, 0x01	; 1
    56fc:	60 83       	st	Z, r22
    56fe:	31 96       	adiw	r30, 0x01	; 1
    5700:	60 83       	st	Z, r22
    5702:	4e 5d       	subi	r20, 0xDE	; 222
    5704:	5f 4f       	sbci	r21, 0xFF	; 255
    5706:	48 38       	cpi	r20, 0x88	; 136
    5708:	51 05       	cpc	r21, r1
    570a:	51 f7       	brne	.-44     	; 0x56e0 <Load_eeprom_preset+0x12e>
    570c:	2c ee       	ldi	r18, 0xEC	; 236
    570e:	20 93 ce 06 	sts	0x06CE, r18
    5712:	32 ee       	ldi	r19, 0xE2	; 226
    5714:	30 93 cf 06 	sts	0x06CF, r19
    5718:	30 93 d0 06 	sts	0x06D0, r19
    571c:	68 ed       	ldi	r22, 0xD8	; 216
    571e:	60 93 d1 06 	sts	0x06D1, r22
    5722:	80 93 d4 06 	sts	0x06D4, r24
    5726:	80 93 da 06 	sts	0x06DA, r24
    572a:	80 93 d5 06 	sts	0x06D5, r24
    572e:	80 93 db 06 	sts	0x06DB, r24
    5732:	80 93 d6 06 	sts	0x06D6, r24
    5736:	80 93 d7 06 	sts	0x06D7, r24
    573a:	20 93 ee 06 	sts	0x06EE, r18
    573e:	30 93 ef 06 	sts	0x06EF, r19
    5742:	2e e1       	ldi	r18, 0x1E	; 30
    5744:	20 93 f2 06 	sts	0x06F2, r18
    5748:	48 e2       	ldi	r20, 0x28	; 40
    574a:	40 93 f3 06 	sts	0x06F3, r20
    574e:	80 93 f4 06 	sts	0x06F4, r24
    5752:	80 93 fa 06 	sts	0x06FA, r24
    5756:	80 93 f5 06 	sts	0x06F5, r24
    575a:	80 93 fb 06 	sts	0x06FB, r24
    575e:	80 93 f8 06 	sts	0x06F8, r24
    5762:	80 93 f9 06 	sts	0x06F9, r24
    5766:	54 e1       	ldi	r21, 0x14	; 20
    5768:	50 93 12 07 	sts	0x0712, r21
    576c:	20 93 13 07 	sts	0x0713, r18
    5770:	30 93 14 07 	sts	0x0714, r19
    5774:	60 93 15 07 	sts	0x0715, r22
    5778:	80 93 18 07 	sts	0x0718, r24
    577c:	80 93 1e 07 	sts	0x071E, r24
    5780:	80 93 19 07 	sts	0x0719, r24
    5784:	80 93 1f 07 	sts	0x071F, r24
    5788:	80 93 1a 07 	sts	0x071A, r24
    578c:	80 93 1b 07 	sts	0x071B, r24
    5790:	50 93 32 07 	sts	0x0732, r21
    5794:	20 93 33 07 	sts	0x0733, r18
    5798:	20 93 36 07 	sts	0x0736, r18
    579c:	40 93 37 07 	sts	0x0737, r20
    57a0:	80 93 38 07 	sts	0x0738, r24
    57a4:	80 93 3e 07 	sts	0x073E, r24
    57a8:	80 93 39 07 	sts	0x0739, r24
    57ac:	80 93 3f 07 	sts	0x073F, r24
    57b0:	80 93 3c 07 	sts	0x073C, r24
    57b4:	80 93 3d 07 	sts	0x073D, r24
    57b8:	8b e4       	ldi	r24, 0x4B	; 75
    57ba:	80 93 56 07 	sts	0x0756, r24
    57be:	90 93 57 07 	sts	0x0757, r25
    57c2:	80 93 76 07 	sts	0x0776, r24
    57c6:	90 93 77 07 	sts	0x0777, r25
    57ca:	80 93 9c 07 	sts	0x079C, r24
    57ce:	90 93 9d 07 	sts	0x079D, r25
    57d2:	8c e9       	ldi	r24, 0x9C	; 156
    57d4:	80 93 b4 08 	sts	0x08B4, r24
    57d8:	8d eb       	ldi	r24, 0xBD	; 189
    57da:	80 93 b5 08 	sts	0x08B5, r24
    57de:	8f ed       	ldi	r24, 0xDF	; 223
    57e0:	80 93 b6 08 	sts	0x08B6, r24
    57e4:	10 92 b7 08 	sts	0x08B7, r1
    57e8:	81 e2       	ldi	r24, 0x21	; 33
    57ea:	80 93 b8 08 	sts	0x08B8, r24
    57ee:	83 e4       	ldi	r24, 0x43	; 67
    57f0:	80 93 b9 08 	sts	0x08B9, r24
    57f4:	90 93 ba 08 	sts	0x08BA, r25
    57f8:	a2 c1       	rjmp	.+836    	; 0x5b3e <Load_eeprom_preset+0x58c>
    57fa:	31 e0       	ldi	r19, 0x01	; 1
    57fc:	30 93 bb 06 	sts	0x06BB, r19
    5800:	40 93 4d 06 	sts	0x064D, r20
    5804:	88 e2       	ldi	r24, 0x28	; 40
    5806:	80 93 5f 06 	sts	0x065F, r24
    580a:	40 93 60 06 	sts	0x0660, r20
    580e:	9a e0       	ldi	r25, 0x0A	; 10
    5810:	90 93 61 06 	sts	0x0661, r25
    5814:	80 93 4e 06 	sts	0x064E, r24
    5818:	90 93 4f 06 	sts	0x064F, r25
    581c:	90 93 50 06 	sts	0x0650, r25
    5820:	22 e0       	ldi	r18, 0x02	; 2
    5822:	20 93 51 06 	sts	0x0651, r18
    5826:	90 93 52 06 	sts	0x0652, r25
    582a:	80 93 54 06 	sts	0x0654, r24
    582e:	90 93 55 06 	sts	0x0655, r25
    5832:	90 93 56 06 	sts	0x0656, r25
    5836:	20 93 57 06 	sts	0x0657, r18
    583a:	90 93 58 06 	sts	0x0658, r25
    583e:	4c e3       	ldi	r20, 0x3C	; 60
    5840:	40 93 5a 06 	sts	0x065A, r20
    5844:	80 93 5b 06 	sts	0x065B, r24
    5848:	99 e1       	ldi	r25, 0x19	; 25
    584a:	90 93 5c 06 	sts	0x065C, r25
    584e:	20 93 5d 06 	sts	0x065D, r18
    5852:	80 93 62 06 	sts	0x0662, r24
    5856:	73 e1       	ldi	r23, 0x13	; 19
    5858:	70 93 63 06 	sts	0x0663, r23
    585c:	6e e0       	ldi	r22, 0x0E	; 14
    585e:	60 93 64 06 	sts	0x0664, r22
    5862:	53 e0       	ldi	r21, 0x03	; 3
    5864:	50 93 65 06 	sts	0x0665, r21
    5868:	30 93 66 06 	sts	0x0666, r19
    586c:	80 93 68 06 	sts	0x0668, r24
    5870:	70 93 69 06 	sts	0x0669, r23
    5874:	60 93 6a 06 	sts	0x066A, r22
    5878:	50 93 6b 06 	sts	0x066B, r21
    587c:	30 93 6c 06 	sts	0x066C, r19
    5880:	40 93 6e 06 	sts	0x066E, r20
    5884:	80 93 6f 06 	sts	0x066F, r24
    5888:	90 93 70 06 	sts	0x0670, r25
    588c:	20 93 71 06 	sts	0x0671, r18
    5890:	89 e1       	ldi	r24, 0x19	; 25
    5892:	96 e0       	ldi	r25, 0x06	; 6
    5894:	44 e6       	ldi	r20, 0x64	; 100
    5896:	52 e0       	ldi	r21, 0x02	; 2
    5898:	21 e0       	ldi	r18, 0x01	; 1
    589a:	fc 01       	movw	r30, r24
    589c:	e0 55       	subi	r30, 0x50	; 80
    589e:	ff 4f       	sbci	r31, 0xFF	; 255
    58a0:	34 e6       	ldi	r19, 0x64	; 100
    58a2:	40 83       	st	Z, r20
    58a4:	31 96       	adiw	r30, 0x01	; 1
    58a6:	40 83       	st	Z, r20
    58a8:	32 97       	sbiw	r30, 0x02	; 2
    58aa:	50 83       	st	Z, r21
    58ac:	3a 96       	adiw	r30, 0x0a	; 10
    58ae:	20 83       	st	Z, r18
    58b0:	36 96       	adiw	r30, 0x06	; 6
    58b2:	20 83       	st	Z, r18
    58b4:	35 97       	sbiw	r30, 0x05	; 5
    58b6:	20 83       	st	Z, r18
    58b8:	36 96       	adiw	r30, 0x06	; 6
    58ba:	20 83       	st	Z, r18
    58bc:	35 97       	sbiw	r30, 0x05	; 5
    58be:	20 83       	st	Z, r18
    58c0:	36 96       	adiw	r30, 0x06	; 6
    58c2:	20 83       	st	Z, r18
    58c4:	35 97       	sbiw	r30, 0x05	; 5
    58c6:	20 83       	st	Z, r18
    58c8:	36 96       	adiw	r30, 0x06	; 6
    58ca:	20 83       	st	Z, r18
    58cc:	35 97       	sbiw	r30, 0x05	; 5
    58ce:	20 83       	st	Z, r18
    58d0:	31 96       	adiw	r30, 0x01	; 1
    58d2:	20 83       	st	Z, r18
    58d4:	35 96       	adiw	r30, 0x05	; 5
    58d6:	20 83       	st	Z, r18
    58d8:	31 96       	adiw	r30, 0x01	; 1
    58da:	20 83       	st	Z, r18
    58dc:	82 96       	adiw	r24, 0x22	; 34
    58de:	66 e0       	ldi	r22, 0x06	; 6
    58e0:	81 3a       	cpi	r24, 0xA1	; 161
    58e2:	96 07       	cpc	r25, r22
    58e4:	d1 f6       	brne	.-76     	; 0x589a <Load_eeprom_preset+0x2e8>
    58e6:	9f e0       	ldi	r25, 0x0F	; 15
    58e8:	90 93 cc 06 	sts	0x06CC, r25
    58ec:	84 e1       	ldi	r24, 0x14	; 20
    58ee:	80 93 cd 06 	sts	0x06CD, r24
    58f2:	41 ef       	ldi	r20, 0xF1	; 241
    58f4:	40 93 ce 06 	sts	0x06CE, r20
    58f8:	2c ee       	ldi	r18, 0xEC	; 236
    58fa:	20 93 cf 06 	sts	0x06CF, r18
    58fe:	e8 ed       	ldi	r30, 0xD8	; 216
    5900:	e0 93 d0 06 	sts	0x06D0, r30
    5904:	7e ec       	ldi	r23, 0xCE	; 206
    5906:	70 93 d1 06 	sts	0x06D1, r23
    590a:	40 93 ee 06 	sts	0x06EE, r20
    590e:	20 93 ef 06 	sts	0x06EF, r18
    5912:	40 93 f0 06 	sts	0x06F0, r20
    5916:	20 93 f1 06 	sts	0x06F1, r18
    591a:	68 e2       	ldi	r22, 0x28	; 40
    591c:	60 93 f2 06 	sts	0x06F2, r22
    5920:	52 e3       	ldi	r21, 0x32	; 50
    5922:	50 93 f3 06 	sts	0x06F3, r21
    5926:	40 93 10 07 	sts	0x0710, r20
    592a:	20 93 11 07 	sts	0x0711, r18
    592e:	90 93 12 07 	sts	0x0712, r25
    5932:	80 93 13 07 	sts	0x0713, r24
    5936:	e0 93 14 07 	sts	0x0714, r30
    593a:	70 93 15 07 	sts	0x0715, r23
    593e:	90 93 32 07 	sts	0x0732, r25
    5942:	80 93 33 07 	sts	0x0733, r24
    5946:	90 93 34 07 	sts	0x0734, r25
    594a:	80 93 35 07 	sts	0x0735, r24
    594e:	60 93 36 07 	sts	0x0736, r22
    5952:	50 93 37 07 	sts	0x0737, r21
    5956:	8b e4       	ldi	r24, 0x4B	; 75
    5958:	80 93 56 07 	sts	0x0756, r24
    595c:	30 93 57 07 	sts	0x0757, r19
    5960:	80 93 76 07 	sts	0x0776, r24
    5964:	30 93 77 07 	sts	0x0777, r19
    5968:	80 93 9c 07 	sts	0x079C, r24
    596c:	30 93 9d 07 	sts	0x079D, r19
    5970:	8c e9       	ldi	r24, 0x9C	; 156
    5972:	80 93 b4 08 	sts	0x08B4, r24
    5976:	8d eb       	ldi	r24, 0xBD	; 189
    5978:	80 93 b5 08 	sts	0x08B5, r24
    597c:	8f ed       	ldi	r24, 0xDF	; 223
    597e:	80 93 b6 08 	sts	0x08B6, r24
    5982:	10 92 b7 08 	sts	0x08B7, r1
    5986:	81 e2       	ldi	r24, 0x21	; 33
    5988:	80 93 b8 08 	sts	0x08B8, r24
    598c:	83 e4       	ldi	r24, 0x43	; 67
    598e:	80 93 b9 08 	sts	0x08B9, r24
    5992:	30 93 ba 08 	sts	0x08BA, r19
    5996:	d3 c0       	rjmp	.+422    	; 0x5b3e <Load_eeprom_preset+0x58c>
    5998:	91 e0       	ldi	r25, 0x01	; 1
    599a:	90 93 bb 06 	sts	0x06BB, r25
    599e:	40 93 4d 06 	sts	0x064D, r20
    59a2:	38 e2       	ldi	r19, 0x28	; 40
    59a4:	30 93 5f 06 	sts	0x065F, r19
    59a8:	40 93 60 06 	sts	0x0660, r20
    59ac:	4a e0       	ldi	r20, 0x0A	; 10
    59ae:	40 93 61 06 	sts	0x0661, r20
    59b2:	30 93 4e 06 	sts	0x064E, r19
    59b6:	40 93 4f 06 	sts	0x064F, r20
    59ba:	40 93 50 06 	sts	0x0650, r20
    59be:	80 93 51 06 	sts	0x0651, r24
    59c2:	40 93 52 06 	sts	0x0652, r20
    59c6:	30 93 54 06 	sts	0x0654, r19
    59ca:	40 93 55 06 	sts	0x0655, r20
    59ce:	40 93 56 06 	sts	0x0656, r20
    59d2:	80 93 57 06 	sts	0x0657, r24
    59d6:	40 93 58 06 	sts	0x0658, r20
    59da:	5c e3       	ldi	r21, 0x3C	; 60
    59dc:	50 93 5a 06 	sts	0x065A, r21
    59e0:	30 93 5b 06 	sts	0x065B, r19
    59e4:	49 e1       	ldi	r20, 0x19	; 25
    59e6:	40 93 5c 06 	sts	0x065C, r20
    59ea:	80 93 5d 06 	sts	0x065D, r24
    59ee:	30 93 62 06 	sts	0x0662, r19
    59f2:	e3 e1       	ldi	r30, 0x13	; 19
    59f4:	e0 93 63 06 	sts	0x0663, r30
    59f8:	7e e0       	ldi	r23, 0x0E	; 14
    59fa:	70 93 64 06 	sts	0x0664, r23
    59fe:	63 e0       	ldi	r22, 0x03	; 3
    5a00:	60 93 65 06 	sts	0x0665, r22
    5a04:	90 93 66 06 	sts	0x0666, r25
    5a08:	30 93 68 06 	sts	0x0668, r19
    5a0c:	e0 93 69 06 	sts	0x0669, r30
    5a10:	70 93 6a 06 	sts	0x066A, r23
    5a14:	60 93 6b 06 	sts	0x066B, r22
    5a18:	90 93 6c 06 	sts	0x066C, r25
    5a1c:	50 93 6e 06 	sts	0x066E, r21
    5a20:	30 93 6f 06 	sts	0x066F, r19
    5a24:	40 93 70 06 	sts	0x0670, r20
    5a28:	80 93 71 06 	sts	0x0671, r24
    5a2c:	20 93 c9 06 	sts	0x06C9, r18
    5a30:	20 93 ca 06 	sts	0x06CA, r18
    5a34:	80 93 c8 06 	sts	0x06C8, r24
    5a38:	20 93 eb 06 	sts	0x06EB, r18
    5a3c:	20 93 ec 06 	sts	0x06EC, r18
    5a40:	80 93 ea 06 	sts	0x06EA, r24
    5a44:	20 93 0d 07 	sts	0x070D, r18
    5a48:	20 93 0e 07 	sts	0x070E, r18
    5a4c:	80 93 0c 07 	sts	0x070C, r24
    5a50:	4e e1       	ldi	r20, 0x1E	; 30
    5a52:	40 93 cc 06 	sts	0x06CC, r20
    5a56:	30 93 cd 06 	sts	0x06CD, r19
    5a5a:	61 ef       	ldi	r22, 0xF1	; 241
    5a5c:	60 93 ce 06 	sts	0x06CE, r22
    5a60:	5c ee       	ldi	r21, 0xEC	; 236
    5a62:	50 93 cf 06 	sts	0x06CF, r21
    5a66:	90 93 d2 06 	sts	0x06D2, r25
    5a6a:	90 93 d8 06 	sts	0x06D8, r25
    5a6e:	90 93 d3 06 	sts	0x06D3, r25
    5a72:	90 93 d9 06 	sts	0x06D9, r25
    5a76:	80 93 d4 06 	sts	0x06D4, r24
    5a7a:	80 93 da 06 	sts	0x06DA, r24
    5a7e:	80 93 d5 06 	sts	0x06D5, r24
    5a82:	80 93 db 06 	sts	0x06DB, r24
    5a86:	90 93 dc 06 	sts	0x06DC, r25
    5a8a:	90 93 dd 06 	sts	0x06DD, r25
    5a8e:	72 ee       	ldi	r23, 0xE2	; 226
    5a90:	70 93 ee 06 	sts	0x06EE, r23
    5a94:	78 ed       	ldi	r23, 0xD8	; 216
    5a96:	70 93 ef 06 	sts	0x06EF, r23
    5a9a:	60 93 f0 06 	sts	0x06F0, r22
    5a9e:	50 93 f1 06 	sts	0x06F1, r21
    5aa2:	90 93 f4 06 	sts	0x06F4, r25
    5aa6:	90 93 fa 06 	sts	0x06FA, r25
    5aaa:	90 93 f5 06 	sts	0x06F5, r25
    5aae:	90 93 fb 06 	sts	0x06FB, r25
    5ab2:	80 93 f6 06 	sts	0x06F6, r24
    5ab6:	80 93 fc 06 	sts	0x06FC, r24
    5aba:	80 93 f7 06 	sts	0x06F7, r24
    5abe:	80 93 fd 06 	sts	0x06FD, r24
    5ac2:	90 93 fe 06 	sts	0x06FE, r25
    5ac6:	90 93 ff 06 	sts	0x06FF, r25
    5aca:	40 93 12 07 	sts	0x0712, r20
    5ace:	30 93 13 07 	sts	0x0713, r19
    5ad2:	80 93 18 07 	sts	0x0718, r24
    5ad6:	80 93 1e 07 	sts	0x071E, r24
    5ada:	80 93 19 07 	sts	0x0719, r24
    5ade:	80 93 1f 07 	sts	0x071F, r24
    5ae2:	90 93 20 07 	sts	0x0720, r25
    5ae6:	90 93 21 07 	sts	0x0721, r25
    5aea:	10 92 2e 07 	sts	0x072E, r1
    5aee:	8b e4       	ldi	r24, 0x4B	; 75
    5af0:	80 93 36 07 	sts	0x0736, r24
    5af4:	20 93 37 07 	sts	0x0737, r18
    5af8:	90 93 3c 07 	sts	0x073C, r25
    5afc:	90 93 3d 07 	sts	0x073D, r25
    5b00:	80 93 56 07 	sts	0x0756, r24
    5b04:	20 93 57 07 	sts	0x0757, r18
    5b08:	80 93 76 07 	sts	0x0776, r24
    5b0c:	20 93 77 07 	sts	0x0777, r18
    5b10:	80 93 9c 07 	sts	0x079C, r24
    5b14:	20 93 9d 07 	sts	0x079D, r18
    5b18:	8c e9       	ldi	r24, 0x9C	; 156
    5b1a:	80 93 b4 08 	sts	0x08B4, r24
    5b1e:	8d eb       	ldi	r24, 0xBD	; 189
    5b20:	80 93 b5 08 	sts	0x08B5, r24
    5b24:	8f ed       	ldi	r24, 0xDF	; 223
    5b26:	80 93 b6 08 	sts	0x08B6, r24
    5b2a:	10 92 b7 08 	sts	0x08B7, r1
    5b2e:	81 e2       	ldi	r24, 0x21	; 33
    5b30:	80 93 b8 08 	sts	0x08B8, r24
    5b34:	83 e4       	ldi	r24, 0x43	; 67
    5b36:	80 93 b9 08 	sts	0x08B9, r24
    5b3a:	20 93 ba 08 	sts	0x08BA, r18
    5b3e:	cf 91       	pop	r28
    5b40:	08 95       	ret

00005b42 <Set_EEPROM_Default_Config>:
    5b42:	cf 93       	push	r28
    5b44:	df 93       	push	r29
    5b46:	84 ea       	ldi	r24, 0xA4	; 164
    5b48:	92 e0       	ldi	r25, 0x02	; 2
    5b4a:	e9 e1       	ldi	r30, 0x19	; 25
    5b4c:	f6 e0       	ldi	r31, 0x06	; 6
    5b4e:	df 01       	movw	r26, r30
    5b50:	9c 01       	movw	r18, r24
    5b52:	1d 92       	st	X+, r1
    5b54:	21 50       	subi	r18, 0x01	; 1
    5b56:	30 40       	sbci	r19, 0x00	; 0
    5b58:	e1 f7       	brne	.-8      	; 0x5b52 <Set_EEPROM_Default_Config+0x10>
    5b5a:	83 e4       	ldi	r24, 0x43	; 67
    5b5c:	80 93 19 06 	sts	0x0619, r24
    5b60:	82 e0       	ldi	r24, 0x02	; 2
    5b62:	80 93 42 06 	sts	0x0642, r24
    5b66:	24 e0       	ldi	r18, 0x04	; 4
    5b68:	20 93 46 06 	sts	0x0646, r18
    5b6c:	91 e0       	ldi	r25, 0x01	; 1
    5b6e:	90 93 bb 06 	sts	0x06BB, r25
    5b72:	80 93 43 06 	sts	0x0643, r24
    5b76:	20 93 44 06 	sts	0x0644, r18
    5b7a:	80 93 bf 06 	sts	0x06BF, r24
    5b7e:	87 e0       	ldi	r24, 0x07	; 7
    5b80:	80 93 c0 06 	sts	0x06C0, r24
    5b84:	83 e0       	ldi	r24, 0x03	; 3
    5b86:	80 93 be 06 	sts	0x06BE, r24
    5b8a:	86 e0       	ldi	r24, 0x06	; 6
    5b8c:	80 93 c1 06 	sts	0x06C1, r24
    5b90:	8e e1       	ldi	r24, 0x1E	; 30
    5b92:	80 93 bc 06 	sts	0x06BC, r24
    5b96:	82 e3       	ldi	r24, 0x32	; 50
    5b98:	80 93 4a 06 	sts	0x064A, r24
    5b9c:	84 e6       	ldi	r24, 0x64	; 100
    5b9e:	80 93 4b 06 	sts	0x064B, r24
    5ba2:	84 e1       	ldi	r24, 0x14	; 20
    5ba4:	80 93 4d 06 	sts	0x064D, r24
    5ba8:	90 93 c3 06 	sts	0x06C3, r25
    5bac:	80 e8       	ldi	r24, 0x80	; 128
    5bae:	90 e0       	ldi	r25, 0x00	; 0
    5bb0:	90 93 03 08 	sts	0x0803, r25
    5bb4:	80 93 02 08 	sts	0x0802, r24
    5bb8:	90 93 38 08 	sts	0x0838, r25
    5bbc:	80 93 37 08 	sts	0x0837, r24
    5bc0:	84 e2       	ldi	r24, 0x24	; 36
    5bc2:	80 93 ba 06 	sts	0x06BA, r24
    5bc6:	ac ee       	ldi	r26, 0xEC	; 236
    5bc8:	b7 e0       	ldi	r27, 0x07	; 7
    5bca:	80 e0       	ldi	r24, 0x00	; 0
    5bcc:	90 e0       	ldi	r25, 0x00	; 0
    5bce:	26 ea       	ldi	r18, 0xA6	; 166
    5bd0:	3e e0       	ldi	r19, 0x0E	; 14
    5bd2:	fc 01       	movw	r30, r24
    5bd4:	e2 52       	subi	r30, 0x22	; 34
    5bd6:	fe 4f       	sbci	r31, 0xFE	; 254
    5bd8:	e4 91       	lpm	r30, Z
    5bda:	ec 01       	movw	r28, r24
    5bdc:	c7 5e       	subi	r28, 0xE7	; 231
    5bde:	d9 4f       	sbci	r29, 0xF9	; 249
    5be0:	e9 83       	std	Y+1, r30	; 0x01
    5be2:	2d 93       	st	X+, r18
    5be4:	3d 93       	st	X+, r19
    5be6:	01 96       	adiw	r24, 0x01	; 1
    5be8:	88 30       	cpi	r24, 0x08	; 8
    5bea:	91 05       	cpc	r25, r1
    5bec:	91 f7       	brne	.-28     	; 0x5bd2 <Set_EEPROM_Default_Config+0x90>
    5bee:	8e eb       	ldi	r24, 0xBE	; 190
    5bf0:	9a e0       	ldi	r25, 0x0A	; 10
    5bf2:	90 93 ed 07 	sts	0x07ED, r25
    5bf6:	80 93 ec 07 	sts	0x07EC, r24
    5bfa:	a4 ee       	ldi	r26, 0xE4	; 228
    5bfc:	b7 e0       	ldi	r27, 0x07	; 7
    5bfe:	20 e0       	ldi	r18, 0x00	; 0
    5c00:	30 e0       	ldi	r19, 0x00	; 0
    5c02:	44 e1       	ldi	r20, 0x14	; 20
    5c04:	6c e9       	ldi	r22, 0x9C	; 156
    5c06:	54 e6       	ldi	r21, 0x64	; 100
    5c08:	c9 01       	movw	r24, r18
    5c0a:	87 5e       	subi	r24, 0xE7	; 231
    5c0c:	99 4f       	sbci	r25, 0xF9	; 249
    5c0e:	fc 01       	movw	r30, r24
    5c10:	eb 53       	subi	r30, 0x3B	; 59
    5c12:	ff 4f       	sbci	r31, 0xFF	; 255
    5c14:	40 83       	st	Z, r20
    5c16:	34 96       	adiw	r30, 0x04	; 4
    5c18:	40 83       	st	Z, r20
    5c1a:	32 97       	sbiw	r30, 0x02	; 2
    5c1c:	40 83       	st	Z, r20
    5c1e:	34 96       	adiw	r30, 0x04	; 4
    5c20:	40 83       	st	Z, r20
    5c22:	fd 01       	movw	r30, r26
    5c24:	38 97       	sbiw	r30, 0x08	; 8
    5c26:	60 83       	st	Z, r22
    5c28:	84 e6       	ldi	r24, 0x64	; 100
    5c2a:	5d 93       	st	X+, r21
    5c2c:	2e 5d       	subi	r18, 0xDE	; 222
    5c2e:	3f 4f       	sbci	r19, 0xFF	; 255
    5c30:	20 31       	cpi	r18, 0x10	; 16
    5c32:	91 e0       	ldi	r25, 0x01	; 1
    5c34:	39 07       	cpc	r19, r25
    5c36:	41 f7       	brne	.-48     	; 0x5c08 <Set_EEPROM_Default_Config+0xc6>
    5c38:	51 e1       	ldi	r21, 0x11	; 17
    5c3a:	50 93 45 08 	sts	0x0845, r21
    5c3e:	41 e2       	ldi	r20, 0x21	; 33
    5c40:	40 93 46 08 	sts	0x0846, r20
    5c44:	32 e3       	ldi	r19, 0x32	; 50
    5c46:	30 93 47 08 	sts	0x0847, r19
    5c4a:	23 e4       	ldi	r18, 0x43	; 67
    5c4c:	20 93 48 08 	sts	0x0848, r18
    5c50:	93 e5       	ldi	r25, 0x53	; 83
    5c52:	90 93 49 08 	sts	0x0849, r25
    5c56:	80 93 4a 08 	sts	0x084A, r24
    5c5a:	50 93 4d 08 	sts	0x084D, r21
    5c5e:	40 93 4e 08 	sts	0x084E, r20
    5c62:	30 93 4f 08 	sts	0x084F, r19
    5c66:	20 93 50 08 	sts	0x0850, r18
    5c6a:	90 93 51 08 	sts	0x0851, r25
    5c6e:	80 93 52 08 	sts	0x0852, r24
    5c72:	89 e1       	ldi	r24, 0x19	; 25
    5c74:	96 e0       	ldi	r25, 0x06	; 6
    5c76:	7c e9       	ldi	r23, 0x9C	; 156
    5c78:	6d eb       	ldi	r22, 0xBD	; 189
    5c7a:	5f ed       	ldi	r21, 0xDF	; 223
    5c7c:	33 e4       	ldi	r19, 0x43	; 67
    5c7e:	24 e6       	ldi	r18, 0x64	; 100
    5c80:	fc 01       	movw	r30, r24
    5c82:	e5 5c       	subi	r30, 0xC5	; 197
    5c84:	fd 4f       	sbci	r31, 0xFD	; 253
    5c86:	70 83       	st	Z, r23
    5c88:	31 96       	adiw	r30, 0x01	; 1
    5c8a:	60 83       	st	Z, r22
    5c8c:	31 96       	adiw	r30, 0x01	; 1
    5c8e:	50 83       	st	Z, r21
    5c90:	31 96       	adiw	r30, 0x01	; 1
    5c92:	10 82       	st	Z, r1
    5c94:	31 96       	adiw	r30, 0x01	; 1
    5c96:	40 83       	st	Z, r20
    5c98:	31 96       	adiw	r30, 0x01	; 1
    5c9a:	30 83       	st	Z, r19
    5c9c:	31 96       	adiw	r30, 0x01	; 1
    5c9e:	20 83       	st	Z, r18
    5ca0:	08 96       	adiw	r24, 0x08	; 8
    5ca2:	a6 e0       	ldi	r26, 0x06	; 6
    5ca4:	89 33       	cpi	r24, 0x39	; 57
    5ca6:	9a 07       	cpc	r25, r26
    5ca8:	59 f7       	brne	.-42     	; 0x5c80 <Set_EEPROM_Default_Config+0x13e>
    5caa:	84 e1       	ldi	r24, 0x14	; 20
    5cac:	80 93 6b 08 	sts	0x086B, r24
    5cb0:	80 93 73 08 	sts	0x0873, r24
    5cb4:	80 e0       	ldi	r24, 0x00	; 0
    5cb6:	90 e0       	ldi	r25, 0x00	; 0
    5cb8:	fc 01       	movw	r30, r24
    5cba:	e2 52       	subi	r30, 0x22	; 34
    5cbc:	fe 4f       	sbci	r31, 0xFE	; 254
    5cbe:	e4 91       	lpm	r30, Z
    5cc0:	dc 01       	movw	r26, r24
    5cc2:	ac 58       	subi	r26, 0x8C	; 140
    5cc4:	b7 4f       	sbci	r27, 0xF7	; 247
    5cc6:	ec 93       	st	X, r30
    5cc8:	01 96       	adiw	r24, 0x01	; 1
    5cca:	88 30       	cpi	r24, 0x08	; 8
    5ccc:	91 05       	cpc	r25, r1
    5cce:	a1 f7       	brne	.-24     	; 0x5cb8 <Set_EEPROM_Default_Config+0x176>
    5cd0:	80 e0       	ldi	r24, 0x00	; 0
    5cd2:	0e 94 d9 2a 	call	0x55b2	; 0x55b2 <Load_eeprom_preset>
    5cd6:	84 e0       	ldi	r24, 0x04	; 4
    5cd8:	80 93 c2 06 	sts	0x06C2, r24
    5cdc:	df 91       	pop	r29
    5cde:	cf 91       	pop	r28
    5ce0:	08 95       	ret

00005ce2 <Initial_EEPROM_Config_Load>:
    5ce2:	cf 93       	push	r28
    5ce4:	df 93       	push	r29
    5ce6:	1f 92       	push	r1
    5ce8:	cd b7       	in	r28, 0x3d	; 61
    5cea:	de b7       	in	r29, 0x3e	; 62
    5cec:	44 ea       	ldi	r20, 0xA4	; 164
    5cee:	52 e0       	ldi	r21, 0x02	; 2
    5cf0:	60 e0       	ldi	r22, 0x00	; 0
    5cf2:	70 e0       	ldi	r23, 0x00	; 0
    5cf4:	89 e1       	ldi	r24, 0x19	; 25
    5cf6:	96 e0       	ldi	r25, 0x06	; 6
    5cf8:	0e 94 62 6f 	call	0xdec4	; 0xdec4 <eeprom_read_block>
    5cfc:	e0 91 19 06 	lds	r30, 0x0619
    5d00:	8e 2f       	mov	r24, r30
    5d02:	90 e0       	ldi	r25, 0x00	; 0
    5d04:	fc 01       	movw	r30, r24
    5d06:	f5 97       	sbiw	r30, 0x35	; 53
    5d08:	ef 30       	cpi	r30, 0x0F	; 15
    5d0a:	f1 05       	cpc	r31, r1
    5d0c:	b0 f4       	brcc	.+44     	; 0x5d3a <Initial_EEPROM_Config_Load+0x58>
    5d0e:	e2 5c       	subi	r30, 0xC2	; 194
    5d10:	ff 4f       	sbci	r31, 0xFF	; 255
    5d12:	0c 94 b0 6e 	jmp	0xdd60	; 0xdd60 <__tablejump2__>
    5d16:	0e 94 59 26 	call	0x4cb2	; 0x4cb2 <Update_V1_0_to_V1_1>
    5d1a:	0e 94 35 29 	call	0x526a	; 0x526a <Update_V1_1_to_V1_2>
    5d1e:	0e 94 69 29 	call	0x52d2	; 0x52d2 <Update_V1_2_to_V1_3B1>
    5d22:	0e 94 d1 29 	call	0x53a2	; 0x53a2 <Update_V1_3B1_to_V1_3B14>
    5d26:	0e 94 e6 29 	call	0x53cc	; 0x53cc <Update_V1_3B14_to_V1_3B15>
    5d2a:	0e 94 57 2a 	call	0x54ae	; 0x54ae <Update_V1_3B15_to_V1_3B17>
    5d2e:	0e 94 79 2a 	call	0x54f2	; 0x54f2 <Update_V1_3_to_V1_4B2>
    5d32:	0e 94 ca 2a 	call	0x5594	; 0x5594 <Update_V1_4B2_to_V1_4B8>
    5d36:	81 e0       	ldi	r24, 0x01	; 1
    5d38:	03 c0       	rjmp	.+6      	; 0x5d40 <Initial_EEPROM_Config_Load+0x5e>
    5d3a:	0e 94 a1 2d 	call	0x5b42	; 0x5b42 <Set_EEPROM_Default_Config>
    5d3e:	80 e0       	ldi	r24, 0x00	; 0
    5d40:	89 83       	std	Y+1, r24	; 0x01
    5d42:	0e 94 4e 26 	call	0x4c9c	; 0x4c9c <Save_Config_to_EEPROM>
    5d46:	89 81       	ldd	r24, Y+1	; 0x01
    5d48:	0f 90       	pop	r0
    5d4a:	df 91       	pop	r29
    5d4c:	cf 91       	pop	r28
    5d4e:	08 95       	ret

00005d50 <main>:
//************************************************************
//* Main loop
//************************************************************

int main(void)
{
    5d50:	cf 93       	push	r28
    5d52:	df 93       	push	r29
    5d54:	cd b7       	in	r28, 0x3d	; 61
    5d56:	de b7       	in	r29, 0x3e	; 62
    5d58:	e0 97       	sbiw	r28, 0x30	; 48
    5d5a:	0f b6       	in	r0, 0x3f	; 63
    5d5c:	f8 94       	cli
    5d5e:	de bf       	out	0x3e, r29	; 62
    5d60:	0f be       	out	0x3f, r0	; 63
    5d62:	cd bf       	out	0x3d, r28	; 61
	int16_t PWM_pulses = 3; 
	uint32_t interval = 0;			// IMU interval
	uint8_t transition_direction = P2;
	
	// Do all init tasks
	init();
    5d64:	0e 94 84 40 	call	0x8108	; 0x8108 <init>
	uint8_t	old_alarms = 0;
	uint8_t ServoFlag = 0;
	uint8_t i = 0;
	int16_t PWM_pulses = 3; 
	uint32_t interval = 0;			// IMU interval
	uint8_t transition_direction = P2;
    5d68:	21 e0       	ldi	r18, 0x01	; 1
    5d6a:	2a 83       	std	Y+2, r18	; 0x02
	int8_t	old_trans_mode = 0;		// Old transition mode
	uint16_t transition_time = 0;
	uint8_t	old_alarms = 0;
	uint8_t ServoFlag = 0;
	uint8_t i = 0;
	int16_t PWM_pulses = 3; 
    5d6c:	03 e0       	ldi	r16, 0x03	; 3
    5d6e:	10 e0       	ldi	r17, 0x00	; 0
	uint8_t Status_seconds = 0;
	uint8_t Menu_mode = STATUS_TIMEOUT;
	int8_t	old_flight = 3;			// Old flight profile
	int8_t	old_trans_mode = 0;		// Old transition mode
	uint16_t transition_time = 0;
	uint8_t	old_alarms = 0;
    5d70:	1b a6       	std	Y+43, r1	; 0x2b
	uint16_t InterruptCounter = 0;
	uint8_t	Disarm_seconds = 0;
	uint8_t Status_seconds = 0;
	uint8_t Menu_mode = STATUS_TIMEOUT;
	int8_t	old_flight = 3;			// Old flight profile
	int8_t	old_trans_mode = 0;		// Old transition mode
    5d72:	91 2c       	mov	r9, r1
	// Locals
	uint16_t InterruptCounter = 0;
	uint8_t	Disarm_seconds = 0;
	uint8_t Status_seconds = 0;
	uint8_t Menu_mode = STATUS_TIMEOUT;
	int8_t	old_flight = 3;			// Old flight profile
    5d74:	33 e0       	ldi	r19, 0x03	; 3
    5d76:	39 83       	std	Y+1, r19	; 0x01

	// Locals
	uint16_t InterruptCounter = 0;
	uint8_t	Disarm_seconds = 0;
	uint8_t Status_seconds = 0;
	uint8_t Menu_mode = STATUS_TIMEOUT;
    5d78:	48 e0       	ldi	r20, 0x08	; 8
    5d7a:	48 ab       	std	Y+48, r20	; 0x30
	uint8_t fast_sync_TCNT2 = 0;

	// Locals
	uint16_t InterruptCounter = 0;
	uint8_t	Disarm_seconds = 0;
	uint8_t Status_seconds = 0;
    5d7c:	1a 8e       	std	Y+26, r1	; 0x1a
	uint8_t ServoRate_TCNT2 = 0;
	uint8_t fast_sync_TCNT2 = 0;

	// Locals
	uint16_t InterruptCounter = 0;
	uint8_t	Disarm_seconds = 0;
    5d7e:	1a 86       	std	Y+10, r1	; 0x0a
	//uint8_t Servo_TCNT2 = 0;
	uint8_t ServoRate_TCNT2 = 0;
	uint8_t fast_sync_TCNT2 = 0;

	// Locals
	uint16_t InterruptCounter = 0;
    5d80:	19 8e       	std	Y+25, r1	; 0x19
    5d82:	18 8e       	std	Y+24, r1	; 0x18
	uint8_t Disarm_TCNT2 = 0;
	uint8_t Arm_TCNT2 = 0;
	uint8_t Ticker_TCNT2 = 0;
	//uint8_t Servo_TCNT2 = 0;
	uint8_t ServoRate_TCNT2 = 0;
	uint8_t fast_sync_TCNT2 = 0;
    5d84:	1a a6       	std	Y+42, r1	; 0x2a
	uint8_t Refresh_TCNT2 = 0;
	uint8_t Disarm_TCNT2 = 0;
	uint8_t Arm_TCNT2 = 0;
	uint8_t Ticker_TCNT2 = 0;
	//uint8_t Servo_TCNT2 = 0;
	uint8_t ServoRate_TCNT2 = 0;
    5d86:	19 a2       	std	Y+33, r1	; 0x21
	uint8_t Transition_TCNT2 = 0;
	uint8_t Status_TCNT2 = 0;
	uint8_t Refresh_TCNT2 = 0;
	uint8_t Disarm_TCNT2 = 0;
	uint8_t Arm_TCNT2 = 0;
	uint8_t Ticker_TCNT2 = 0;
    5d88:	19 a6       	std	Y+41, r1	; 0x29
	uint16_t RC_Rate_TCNT1 = 0;
	uint8_t Transition_TCNT2 = 0;
	uint8_t Status_TCNT2 = 0;
	uint8_t Refresh_TCNT2 = 0;
	uint8_t Disarm_TCNT2 = 0;
	uint8_t Arm_TCNT2 = 0;
    5d8a:	18 a6       	std	Y+40, r1	; 0x28
	// Timer incrementers
	uint16_t RC_Rate_TCNT1 = 0;
	uint8_t Transition_TCNT2 = 0;
	uint8_t Status_TCNT2 = 0;
	uint8_t Refresh_TCNT2 = 0;
	uint8_t Disarm_TCNT2 = 0;
    5d8c:	1f a2       	std	Y+39, r1	; 0x27

	// Timer incrementers
	uint16_t RC_Rate_TCNT1 = 0;
	uint8_t Transition_TCNT2 = 0;
	uint8_t Status_TCNT2 = 0;
	uint8_t Refresh_TCNT2 = 0;
    5d8e:	1e a2       	std	Y+38, r1	; 0x26
	uint16_t fast_sync_timer = 0;

	// Timer incrementers
	uint16_t RC_Rate_TCNT1 = 0;
	uint8_t Transition_TCNT2 = 0;
	uint8_t Status_TCNT2 = 0;
    5d90:	1d a2       	std	Y+37, r1	; 0x25
	uint16_t ticker_16 = 0;
	uint16_t fast_sync_timer = 0;

	// Timer incrementers
	uint16_t RC_Rate_TCNT1 = 0;
	uint8_t Transition_TCNT2 = 0;
    5d92:	1c a2       	std	Y+36, r1	; 0x24
	uint16_t Save_TCNT1 = 0;
	uint16_t ticker_16 = 0;
	uint16_t fast_sync_timer = 0;

	// Timer incrementers
	uint16_t RC_Rate_TCNT1 = 0;
    5d94:	a1 2c       	mov	r10, r1
    5d96:	b1 2c       	mov	r11, r1
	uint16_t Ticker_Count = 0;
	//uint16_t RC_Timeout = 0;
	uint16_t Servo_Rate = 0;
	uint16_t FastServo_Rate = 0;
	uint16_t Transition_timeout = 0;
	uint16_t Disarm_timer = 0;
    5d98:	61 2c       	mov	r6, r1
    5d9a:	71 2c       	mov	r7, r1
	uint16_t UpdateStatus_timer = 0;
	uint16_t Ticker_Count = 0;
	//uint16_t RC_Timeout = 0;
	uint16_t Servo_Rate = 0;
	uint16_t FastServo_Rate = 0;
	uint16_t Transition_timeout = 0;
    5d9c:	1f 86       	std	Y+15, r1	; 0x0f
    5d9e:	1e 86       	std	Y+14, r1	; 0x0e
	uint16_t Status_timeout = 0;
	uint16_t UpdateStatus_timer = 0;
	uint16_t Ticker_Count = 0;
	//uint16_t RC_Timeout = 0;
	uint16_t Servo_Rate = 0;
	uint16_t FastServo_Rate = 0;
    5da0:	1d 8a       	std	Y+21, r1	; 0x15
    5da2:	1c 8a       	std	Y+20, r1	; 0x14
	// 16-bit timers
	uint16_t Status_timeout = 0;
	uint16_t UpdateStatus_timer = 0;
	uint16_t Ticker_Count = 0;
	//uint16_t RC_Timeout = 0;
	uint16_t Servo_Rate = 0;
    5da4:	1c 86       	std	Y+12, r1	; 0x0c
    5da6:	1b 86       	std	Y+11, r1	; 0x0b
	uint32_t PWM_interval = PWM_PERIOD_WORST;	// Loop period when generating PWM. Initialise with worst case until updated.
	
	// 16-bit timers
	uint16_t Status_timeout = 0;
	uint16_t UpdateStatus_timer = 0;
	uint16_t Ticker_Count = 0;
    5da8:	18 a2       	std	Y+32, r1	; 0x20
    5daa:	1f 8e       	std	Y+31, r1	; 0x1f
	uint32_t RC_Rate_Timer = 0;
	uint32_t PWM_interval = PWM_PERIOD_WORST;	// Loop period when generating PWM. Initialise with worst case until updated.
	
	// 16-bit timers
	uint16_t Status_timeout = 0;
	uint16_t UpdateStatus_timer = 0;
    5dac:	1d 8e       	std	Y+29, r1	; 0x1d
    5dae:	1c 8e       	std	Y+28, r1	; 0x1c
	uint32_t Arm_timer = 0;
	uint32_t RC_Rate_Timer = 0;
	uint32_t PWM_interval = PWM_PERIOD_WORST;	// Loop period when generating PWM. Initialise with worst case until updated.
	
	// 16-bit timers
	uint16_t Status_timeout = 0;
    5db0:	1b 8a       	std	Y+19, r1	; 0x13
    5db2:	1a 8a       	std	Y+18, r1	; 0x12
	bool LastLoopOverdue = false;

	// 32-bit timers
	uint32_t Arm_timer = 0;
	uint32_t RC_Rate_Timer = 0;
	uint32_t PWM_interval = PWM_PERIOD_WORST;	// Loop period when generating PWM. Initialise with worst case until updated.
    5db4:	61 e6       	ldi	r22, 0x61	; 97
    5db6:	c6 2e       	mov	r12, r22
    5db8:	61 e5       	ldi	r22, 0x51	; 81
    5dba:	d6 2e       	mov	r13, r22
    5dbc:	e1 2c       	mov	r14, r1
    5dbe:	f1 2c       	mov	r15, r1
	bool SlowRC = true;
	bool LastLoopOverdue = false;

	// 32-bit timers
	uint32_t Arm_timer = 0;
	uint32_t RC_Rate_Timer = 0;
    5dc0:	1e 82       	std	Y+6, r1	; 0x06
    5dc2:	1f 82       	std	Y+7, r1	; 0x07
    5dc4:	18 86       	std	Y+8, r1	; 0x08
    5dc6:	19 86       	std	Y+9, r1	; 0x09
	bool Interrupted_Clone = false;
	bool SlowRC = true;
	bool LastLoopOverdue = false;

	// 32-bit timers
	uint32_t Arm_timer = 0;
    5dc8:	21 2c       	mov	r2, r1
    5dca:	31 2c       	mov	r3, r1
    5dcc:	21 01       	movw	r4, r2
	bool FastServoTick = false;
	bool ResampleRCRate = false;
	bool PWMOverride = false;
	bool Interrupted_Clone = false;
	bool SlowRC = true;
	bool LastLoopOverdue = false;
    5dce:	1b a2       	std	Y+35, r1	; 0x23
	bool ServoTick = false;
	bool FastServoTick = false;
	bool ResampleRCRate = false;
	bool PWMOverride = false;
	bool Interrupted_Clone = false;
	bool SlowRC = true;
    5dd0:	51 e0       	ldi	r21, 0x01	; 1
    5dd2:	5d 87       	std	Y+13, r21	; 0x0d
	bool RCInterruptsON = false;
	bool ServoTick = false;
	bool FastServoTick = false;
	bool ResampleRCRate = false;
	bool PWMOverride = false;
	bool Interrupted_Clone = false;
    5dd4:	1c 82       	std	Y+4, r1	; 0x04
	bool RCrateMeasured = false;
	bool PWMBlocked = false;
	bool RCInterruptsON = false;
	bool ServoTick = false;
	bool FastServoTick = false;
	bool ResampleRCRate = false;
    5dd6:	1e 8e       	std	Y+30, r1	; 0x1e
	bool TransitionUpdated = false;
	bool RCrateMeasured = false;
	bool PWMBlocked = false;
	bool RCInterruptsON = false;
	bool ServoTick = false;
	bool FastServoTick = false;
    5dd8:	1b 8e       	std	Y+27, r1	; 0x1b
	// Flags
	bool TransitionUpdated = false;
	bool RCrateMeasured = false;
	bool PWMBlocked = false;
	bool RCInterruptsON = false;
	bool ServoTick = false;
    5dda:	1d 82       	std	Y+5, r1	; 0x05
{
	// Flags
	bool TransitionUpdated = false;
	bool RCrateMeasured = false;
	bool PWMBlocked = false;
	bool RCInterruptsON = false;
    5ddc:	19 8a       	std	Y+17, r1	; 0x11
int main(void)
{
	// Flags
	bool TransitionUpdated = false;
	bool RCrateMeasured = false;
	bool PWMBlocked = false;
    5dde:	18 8a       	std	Y+16, r1	; 0x10

int main(void)
{
	// Flags
	bool TransitionUpdated = false;
	bool RCrateMeasured = false;
    5de0:	1b 82       	std	Y+3, r1	; 0x03

	// Main loop
	while (1)
	{
		// Increment the loop counter
		LoopCount++;
    5de2:	80 91 2d 05 	lds	r24, 0x052D
    5de6:	8f 5f       	subi	r24, 0xFF	; 255
    5de8:	80 93 2d 05 	sts	0x052D, r24
		//* Check for interruption of PWM generation
		//* The "JitterFlag" flag was reset just before PWM generation.
		//* Being set here means that an interrupt has occurred.
		//************************************************************

		if (JitterFlag == true)
    5dec:	80 91 fa 08 	lds	r24, 0x08FA
    5df0:	88 23       	and	r24, r24
    5df2:	31 f0       	breq	.+12     	; 0x5e00 <main+0xb0>
		{
			InterruptCounter++;
    5df4:	28 8d       	ldd	r18, Y+24	; 0x18
    5df6:	39 8d       	ldd	r19, Y+25	; 0x19
    5df8:	2f 5f       	subi	r18, 0xFF	; 255
    5dfa:	3f 4f       	sbci	r19, 0xFF	; 255
    5dfc:	39 8f       	std	Y+25, r19	; 0x19
    5dfe:	28 8f       	std	Y+24, r18	; 0x18
		//* - Do an RC rate resample
		//* - Check the battery voltage
		//************************************************************

		// Count elapsed seconds
		if (Status_timeout > SECOND_TIMER)
    5e00:	4a 89       	ldd	r20, Y+18	; 0x12
    5e02:	5b 89       	ldd	r21, Y+19	; 0x13
    5e04:	4c 34       	cpi	r20, 0x4C	; 76
    5e06:	5c 44       	sbci	r21, 0x4C	; 76
    5e08:	28 f1       	brcs	.+74     	; 0x5e54 <main+0x104>
		{
			Status_seconds++;
    5e0a:	2a 8d       	ldd	r18, Y+26	; 0x1a
    5e0c:	2f 5f       	subi	r18, 0xFF	; 255
    5e0e:	2a 8f       	std	Y+26, r18	; 0x1a
			Status_timeout = 0;

			// Update the interrupt count each second
			InterruptCount = InterruptCounter;
    5e10:	48 8d       	ldd	r20, Y+24	; 0x18
    5e12:	59 8d       	ldd	r21, Y+25	; 0x19
    5e14:	50 93 32 05 	sts	0x0532, r21
    5e18:	40 93 31 05 	sts	0x0531, r20
			InterruptCounter = 0;
			
			// Re-measure the frame rate in FAST mode every second
			if (Config.Servo_rate == FAST)
    5e1c:	80 91 43 06 	lds	r24, 0x0643
    5e20:	82 30       	cpi	r24, 0x02	; 2
    5e22:	11 f4       	brne	.+4      	; 0x5e28 <main+0xd8>
			{
				ResampleRCRate = true;
    5e24:	51 e0       	ldi	r21, 0x01	; 1
    5e26:	5e 8f       	std	Y+30, r21	; 0x1e
			}
	
			// Check if Vbat lower than trigger
			if (GetVbat() < Config.PowerTriggerActual)
    5e28:	0e 94 0c 6c 	call	0xd818	; 0xd818 <GetVbat>
    5e2c:	20 91 b6 06 	lds	r18, 0x06B6
    5e30:	30 91 b7 06 	lds	r19, 0x06B7
    5e34:	82 17       	cp	r24, r18
    5e36:	93 07       	cpc	r25, r19
    5e38:	20 f4       	brcc	.+8      	; 0x5e42 <main+0xf2>
			{
				General_error |= (1 << LVA_ALARM);	// Set LVA_Alarm flag
    5e3a:	80 91 35 05 	lds	r24, 0x0535
    5e3e:	88 60       	ori	r24, 0x08	; 8
    5e40:	03 c0       	rjmp	.+6      	; 0x5e48 <main+0xf8>
			}
			else
			{
				General_error &= ~(1 << LVA_ALARM);	// Clear LVA_Alarm flag
    5e42:	80 91 35 05 	lds	r24, 0x0535
    5e46:	87 7f       	andi	r24, 0xF7	; 247
    5e48:	80 93 35 05 	sts	0x0535, r24
			Status_seconds++;
			Status_timeout = 0;

			// Update the interrupt count each second
			InterruptCount = InterruptCounter;
			InterruptCounter = 0;
    5e4c:	19 8e       	std	Y+25, r1	; 0x19
    5e4e:	18 8e       	std	Y+24, r1	; 0x18

		// Count elapsed seconds
		if (Status_timeout > SECOND_TIMER)
		{
			Status_seconds++;
			Status_timeout = 0;
    5e50:	1b 8a       	std	Y+19, r1	; 0x13
    5e52:	1a 8a       	std	Y+18, r1	; 0x12
		// Assume PWM is OK until through the state machine
		// If the state machine requires PWM to be blocked, 
		// it will set this flag
		PWMOverride = false; 

		switch(Menu_mode) 
    5e54:	28 a9       	ldd	r18, Y+48	; 0x30
    5e56:	82 2f       	mov	r24, r18
    5e58:	90 e0       	ldi	r25, 0x00	; 0
    5e5a:	8b 30       	cpi	r24, 0x0B	; 11
    5e5c:	91 05       	cpc	r25, r1
    5e5e:	08 f0       	brcs	.+2      	; 0x5e62 <main+0x112>
    5e60:	88 c0       	rjmp	.+272    	; 0x5f72 <main+0x222>
    5e62:	fc 01       	movw	r30, r24
    5e64:	e3 5b       	subi	r30, 0xB3	; 179
    5e66:	ff 4f       	sbci	r31, 0xFF	; 255
    5e68:	0c 94 b0 6e 	jmp	0xdd60	; 0xdd60 <__tablejump2__>
			// In IDLE mode, the text "Press for status" is displayed ONCE.
			// If a button is pressed the mode changes to PRESTATUS, where
			// it will wait for the right time to proceed.
			case IDLE:
				// If any button is pressed
				if((PINB & 0xf0) != 0xf0)
    5e6c:	83 b1       	in	r24, 0x03	; 3
    5e6e:	80 7f       	andi	r24, 0xF0	; 240
    5e70:	80 3f       	cpi	r24, 0xF0	; 240
    5e72:	49 f0       	breq	.+18     	; 0x5e86 <main+0x136>
					PWMOverride = false;
					
					// When not in idle mode, enable Timer0 interrupts as loop rate 
					// is slow and we need TMR0 to fully measure it.
					// This may cause PWM generation interruption
					TIMSK0 |= (1 << TOIE0);	
    5e74:	80 91 6e 00 	lds	r24, 0x006E
    5e78:	81 60       	ori	r24, 0x01	; 1
    5e7a:	80 93 6e 00 	sts	0x006E, r24
			// it will wait for the right time to proceed.
			case IDLE:
				// If any button is pressed
				if((PINB & 0xf0) != 0xf0)
				{
					Menu_mode = PRESTATUS;
    5e7e:	33 e0       	ldi	r19, 0x03	; 3
    5e80:	38 ab       	std	Y+48, r19	; 0x30
					// Reset the status screen timeout
					Status_seconds = 0;
    5e82:	1a 8e       	std	Y+26, r1	; 0x1a
    5e84:	76 c0       	rjmp	.+236    	; 0x5f72 <main+0x222>
				}
				// Idle mode - fast loop rate so don't need TMR0.
				// We don't want TMR0 to interrupt PWM generation.
				else
				{
					TIMSK0 = 0; 		// Disable Timer0 interrupts
    5e86:	10 92 6e 00 	sts	0x006E, r1
					TIFR0 = 1;			// Clear interrupt flag
    5e8a:	81 e0       	ldi	r24, 0x01	; 1
    5e8c:	85 bb       	out	0x15, r24	; 21
    5e8e:	71 c0       	rjmp	.+226    	; 0x5f72 <main+0x222>
			// If Interrupted or Interrupted_Clone is true, data must have just completed.
			// If Overdue is true, there is no data to interrupt.
			// PWM activity must stop before we attempt to pop up the status screen.
			case PRESTATUS:
				// If interrupted, or if currently "No signal"
				if (Interrupted || Interrupted_Clone || Overdue)
    5e90:	80 91 ce 08 	lds	r24, 0x08CE
    5e94:	81 11       	cpse	r24, r1
    5e96:	61 c0       	rjmp	.+194    	; 0x5f5a <main+0x20a>
    5e98:	4c 81       	ldd	r20, Y+4	; 0x04
    5e9a:	41 11       	cpse	r20, r1
    5e9c:	62 c0       	rjmp	.+196    	; 0x5f62 <main+0x212>
    5e9e:	80 91 2e 05 	lds	r24, 0x052E
    5ea2:	88 23       	and	r24, r24
    5ea4:	09 f4       	brne	.+2      	; 0x5ea8 <main+0x158>
    5ea6:	65 c0       	rjmp	.+202    	; 0x5f72 <main+0x222>
				{
					// Ready to move on
					Menu_mode = STATUS;
    5ea8:	44 e0       	ldi	r20, 0x04	; 4
    5eaa:	48 ab       	std	Y+48, r20	; 0x30
    5eac:	78 c0       	rjmp	.+240    	; 0x5f9e <main+0x24e>
			case STATUS:
				// Reset the status screen period
				UpdateStatus_timer = 0;

				// Update status screen
				Display_status();
    5eae:	0e 94 dc 22 	call	0x45b8	; 0x45b8 <Display_status>
				
				// Prevent PWM output just after updating the LCD
				PWMOverride = true;

				// Wait for timeout
				Menu_mode = WAITING_TIMEOUT_BD;
    5eb2:	56 e0       	ldi	r21, 0x06	; 6
    5eb4:	58 ab       	std	Y+48, r21	; 0x30
				break;

			// Status screen first display
			case STATUS:
				// Reset the status screen period
				UpdateStatus_timer = 0;
    5eb6:	1d 8e       	std	Y+29, r1	; 0x1d
    5eb8:	1c 8e       	std	Y+28, r1	; 0x1c
    5eba:	69 c0       	rjmp	.+210    	; 0x5f8e <main+0x23e>

			// Status screen up, but button still down ;)
			// This is designed to stop the menu appearing instead of the status screen
			// as it will stay in this state until the button is released
			case WAITING_TIMEOUT_BD:
				if(BUTTON1 == 0)
    5ebc:	1f 9b       	sbis	0x03, 7	; 3
    5ebe:	59 c0       	rjmp	.+178    	; 0x5f72 <main+0x222>
				{
					Menu_mode = WAITING_TIMEOUT_BD;
				}
				else
				{
					Menu_mode = WAITING_TIMEOUT;
    5ec0:	35 e0       	ldi	r19, 0x05	; 5
    5ec2:	38 ab       	std	Y+48, r19	; 0x30
    5ec4:	56 c0       	rjmp	.+172    	; 0x5f72 <main+0x222>
			// Status screen up, waiting for timeout or action
			// but button is back up
			case WAITING_TIMEOUT:
				// In status screen, change back to idle after timing out
				// If in vibration test mode, stay in Status
				if ((Status_seconds >= 10) && (Config.Vibration == OFF))
    5ec6:	4a 8d       	ldd	r20, Y+26	; 0x1a
    5ec8:	4a 30       	cpi	r20, 0x0A	; 10
    5eca:	28 f0       	brcs	.+10     	; 0x5ed6 <main+0x186>
    5ecc:	80 91 4c 06 	lds	r24, 0x064C
    5ed0:	88 23       	and	r24, r24
    5ed2:	09 f4       	brne	.+2      	; 0x5ed6 <main+0x186>
    5ed4:	4c c0       	rjmp	.+152    	; 0x5f6e <main+0x21e>
					// Enable PWM output
					PWMOverride = false;
				}

				// Jump to menu if button pressed
				else if(BUTTON1 == 0)
    5ed6:	1f 9b       	sbis	0x03, 7	; 3
    5ed8:	4e c0       	rjmp	.+156    	; 0x5f76 <main+0x226>
					// Prevent PWM output
					PWMOverride = true;
				}

				// Update status screen four times/sec while waiting to time out
				else if (UpdateStatus_timer > (SECOND_TIMER >> 2))
    5eda:	2c 8d       	ldd	r18, Y+28	; 0x1c
    5edc:	3d 8d       	ldd	r19, Y+29	; 0x1d
    5ede:	23 31       	cpi	r18, 0x13	; 19
    5ee0:	33 41       	sbci	r19, 0x13	; 19
    5ee2:	08 f0       	brcs	.+2      	; 0x5ee6 <main+0x196>
    5ee4:	4a c0       	rjmp	.+148    	; 0x5f7a <main+0x22a>
				{
					// Enable PWM output
					PWMOverride = false;					

					// Unblock motors if blocked
					Flight_flags &= ~(1 << ARM_blocker);
    5ee6:	80 91 34 05 	lds	r24, 0x0534
    5eea:	8d 7f       	andi	r24, 0xFD	; 253
    5eec:	80 93 34 05 	sts	0x0534, r24
    5ef0:	40 c0       	rjmp	.+128    	; 0x5f72 <main+0x222>
			// If Interrupted or Interrupted_Clone is true, data must have just completed.
			// If Overdue is true, there is no data to interrupt.
			// PWM activity must stop before we attempt to pop up the status screen.
			case PRESTATUS_TIMEOUT:
				// If interrupted, or if currently "No signal"
				if (Interrupted || Interrupted_Clone || Overdue)
    5ef2:	80 91 ce 08 	lds	r24, 0x08CE
    5ef6:	81 11       	cpse	r24, r1
    5ef8:	43 c0       	rjmp	.+134    	; 0x5f80 <main+0x230>
    5efa:	5c 81       	ldd	r21, Y+4	; 0x04
    5efc:	51 11       	cpse	r21, r1
    5efe:	44 c0       	rjmp	.+136    	; 0x5f88 <main+0x238>
    5f00:	80 91 2e 05 	lds	r24, 0x052E
    5f04:	81 11       	cpse	r24, r1
    5f06:	46 c0       	rjmp	.+140    	; 0x5f94 <main+0x244>
    5f08:	42 c0       	rjmp	.+132    	; 0x5f8e <main+0x23e>

			// In STATUS_TIMEOUT mode, the idle screen is displayed and the mode 
			// changed to POSTSTATUS_TIMEOUT. 
			case STATUS_TIMEOUT:
				// Pop up the Idle screen
				idle_screen();
    5f0a:	0e 94 39 38 	call	0x7072	; 0x7072 <idle_screen>
				
				// Make sure that these are cleared
				Interrupted = false;
    5f0e:	10 92 ce 08 	sts	0x08CE, r1
				Interrupted_Clone = false;

				// Switch to IDLE mode
				Menu_mode = POSTSTATUS_TIMEOUT;
    5f12:	39 e0       	ldi	r19, 0x09	; 9
    5f14:	36 c0       	rjmp	.+108    	; 0x5f82 <main+0x232>

			// In POSTSTATUS_TIMEOUT mode, we wait for a PWM cycle to complete
			// The idle screen has been refreshed and we need to wait.
			case POSTSTATUS_TIMEOUT:
				// If interrupted, or if currently "No signal"
				if (Interrupted || Interrupted_Clone || Overdue)
    5f16:	80 91 ce 08 	lds	r24, 0x08CE
    5f1a:	81 11       	cpse	r24, r1
    5f1c:	07 c0       	rjmp	.+14     	; 0x5f2c <main+0x1dc>
    5f1e:	5c 81       	ldd	r21, Y+4	; 0x04
    5f20:	51 11       	cpse	r21, r1
    5f22:	04 c0       	rjmp	.+8      	; 0x5f2c <main+0x1dc>
    5f24:	80 91 2e 05 	lds	r24, 0x052E
    5f28:	88 23       	and	r24, r24
    5f2a:	c9 f1       	breq	.+114    	; 0x5f9e <main+0x24e>
					
					// Clear Interrupted_Clone
					Interrupted_Clone = false;
														
					// Unblock motors if blocked
					Flight_flags &= ~(1 << ARM_blocker);
    5f2c:	80 91 34 05 	lds	r24, 0x0534
    5f30:	8d 7f       	andi	r24, 0xFD	; 253
    5f32:	80 93 34 05 	sts	0x0534, r24
			case POSTSTATUS_TIMEOUT:
				// If interrupted, or if currently "No signal"
				if (Interrupted || Interrupted_Clone || Overdue)
				{
					// Switch to IDLE mode
					Menu_mode = IDLE;
    5f36:	18 aa       	std	Y+48, r1	; 0x30
					
					// Prevent PWM output
					PWMOverride = false;
					
					// Clear Interrupted_Clone
					Interrupted_Clone = false;
    5f38:	1c 82       	std	Y+4, r1	; 0x04
    5f3a:	1b c0       	rjmp	.+54     	; 0x5f72 <main+0x222>
				
				break;

			// In MENU mode, 
			case MENU:
				LVA = 0;	// Make sure buzzer is off :)
    5f3c:	29 98       	cbi	0x05, 1	; 5
				// Disarm the FC
				General_error |= (1 << DISARMED);
    5f3e:	80 91 35 05 	lds	r24, 0x0535
    5f42:	84 60       	ori	r24, 0x04	; 4
    5f44:	80 93 35 05 	sts	0x0535, r24
				LED1 = 0;
    5f48:	2b 98       	cbi	0x05, 3	; 5
				// Start the menu system
				menu_main();
    5f4a:	0e 94 66 52 	call	0xa4cc	; 0xa4cc <menu_main>
				// Switch back to status screen when leaving menu
				Menu_mode = PRESTATUS;
				// Reset timeout once back in status screen
				Status_seconds = 0;
				// Reset IMU on return from menu
				reset_IMU();
    5f4e:	0e 94 3b 40 	call	0x8076	; 0x8076 <reset_IMU>
				General_error |= (1 << DISARMED);
				LED1 = 0;
				// Start the menu system
				menu_main();
				// Switch back to status screen when leaving menu
				Menu_mode = PRESTATUS;
    5f52:	23 e0       	ldi	r18, 0x03	; 3
    5f54:	28 ab       	std	Y+48, r18	; 0x30
				// Reset timeout once back in status screen
				Status_seconds = 0;
    5f56:	1a 8e       	std	Y+26, r1	; 0x1a
    5f58:	07 c0       	rjmp	.+14     	; 0x5f68 <main+0x218>
			case PRESTATUS:
				// If interrupted, or if currently "No signal"
				if (Interrupted || Interrupted_Clone || Overdue)
				{
					// Ready to move on
					Menu_mode = STATUS;
    5f5a:	44 e0       	ldi	r20, 0x04	; 4
    5f5c:	48 ab       	std	Y+48, r20	; 0x30
							
					// Prevent PWM output
					PWMOverride = true;		
					
					// Clear Interrupted_Clone
					Interrupted_Clone = false;
    5f5e:	1c 82       	std	Y+4, r1	; 0x04
    5f60:	1e c0       	rjmp	.+60     	; 0x5f9e <main+0x24e>
			case PRESTATUS:
				// If interrupted, or if currently "No signal"
				if (Interrupted || Interrupted_Clone || Overdue)
				{
					// Ready to move on
					Menu_mode = STATUS;
    5f62:	24 e0       	ldi	r18, 0x04	; 4
    5f64:	28 ab       	std	Y+48, r18	; 0x30
							
					// Prevent PWM output
					PWMOverride = true;		
					
					// Clear Interrupted_Clone
					Interrupted_Clone = false;
    5f66:	1c 82       	std	Y+4, r1	; 0x04
				{
					// Ready to move on
					Menu_mode = STATUS;
							
					// Prevent PWM output
					PWMOverride = true;		
    5f68:	31 e0       	ldi	r19, 0x01	; 1
    5f6a:	3f a7       	std	Y+47, r19	; 0x2f
    5f6c:	1a c0       	rjmp	.+52     	; 0x5fa2 <main+0x252>
			case WAITING_TIMEOUT:
				// In status screen, change back to idle after timing out
				// If in vibration test mode, stay in Status
				if ((Status_seconds >= 10) && (Config.Vibration == OFF))
				{
					Menu_mode = PRESTATUS_TIMEOUT;
    5f6e:	27 e0       	ldi	r18, 0x07	; 7
    5f70:	28 ab       	std	Y+48, r18	; 0x30
					
					// Enable PWM output
					PWMOverride = false;
    5f72:	1f a6       	std	Y+47, r1	; 0x2f
    5f74:	16 c0       	rjmp	.+44     	; 0x5fa2 <main+0x252>
				}

				// Jump to menu if button pressed
				else if(BUTTON1 == 0)
				{
					Menu_mode = MENU;
    5f76:	3a e0       	ldi	r19, 0x0A	; 10
    5f78:	0e c0       	rjmp	.+28     	; 0x5f96 <main+0x246>
				}

				// Update status screen four times/sec while waiting to time out
				else if (UpdateStatus_timer > (SECOND_TIMER >> 2))
				{
					Menu_mode = PRESTATUS;
    5f7a:	53 e0       	ldi	r21, 0x03	; 3
    5f7c:	58 ab       	std	Y+48, r21	; 0x30
    5f7e:	07 c0       	rjmp	.+14     	; 0x5f8e <main+0x23e>
			case PRESTATUS_TIMEOUT:
				// If interrupted, or if currently "No signal"
				if (Interrupted || Interrupted_Clone || Overdue)
				{
					// Switch to STATUS_TIMEOUT mode
					Menu_mode = STATUS_TIMEOUT;
    5f80:	38 e0       	ldi	r19, 0x08	; 8
    5f82:	38 ab       	std	Y+48, r19	; 0x30
				
					// Prevent PWM output going into STATUS_TIMEOUT
					PWMOverride = true;
					
					// Clear Interrupted_Clone
					Interrupted_Clone = false;
    5f84:	1c 82       	std	Y+4, r1	; 0x04
    5f86:	08 c0       	rjmp	.+16     	; 0x5f98 <main+0x248>
			case PRESTATUS_TIMEOUT:
				// If interrupted, or if currently "No signal"
				if (Interrupted || Interrupted_Clone || Overdue)
				{
					// Switch to STATUS_TIMEOUT mode
					Menu_mode = STATUS_TIMEOUT;
    5f88:	58 e0       	ldi	r21, 0x08	; 8
    5f8a:	58 ab       	std	Y+48, r21	; 0x30
				
					// Prevent PWM output going into STATUS_TIMEOUT
					PWMOverride = true;
					
					// Clear Interrupted_Clone
					Interrupted_Clone = false;
    5f8c:	1c 82       	std	Y+4, r1	; 0x04
				{
					// Switch to STATUS_TIMEOUT mode
					Menu_mode = STATUS_TIMEOUT;
				
					// Prevent PWM output going into STATUS_TIMEOUT
					PWMOverride = true;
    5f8e:	21 e0       	ldi	r18, 0x01	; 1
    5f90:	2f a7       	std	Y+47, r18	; 0x2f
    5f92:	07 c0       	rjmp	.+14     	; 0x5fa2 <main+0x252>
			case PRESTATUS_TIMEOUT:
				// If interrupted, or if currently "No signal"
				if (Interrupted || Interrupted_Clone || Overdue)
				{
					// Switch to STATUS_TIMEOUT mode
					Menu_mode = STATUS_TIMEOUT;
    5f94:	38 e0       	ldi	r19, 0x08	; 8
    5f96:	38 ab       	std	Y+48, r19	; 0x30
				
					// Prevent PWM output going into STATUS_TIMEOUT
					PWMOverride = true;
    5f98:	41 e0       	ldi	r20, 0x01	; 1
    5f9a:	4f a7       	std	Y+47, r20	; 0x2f
    5f9c:	02 c0       	rjmp	.+4      	; 0x5fa2 <main+0x252>
					Flight_flags &= ~(1 << ARM_blocker);
				}
				else
				{
					// Prevent PWM output until at least when next RC arrives
					PWMOverride = true;			
    5f9e:	51 e0       	ldi	r21, 0x01	; 1
    5fa0:	5f a7       	std	Y+47, r21	; 0x2f
		//************************************************************
		//* Alarms
		//************************************************************

		// If RC signal is overdue, signal RX error message
		if (Overdue)
    5fa2:	80 91 2e 05 	lds	r24, 0x052E
    5fa6:	88 23       	and	r24, r24
    5fa8:	21 f0       	breq	.+8      	; 0x5fb2 <main+0x262>
		{
			General_error |= (1 << NO_SIGNAL);		// Set NO_SIGNAL bit
    5faa:	80 91 35 05 	lds	r24, 0x0535
    5fae:	82 60       	ori	r24, 0x02	; 2
    5fb0:	03 c0       	rjmp	.+6      	; 0x5fb8 <main+0x268>
		}
		// RC signal received normally
		else
		{
			General_error &= ~(1 << NO_SIGNAL);		// Clear NO_SIGNAL bit
    5fb2:	80 91 35 05 	lds	r24, 0x0535
    5fb6:	8d 7f       	andi	r24, 0xFD	; 253
    5fb8:	80 93 35 05 	sts	0x0535, r24
		}

		// Turn on buzzer if in alarm state (BUZZER_ON is oscillating)
		if	(
			 (
				(General_error & (1 << LVA_ALARM)) ||		// Low battery
    5fbc:	80 91 35 05 	lds	r24, 0x0535
		{
			General_error &= ~(1 << NO_SIGNAL);		// Clear NO_SIGNAL bit
		}

		// Turn on buzzer if in alarm state (BUZZER_ON is oscillating)
		if	(
    5fc0:	83 fd       	sbrc	r24, 3
    5fc2:	08 c0       	rjmp	.+16     	; 0x5fd4 <main+0x284>
			 (
				(General_error & (1 << LVA_ALARM)) ||		// Low battery
				(General_error & (1 << NO_SIGNAL)) ||		// No signal
    5fc4:	80 91 35 05 	lds	r24, 0x0535
		}

		// Turn on buzzer if in alarm state (BUZZER_ON is oscillating)
		if	(
			 (
				(General_error & (1 << LVA_ALARM)) ||		// Low battery
    5fc8:	81 fd       	sbrc	r24, 1
    5fca:	04 c0       	rjmp	.+8      	; 0x5fd4 <main+0x284>
				(General_error & (1 << NO_SIGNAL)) ||		// No signal
				(General_error & (1 << THROTTLE_HIGH))		// Throttle high
    5fcc:	80 91 35 05 	lds	r24, 0x0535

		// Turn on buzzer if in alarm state (BUZZER_ON is oscillating)
		if	(
			 (
				(General_error & (1 << LVA_ALARM)) ||		// Low battery
				(General_error & (1 << NO_SIGNAL)) ||		// No signal
    5fd0:	80 ff       	sbrs	r24, 0
    5fd2:	0a c0       	rjmp	.+20     	; 0x5fe8 <main+0x298>
				(General_error & (1 << THROTTLE_HIGH))		// Throttle high
			 ) && 
			  (Alarm_flags & (1 << BUZZER_ON))
    5fd4:	80 91 33 05 	lds	r24, 0x0533
		if	(
			 (
				(General_error & (1 << LVA_ALARM)) ||		// Low battery
				(General_error & (1 << NO_SIGNAL)) ||		// No signal
				(General_error & (1 << THROTTLE_HIGH))		// Throttle high
			 ) && 
    5fd8:	84 ff       	sbrs	r24, 4
    5fda:	06 c0       	rjmp	.+12     	; 0x5fe8 <main+0x298>
			  (Alarm_flags & (1 << BUZZER_ON))
			) 
		{
			// Check buzzer mode first
			if (Config.Buzzer == ON)
    5fdc:	80 91 c3 06 	lds	r24, 0x06C3
    5fe0:	81 30       	cpi	r24, 0x01	; 1
    5fe2:	19 f4       	brne	.+6      	; 0x5fea <main+0x29a>
			{
				LVA = 1;
    5fe4:	29 9a       	sbi	0x05, 1	; 5
    5fe6:	01 c0       	rjmp	.+2      	; 0x5fea <main+0x29a>
			}
		}
		else 
		{
			LVA = 0;
    5fe8:	29 98       	cbi	0x05, 1	; 5
		//************************************************************
		//* Arm/disarm handling
		//************************************************************

		// All cases - reset arm timer
		if (Config.ArmMode == ARMABLE)
    5fea:	80 91 bb 06 	lds	r24, 0x06BB
    5fee:	81 30       	cpi	r24, 0x01	; 1
    5ff0:	09 f0       	breq	.+2      	; 0x5ff4 <main+0x2a4>
    5ff2:	a0 c0       	rjmp	.+320    	; 0x6134 <main+0x3e4>
		{
			// Manual arm/disarm
			// If sticks not at extremes, reset manual arm/disarm timer
			// Sticks down and centered = armed. Down and outside = disarmed
			if (
				((-ARM_TIMER_RESET_1 < RCinputs[AILERON]) && (RCinputs[AILERON] < ARM_TIMER_RESET_1)) ||
    5ff4:	80 91 65 09 	lds	r24, 0x0965
    5ff8:	90 91 66 09 	lds	r25, 0x0966
		if (Config.ArmMode == ARMABLE)
		{
			// Manual arm/disarm
			// If sticks not at extremes, reset manual arm/disarm timer
			// Sticks down and centered = armed. Down and outside = disarmed
			if (
    5ffc:	81 34       	cpi	r24, 0x41	; 65
    5ffe:	9c 4f       	sbci	r25, 0xFC	; 252
    6000:	3c f0       	brlt	.+14     	; 0x6010 <main+0x2c0>
				((-ARM_TIMER_RESET_1 < RCinputs[AILERON]) && (RCinputs[AILERON] < ARM_TIMER_RESET_1)) ||
    6002:	80 91 65 09 	lds	r24, 0x0965
    6006:	90 91 66 09 	lds	r25, 0x0966
    600a:	80 3c       	cpi	r24, 0xC0	; 192
    600c:	93 40       	sbci	r25, 0x03	; 3
    600e:	14 f1       	brlt	.+68     	; 0x6054 <main+0x304>
				((-ARM_TIMER_RESET_1 < RCinputs[ELEVATOR]) && (RCinputs[ELEVATOR] < ARM_TIMER_RESET_1)) ||
    6010:	80 91 67 09 	lds	r24, 0x0967
    6014:	90 91 68 09 	lds	r25, 0x0968
		{
			// Manual arm/disarm
			// If sticks not at extremes, reset manual arm/disarm timer
			// Sticks down and centered = armed. Down and outside = disarmed
			if (
				((-ARM_TIMER_RESET_1 < RCinputs[AILERON]) && (RCinputs[AILERON] < ARM_TIMER_RESET_1)) ||
    6018:	81 34       	cpi	r24, 0x41	; 65
    601a:	9c 4f       	sbci	r25, 0xFC	; 252
    601c:	3c f0       	brlt	.+14     	; 0x602c <main+0x2dc>
				((-ARM_TIMER_RESET_1 < RCinputs[ELEVATOR]) && (RCinputs[ELEVATOR] < ARM_TIMER_RESET_1)) ||
    601e:	80 91 67 09 	lds	r24, 0x0967
    6022:	90 91 68 09 	lds	r25, 0x0968
    6026:	80 3c       	cpi	r24, 0xC0	; 192
    6028:	93 40       	sbci	r25, 0x03	; 3
    602a:	a4 f0       	brlt	.+40     	; 0x6054 <main+0x304>
				((-ARM_TIMER_RESET_1 < RCinputs[RUDDER]) && (RCinputs[RUDDER] < ARM_TIMER_RESET_1)) ||
    602c:	80 91 69 09 	lds	r24, 0x0969
    6030:	90 91 6a 09 	lds	r25, 0x096A
			// Manual arm/disarm
			// If sticks not at extremes, reset manual arm/disarm timer
			// Sticks down and centered = armed. Down and outside = disarmed
			if (
				((-ARM_TIMER_RESET_1 < RCinputs[AILERON]) && (RCinputs[AILERON] < ARM_TIMER_RESET_1)) ||
				((-ARM_TIMER_RESET_1 < RCinputs[ELEVATOR]) && (RCinputs[ELEVATOR] < ARM_TIMER_RESET_1)) ||
    6034:	81 34       	cpi	r24, 0x41	; 65
    6036:	9c 4f       	sbci	r25, 0xFC	; 252
    6038:	3c f0       	brlt	.+14     	; 0x6048 <main+0x2f8>
				((-ARM_TIMER_RESET_1 < RCinputs[RUDDER]) && (RCinputs[RUDDER] < ARM_TIMER_RESET_1)) ||
    603a:	80 91 69 09 	lds	r24, 0x0969
    603e:	90 91 6a 09 	lds	r25, 0x096A
    6042:	80 3c       	cpi	r24, 0xC0	; 192
    6044:	93 40       	sbci	r25, 0x03	; 3
    6046:	34 f0       	brlt	.+12     	; 0x6054 <main+0x304>
				(ARM_TIMER_RESET_2 < MonopolarThrottle)
    6048:	80 91 61 09 	lds	r24, 0x0961
    604c:	90 91 62 09 	lds	r25, 0x0962
			// If sticks not at extremes, reset manual arm/disarm timer
			// Sticks down and centered = armed. Down and outside = disarmed
			if (
				((-ARM_TIMER_RESET_1 < RCinputs[AILERON]) && (RCinputs[AILERON] < ARM_TIMER_RESET_1)) ||
				((-ARM_TIMER_RESET_1 < RCinputs[ELEVATOR]) && (RCinputs[ELEVATOR] < ARM_TIMER_RESET_1)) ||
				((-ARM_TIMER_RESET_1 < RCinputs[RUDDER]) && (RCinputs[RUDDER] < ARM_TIMER_RESET_1)) ||
    6050:	c3 97       	sbiw	r24, 0x33	; 51
    6052:	1c f0       	brlt	.+6      	; 0x605a <main+0x30a>
				(ARM_TIMER_RESET_2 < MonopolarThrottle)
			   )
			{
				Arm_timer = 0;
    6054:	21 2c       	mov	r2, r1
    6056:	31 2c       	mov	r3, r1
    6058:	21 01       	movw	r4, r2
			}
			
			// If disarmed, arm if sticks held
			if (General_error & (1 << DISARMED))
    605a:	80 91 35 05 	lds	r24, 0x0535
    605e:	82 ff       	sbrs	r24, 2
    6060:	23 c0       	rjmp	.+70     	; 0x60a8 <main+0x358>
				Disarm_timer = 0;
				Disarm_seconds = 0;
								
				// If arm timer times out, the sticks must have been at extremes for ARM_TIMER seconds
				// If aileron is at min, arm the FC
				if ((Arm_timer > ARM_TIMER) && (RCinputs[AILERON] < -ARM_TIMER_RESET_1))
    6062:	8c e4       	ldi	r24, 0x4C	; 76
    6064:	28 16       	cp	r2, r24
    6066:	38 06       	cpc	r3, r24
    6068:	41 04       	cpc	r4, r1
    606a:	51 04       	cpc	r5, r1
    606c:	08 f4       	brcc	.+2      	; 0x6070 <main+0x320>
    606e:	69 c0       	rjmp	.+210    	; 0x6142 <main+0x3f2>
    6070:	80 91 65 09 	lds	r24, 0x0965
    6074:	90 91 66 09 	lds	r25, 0x0966
    6078:	80 34       	cpi	r24, 0x40	; 64
    607a:	9c 4f       	sbci	r25, 0xFC	; 252
    607c:	0c f0       	brlt	.+2      	; 0x6080 <main+0x330>
    607e:	61 c0       	rjmp	.+194    	; 0x6142 <main+0x3f2>
				{
					Arm_timer = 0;
					General_error &= ~(1 << DISARMED);		// Set flags to armed (negate disarmed)
    6080:	80 91 35 05 	lds	r24, 0x0535
    6084:	8b 7f       	andi	r24, 0xFB	; 251
    6086:	80 93 35 05 	sts	0x0535, r24
					CalibrateGyrosSlow();					// Calibrate gyros
    608a:	0e 94 ae 3a 	call	0x755c	; 0x755c <CalibrateGyrosSlow>
					LED1 = 1;								// Signal that FC is ready
    608e:	2b 9a       	sbi	0x05, 3	; 5

					Flight_flags |= (1 << ARM_blocker);		// Block motors for a little while to remove arm glitch
    6090:	80 91 34 05 	lds	r24, 0x0534
    6094:	82 60       	ori	r24, 0x02	; 2
    6096:	80 93 34 05 	sts	0x0534, r24
					Servo_Rate = 0;

					// Force Menu to IDLE immediately unless in vibration test mode
					if (Config.Vibration == OFF)
    609a:	80 91 4c 06 	lds	r24, 0x064C
    609e:	81 11       	cpse	r24, r1
    60a0:	54 c0       	rjmp	.+168    	; 0x614a <main+0x3fa>
					{
						Menu_mode = PRESTATUS_TIMEOUT;		// Previously IDLE, which was wrong. 
    60a2:	27 e0       	ldi	r18, 0x07	; 7
    60a4:	28 ab       	std	Y+48, r18	; 0x30
    60a6:	51 c0       	rjmp	.+162    	; 0x614a <main+0x3fa>
		
			// If armed, disarm if sticks held
			else 
			{
				// Disarm the FC after DISARM_TIMER seconds if aileron at max
				if ((Arm_timer > DISARM_TIMER) && (RCinputs[AILERON] > ARM_TIMER_RESET_1))
    60a8:	32 ee       	ldi	r19, 0xE2	; 226
    60aa:	23 16       	cp	r2, r19
    60ac:	34 ee       	ldi	r19, 0xE4	; 228
    60ae:	33 06       	cpc	r3, r19
    60b0:	41 04       	cpc	r4, r1
    60b2:	51 04       	cpc	r5, r1
    60b4:	b8 f0       	brcs	.+46     	; 0x60e4 <main+0x394>
    60b6:	80 91 65 09 	lds	r24, 0x0965
    60ba:	90 91 66 09 	lds	r25, 0x0966
    60be:	81 3c       	cpi	r24, 0xC1	; 193
    60c0:	93 40       	sbci	r25, 0x03	; 3
    60c2:	84 f0       	brlt	.+32     	; 0x60e4 <main+0x394>
				{
					Arm_timer = 0;
					General_error |= (1 << DISARMED);		// Set flags to disarmed
    60c4:	80 91 35 05 	lds	r24, 0x0535
    60c8:	84 60       	ori	r24, 0x04	; 4
    60ca:	80 93 35 05 	sts	0x0535, r24
					LED1 = 0;								// Signal that FC is now disarmed
    60ce:	2b 98       	cbi	0x05, 3	; 5
					
					Flight_flags |= (1 << ARM_blocker);		// Block motors for a little while to remove arm glitch
    60d0:	80 91 34 05 	lds	r24, 0x0534
    60d4:	82 60       	ori	r24, 0x02	; 2
    60d6:	80 93 34 05 	sts	0x0534, r24
					Servo_Rate = 0;
    60da:	1c 86       	std	Y+12, r1	; 0x0c
    60dc:	1b 86       	std	Y+11, r1	; 0x0b
			else 
			{
				// Disarm the FC after DISARM_TIMER seconds if aileron at max
				if ((Arm_timer > DISARM_TIMER) && (RCinputs[AILERON] > ARM_TIMER_RESET_1))
				{
					Arm_timer = 0;
    60de:	21 2c       	mov	r2, r1
    60e0:	31 2c       	mov	r3, r1
    60e2:	21 01       	movw	r4, r2
#endif			
				}

				// Automatic disarm
				// Reset auto-disarm count if any RX activity or set to zero
				if ((Flight_flags & (1 << RxActivity)) || (Config.Disarm_timer == 0))
    60e4:	80 91 34 05 	lds	r24, 0x0534
    60e8:	80 fd       	sbrc	r24, 0
    60ea:	0c c0       	rjmp	.+24     	; 0x6104 <main+0x3b4>
    60ec:	80 91 bc 06 	lds	r24, 0x06BC
    60f0:	88 23       	and	r24, r24
    60f2:	41 f0       	breq	.+16     	; 0x6104 <main+0x3b4>
					Disarm_timer = 0;
					Disarm_seconds = 0;
				}
		
				// Increment disarm timer (seconds) if armed
				if (Disarm_timer > SECOND_TIMER)
    60f4:	5c e4       	ldi	r21, 0x4C	; 76
    60f6:	65 16       	cp	r6, r21
    60f8:	75 06       	cpc	r7, r21
    60fa:	38 f0       	brcs	.+14     	; 0x610a <main+0x3ba>
				{
					Disarm_seconds++;
    60fc:	2a 85       	ldd	r18, Y+10	; 0x0a
    60fe:	2f 5f       	subi	r18, 0xFF	; 255
    6100:	2a 87       	std	Y+10, r18	; 0x0a
    6102:	01 c0       	rjmp	.+2      	; 0x6106 <main+0x3b6>
    6104:	1a 86       	std	Y+10, r1	; 0x0a
    6106:	61 2c       	mov	r6, r1
    6108:	71 2c       	mov	r7, r1
					Disarm_timer = 0;
				}

				// Auto-disarm model if timeout enabled and due
				// Don't allow disarms less than 30 seconds. That's just silly...
				if ((Disarm_seconds >= Config.Disarm_timer) && (Config.Disarm_timer >= 30))
    610a:	40 91 bc 06 	lds	r20, 0x06BC
    610e:	3a 85       	ldd	r19, Y+10	; 0x0a
    6110:	83 2f       	mov	r24, r19
    6112:	90 e0       	ldi	r25, 0x00	; 0
    6114:	24 2f       	mov	r18, r20
    6116:	04 2e       	mov	r0, r20
    6118:	00 0c       	add	r0, r0
    611a:	33 0b       	sbc	r19, r19
    611c:	82 17       	cp	r24, r18
    611e:	93 07       	cpc	r25, r19
    6120:	e4 f0       	brlt	.+56     	; 0x615a <main+0x40a>
    6122:	4e 31       	cpi	r20, 0x1E	; 30
    6124:	d4 f0       	brlt	.+52     	; 0x615a <main+0x40a>
				{
					// Disarm the FC
					General_error |= (1 << DISARMED);		// Set flags to disarmed
    6126:	80 91 35 05 	lds	r24, 0x0535
    612a:	84 60       	ori	r24, 0x04	; 4
    612c:	80 93 35 05 	sts	0x0535, r24
					LED1 = 0;								// Signal that FC is now disarmed
    6130:	2b 98       	cbi	0x05, 3	; 5
    6132:	13 c0       	rjmp	.+38     	; 0x615a <main+0x40a>
		} // if (Config.ArmMode == ARMABLE)
		
		// Arm when ArmMode is OFF
		else 
		{
			General_error &= ~(1 << DISARMED);			// Set flags to armed
    6134:	80 91 35 05 	lds	r24, 0x0535
    6138:	8b 7f       	andi	r24, 0xFB	; 251
    613a:	80 93 35 05 	sts	0x0535, r24
			LED1 = 1;
    613e:	2b 9a       	sbi	0x05, 3	; 5
    6140:	0c c0       	rjmp	.+24     	; 0x615a <main+0x40a>
			// If disarmed, arm if sticks held
			if (General_error & (1 << DISARMED))
			{
				// Reset auto-disarm count
				Disarm_timer = 0;
				Disarm_seconds = 0;
    6142:	1a 86       	std	Y+10, r1	; 0x0a
			
			// If disarmed, arm if sticks held
			if (General_error & (1 << DISARMED))
			{
				// Reset auto-disarm count
				Disarm_timer = 0;
    6144:	61 2c       	mov	r6, r1
    6146:	71 2c       	mov	r7, r1
    6148:	08 c0       	rjmp	.+16     	; 0x615a <main+0x40a>
				Disarm_seconds = 0;
    614a:	1a 86       	std	Y+10, r1	; 0x0a
			
			// If disarmed, arm if sticks held
			if (General_error & (1 << DISARMED))
			{
				// Reset auto-disarm count
				Disarm_timer = 0;
    614c:	61 2c       	mov	r6, r1
    614e:	71 2c       	mov	r7, r1
					General_error &= ~(1 << DISARMED);		// Set flags to armed (negate disarmed)
					CalibrateGyrosSlow();					// Calibrate gyros
					LED1 = 1;								// Signal that FC is ready

					Flight_flags |= (1 << ARM_blocker);		// Block motors for a little while to remove arm glitch
					Servo_Rate = 0;
    6150:	1c 86       	std	Y+12, r1	; 0x0c
    6152:	1b 86       	std	Y+11, r1	; 0x0b
								
				// If arm timer times out, the sticks must have been at extremes for ARM_TIMER seconds
				// If aileron is at min, arm the FC
				if ((Arm_timer > ARM_TIMER) && (RCinputs[AILERON] < -ARM_TIMER_RESET_1))
				{
					Arm_timer = 0;
    6154:	21 2c       	mov	r2, r1
    6156:	31 2c       	mov	r3, r1
    6158:	21 01       	movw	r4, r2
		//************************************************************
		//* Get RC data
		//************************************************************

		// Update zeroed RC channel data
		RxGetChannels();
    615a:	0e 94 c3 68 	call	0xd186	; 0xd186 <RxGetChannels>
		//* by the Config.TransitionSpeed setting.
		//* The transition will hold at P1n position if directed to.
		//************************************************************

		// P2 transition point hard-coded to 50% above center
		if 	(RCinputs[Config.FlightChan] > 500)
    615e:	e0 91 46 06 	lds	r30, 0x0646
    6162:	ee 0f       	add	r30, r30
    6164:	ff 0b       	sbc	r31, r31
    6166:	ed 59       	subi	r30, 0x9D	; 157
    6168:	f6 4f       	sbci	r31, 0xF6	; 246
    616a:	80 81       	ld	r24, Z
    616c:	91 81       	ldd	r25, Z+1	; 0x01
    616e:	85 3f       	cpi	r24, 0xF5	; 245
    6170:	91 40       	sbci	r25, 0x01	; 1
    6172:	64 f0       	brlt	.+24     	; 0x618c <main+0x43c>
		{
			Config.FlightSel = 2;			// Flight mode 2 (P2)
    6174:	82 e0       	ldi	r24, 0x02	; 2
    6176:	80 93 10 08 	sts	0x0810, r24
		//* Set up the correct state for the current setting.
		//* Check for initial startup - the only time that old_flight should be "3".
		//* Also, re-initialise if the transition setting is changed
		//************************************************************

		if ((old_flight == 3) || (old_trans_mode != Config.TransitionSpeedOut))
    617a:	59 81       	ldd	r21, Y+1	; 0x01
    617c:	53 30       	cpi	r21, 0x03	; 3
    617e:	e9 f1       	breq	.+122    	; 0x61fa <main+0x4aa>
    6180:	20 91 47 06 	lds	r18, 0x0647
    6184:	2a a3       	std	Y+34, r18	; 0x22
    6186:	92 12       	cpse	r9, r18
    6188:	13 c0       	rjmp	.+38     	; 0x61b0 <main+0x460>
    618a:	48 c0       	rjmp	.+144    	; 0x621c <main+0x4cc>
		if 	(RCinputs[Config.FlightChan] > 500)
		{
			Config.FlightSel = 2;			// Flight mode 2 (P2)
		}
		// P1.n transition point hard-coded to 50% below center
		else if (RCinputs[Config.FlightChan] > -500)
    618c:	80 81       	ld	r24, Z
    618e:	91 81       	ldd	r25, Z+1	; 0x01
    6190:	8d 30       	cpi	r24, 0x0D	; 13
    6192:	9e 4f       	sbci	r25, 0xFE	; 254
    6194:	3c f0       	brlt	.+14     	; 0x61a4 <main+0x454>
		{
			Config.FlightSel = 1;			// Flight mode 1 (P1.n)
    6196:	81 e0       	ldi	r24, 0x01	; 1
    6198:	80 93 10 08 	sts	0x0810, r24
		//* Set up the correct state for the current setting.
		//* Check for initial startup - the only time that old_flight should be "3".
		//* Also, re-initialise if the transition setting is changed
		//************************************************************

		if ((old_flight == 3) || (old_trans_mode != Config.TransitionSpeedOut))
    619c:	49 81       	ldd	r20, Y+1	; 0x01
    619e:	43 30       	cpi	r20, 0x03	; 3
    61a0:	79 f7       	brne	.-34     	; 0x6180 <main+0x430>
    61a2:	1c c0       	rjmp	.+56     	; 0x61dc <main+0x48c>
			Config.FlightSel = 1;			// Flight mode 1 (P1.n)
		}
		// Otherwise the default is P1
		else
		{
			Config.FlightSel = 0;			// Flight mode 0 (P1)
    61a4:	10 92 10 08 	sts	0x0810, r1
		//* Set up the correct state for the current setting.
		//* Check for initial startup - the only time that old_flight should be "3".
		//* Also, re-initialise if the transition setting is changed
		//************************************************************

		if ((old_flight == 3) || (old_trans_mode != Config.TransitionSpeedOut))
    61a8:	59 81       	ldd	r21, Y+1	; 0x01
    61aa:	53 30       	cpi	r21, 0x03	; 3
    61ac:	49 f7       	brne	.-46     	; 0x6180 <main+0x430>
    61ae:	09 c0       	rjmp	.+18     	; 0x61c2 <main+0x472>
		{
			switch(Config.FlightSel)
    61b0:	20 91 10 08 	lds	r18, 0x0810
    61b4:	29 83       	std	Y+1, r18	; 0x01
    61b6:	21 30       	cpi	r18, 0x01	; 1
    61b8:	89 f0       	breq	.+34     	; 0x61dc <main+0x48c>
    61ba:	22 30       	cpi	r18, 0x02	; 2
    61bc:	f1 f0       	breq	.+60     	; 0x61fa <main+0x4aa>
    61be:	21 11       	cpse	r18, r1
    61c0:	2a c0       	rjmp	.+84     	; 0x6216 <main+0x4c6>
			{
				case 0:
					Transition_state = TRANS_P1;
    61c2:	10 92 3b 05 	sts	0x053B, r1
					transition_counter = Config.Transition_P1;
    61c6:	80 91 49 06 	lds	r24, 0x0649
    61ca:	08 2e       	mov	r0, r24
    61cc:	00 0c       	add	r0, r0
    61ce:	99 0b       	sbc	r25, r25
    61d0:	90 93 3d 05 	sts	0x053D, r25
    61d4:	80 93 3c 05 	sts	0x053C, r24
					break;
    61d8:	19 82       	std	Y+1, r1	; 0x01
    61da:	1d c0       	rjmp	.+58     	; 0x6216 <main+0x4c6>
				case 1:
					Transition_state = TRANS_P1n;
    61dc:	84 e0       	ldi	r24, 0x04	; 4
    61de:	80 93 3b 05 	sts	0x053B, r24
					transition_counter = Config.Transition_P1n; // Set transition point to the user-selected point
    61e2:	80 91 4a 06 	lds	r24, 0x064A
    61e6:	08 2e       	mov	r0, r24
    61e8:	00 0c       	add	r0, r0
    61ea:	99 0b       	sbc	r25, r25
    61ec:	90 93 3d 05 	sts	0x053D, r25
    61f0:	80 93 3c 05 	sts	0x053C, r24
					break;
    61f4:	31 e0       	ldi	r19, 0x01	; 1
    61f6:	39 83       	std	Y+1, r19	; 0x01
    61f8:	0e c0       	rjmp	.+28     	; 0x6216 <main+0x4c6>
				case 2:
					Transition_state = TRANS_P2;
    61fa:	89 e0       	ldi	r24, 0x09	; 9
    61fc:	80 93 3b 05 	sts	0x053B, r24
					transition_counter = Config.Transition_P2;
    6200:	80 91 4b 06 	lds	r24, 0x064B
    6204:	08 2e       	mov	r0, r24
    6206:	00 0c       	add	r0, r0
    6208:	99 0b       	sbc	r25, r25
    620a:	90 93 3d 05 	sts	0x053D, r25
    620e:	80 93 3c 05 	sts	0x053C, r24
					break;
    6212:	42 e0       	ldi	r20, 0x02	; 2
    6214:	49 83       	std	Y+1, r20	; 0x01
				default:
					break;
			}		 
			old_flight = Config.FlightSel;
			old_trans_mode = Config.TransitionSpeedOut;
    6216:	50 91 47 06 	lds	r21, 0x0647
    621a:	5a a3       	std	Y+34, r21	; 0x22
		//************************************************************
		//* Transition state handling
		//************************************************************

		// Update timed transition when changing flight modes
		if (Config.FlightSel != old_flight)
    621c:	99 24       	eor	r9, r9
    621e:	93 94       	inc	r9
    6220:	80 91 10 08 	lds	r24, 0x0810
    6224:	29 81       	ldd	r18, Y+1	; 0x01
    6226:	82 13       	cpse	r24, r18
    6228:	01 c0       	rjmp	.+2      	; 0x622c <main+0x4dc>
    622a:	91 2c       	mov	r9, r1
			TransitionUpdated = true;
		}

		// Work out transition number when manually transitioning
		// Convert number to percentage (0 to 100%)
		if (Config.TransitionSpeedOut == 0)
    622c:	80 91 47 06 	lds	r24, 0x0647
    6230:	81 11       	cpse	r24, r1
    6232:	03 c0       	rjmp	.+6      	; 0x623a <main+0x4ea>
		{
			// Update the transition variable based on the selected RC channel
			UpdateTransition();
    6234:	0e 94 b3 69 	call	0xd366	; 0xd366 <UpdateTransition>
    6238:	08 c0       	rjmp	.+16     	; 0x624a <main+0x4fa>
		}
		else
		{
			// transition_counter counts from 0 to 100 (101 steps)
			transition = transition_counter;
    623a:	80 91 3c 05 	lds	r24, 0x053C
    623e:	90 91 3d 05 	lds	r25, 0x053D
    6242:	90 93 39 05 	sts	0x0539, r25
    6246:	80 93 38 05 	sts	0x0538, r24
		}

		// Always in the TRANSITIONING state when Config.TransitionSpeed is 0
		// This prevents state changes when controlled by a channel
		if (Config.TransitionSpeedOut == 0)
    624a:	40 91 47 06 	lds	r20, 0x0647
    624e:	41 11       	cpse	r20, r1
    6250:	03 c0       	rjmp	.+6      	; 0x6258 <main+0x508>
		{
			Transition_state = TRANSITIONING;
    6252:	85 e0       	ldi	r24, 0x05	; 5
    6254:	80 93 3b 05 	sts	0x053B, r24
		}

		// Update transition state change when control value or flight mode changes
		if (TransitionUpdated)
    6258:	99 20       	and	r9, r9
    625a:	a1 f0       	breq	.+40     	; 0x6284 <main+0x534>
		{
			// Update transition state from matrix
			Transition_state = (uint8_t)pgm_read_byte(&Trans_Matrix[Config.FlightSel][old_flight]);
    625c:	80 91 10 08 	lds	r24, 0x0810
    6260:	08 2e       	mov	r0, r24
    6262:	00 0c       	add	r0, r0
    6264:	99 0b       	sbc	r25, r25
    6266:	fc 01       	movw	r30, r24
    6268:	ee 0f       	add	r30, r30
    626a:	ff 1f       	adc	r31, r31
    626c:	e8 0f       	add	r30, r24
    626e:	f9 1f       	adc	r31, r25
    6270:	39 81       	ldd	r19, Y+1	; 0x01
    6272:	e3 0f       	add	r30, r19
    6274:	f1 1d       	adc	r31, r1
    6276:	37 fd       	sbrc	r19, 7
    6278:	fa 95       	dec	r31
    627a:	ea 51       	subi	r30, 0x1A	; 26
    627c:	fe 4f       	sbci	r31, 0xFE	; 254
    627e:	e4 91       	lpm	r30, Z
    6280:	e0 93 3b 05 	sts	0x053B, r30
		}

		// Calculate transition time from user's setting based on the direction of travel
		if (transition_direction == P2)
    6284:	5a 81       	ldd	r21, Y+2	; 0x02
    6286:	51 30       	cpi	r21, 0x01	; 1
    6288:	29 f4       	brne	.+10     	; 0x6294 <main+0x544>
		{
			transition_time = TRANSITION_TIMER * Config.TransitionSpeedOut; // Outbound transition speed	
    628a:	23 ec       	ldi	r18, 0xC3	; 195
    628c:	42 03       	mulsu	r20, r18
    628e:	c0 01       	movw	r24, r0
    6290:	11 24       	eor	r1, r1
    6292:	06 c0       	rjmp	.+12     	; 0x62a0 <main+0x550>
		}
		else 
		{
			transition_time = TRANSITION_TIMER * Config.TransitionSpeedIn; // Inbound transition speed		
    6294:	20 91 48 06 	lds	r18, 0x0648
    6298:	33 ec       	ldi	r19, 0xC3	; 195
    629a:	23 03       	mulsu	r18, r19
    629c:	c0 01       	movw	r24, r0
    629e:	11 24       	eor	r1, r1
		}
		
		// Update state, values and transition_counter every Config.TransitionSpeed if not zero.
		if (((Config.TransitionSpeedOut != 0) && (Transition_timeout > transition_time)) ||
    62a0:	44 23       	and	r20, r20
    62a2:	29 f0       	breq	.+10     	; 0x62ae <main+0x55e>
    62a4:	2e 85       	ldd	r18, Y+14	; 0x0e
    62a6:	3f 85       	ldd	r19, Y+15	; 0x0f
    62a8:	82 17       	cp	r24, r18
    62aa:	93 07       	cpc	r25, r19
    62ac:	18 f0       	brcs	.+6      	; 0x62b4 <main+0x564>
    62ae:	99 20       	and	r9, r9
    62b0:	09 f4       	brne	.+2      	; 0x62b4 <main+0x564>
    62b2:	ca c0       	rjmp	.+404    	; 0x6448 <main+0x6f8>
		{
			Transition_timeout = 0;
			TransitionUpdated = false;

			// Fixed, end-point states
			if (Transition_state == TRANS_P1)
    62b4:	80 91 3b 05 	lds	r24, 0x053B
    62b8:	81 11       	cpse	r24, r1
    62ba:	03 c0       	rjmp	.+6      	; 0x62c2 <main+0x572>
			{
				transition_counter = Config.Transition_P1;
    62bc:	80 91 49 06 	lds	r24, 0x0649
    62c0:	09 c0       	rjmp	.+18     	; 0x62d4 <main+0x584>
			}
			else if (Transition_state == TRANS_P1n)
    62c2:	84 30       	cpi	r24, 0x04	; 4
    62c4:	19 f4       	brne	.+6      	; 0x62cc <main+0x57c>
			{
				transition_counter = Config.Transition_P1n;
    62c6:	80 91 4a 06 	lds	r24, 0x064A
    62ca:	04 c0       	rjmp	.+8      	; 0x62d4 <main+0x584>
			}
			else if (Transition_state == TRANS_P2)
    62cc:	89 30       	cpi	r24, 0x09	; 9
    62ce:	51 f4       	brne	.+20     	; 0x62e4 <main+0x594>
			{
				transition_counter = Config.Transition_P2;
    62d0:	80 91 4b 06 	lds	r24, 0x064B
    62d4:	08 2e       	mov	r0, r24
    62d6:	00 0c       	add	r0, r0
    62d8:	99 0b       	sbc	r25, r25
    62da:	90 93 3d 05 	sts	0x053D, r25
    62de:	80 93 3c 05 	sts	0x053C, r24
    62e2:	26 c0       	rjmp	.+76     	; 0x6330 <main+0x5e0>
				// Reset state to a more appropriate one
				Transition_state = TRANS_P1_to_P1n_start;
			}
*/
			// Handle timed transition towards P1
			if ((Transition_state == TRANS_P1n_to_P1_start) || (Transition_state == TRANS_P2_to_P1_start))
    62e4:	82 30       	cpi	r24, 0x02	; 2
    62e6:	69 f4       	brne	.+26     	; 0x6302 <main+0x5b2>
			{
				if (transition_counter > Config.Transition_P1)
    62e8:	80 91 3c 05 	lds	r24, 0x053C
    62ec:	90 91 3d 05 	lds	r25, 0x053D
    62f0:	20 91 49 06 	lds	r18, 0x0649
    62f4:	02 2e       	mov	r0, r18
    62f6:	00 0c       	add	r0, r0
    62f8:	33 0b       	sbc	r19, r19
    62fa:	28 17       	cp	r18, r24
    62fc:	39 07       	cpc	r19, r25
    62fe:	24 f0       	brlt	.+8      	; 0x6308 <main+0x5b8>
    6300:	0c c0       	rjmp	.+24     	; 0x631a <main+0x5ca>
				// Reset state to a more appropriate one
				Transition_state = TRANS_P1_to_P1n_start;
			}
*/
			// Handle timed transition towards P1
			if ((Transition_state == TRANS_P1n_to_P1_start) || (Transition_state == TRANS_P2_to_P1_start))
    6302:	86 30       	cpi	r24, 0x06	; 6
    6304:	89 f3       	breq	.-30     	; 0x62e8 <main+0x598>
    6306:	14 c0       	rjmp	.+40     	; 0x6330 <main+0x5e0>
			{
				if (transition_counter > Config.Transition_P1)
				{
					transition_counter--;
    6308:	01 97       	sbiw	r24, 0x01	; 1
					
					// Check end point
					if (transition_counter <= Config.Transition_P1)
    630a:	28 17       	cp	r18, r24
    630c:	39 07       	cpc	r19, r25
    630e:	4c f4       	brge	.+18     	; 0x6322 <main+0x5d2>
			// Handle timed transition towards P1
			if ((Transition_state == TRANS_P1n_to_P1_start) || (Transition_state == TRANS_P2_to_P1_start))
			{
				if (transition_counter > Config.Transition_P1)
				{
					transition_counter--;
    6310:	90 93 3d 05 	sts	0x053D, r25
    6314:	80 93 3c 05 	sts	0x053C, r24
    6318:	0a c0       	rjmp	.+20     	; 0x632e <main+0x5de>
						Transition_state = TRANS_P1;
					}
				}
				else
				{
					transition_counter++;
    631a:	01 96       	adiw	r24, 0x01	; 1
			
					// Check end point
					if (transition_counter >= Config.Transition_P1)
    631c:	82 17       	cp	r24, r18
    631e:	93 07       	cpc	r25, r19
    6320:	bc f3       	brlt	.-18     	; 0x6310 <main+0x5c0>
					{
						transition_counter = Config.Transition_P1;
    6322:	30 93 3d 05 	sts	0x053D, r19
    6326:	20 93 3c 05 	sts	0x053C, r18
						Transition_state = TRANS_P1;
    632a:	10 92 3b 05 	sts	0x053B, r1
					}
				}
				
				transition_direction = P1;
    632e:	1a 82       	std	Y+2, r1	; 0x02
			}

			// Handle timed transition between P1 and P1.n
			if (Transition_state == TRANS_P1_to_P1n_start)
    6330:	80 91 3b 05 	lds	r24, 0x053B
    6334:	81 30       	cpi	r24, 0x01	; 1
    6336:	71 f5       	brne	.+92     	; 0x6394 <main+0x644>
			{
				if (transition_counter > Config.Transition_P1n)
    6338:	80 91 3c 05 	lds	r24, 0x053C
    633c:	90 91 3d 05 	lds	r25, 0x053D
    6340:	20 91 4a 06 	lds	r18, 0x064A
    6344:	02 2e       	mov	r0, r18
    6346:	00 0c       	add	r0, r0
    6348:	33 0b       	sbc	r19, r19
    634a:	28 17       	cp	r18, r24
    634c:	39 07       	cpc	r19, r25
    634e:	ac f4       	brge	.+42     	; 0x637a <main+0x62a>
				{
					transition_counter--;
    6350:	01 97       	sbiw	r24, 0x01	; 1
					
					// Check end point
					if (transition_counter <= Config.Transition_P1n)
    6352:	28 17       	cp	r18, r24
    6354:	39 07       	cpc	r19, r25
    6356:	3c f4       	brge	.+14     	; 0x6366 <main+0x616>
			// Handle timed transition between P1 and P1.n
			if (Transition_state == TRANS_P1_to_P1n_start)
			{
				if (transition_counter > Config.Transition_P1n)
				{
					transition_counter--;
    6358:	90 93 3d 05 	sts	0x053D, r25
    635c:	80 93 3c 05 	sts	0x053C, r24
						transition_counter = Config.Transition_P1n;
						Transition_state = TRANS_P1n;
					}
				}

				transition_direction = P2;
    6360:	31 e0       	ldi	r19, 0x01	; 1
    6362:	3a 83       	std	Y+2, r19	; 0x02
    6364:	17 c0       	rjmp	.+46     	; 0x6394 <main+0x644>
					transition_counter--;
					
					// Check end point
					if (transition_counter <= Config.Transition_P1n)
					{
						transition_counter = Config.Transition_P1n;
    6366:	30 93 3d 05 	sts	0x053D, r19
    636a:	20 93 3c 05 	sts	0x053C, r18
						Transition_state = TRANS_P1n;
    636e:	84 e0       	ldi	r24, 0x04	; 4
    6370:	80 93 3b 05 	sts	0x053B, r24
						transition_counter = Config.Transition_P1n;
						Transition_state = TRANS_P1n;
					}
				}

				transition_direction = P2;
    6374:	51 e0       	ldi	r21, 0x01	; 1
    6376:	5a 83       	std	Y+2, r21	; 0x02
    6378:	0d c0       	rjmp	.+26     	; 0x6394 <main+0x644>
						Transition_state = TRANS_P1n;
					}
				}
				else
				{
					transition_counter++;
    637a:	01 96       	adiw	r24, 0x01	; 1
					
					// Check end point
					if (transition_counter >= Config.Transition_P1n)
    637c:	82 17       	cp	r24, r18
    637e:	93 07       	cpc	r25, r19
    6380:	5c f3       	brlt	.-42     	; 0x6358 <main+0x608>
					{
						transition_counter = Config.Transition_P1n;
    6382:	30 93 3d 05 	sts	0x053D, r19
    6386:	20 93 3c 05 	sts	0x053C, r18
						Transition_state = TRANS_P1n;
    638a:	84 e0       	ldi	r24, 0x04	; 4
    638c:	80 93 3b 05 	sts	0x053B, r24
					}
				}

				transition_direction = P2;
    6390:	21 e0       	ldi	r18, 0x01	; 1
    6392:	2a 83       	std	Y+2, r18	; 0x02
			}			
				
			// Handle timed transition between P2 and P1.n
			if (Transition_state == TRANS_P2_to_P1n_start)
    6394:	80 91 3b 05 	lds	r24, 0x053B
    6398:	88 30       	cpi	r24, 0x08	; 8
    639a:	09 f5       	brne	.+66     	; 0x63de <main+0x68e>
			{
				if (transition_counter > Config.Transition_P1n)
    639c:	80 91 3c 05 	lds	r24, 0x053C
    63a0:	90 91 3d 05 	lds	r25, 0x053D
    63a4:	20 91 4a 06 	lds	r18, 0x064A
    63a8:	02 2e       	mov	r0, r18
    63aa:	00 0c       	add	r0, r0
    63ac:	33 0b       	sbc	r19, r19
    63ae:	28 17       	cp	r18, r24
    63b0:	39 07       	cpc	r19, r25
    63b2:	4c f4       	brge	.+18     	; 0x63c6 <main+0x676>
				{
					transition_counter--;
    63b4:	01 97       	sbiw	r24, 0x01	; 1
					
					// Check end point
					if (transition_counter <= Config.Transition_P1n)
    63b6:	28 17       	cp	r18, r24
    63b8:	39 07       	cpc	r19, r25
    63ba:	4c f4       	brge	.+18     	; 0x63ce <main+0x67e>
			// Handle timed transition between P2 and P1.n
			if (Transition_state == TRANS_P2_to_P1n_start)
			{
				if (transition_counter > Config.Transition_P1n)
				{
					transition_counter--;
    63bc:	90 93 3d 05 	sts	0x053D, r25
    63c0:	80 93 3c 05 	sts	0x053C, r24
    63c4:	0b c0       	rjmp	.+22     	; 0x63dc <main+0x68c>
						Transition_state = TRANS_P1n;
					}
				}
				else
				{
					transition_counter++;
    63c6:	01 96       	adiw	r24, 0x01	; 1
					
					// Check end point
					if (transition_counter >= Config.Transition_P1n)
    63c8:	82 17       	cp	r24, r18
    63ca:	93 07       	cpc	r25, r19
    63cc:	bc f3       	brlt	.-18     	; 0x63bc <main+0x66c>
					{
						transition_counter = Config.Transition_P1n;
    63ce:	30 93 3d 05 	sts	0x053D, r19
    63d2:	20 93 3c 05 	sts	0x053C, r18
						Transition_state = TRANS_P1n;
    63d6:	84 e0       	ldi	r24, 0x04	; 4
    63d8:	80 93 3b 05 	sts	0x053B, r24
					}
				}

				transition_direction = P1;
    63dc:	1a 82       	std	Y+2, r1	; 0x02
			}

			// Handle timed transition towards P2
			if ((Transition_state == TRANS_P1n_to_P2_start) || (Transition_state == TRANS_P1_to_P2_start))
    63de:	80 91 3b 05 	lds	r24, 0x053B
    63e2:	8b 7f       	andi	r24, 0xFB	; 251
    63e4:	83 30       	cpi	r24, 0x03	; 3
    63e6:	71 f5       	brne	.+92     	; 0x6444 <main+0x6f4>
			{
				if (transition_counter > Config.Transition_P2)
    63e8:	80 91 3c 05 	lds	r24, 0x053C
    63ec:	90 91 3d 05 	lds	r25, 0x053D
    63f0:	20 91 4b 06 	lds	r18, 0x064B
    63f4:	02 2e       	mov	r0, r18
    63f6:	00 0c       	add	r0, r0
    63f8:	33 0b       	sbc	r19, r19
    63fa:	28 17       	cp	r18, r24
    63fc:	39 07       	cpc	r19, r25
    63fe:	ac f4       	brge	.+42     	; 0x642a <main+0x6da>
				{
					transition_counter--;
    6400:	01 97       	sbiw	r24, 0x01	; 1
					
					// Check end point
					if (transition_counter <= Config.Transition_P2)
    6402:	28 17       	cp	r18, r24
    6404:	39 07       	cpc	r19, r25
    6406:	3c f4       	brge	.+14     	; 0x6416 <main+0x6c6>
			// Handle timed transition towards P2
			if ((Transition_state == TRANS_P1n_to_P2_start) || (Transition_state == TRANS_P1_to_P2_start))
			{
				if (transition_counter > Config.Transition_P2)
				{
					transition_counter--;
    6408:	90 93 3d 05 	sts	0x053D, r25
    640c:	80 93 3c 05 	sts	0x053C, r24
						transition_counter = Config.Transition_P2;
						Transition_state = TRANS_P2;
					}
				}

				transition_direction = P2;
    6410:	31 e0       	ldi	r19, 0x01	; 1
    6412:	3a 83       	std	Y+2, r19	; 0x02
    6414:	17 c0       	rjmp	.+46     	; 0x6444 <main+0x6f4>
					transition_counter--;
					
					// Check end point
					if (transition_counter <= Config.Transition_P2)
					{
						transition_counter = Config.Transition_P2;
    6416:	30 93 3d 05 	sts	0x053D, r19
    641a:	20 93 3c 05 	sts	0x053C, r18
						Transition_state = TRANS_P2;
    641e:	89 e0       	ldi	r24, 0x09	; 9
    6420:	80 93 3b 05 	sts	0x053B, r24
						transition_counter = Config.Transition_P2;
						Transition_state = TRANS_P2;
					}
				}

				transition_direction = P2;
    6424:	51 e0       	ldi	r21, 0x01	; 1
    6426:	5a 83       	std	Y+2, r21	; 0x02
    6428:	0d c0       	rjmp	.+26     	; 0x6444 <main+0x6f4>
						Transition_state = TRANS_P2;
					}
				}
				else
				{
					transition_counter++;
    642a:	01 96       	adiw	r24, 0x01	; 1
					
					// Check end point
					if (transition_counter >= Config.Transition_P2)
    642c:	82 17       	cp	r24, r18
    642e:	93 07       	cpc	r25, r19
    6430:	5c f3       	brlt	.-42     	; 0x6408 <main+0x6b8>
					{
						transition_counter = Config.Transition_P2;
    6432:	30 93 3d 05 	sts	0x053D, r19
    6436:	20 93 3c 05 	sts	0x053C, r18
						Transition_state = TRANS_P2;
    643a:	89 e0       	ldi	r24, 0x09	; 9
    643c:	80 93 3b 05 	sts	0x053B, r24
					}
				}

				transition_direction = P2;
    6440:	21 e0       	ldi	r18, 0x01	; 1
    6442:	2a 83       	std	Y+2, r18	; 0x02
		// Update state, values and transition_counter every Config.TransitionSpeed if not zero.
		if (((Config.TransitionSpeedOut != 0) && (Transition_timeout > transition_time)) ||
			// Update immediately
			TransitionUpdated)
		{
			Transition_timeout = 0;
    6444:	1f 86       	std	Y+15, r1	; 0x0f
    6446:	1e 86       	std	Y+14, r1	; 0x0e
			}

		} // Update transition_counter

		// Zero the I-terms of the opposite state so as to ensure a bump-less transition
		if ((Transition_state == TRANS_P1) || (transition == Config.Transition_P1))
    6448:	50 91 3b 05 	lds	r21, 0x053B
    644c:	55 23       	and	r21, r21
    644e:	61 f0       	breq	.+24     	; 0x6468 <main+0x718>
    6450:	20 91 38 05 	lds	r18, 0x0538
    6454:	30 91 39 05 	lds	r19, 0x0539
    6458:	80 91 49 06 	lds	r24, 0x0649
    645c:	08 2e       	mov	r0, r24
    645e:	00 0c       	add	r0, r0
    6460:	99 0b       	sbc	r25, r25
    6462:	28 17       	cp	r18, r24
    6464:	39 07       	cpc	r19, r25
    6466:	79 f4       	brne	.+30     	; 0x6486 <main+0x736>
		{
			// Clear P2 I-term while fully in P1
			memset(&IntegralGyro[P2][ROLL], 0, sizeof(int32_t) * NUMBEROFAXIS);
    6468:	8c e0       	ldi	r24, 0x0C	; 12
    646a:	ed e0       	ldi	r30, 0x0D	; 13
    646c:	f9 e0       	ldi	r31, 0x09	; 9
    646e:	11 92       	st	Z+, r1
    6470:	8a 95       	dec	r24
    6472:	e9 f7       	brne	.-6      	; 0x646e <main+0x71e>
			IntegralAccVertf[P2] = 0.0;
    6474:	10 92 29 09 	sts	0x0929, r1
    6478:	10 92 2a 09 	sts	0x092A, r1
    647c:	10 92 2b 09 	sts	0x092B, r1
    6480:	10 92 2c 09 	sts	0x092C, r1
    6484:	18 c0       	rjmp	.+48     	; 0x64b6 <main+0x766>
		}
		else if ((Transition_state == TRANS_P2) || (transition == Config.Transition_P2))
    6486:	59 30       	cpi	r21, 0x09	; 9
    6488:	41 f0       	breq	.+16     	; 0x649a <main+0x74a>
    648a:	80 91 4b 06 	lds	r24, 0x064B
    648e:	08 2e       	mov	r0, r24
    6490:	00 0c       	add	r0, r0
    6492:	99 0b       	sbc	r25, r25
    6494:	28 17       	cp	r18, r24
    6496:	39 07       	cpc	r19, r25
    6498:	71 f4       	brne	.+28     	; 0x64b6 <main+0x766>
		{
			// Clear P1 I-term while fully in P2
			memset(&IntegralGyro[P1][ROLL], 0, sizeof(int32_t) * NUMBEROFAXIS);
    649a:	8c e0       	ldi	r24, 0x0C	; 12
    649c:	e1 e0       	ldi	r30, 0x01	; 1
    649e:	f9 e0       	ldi	r31, 0x09	; 9
    64a0:	11 92       	st	Z+, r1
    64a2:	8a 95       	dec	r24
    64a4:	e9 f7       	brne	.-6      	; 0x64a0 <main+0x750>
			IntegralAccVertf[P1] = 0.0;
    64a6:	10 92 25 09 	sts	0x0925, r1
    64aa:	10 92 26 09 	sts	0x0926, r1
    64ae:	10 92 27 09 	sts	0x0927, r1
    64b2:	10 92 28 09 	sts	0x0928, r1
		
		//**********************************************************************
		//* Reset the IMU when using two orientations and just leaving P1 or P2
		//**********************************************************************
		
		if (Config.P1_Reference != NO_ORIENT)
    64b6:	80 91 b9 06 	lds	r24, 0x06B9
    64ba:	88 23       	and	r24, r24
    64bc:	59 f1       	breq	.+86     	; 0x6514 <main+0x7c4>
		{
			// If Config.FlightSel has changed (switch based) and TransitionSpeed not set to zero, the transition state will change.
			if ((Config.TransitionSpeedOut != 0) && (Transition_state != Old_transition_state) && ((Old_transition_state == TRANS_P1) || (Old_transition_state == TRANS_P2)))
    64be:	44 23       	and	r20, r20
    64c0:	59 f0       	breq	.+22     	; 0x64d8 <main+0x788>
    64c2:	80 91 3a 05 	lds	r24, 0x053A
    64c6:	58 17       	cp	r21, r24
    64c8:	29 f1       	breq	.+74     	; 0x6514 <main+0x7c4>
    64ca:	88 23       	and	r24, r24
    64cc:	11 f0       	breq	.+4      	; 0x64d2 <main+0x782>
    64ce:	89 30       	cpi	r24, 0x09	; 9
    64d0:	09 f5       	brne	.+66     	; 0x6514 <main+0x7c4>
			{
				reset_IMU();
    64d2:	0e 94 3b 40 	call	0x8076	; 0x8076 <reset_IMU>
    64d6:	1e c0       	rjmp	.+60     	; 0x6514 <main+0x7c4>
			
			// If TransitionSpeed = 0, the state is always TRANSITIONING so we can't use the old/new state changes.
			// If user is using a knob or TX-slowed switch, TransitionSpeed will be 0.
			else if (
						(Config.TransitionSpeedOut == 0) &&														// Manual transition mode and...
						(((old_transition == Config.Transition_P1) && (transition > Config.Transition_P1)) ||	// Was in P1 or P2
    64d8:	80 91 36 05 	lds	r24, 0x0536
    64dc:	90 91 37 05 	lds	r25, 0x0537
    64e0:	20 91 49 06 	lds	r18, 0x0649
    64e4:	02 2e       	mov	r0, r18
    64e6:	00 0c       	add	r0, r0
    64e8:	33 0b       	sbc	r19, r19
    64ea:	40 91 38 05 	lds	r20, 0x0538
    64ee:	50 91 39 05 	lds	r21, 0x0539
			}
			
			// If TransitionSpeed = 0, the state is always TRANSITIONING so we can't use the old/new state changes.
			// If user is using a knob or TX-slowed switch, TransitionSpeed will be 0.
			else if (
						(Config.TransitionSpeedOut == 0) &&														// Manual transition mode and...
    64f2:	82 17       	cp	r24, r18
    64f4:	93 07       	cpc	r25, r19
    64f6:	19 f4       	brne	.+6      	; 0x64fe <main+0x7ae>
						(((old_transition == Config.Transition_P1) && (transition > Config.Transition_P1)) ||	// Was in P1 or P2
    64f8:	84 17       	cp	r24, r20
    64fa:	95 07       	cpc	r25, r21
    64fc:	54 f3       	brlt	.-44     	; 0x64d2 <main+0x782>
						((old_transition == Config.Transition_P2) && (transition < Config.Transition_P2)))		// Is not somewhere in-between.
    64fe:	20 91 4b 06 	lds	r18, 0x064B
    6502:	02 2e       	mov	r0, r18
    6504:	00 0c       	add	r0, r0
    6506:	33 0b       	sbc	r19, r19
			
			// If TransitionSpeed = 0, the state is always TRANSITIONING so we can't use the old/new state changes.
			// If user is using a knob or TX-slowed switch, TransitionSpeed will be 0.
			else if (
						(Config.TransitionSpeedOut == 0) &&														// Manual transition mode and...
						(((old_transition == Config.Transition_P1) && (transition > Config.Transition_P1)) ||	// Was in P1 or P2
    6508:	82 17       	cp	r24, r18
    650a:	93 07       	cpc	r25, r19
    650c:	19 f4       	brne	.+6      	; 0x6514 <main+0x7c4>
						((old_transition == Config.Transition_P2) && (transition < Config.Transition_P2)))		// Is not somewhere in-between.
    650e:	48 17       	cp	r20, r24
    6510:	59 07       	cpc	r21, r25
    6512:	fc f2       	brlt	.-66     	; 0x64d2 <main+0x782>
				reset_IMU();
			}
		}
		
		// Save current flight mode
		old_flight = Config.FlightSel;
    6514:	20 91 10 08 	lds	r18, 0x0810
    6518:	29 83       	std	Y+1, r18	; 0x01
		
		// Save old transtion state;
		Old_transition_state = Transition_state;
    651a:	80 91 3b 05 	lds	r24, 0x053B
    651e:	80 93 3a 05 	sts	0x053A, r24
		
		// Save last transition value
		old_transition = transition;
    6522:	80 91 38 05 	lds	r24, 0x0538
    6526:	90 91 39 05 	lds	r25, 0x0539
    652a:	90 93 37 05 	sts	0x0537, r25
    652e:	80 93 36 05 	sts	0x0536, r24
		//************************************************************
		//* Update timers
		//************************************************************

		// Safely get current value of TCNT1
		Save_TCNT1 = TIM16_ReadTCNT1();
    6532:	0e 94 9c 43 	call	0x8738	; 0x8738 <TIM16_ReadTCNT1>
    6536:	9f 8b       	std	Y+23, r25	; 0x17
    6538:	8e 8b       	std	Y+22, r24	; 0x16
		
		// 32-bit timers (Max. 1718s measurement on T1, 220K seconds on T2)

		// Handle TCNT1-based timer correctly - this actually seems necessary...
		// Work out the current RC rate by measuring between incoming RC packets
		if (Save_TCNT1 < RC_Rate_TCNT1)
    653a:	8a 15       	cp	r24, r10
    653c:	9b 05       	cpc	r25, r11
    653e:	b8 f4       	brcc	.+46     	; 0x656e <main+0x81e>
		{
			RC_Rate_Timer += (65536 - RC_Rate_TCNT1 + Save_TCNT1);
    6540:	80 e0       	ldi	r24, 0x00	; 0
    6542:	90 e0       	ldi	r25, 0x00	; 0
    6544:	a1 e0       	ldi	r26, 0x01	; 1
    6546:	b0 e0       	ldi	r27, 0x00	; 0
    6548:	8a 19       	sub	r24, r10
    654a:	9b 09       	sbc	r25, r11
    654c:	a1 09       	sbc	r26, r1
    654e:	b1 09       	sbc	r27, r1
    6550:	4e 89       	ldd	r20, Y+22	; 0x16
    6552:	5f 89       	ldd	r21, Y+23	; 0x17
    6554:	84 0f       	add	r24, r20
    6556:	95 1f       	adc	r25, r21
    6558:	a1 1d       	adc	r26, r1
    655a:	b1 1d       	adc	r27, r1
    655c:	2e 81       	ldd	r18, Y+6	; 0x06
    655e:	3f 81       	ldd	r19, Y+7	; 0x07
    6560:	48 85       	ldd	r20, Y+8	; 0x08
    6562:	59 85       	ldd	r21, Y+9	; 0x09
    6564:	28 0f       	add	r18, r24
    6566:	39 1f       	adc	r19, r25
    6568:	4a 1f       	adc	r20, r26
    656a:	5b 1f       	adc	r21, r27
    656c:	0c c0       	rjmp	.+24     	; 0x6586 <main+0x836>
		}
		else
		{
			RC_Rate_Timer += (Save_TCNT1 - RC_Rate_TCNT1);
    656e:	8e 89       	ldd	r24, Y+22	; 0x16
    6570:	9f 89       	ldd	r25, Y+23	; 0x17
    6572:	8a 19       	sub	r24, r10
    6574:	9b 09       	sbc	r25, r11
    6576:	2e 81       	ldd	r18, Y+6	; 0x06
    6578:	3f 81       	ldd	r19, Y+7	; 0x07
    657a:	48 85       	ldd	r20, Y+8	; 0x08
    657c:	59 85       	ldd	r21, Y+9	; 0x09
    657e:	28 0f       	add	r18, r24
    6580:	39 1f       	adc	r19, r25
    6582:	41 1d       	adc	r20, r1
    6584:	51 1d       	adc	r21, r1
    6586:	2e 83       	std	Y+6, r18	; 0x06
    6588:	3f 83       	std	Y+7, r19	; 0x07
    658a:	48 87       	std	Y+8, r20	; 0x08
    658c:	59 87       	std	Y+9, r21	; 0x09
		}
		
		RC_Rate_TCNT1 = Save_TCNT1;

		// Arm timer for timing stick hold
		Arm_timer += (uint8_t)(TCNT2 - Arm_TCNT2); 
    658e:	80 91 b2 00 	lds	r24, 0x00B2
    6592:	38 a5       	ldd	r19, Y+40	; 0x28
    6594:	83 1b       	sub	r24, r19
    6596:	28 0e       	add	r2, r24
    6598:	31 1c       	adc	r3, r1
    659a:	41 1c       	adc	r4, r1
    659c:	51 1c       	adc	r5, r1
		Arm_TCNT2 = TCNT2;
    659e:	40 91 b2 00 	lds	r20, 0x00B2
    65a2:	48 a7       	std	Y+40, r20	; 0x28

		// 16-bit timers (Max. 3.35s measurement on T2)
		// All TCNT2 timers increment at 19.531 kHz

		// Sets the desired SERVO_RATE by flagging ServoTick when PWM due
		Servo_Rate += (uint8_t)(TCNT2 - ServoRate_TCNT2);
    65a4:	80 91 b2 00 	lds	r24, 0x00B2
    65a8:	59 a1       	ldd	r21, Y+33	; 0x21
    65aa:	85 1b       	sub	r24, r21
    65ac:	2b 85       	ldd	r18, Y+11	; 0x0b
    65ae:	3c 85       	ldd	r19, Y+12	; 0x0c
    65b0:	28 0f       	add	r18, r24
    65b2:	31 1d       	adc	r19, r1
    65b4:	3c 87       	std	Y+12, r19	; 0x0c
    65b6:	2b 87       	std	Y+11, r18	; 0x0b
		FastServo_Rate += (uint8_t)(TCNT2 - ServoRate_TCNT2);
    65b8:	80 91 b2 00 	lds	r24, 0x00B2
    65bc:	85 1b       	sub	r24, r21
    65be:	4c 89       	ldd	r20, Y+20	; 0x14
    65c0:	5d 89       	ldd	r21, Y+21	; 0x15
    65c2:	48 0f       	add	r20, r24
    65c4:	51 1d       	adc	r21, r1
    65c6:	5d 8b       	std	Y+21, r21	; 0x15
    65c8:	4c 8b       	std	Y+20, r20	; 0x14
		ServoRate_TCNT2 = TCNT2;
    65ca:	50 91 b2 00 	lds	r21, 0x00B2
    65ce:	59 a3       	std	Y+33, r21	; 0x21
		
		// Signal RC overdue after RC_OVERDUE time (500ms)
		RC_Timeout += (uint8_t)(TCNT2 - Servo_TCNT2);
    65d0:	20 91 b2 00 	lds	r18, 0x00B2
    65d4:	30 91 2c 05 	lds	r19, 0x052C
    65d8:	80 91 2a 05 	lds	r24, 0x052A
    65dc:	90 91 2b 05 	lds	r25, 0x052B
    65e0:	23 1b       	sub	r18, r19
    65e2:	82 0f       	add	r24, r18
    65e4:	91 1d       	adc	r25, r1
    65e6:	90 93 2b 05 	sts	0x052B, r25
    65ea:	80 93 2a 05 	sts	0x052A, r24
		Servo_TCNT2 = TCNT2;
    65ee:	80 91 b2 00 	lds	r24, 0x00B2
    65f2:	80 93 2c 05 	sts	0x052C, r24
		
		// Update transition timer
		Transition_timeout += (uint8_t)(TCNT2 - Transition_TCNT2);
    65f6:	80 91 b2 00 	lds	r24, 0x00B2
    65fa:	2c a1       	ldd	r18, Y+36	; 0x24
    65fc:	82 1b       	sub	r24, r18
    65fe:	4e 85       	ldd	r20, Y+14	; 0x0e
    6600:	5f 85       	ldd	r21, Y+15	; 0x0f
    6602:	48 0f       	add	r20, r24
    6604:	51 1d       	adc	r21, r1
    6606:	5f 87       	std	Y+15, r21	; 0x0f
    6608:	4e 87       	std	Y+14, r20	; 0x0e
		Transition_TCNT2 = TCNT2;
    660a:	50 91 b2 00 	lds	r21, 0x00B2
    660e:	5c a3       	std	Y+36, r21	; 0x24

		// Update status timeout
		Status_timeout += (uint8_t)(TCNT2 - Status_TCNT2);
    6610:	80 91 b2 00 	lds	r24, 0x00B2
    6614:	2d a1       	ldd	r18, Y+37	; 0x25
    6616:	82 1b       	sub	r24, r18
    6618:	4a 89       	ldd	r20, Y+18	; 0x12
    661a:	5b 89       	ldd	r21, Y+19	; 0x13
    661c:	48 0f       	add	r20, r24
    661e:	51 1d       	adc	r21, r1
    6620:	5b 8b       	std	Y+19, r21	; 0x13
    6622:	4a 8b       	std	Y+18, r20	; 0x12
		Status_TCNT2 = TCNT2;
    6624:	50 91 b2 00 	lds	r21, 0x00B2
    6628:	5d a3       	std	Y+37, r21	; 0x25
		
		// Status refresh timer
		UpdateStatus_timer += (uint8_t)(TCNT2 - Refresh_TCNT2);
    662a:	80 91 b2 00 	lds	r24, 0x00B2
    662e:	2e a1       	ldd	r18, Y+38	; 0x26
    6630:	82 1b       	sub	r24, r18
    6632:	4c 8d       	ldd	r20, Y+28	; 0x1c
    6634:	5d 8d       	ldd	r21, Y+29	; 0x1d
    6636:	48 0f       	add	r20, r24
    6638:	51 1d       	adc	r21, r1
    663a:	5d 8f       	std	Y+29, r21	; 0x1d
    663c:	4c 8f       	std	Y+28, r20	; 0x1c
		Refresh_TCNT2 = TCNT2;
    663e:	50 91 b2 00 	lds	r21, 0x00B2
    6642:	5e a3       	std	Y+38, r21	; 0x26

		// Auto-disarm timer
		Disarm_timer += (uint8_t)(TCNT2 - Disarm_TCNT2);
    6644:	80 91 b2 00 	lds	r24, 0x00B2
    6648:	2f a1       	ldd	r18, Y+39	; 0x27
    664a:	82 1b       	sub	r24, r18
    664c:	68 0e       	add	r6, r24
    664e:	71 1c       	adc	r7, r1
		Disarm_TCNT2 = TCNT2;
    6650:	30 91 b2 00 	lds	r19, 0x00B2
    6654:	3f a3       	std	Y+39, r19	; 0x27

		// Timer for audible alarms
		Ticker_Count += (uint8_t)(TCNT2 - Ticker_TCNT2);
    6656:	80 91 b2 00 	lds	r24, 0x00B2
    665a:	49 a5       	ldd	r20, Y+41	; 0x29
    665c:	84 1b       	sub	r24, r20
    665e:	2f 8d       	ldd	r18, Y+31	; 0x1f
    6660:	38 a1       	ldd	r19, Y+32	; 0x20
    6662:	28 0f       	add	r18, r24
    6664:	31 1d       	adc	r19, r1
    6666:	38 a3       	std	Y+32, r19	; 0x20
    6668:	2f 8f       	std	Y+31, r18	; 0x1f
		Ticker_TCNT2 = TCNT2;
    666a:	30 91 b2 00 	lds	r19, 0x00B2
    666e:	39 a7       	std	Y+41, r19	; 0x29
		//* System ticker - based on TCNT2 (19.531kHz)
		//* 
		//* ((Ticker_Count >> 8) &8) 	= 4.77Hz (Disarm and LVA alarms)
		//************************************************************

		if ((Ticker_Count >> 8) &8) 
    6670:	4f 8d       	ldd	r20, Y+31	; 0x1f
    6672:	58 a1       	ldd	r21, Y+32	; 0x20
		{
			Alarm_flags |= (1 << BUZZER_ON);	// 4.77Hz beep
    6674:	80 91 33 05 	lds	r24, 0x0533
		//* System ticker - based on TCNT2 (19.531kHz)
		//* 
		//* ((Ticker_Count >> 8) &8) 	= 4.77Hz (Disarm and LVA alarms)
		//************************************************************

		if ((Ticker_Count >> 8) &8) 
    6678:	53 ff       	sbrs	r21, 3
    667a:	02 c0       	rjmp	.+4      	; 0x6680 <main+0x930>
		{
			Alarm_flags |= (1 << BUZZER_ON);	// 4.77Hz beep
    667c:	80 61       	ori	r24, 0x10	; 16
    667e:	01 c0       	rjmp	.+2      	; 0x6682 <main+0x932>
		}
		else 
		{
			Alarm_flags &= ~(1 << BUZZER_ON);
    6680:	8f 7e       	andi	r24, 0xEF	; 239
    6682:	80 93 33 05 	sts	0x0533, r24
		//* Manage desired output update rate when limited by
		//* the PWM rate set to "Low"
		//************************************************************

		// Flag update required based on the variable Servo_Match
		if (Servo_Rate > SERVO_RATE_LOW)
    6686:	2b 85       	ldd	r18, Y+11	; 0x0b
    6688:	3c 85       	ldd	r19, Y+12	; 0x0c
    668a:	2d 32       	cpi	r18, 0x2D	; 45
    668c:	31 40       	sbci	r19, 0x01	; 1
    668e:	20 f0       	brcs	.+8      	; 0x6698 <main+0x948>
		{
			ServoTick = true;	// Slow device is ready for output generation
			Servo_Rate = 0;
    6690:	1c 86       	std	Y+12, r1	; 0x0c
    6692:	1b 86       	std	Y+11, r1	; 0x0b
		//************************************************************

		// Flag update required based on the variable Servo_Match
		if (Servo_Rate > SERVO_RATE_LOW)
		{
			ServoTick = true;	// Slow device is ready for output generation
    6694:	51 e0       	ldi	r21, 0x01	; 1
    6696:	5d 83       	std	Y+5, r21	; 0x05
			Servo_Rate = 0;
		}
		
		if (FastServo_Rate > SERVO_RATE_HIGH)
    6698:	2c 89       	ldd	r18, Y+20	; 0x14
    669a:	3d 89       	ldd	r19, Y+21	; 0x15
    669c:	2a 3d       	cpi	r18, 0xDA	; 218
    669e:	31 05       	cpc	r19, r1
    66a0:	20 f0       	brcs	.+8      	; 0x66aa <main+0x95a>
		{
			FastServoTick = true;	// Slow device is ready for output generation
			FastServo_Rate = 0;
    66a2:	1d 8a       	std	Y+21, r1	; 0x15
    66a4:	1c 8a       	std	Y+20, r1	; 0x14
			Servo_Rate = 0;
		}
		
		if (FastServo_Rate > SERVO_RATE_HIGH)
		{
			FastServoTick = true;	// Slow device is ready for output generation
    66a6:	31 e0       	ldi	r19, 0x01	; 1
    66a8:	3b 8f       	std	Y+27, r19	; 0x1b
		//************************************************************
		//* Measure incoming RC rate and flag no signal
		//************************************************************

		// Check to see if the RC input is overdue (50ms)
		if (RC_Timeout > RC_OVERDUE)
    66aa:	80 91 2a 05 	lds	r24, 0x052A
    66ae:	90 91 2b 05 	lds	r25, 0x052B
    66b2:	82 3d       	cpi	r24, 0xD2	; 210
    66b4:	93 40       	sbci	r25, 0x03	; 3
    66b6:	18 f0       	brcs	.+6      	; 0x66be <main+0x96e>
			if ((!Overdue) && (Config.ArmMode == ARMABLE) && ((General_error & (1 << DISARMED)) == 0))
			{
				add_log(NOSIGNAL);
			}
#endif			
			Overdue = true;	// This results in a "No Signal" error
    66b8:	81 e0       	ldi	r24, 0x01	; 1
    66ba:	80 93 2e 05 	sts	0x052E, r24
	
		//************************************************************
		//* Read sensors
		//************************************************************

		ReadGyros();
    66be:	0e 94 2d 39 	call	0x725a	; 0x725a <ReadGyros>
		ReadAcc();
    66c2:	0e 94 28 18 	call	0x3050	; 0x3050 <ReadAcc>
		// These two are concatenated to create a virtual timer that can measure up to 
		// 256 x 26.2ms = 6.7072s at which point the "period" is 16,768,000, a 24-bit number
		//************************************************************
		
		// Safely get current value of TCNT1
		Save_TCNT1 = TIM16_ReadTCNT1();
    66c6:	0e 94 9c 43 	call	0x8738	; 0x8738 <TIM16_ReadTCNT1>
		
		// Reset Timer0 count
		TCNT0 = 0;
    66ca:	16 bc       	out	0x26, r1	; 38

		// Handle TCNT1 overflow correctly - this actually seems necessary...
		// ticker_16 will hold the most recent amount measured by TCNT1
		// Timer1 (16bit) - run @ 2.5MHz (400ns) - max 26.2ms
		if (Save_TCNT1 < LoopStartTCNT1)
    66cc:	20 91 2f 05 	lds	r18, 0x052F
    66d0:	30 91 30 05 	lds	r19, 0x0530
		{
			ticker_16 = (65536 - LoopStartTCNT1) + Save_TCNT1;
		}
		else
		{
			ticker_16 = (Save_TCNT1 - LoopStartTCNT1);
    66d4:	20 91 2f 05 	lds	r18, 0x052F
    66d8:	30 91 30 05 	lds	r19, 0x0530
    66dc:	4c 01       	movw	r8, r24
    66de:	82 1a       	sub	r8, r18
    66e0:	93 0a       	sbc	r9, r19
		}
		
		// Store old TCNT for next measurement
		LoopStartTCNT1 = Save_TCNT1;
    66e2:	90 93 30 05 	sts	0x0530, r25
    66e6:	80 93 2f 05 	sts	0x052F, r24
		
		// Handle both Timer1 under- and over-run cases
		// If TMR0_counter is less than 2, ICNT1 has not overflowed
		if (TMR0_counter < 2)
    66ea:	80 91 e1 08 	lds	r24, 0x08E1
    66ee:	90 91 e2 08 	lds	r25, 0x08E2
    66f2:	a1 2c       	mov	r10, r1
    66f4:	b1 2c       	mov	r11, r1
    66f6:	02 97       	sbiw	r24, 0x02	; 2
    66f8:	88 f0       	brcs	.+34     	; 0x671c <main+0x9cc>
		// So we use chunks of TCNT0, counted during the loop interval
		// to work out the exact period.
		// Timer0 (8bit) - run @ 20MHz / 1024 = 19.531kHz or 51.2us - max 13.1ms
		else
		{
			interval = ticker_16 + (TMR0_counter * 32768);
    66fa:	80 91 e1 08 	lds	r24, 0x08E1
    66fe:	90 91 e2 08 	lds	r25, 0x08E2
    6702:	a0 e0       	ldi	r26, 0x00	; 0
    6704:	b0 e0       	ldi	r27, 0x00	; 0
    6706:	4f e0       	ldi	r20, 0x0F	; 15
    6708:	88 0f       	add	r24, r24
    670a:	99 1f       	adc	r25, r25
    670c:	aa 1f       	adc	r26, r26
    670e:	bb 1f       	adc	r27, r27
    6710:	4a 95       	dec	r20
    6712:	d1 f7       	brne	.-12     	; 0x6708 <main+0x9b8>
    6714:	88 0e       	add	r8, r24
    6716:	99 1e       	adc	r9, r25
    6718:	aa 1e       	adc	r10, r26
    671a:	bb 1e       	adc	r11, r27
		}

		TMR0_counter = 0;
    671c:	10 92 e2 08 	sts	0x08E2, r1
    6720:	10 92 e1 08 	sts	0x08E1, r1
	
		//************************************************************
		//* Update attitude, average acc values each loop
		//************************************************************
				
		imu_update(interval);
    6724:	c5 01       	movw	r24, r10
    6726:	b4 01       	movw	r22, r8
    6728:	0e 94 1b 3e 	call	0x7c36	; 0x7c36 <imu_update>

		//************************************************************
		//* Update I-terms, average gyro values each loop
		//************************************************************

		Sensor_PID(interval);
    672c:	c5 01       	movw	r24, r10
    672e:	b4 01       	movw	r22, r8
    6730:	0e 94 79 62 	call	0xc4f2	; 0xc4f2 <Sensor_PID>

		// Check for throttle reset
		if (MonopolarThrottle < THROTTLEIDLE)  // THROTTLEIDLE = 50
    6734:	80 91 61 09 	lds	r24, 0x0961
    6738:	90 91 62 09 	lds	r25, 0x0962
    673c:	c2 97       	sbiw	r24, 0x32	; 50
    673e:	dc f4       	brge	.+54     	; 0x6776 <main+0xa26>
		{
			// Clear throttle high error
			General_error &= ~(1 << THROTTLE_HIGH);
    6740:	80 91 35 05 	lds	r24, 0x0535
    6744:	8e 7f       	andi	r24, 0xFE	; 254
    6746:	80 93 35 05 	sts	0x0535, r24

			// Reset I-terms at throttle cut. Using memset saves code space
			memset(&IntegralGyro[P1][ROLL], 0, sizeof(int32_t) * 6);
    674a:	88 e1       	ldi	r24, 0x18	; 24
    674c:	e1 e0       	ldi	r30, 0x01	; 1
    674e:	f9 e0       	ldi	r31, 0x09	; 9
    6750:	11 92       	st	Z+, r1
    6752:	8a 95       	dec	r24
    6754:	e9 f7       	brne	.-6      	; 0x6750 <main+0xa00>
			IntegralAccVertf[P1] = 0.0;
    6756:	10 92 25 09 	sts	0x0925, r1
    675a:	10 92 26 09 	sts	0x0926, r1
    675e:	10 92 27 09 	sts	0x0927, r1
    6762:	10 92 28 09 	sts	0x0928, r1
			IntegralAccVertf[P2] = 0.0;
    6766:	10 92 29 09 	sts	0x0929, r1
    676a:	10 92 2a 09 	sts	0x092A, r1
    676e:	10 92 2b 09 	sts	0x092B, r1
    6772:	10 92 2c 09 	sts	0x092C, r1
		//* FrameRate = Serial frame gap as measured by the ISR.
		//* PWM_interval = Copied from Interval, is the current loop rate.
		//* 
		//************************************************************

		if (Interrupted)
    6776:	80 91 ce 08 	lds	r24, 0x08CE
    677a:	88 23       	and	r24, r24
    677c:	09 f4       	brne	.+2      	; 0x6780 <main+0xa30>
    677e:	bc c0       	rjmp	.+376    	; 0x68f8 <main+0xba8>
		{
			// Measure incoming RC rate. Threshold is SLOW_RC_RATE.
			// Use RC_Rate_Timer if not in FAST mode.
			if (Config.Servo_rate < FAST)
    6780:	80 91 43 06 	lds	r24, 0x0643
    6784:	82 30       	cpi	r24, 0x02	; 2
    6786:	64 f4       	brge	.+24     	; 0x67a0 <main+0xa50>
			{
				if (RC_Rate_Timer > SLOW_RC_RATE)
    6788:	21 e0       	ldi	r18, 0x01	; 1
    678a:	2d 87       	std	Y+13, r18	; 0x0d
    678c:	2e 81       	ldd	r18, Y+6	; 0x06
    678e:	3f 81       	ldd	r19, Y+7	; 0x07
    6790:	48 85       	ldd	r20, Y+8	; 0x08
    6792:	59 85       	ldd	r21, Y+9	; 0x09
    6794:	24 3c       	cpi	r18, 0xC4	; 196
    6796:	32 4a       	sbci	r19, 0xA2	; 162
    6798:	41 05       	cpc	r20, r1
    679a:	51 05       	cpc	r21, r1
    679c:	08 f4       	brcc	.+2      	; 0x67a0 <main+0xa50>
    679e:	1d 86       	std	Y+13, r1	; 0x0d
					SlowRC = false;
				}
			}
			
			// Use Framerate in FAST mode, but only when NOT skipping frames
			if ((!RCrateMeasured) && (Config.Servo_rate == FAST))
    67a0:	2b 81       	ldd	r18, Y+3	; 0x03
    67a2:	21 11       	cpse	r18, r1
    67a4:	0e c0       	rjmp	.+28     	; 0x67c2 <main+0xa72>
    67a6:	82 30       	cpi	r24, 0x02	; 2
    67a8:	09 f0       	breq	.+2      	; 0x67ac <main+0xa5c>
    67aa:	d4 c1       	rjmp	.+936    	; 0x6b54 <main+0xe04>
			{
				// In high-speed mode, the RC rate will be unfairly marked as "slow" once measured and interrupt blocking starts.
				// To stop this being a problem, only set SlowRC prior to RCrateMeasured becoming true in this mode
				if (FrameRate > SLOW_RC_RATE)
    67ac:	80 91 fd 08 	lds	r24, 0x08FD
    67b0:	90 91 fe 08 	lds	r25, 0x08FE
    67b4:	31 e0       	ldi	r19, 0x01	; 1
    67b6:	3d 87       	std	Y+13, r19	; 0x0d
    67b8:	84 3c       	cpi	r24, 0xC4	; 196
    67ba:	92 4a       	sbci	r25, 0xA2	; 162
    67bc:	40 f4       	brcc	.+16     	; 0x67ce <main+0xa7e>
    67be:	1d 86       	std	Y+13, r1	; 0x0d
    67c0:	3a c0       	rjmp	.+116    	; 0x6836 <main+0xae6>
			//* Work out the high speed mode RC blocking period when requested. 
			//* Only relevant for high speed mode. The slower the PWM rate the fewer
			//* PWM pulses will fit in the serial data gap.
			//***********************************************************************

			if (RCrateMeasured && (Config.Servo_rate == FAST))
    67c2:	82 30       	cpi	r24, 0x02	; 2
    67c4:	09 f0       	breq	.+2      	; 0x67c8 <main+0xa78>
    67c6:	c6 c1       	rjmp	.+908    	; 0x6b54 <main+0xe04>
				// Slow packets (19.7ms gap). Pulse spans just two input packets.
				// 38.8s available space for S.Bus, 40ms for Satellite and 39.92ms for Xtreme.
				// Each PWM period is about 2.6ms so we need to see how many will fit before the next packet.
				// It is easiest to assume that say 38ms is safe for all formats.

				if (SlowRC)
    67c8:	5d 85       	ldd	r21, Y+13	; 0x0d
    67ca:	55 23       	and	r21, r21
    67cc:	a1 f1       	breq	.+104    	; 0x6836 <main+0xae6>
				{
					PWM_pulses = 4;				// Four pulses will fit if interval faster than 103Hz
				
					if (PWM_interval < 19400)	// 19600 = 7.76ms
    67ce:	88 ec       	ldi	r24, 0xC8	; 200
    67d0:	c8 16       	cp	r12, r24
    67d2:	8b e4       	ldi	r24, 0x4B	; 75
    67d4:	d8 06       	cpc	r13, r24
    67d6:	e1 04       	cpc	r14, r1
    67d8:	f1 04       	cpc	r15, r1
    67da:	08 f0       	brcs	.+2      	; 0x67de <main+0xa8e>
    67dc:	be c1       	rjmp	.+892    	; 0x6b5a <main+0xe0a>
					{
						PWM_pulses += 1;		// One more pulse will fit if interval faster than 129Hz
					}
				
					if (PWM_interval < 16166)	// 16333 = 6.46ms
    67de:	96 e2       	ldi	r25, 0x26	; 38
    67e0:	c9 16       	cp	r12, r25
    67e2:	9f e3       	ldi	r25, 0x3F	; 63
    67e4:	d9 06       	cpc	r13, r25
    67e6:	e1 04       	cpc	r14, r1
    67e8:	f1 04       	cpc	r15, r1
    67ea:	08 f0       	brcs	.+2      	; 0x67ee <main+0xa9e>
    67ec:	b9 c1       	rjmp	.+882    	; 0x6b60 <main+0xe10>
					{
						PWM_pulses += 1;		// One more pulse will fit if interval faster than 154Hz
					}
				
					if (PWM_interval < 13857)	// 14000 = 5.5ms
    67ee:	e1 e2       	ldi	r30, 0x21	; 33
    67f0:	ce 16       	cp	r12, r30
    67f2:	e6 e3       	ldi	r30, 0x36	; 54
    67f4:	de 06       	cpc	r13, r30
    67f6:	e1 04       	cpc	r14, r1
    67f8:	f1 04       	cpc	r15, r1
    67fa:	08 f0       	brcs	.+2      	; 0x67fe <main+0xaae>
    67fc:	b4 c1       	rjmp	.+872    	; 0x6b66 <main+0xe16>
					{
						PWM_pulses += 1;		// One more pulse will fit if interval faster than 180Hz
					}
				
					if (PWM_interval < 12125)	// 12250 = 4.85ms
    67fe:	fd e5       	ldi	r31, 0x5D	; 93
    6800:	cf 16       	cp	r12, r31
    6802:	ff e2       	ldi	r31, 0x2F	; 47
    6804:	df 06       	cpc	r13, r31
    6806:	e1 04       	cpc	r14, r1
    6808:	f1 04       	cpc	r15, r1
    680a:	08 f0       	brcs	.+2      	; 0x680e <main+0xabe>
    680c:	af c1       	rjmp	.+862    	; 0x6b6c <main+0xe1c>
					{
						PWM_pulses += 1;		// One more pulse will fit if interval faster than 206Hz
					}
				
					if (PWM_interval < 10700)	// 10888 = 4.3ms
    680e:	2c ec       	ldi	r18, 0xCC	; 204
    6810:	c2 16       	cp	r12, r18
    6812:	29 e2       	ldi	r18, 0x29	; 41
    6814:	d2 06       	cpc	r13, r18
    6816:	e1 04       	cpc	r14, r1
    6818:	f1 04       	cpc	r15, r1
    681a:	08 f0       	brcs	.+2      	; 0x681e <main+0xace>
    681c:	aa c1       	rjmp	.+852    	; 0x6b72 <main+0xe22>
					{
						PWM_pulses += 1;		// One more pulse will fit if interval faster than 232Hz
					}
				
					if (PWM_interval < 9700)	// 9800 = 3.88ms
    681e:	34 ee       	ldi	r19, 0xE4	; 228
    6820:	c3 16       	cp	r12, r19
    6822:	35 e2       	ldi	r19, 0x25	; 37
    6824:	d3 06       	cpc	r13, r19
    6826:	e1 04       	cpc	r14, r1
    6828:	f1 04       	cpc	r15, r1
    682a:	88 f1       	brcs	.+98     	; 0x688e <main+0xb3e>
    682c:	41 e0       	ldi	r20, 0x01	; 1
    682e:	4b 83       	std	Y+3, r20	; 0x03
						PWM_pulses += 1;		// One more pulse will fit if interval faster than 206Hz
					}
				
					if (PWM_interval < 10700)	// 10888 = 4.3ms
					{
						PWM_pulses += 1;		// One more pulse will fit if interval faster than 232Hz
    6830:	09 e0       	ldi	r16, 0x09	; 9
    6832:	10 e0       	ldi	r17, 0x00	; 0
    6834:	35 c0       	rjmp	.+106    	; 0x68a0 <main+0xb50>

				else
				{
					PWM_pulses = 3;				// Three pulses will fit if interval faster than 103Hz
				
					if (PWM_interval < 18125)	// 18125 = 7.25ms
    6836:	5d ec       	ldi	r21, 0xCD	; 205
    6838:	c5 16       	cp	r12, r21
    683a:	56 e4       	ldi	r21, 0x46	; 70
    683c:	d5 06       	cpc	r13, r21
    683e:	e1 04       	cpc	r14, r1
    6840:	f1 04       	cpc	r15, r1
    6842:	08 f0       	brcs	.+2      	; 0x6846 <main+0xaf6>
    6844:	9b c1       	rjmp	.+822    	; 0x6b7c <main+0xe2c>
					{
						PWM_pulses += 1;		// One more pulse will fit if interval faster than 138Hz
					}
				
					if (PWM_interval < 14500)	// 14500 = 5.8ms
    6846:	84 ea       	ldi	r24, 0xA4	; 164
    6848:	c8 16       	cp	r12, r24
    684a:	88 e3       	ldi	r24, 0x38	; 56
    684c:	d8 06       	cpc	r13, r24
    684e:	e1 04       	cpc	r14, r1
    6850:	f1 04       	cpc	r15, r1
    6852:	08 f0       	brcs	.+2      	; 0x6856 <main+0xb06>
    6854:	96 c1       	rjmp	.+812    	; 0x6b82 <main+0xe32>
					{
						PWM_pulses += 1;		// One more pulse will fit if interval faster than 172Hz
					}
				
					if (PWM_interval < 12083)	// 12083 = 4.83ms
    6856:	93 e3       	ldi	r25, 0x33	; 51
    6858:	c9 16       	cp	r12, r25
    685a:	9f e2       	ldi	r25, 0x2F	; 47
    685c:	d9 06       	cpc	r13, r25
    685e:	e1 04       	cpc	r14, r1
    6860:	f1 04       	cpc	r15, r1
    6862:	08 f0       	brcs	.+2      	; 0x6866 <main+0xb16>
    6864:	91 c1       	rjmp	.+802    	; 0x6b88 <main+0xe38>
					{
						PWM_pulses += 1;		// One more pulse will fit if interval faster than 206Hz
					}
				
					if (PWM_interval < 10357)	// 10357 = 4.14ms
    6866:	e5 e7       	ldi	r30, 0x75	; 117
    6868:	ce 16       	cp	r12, r30
    686a:	e8 e2       	ldi	r30, 0x28	; 40
    686c:	de 06       	cpc	r13, r30
    686e:	e1 04       	cpc	r14, r1
    6870:	f1 04       	cpc	r15, r1
    6872:	08 f0       	brcs	.+2      	; 0x6876 <main+0xb26>
    6874:	8c c1       	rjmp	.+792    	; 0x6b8e <main+0xe3e>
					{
						PWM_pulses += 1;		// One more pulse will fit if interval faster than 241Hz
					}
				
					if (PWM_interval < 9062)	// 9062 = 3.62ms
    6876:	f6 e6       	ldi	r31, 0x66	; 102
    6878:	cf 16       	cp	r12, r31
    687a:	f3 e2       	ldi	r31, 0x23	; 35
    687c:	df 06       	cpc	r13, r31
    687e:	e1 04       	cpc	r14, r1
    6880:	f1 04       	cpc	r15, r1
    6882:	50 f0       	brcs	.+20     	; 0x6898 <main+0xb48>
    6884:	21 e0       	ldi	r18, 0x01	; 1
    6886:	2b 83       	std	Y+3, r18	; 0x03
						PWM_pulses += 1;		// One more pulse will fit if interval faster than 206Hz
					}
				
					if (PWM_interval < 10357)	// 10357 = 4.14ms
					{
						PWM_pulses += 1;		// One more pulse will fit if interval faster than 241Hz
    6888:	07 e0       	ldi	r16, 0x07	; 7
    688a:	10 e0       	ldi	r17, 0x00	; 0
    688c:	09 c0       	rjmp	.+18     	; 0x68a0 <main+0xb50>
    688e:	31 e0       	ldi	r19, 0x01	; 1
    6890:	3b 83       	std	Y+3, r19	; 0x03
						PWM_pulses += 1;		// One more pulse will fit if interval faster than 232Hz
					}
				
					if (PWM_interval < 9700)	// 9800 = 3.88ms
					{
						PWM_pulses += 1;		// One more pulse will fit if interval faster than 257Hz
    6892:	0a e0       	ldi	r16, 0x0A	; 10
    6894:	10 e0       	ldi	r17, 0x00	; 0
    6896:	04 c0       	rjmp	.+8      	; 0x68a0 <main+0xb50>
    6898:	41 e0       	ldi	r20, 0x01	; 1
    689a:	4b 83       	std	Y+3, r20	; 0x03
						PWM_pulses += 1;		// One more pulse will fit if interval faster than 241Hz
					}
				
					if (PWM_interval < 9062)	// 9062 = 3.62ms
					{
						PWM_pulses += 1;		// One more pulse will fit if interval faster than 275Hz
    689c:	08 e0       	ldi	r16, 0x08	; 8
    689e:	10 e0       	ldi	r17, 0x00	; 0
				PWM_pulses = 1;
			}
			
			// Reset rate timer once data received. Reset to current time.
			RC_Rate_Timer = 0;
			Save_TCNT1 = TIM16_ReadTCNT1();
    68a0:	0e 94 9c 43 	call	0x8738	; 0x8738 <TIM16_ReadTCNT1>
    68a4:	9f 8b       	std	Y+23, r25	; 0x17
    68a6:	8e 8b       	std	Y+22, r24	; 0x16
			//* output when serial RC formats are used.
			//************************************************************

			// Block RC interrupts if period has been calculated
			// and PWM mode is FAST.
			if ((Config.Servo_rate == FAST) && RCrateMeasured)
    68a8:	80 91 43 06 	lds	r24, 0x0643
    68ac:	82 30       	cpi	r24, 0x02	; 2
    68ae:	b9 f4       	brne	.+46     	; 0x68de <main+0xb8e>
    68b0:	5b 81       	ldd	r21, Y+3	; 0x03
    68b2:	55 23       	and	r21, r21
    68b4:	a1 f0       	breq	.+40     	; 0x68de <main+0xb8e>
			{
				// If it's time to resample the RC rate, do it now
				// so as not to disturb PWM generation.
				// This will result in a double gap with just one PWM.
				if (ResampleRCRate)
    68b6:	2e 8d       	ldd	r18, Y+30	; 0x1e
    68b8:	21 11       	cpse	r18, r1
    68ba:	16 c0       	rjmp	.+44     	; 0x68e8 <main+0xb98>
				// If not, block the RC interrupts until we run out of pulses
				// We need to cancel the Interrupted flag but have to make a copy until 
				// the status screen state machine has seen it.
				else
				{
					if (Interrupted)
    68bc:	80 91 ce 08 	lds	r24, 0x08CE
    68c0:	88 23       	and	r24, r24
    68c2:	11 f0       	breq	.+4      	; 0x68c8 <main+0xb78>
					{
						Interrupted_Clone = true;	// Hand "Interrupted" baton on to its clone
    68c4:	31 e0       	ldi	r19, 0x01	; 1
    68c6:	3c 83       	std	Y+4, r19	; 0x04
					}
					
					Interrupted = false;		// Cancel pending interrupts
    68c8:	10 92 ce 08 	sts	0x08CE, r1
					Disable_RC_Interrupts();	// Disable RC interrupts
    68cc:	0e 94 5a 47 	call	0x8eb4	; 0x8eb4 <Disable_RC_Interrupts>
			{
				PWM_pulses = 1;
			}
			
			// Reset rate timer once data received. Reset to current time.
			RC_Rate_Timer = 0;
    68d0:	1e 82       	std	Y+6, r1	; 0x06
    68d2:	1f 82       	std	Y+7, r1	; 0x07
    68d4:	18 86       	std	Y+8, r1	; 0x08
    68d6:	19 86       	std	Y+9, r1	; 0x09
						Interrupted_Clone = true;	// Hand "Interrupted" baton on to its clone
					}
					
					Interrupted = false;		// Cancel pending interrupts
					Disable_RC_Interrupts();	// Disable RC interrupts
					RCInterruptsON = false;		// Flag it for the rest of the code
    68d8:	19 8a       	std	Y+17, r1	; 0x11
					PWMBlocked = false;			// Enable PWM generation	
    68da:	18 8a       	std	Y+16, r1	; 0x10
    68dc:	0d c0       	rjmp	.+26     	; 0x68f8 <main+0xba8>
			{
				PWM_pulses = 1;
			}
			
			// Reset rate timer once data received. Reset to current time.
			RC_Rate_Timer = 0;
    68de:	1e 82       	std	Y+6, r1	; 0x06
    68e0:	1f 82       	std	Y+7, r1	; 0x07
    68e2:	18 86       	std	Y+8, r1	; 0x08
    68e4:	19 86       	std	Y+9, r1	; 0x09
    68e6:	08 c0       	rjmp	.+16     	; 0x68f8 <main+0xba8>
    68e8:	1e 82       	std	Y+6, r1	; 0x06
    68ea:	1f 82       	std	Y+7, r1	; 0x07
    68ec:	18 86       	std	Y+8, r1	; 0x08
    68ee:	19 86       	std	Y+9, r1	; 0x09
				// This will result in a double gap with just one PWM.
				if (ResampleRCRate)
				{
					RCrateMeasured = false;		// Force remeasure of RC rate
					PWMBlocked = true;			// Disable Fast-mode PWM generation		
					ResampleRCRate = false;		// Reset resample request
    68f0:	1e 8e       	std	Y+30, r1	; 0x1e
				// so as not to disturb PWM generation.
				// This will result in a double gap with just one PWM.
				if (ResampleRCRate)
				{
					RCrateMeasured = false;		// Force remeasure of RC rate
					PWMBlocked = true;			// Disable Fast-mode PWM generation		
    68f2:	41 e0       	ldi	r20, 0x01	; 1
    68f4:	48 8b       	std	Y+16, r20	; 0x10
				// If it's time to resample the RC rate, do it now
				// so as not to disturb PWM generation.
				// This will result in a double gap with just one PWM.
				if (ResampleRCRate)
				{
					RCrateMeasured = false;		// Force remeasure of RC rate
    68f6:	1b 82       	std	Y+3, r1	; 0x03
		//* based on a very specific set of conditions
		//************************************************************

		// Cases where we are ready to output
		if	(
				(Interrupted) ||											// Run at RC rate
    68f8:	80 91 ce 08 	lds	r24, 0x08CE
		//* Output PWM to ESCs/Servos where required, 
		//* based on a very specific set of conditions
		//************************************************************

		// Cases where we are ready to output
		if	(
    68fc:	81 11       	cpse	r24, r1
    68fe:	0c c0       	rjmp	.+24     	; 0x6918 <main+0xbc8>
				(Interrupted) ||											// Run at RC rate
				((Config.Servo_rate == FAST) && (!PWMBlocked)) ||			// Run at full loop rate if allowed
    6900:	80 91 43 06 	lds	r24, 0x0643
		//* based on a very specific set of conditions
		//************************************************************

		// Cases where we are ready to output
		if	(
				(Interrupted) ||											// Run at RC rate
    6904:	82 30       	cpi	r24, 0x02	; 2
    6906:	19 f4       	brne	.+6      	; 0x690e <main+0xbbe>
				((Config.Servo_rate == FAST) && (!PWMBlocked)) ||			// Run at full loop rate if allowed
    6908:	58 89       	ldd	r21, Y+16	; 0x10
    690a:	55 23       	and	r21, r21
    690c:	29 f0       	breq	.+10     	; 0x6918 <main+0xbc8>
    690e:	90 91 2e 05 	lds	r25, 0x052E
    6912:	99 23       	and	r25, r25
    6914:	09 f4       	brne	.+2      	; 0x6918 <main+0xbc8>
    6916:	d6 c0       	rjmp	.+428    	; 0x6ac4 <main+0xd74>
			//* The execution rates are:
			//* The RC rate unless in FAST mode
			//* High speed (loop rate) in FAST mode
			//******************************************************************

			if (Interrupted)
    6918:	80 91 ce 08 	lds	r24, 0x08CE
    691c:	88 23       	and	r24, r24
    691e:	21 f0       	breq	.+8      	; 0x6928 <main+0xbd8>
			{
				Interrupted_Clone = true;	// Hand "Interrupted" baton on to its clone
				Interrupted = false;		// Reset interrupted flag if that was the cause of entry			
    6920:	10 92 ce 08 	sts	0x08CE, r1
			//* High speed (loop rate) in FAST mode
			//******************************************************************

			if (Interrupted)
			{
				Interrupted_Clone = true;	// Hand "Interrupted" baton on to its clone
    6924:	21 e0       	ldi	r18, 0x01	; 1
    6926:	2c 83       	std	Y+4, r18	; 0x04
			{
				// Mark bits depending on the selected output type
				if	(
						// Frame rates regardless of signal presence/absence
						(
						((Config.Servo_rate == FAST) && (Config.Channel[i].Motor_marker == ASERVO) && ServoTick) ||					// At ServoTick for A.Servo in FAST mode
    6928:	90 91 43 06 	lds	r25, 0x0643
    692c:	68 ec       	ldi	r22, 0xC8	; 200
    692e:	76 e0       	ldi	r23, 0x06	; 6
    6930:	fb 01       	movw	r30, r22
    6932:	20 e0       	ldi	r18, 0x00	; 0
    6934:	30 e0       	ldi	r19, 0x00	; 0
			}

			// Decide which outputs fire this time, depending on their device setting (A.Servo, D.Servo, Motor)
			// D.Servo, Motor are always ready, but A.Servo must be limited to Servo_rate, flagged by ServoTick

			ServoFlag = 0;
    6936:	80 e0       	ldi	r24, 0x00	; 0
				
			// For each output, mark the ones that are to fire this time
			for (i = 0; i < MAX_OUTPUTS; i++)
			{
				// Mark bits depending on the selected output type
				if	(
    6938:	92 30       	cpi	r25, 0x02	; 2
    693a:	49 f4       	brne	.+18     	; 0x694e <main+0xbfe>
						// Frame rates regardless of signal presence/absence
						(
						((Config.Servo_rate == FAST) && (Config.Channel[i].Motor_marker == ASERVO) && ServoTick) ||					// At ServoTick for A.Servo in FAST mode
    693c:	40 81       	ld	r20, Z
    693e:	41 11       	cpse	r20, r1
    6940:	04 c0       	rjmp	.+8      	; 0x694a <main+0xbfa>
    6942:	4d 81       	ldd	r20, Y+5	; 0x05
    6944:	41 11       	cpse	r20, r1
    6946:	2e c0       	rjmp	.+92     	; 0x69a4 <main+0xc54>
    6948:	02 c0       	rjmp	.+4      	; 0x694e <main+0xbfe>
						((Config.Servo_rate == FAST) && (Config.Channel[i].Motor_marker > ASERVO))									// Always for D.Servo and Motor in FAST modes when signal present
    694a:	14 16       	cp	r1, r20
    694c:	5c f1       	brlt	.+86     	; 0x69a4 <main+0xc54>
						
						||
						
						// Frame rates when signal present
						(
						(!Overdue) &&
    694e:	40 91 2e 05 	lds	r20, 0x052E
						(
						((Config.Servo_rate == FAST) && (Config.Channel[i].Motor_marker == ASERVO) && ServoTick) ||					// At ServoTick for A.Servo in FAST mode
						((Config.Servo_rate == FAST) && (Config.Channel[i].Motor_marker > ASERVO))									// Always for D.Servo and Motor in FAST modes when signal present
						)
						
						||
    6952:	41 11       	cpse	r20, r1
    6954:	0f c0       	rjmp	.+30     	; 0x6974 <main+0xc24>
						
						// Frame rates when signal present
						(
						(!Overdue) &&
    6956:	91 30       	cpi	r25, 0x01	; 1
    6958:	29 f4       	brne	.+10     	; 0x6964 <main+0xc14>
						(
						((Config.Servo_rate == SYNC) && (Config.Channel[i].Motor_marker == ASERVO) && (!SlowRC) && ServoTick) ||	// At ServoTick for A.Servo in SYNC with Fast RC
    695a:	40 81       	ld	r20, Z
    695c:	44 23       	and	r20, r20
    695e:	21 f0       	breq	.+8      	; 0x6968 <main+0xc18>
						((Config.Servo_rate == SYNC) && (Config.Channel[i].Motor_marker == ASERVO) && (SlowRC)) ||					// At RC rate for A.Servo with slow RC when signal present
						((Config.Servo_rate == SYNC) && (Config.Channel[i].Motor_marker > ASERVO)) ||								// At RC rate for D.Servo and Motor when signal present
    6960:	0c f5       	brge	.+66     	; 0x69a4 <main+0xc54>
    6962:	08 c0       	rjmp	.+16     	; 0x6974 <main+0xc24>
    6964:	91 11       	cpse	r25, r1
    6966:	06 c0       	rjmp	.+12     	; 0x6974 <main+0xc24>

						((Config.Servo_rate == LOW) && (!SlowRC) && ServoTick) ||													// All outputs at ServoTick in LOW mode with fast RC
    6968:	5d 85       	ldd	r21, Y+13	; 0x0d
    696a:	51 11       	cpse	r21, r1
    696c:	1b c0       	rjmp	.+54     	; 0x69a4 <main+0xc54>
    696e:	4d 81       	ldd	r20, Y+5	; 0x05
    6970:	41 11       	cpse	r20, r1
    6972:	18 c0       	rjmp	.+48     	; 0x69a4 <main+0xc54>
						
						||
						
						// Rates when no signal
						(
						(Overdue) &&
    6974:	40 91 2e 05 	lds	r20, 0x052E
						((Config.Servo_rate == LOW) && (!SlowRC) && ServoTick) ||													// All outputs at ServoTick in LOW mode with fast RC
						((Config.Servo_rate == LOW) && (SlowRC))																	// All outputs at  RC rate in LOW mode with slow RC when signal present
						)
						)
						
						||
    6978:	44 23       	and	r20, r20
    697a:	e1 f0       	breq	.+56     	; 0x69b4 <main+0xc64>
						
						// Rates when no signal
						(
						(Overdue) &&
    697c:	91 30       	cpi	r25, 0x01	; 1
    697e:	69 f4       	brne	.+26     	; 0x699a <main+0xc4a>
						(
						((Config.Servo_rate == SYNC) && (Config.Channel[i].Motor_marker == ASERVO) && ServoTick) ||					// At ServoTick for A.Servo when no signal present
    6980:	40 81       	ld	r20, Z
    6982:	44 23       	and	r20, r20
    6984:	61 f0       	breq	.+24     	; 0x699e <main+0xc4e>
						((Config.Servo_rate == SYNC) && (Config.Channel[i].Motor_marker > ASERVO) && (!SlowRC) && FastServoTick) ||	// At FastServoTick for A.Servo in SYNC with Fast RC
    6986:	b4 f0       	brlt	.+44     	; 0x69b4 <main+0xc64>
    6988:	4d 85       	ldd	r20, Y+13	; 0x0d
    698a:	41 11       	cpse	r20, r1
    698c:	02 c0       	rjmp	.+4      	; 0x6992 <main+0xc42>
    698e:	5b 8d       	ldd	r21, Y+27	; 0x1b
    6990:	07 c0       	rjmp	.+14     	; 0x69a0 <main+0xc50>
						((Config.Servo_rate == SYNC) && (Config.Channel[i].Motor_marker > ASERVO) && (SlowRC) && ServoTick) ||		// At ServoTick for A.Servo in SYNC with slow RC
    6992:	4d 81       	ldd	r20, Y+5	; 0x05
    6994:	41 11       	cpse	r20, r1
    6996:	06 c0       	rjmp	.+12     	; 0x69a4 <main+0xc54>
    6998:	0d c0       	rjmp	.+26     	; 0x69b4 <main+0xc64>
    699a:	91 11       	cpse	r25, r1
    699c:	0b c0       	rjmp	.+22     	; 0x69b4 <main+0xc64>
	
						((Config.Servo_rate == LOW) && ServoTick)																	// All outputs at ServoTick in LOW mode
    699e:	5d 81       	ldd	r21, Y+5	; 0x05
    69a0:	55 23       	and	r21, r21
    69a2:	41 f0       	breq	.+16     	; 0x69b4 <main+0xc64>
						)
						)
					)
				{
					ServoFlag |= (1 << i);
    69a4:	41 e0       	ldi	r20, 0x01	; 1
    69a6:	50 e0       	ldi	r21, 0x00	; 0
    69a8:	02 2e       	mov	r0, r18
    69aa:	01 c0       	rjmp	.+2      	; 0x69ae <main+0xc5e>
    69ac:	44 0f       	add	r20, r20
    69ae:	0a 94       	dec	r0
    69b0:	ea f7       	brpl	.-6      	; 0x69ac <main+0xc5c>
    69b2:	84 2b       	or	r24, r20
    69b4:	2f 5f       	subi	r18, 0xFF	; 255
    69b6:	3f 4f       	sbci	r19, 0xFF	; 255
    69b8:	b2 96       	adiw	r30, 0x22	; 34
			// D.Servo, Motor are always ready, but A.Servo must be limited to Servo_rate, flagged by ServoTick

			ServoFlag = 0;
				
			// For each output, mark the ones that are to fire this time
			for (i = 0; i < MAX_OUTPUTS; i++)
    69ba:	28 30       	cpi	r18, 0x08	; 8
    69bc:	31 05       	cpc	r19, r1
    69be:	09 f0       	breq	.+2      	; 0x69c2 <main+0xc72>
    69c0:	bb cf       	rjmp	.-138    	; 0x6938 <main+0xbe8>
					ServoFlag |= (1 << i);
				}
			}
								
			// Reset slow PWM flag if it was just set. It will automatically set again at around 19531/SERVO_RATE_LOW (Hz)
			if (ServoTick)
    69c2:	2d 81       	ldd	r18, Y+5	; 0x05
    69c4:	22 23       	and	r18, r18
    69c6:	11 f0       	breq	.+4      	; 0x69cc <main+0xc7c>
			{
				ServoTick = false;
				
				// Reset the Servo rate counter here so that it doesn't force an unusually small gap next time
				Servo_Rate = 0;
    69c8:	1c 86       	std	Y+12, r1	; 0x0c
    69ca:	1b 86       	std	Y+11, r1	; 0x0b
			}

			if (FastServoTick)
    69cc:	3b 8d       	ldd	r19, Y+27	; 0x1b
    69ce:	33 23       	and	r19, r19
    69d0:	11 f0       	breq	.+4      	; 0x69d6 <main+0xc86>
			{
				FastServoTick = false;
				
				// Reset the Servo rate counter here so that it doesn't force an unusually small gap next time
				FastServo_Rate = 0;
    69d2:	1d 8a       	std	Y+21, r1	; 0x15
    69d4:	1c 8a       	std	Y+20, r1	; 0x14
			}

			// Block PWM generation after last PWM pulse
			if ((PWM_pulses == 1) && (Config.Servo_rate == FAST))
    69d6:	01 30       	cpi	r16, 0x01	; 1
    69d8:	11 05       	cpc	r17, r1
    69da:	19 f5       	brne	.+70     	; 0x6a22 <main+0xcd2>
    69dc:	92 30       	cpi	r25, 0x02	; 2
    69de:	09 f5       	brne	.+66     	; 0x6a22 <main+0xcd2>
				
				// Refresh PWM_interval with the actual interval when generating PWM
				// if it lies within believable ranges of 120Hz to 300Hz
				// This is located here to make sure the interval measured
				// is during PWM generation cycles
				if (interval < PWM_PERIOD_BEST)		// Faster than 300Hz
    69e0:	4d e8       	ldi	r20, 0x8D	; 141
    69e2:	84 16       	cp	r8, r20
    69e4:	40 e2       	ldi	r20, 0x20	; 32
    69e6:	94 06       	cpc	r9, r20
    69e8:	a1 04       	cpc	r10, r1
    69ea:	b1 04       	cpc	r11, r1
    69ec:	90 f0       	brcs	.+36     	; 0x6a12 <main+0xcc2>
    69ee:	75 01       	movw	r14, r10
    69f0:	64 01       	movw	r12, r8
    69f2:	52 e6       	ldi	r21, 0x62	; 98
    69f4:	85 16       	cp	r8, r21
    69f6:	51 e5       	ldi	r21, 0x51	; 81
    69f8:	95 06       	cpc	r9, r21
    69fa:	a1 04       	cpc	r10, r1
    69fc:	b1 04       	cpc	r11, r1
    69fe:	30 f0       	brcs	.+12     	; 0x6a0c <main+0xcbc>
    6a00:	31 e6       	ldi	r19, 0x61	; 97
    6a02:	c3 2e       	mov	r12, r19
    6a04:	31 e5       	ldi	r19, 0x51	; 81
    6a06:	d3 2e       	mov	r13, r19
    6a08:	e1 2c       	mov	r14, r1
    6a0a:	f1 2c       	mov	r15, r1
			}

			// Block PWM generation after last PWM pulse
			if ((PWM_pulses == 1) && (Config.Servo_rate == FAST))
			{
				PWMBlocked = true;					// Block PWM generation on notification of last call
    6a0c:	21 e0       	ldi	r18, 0x01	; 1
    6a0e:	28 8b       	std	Y+16, r18	; 0x10
    6a10:	08 c0       	rjmp	.+16     	; 0x6a22 <main+0xcd2>
				// if it lies within believable ranges of 120Hz to 300Hz
				// This is located here to make sure the interval measured
				// is during PWM generation cycles
				if (interval < PWM_PERIOD_BEST)		// Faster than 300Hz
				{
					PWM_interval = PWM_PERIOD_BEST;
    6a12:	2d e8       	ldi	r18, 0x8D	; 141
    6a14:	c2 2e       	mov	r12, r18
    6a16:	20 e2       	ldi	r18, 0x20	; 32
    6a18:	d2 2e       	mov	r13, r18
    6a1a:	e1 2c       	mov	r14, r1
    6a1c:	f1 2c       	mov	r15, r1
			}

			// Block PWM generation after last PWM pulse
			if ((PWM_pulses == 1) && (Config.Servo_rate == FAST))
			{
				PWMBlocked = true;					// Block PWM generation on notification of last call
    6a1e:	31 e0       	ldi	r19, 0x01	; 1
    6a20:	38 8b       	std	Y+16, r19	; 0x10
				{
					PWM_interval = interval;		// Actual interval
				}
			}
			
			Calculate_PID();						// Calculate PID values
    6a22:	6d a7       	std	Y+45, r22	; 0x2d
    6a24:	7e a7       	std	Y+46, r23	; 0x2e
    6a26:	8c a7       	std	Y+44, r24	; 0x2c
    6a28:	0e 94 ea 65 	call	0xcbd4	; 0xcbd4 <Calculate_PID>
			ProcessMixer();							// Do all the mixer tasks - can be very slow
    6a2c:	0e 94 6d 5a 	call	0xb4da	; 0xb4da <ProcessMixer>
			UpdateServos();							// Transfer Config.Channel[i].value data to ServoOut[i] and check servo limits. 
    6a30:	0e 94 73 58 	call	0xb0e6	; 0xb0e6 <UpdateServos>
													// Note that values are now at system levels (were centered around zero, now centered around 3750).				

			// Set motors to idle on loss of signal.
			// Output LOW pulse (1.1ms) for each output that is set to MOTOR
			if (Overdue)
    6a34:	90 91 2e 05 	lds	r25, 0x052E
    6a38:	6d a5       	ldd	r22, Y+45	; 0x2d
    6a3a:	7e a5       	ldd	r23, Y+46	; 0x2e
    6a3c:	8c a5       	ldd	r24, Y+44	; 0x2c
    6a3e:	91 11       	cpse	r25, r1
    6a40:	04 c0       	rjmp	.+8      	; 0x6a4a <main+0xcfa>
				}
			}
		
			// Note: This is probably pointless as it's too late to save the PWM just mangled
			// Has overdue become false this loop?
			if (LastLoopOverdue && !Overdue)
    6a42:	4b a1       	ldd	r20, Y+35	; 0x23
    6a44:	41 11       	cpse	r20, r1
    6a46:	18 c0       	rjmp	.+48     	; 0x6a78 <main+0xd28>
    6a48:	20 c0       	rjmp	.+64     	; 0x6a8a <main+0xd3a>
    6a4a:	20 e0       	ldi	r18, 0x00	; 0
    6a4c:	30 e0       	ldi	r19, 0x00	; 0
			if (Overdue)
			{
				for (i = 0; i < MAX_OUTPUTS; i++)
				{
					// Check for motor marker
					if (Config.Channel[i].Motor_marker == MOTOR)
    6a4e:	fb 01       	movw	r30, r22
    6a50:	90 81       	ld	r25, Z
    6a52:	92 30       	cpi	r25, 0x02	; 2
    6a54:	49 f4       	brne	.+18     	; 0x6a68 <main+0xd18>
					{
						// Set output to motor idle pulse width
						ServoOut[i] = MOTOR_0_SYSTEM;
    6a56:	f9 01       	movw	r30, r18
    6a58:	ee 0f       	add	r30, r30
    6a5a:	ff 1f       	adc	r31, r31
    6a5c:	eb 58       	subi	r30, 0x8B	; 139
    6a5e:	f6 4f       	sbci	r31, 0xF6	; 246
    6a60:	4e eb       	ldi	r20, 0xBE	; 190
    6a62:	5a e0       	ldi	r21, 0x0A	; 10
    6a64:	51 83       	std	Z+1, r21	; 0x01
    6a66:	40 83       	st	Z, r20
    6a68:	2f 5f       	subi	r18, 0xFF	; 255
    6a6a:	3f 4f       	sbci	r19, 0xFF	; 255
    6a6c:	6e 5d       	subi	r22, 0xDE	; 222
    6a6e:	7f 4f       	sbci	r23, 0xFF	; 255

			// Set motors to idle on loss of signal.
			// Output LOW pulse (1.1ms) for each output that is set to MOTOR
			if (Overdue)
			{
				for (i = 0; i < MAX_OUTPUTS; i++)
    6a70:	28 30       	cpi	r18, 0x08	; 8
    6a72:	31 05       	cpc	r19, r1
    6a74:	61 f7       	brne	.-40     	; 0x6a4e <main+0xcfe>
    6a76:	e5 cf       	rjmp	.-54     	; 0x6a42 <main+0xcf2>
				}
			}
		
			// Note: This is probably pointless as it's too late to save the PWM just mangled
			// Has overdue become false this loop?
			if (LastLoopOverdue && !Overdue)
    6a78:	90 91 2e 05 	lds	r25, 0x052E
    6a7c:	91 11       	cpse	r25, r1
    6a7e:	05 c0       	rjmp	.+10     	; 0x6a8a <main+0xd3a>
			{
				Flight_flags |= (1 << ARM_blocker);		// Block motors for a little while to remove glitch
    6a80:	90 91 34 05 	lds	r25, 0x0534
    6a84:	92 60       	ori	r25, 0x02	; 2
    6a86:	90 93 34 05 	sts	0x0534, r25
			}
		
			// Save Overdue status of current loop
			LastLoopOverdue = Overdue;
    6a8a:	50 91 2e 05 	lds	r21, 0x052E
    6a8e:	5b a3       	std	Y+35, r21	; 0x23
			
			// If, for some reason, a higher power has banned PWM output for this cycle, 
			// just fake a PWM interval. The PWM interval is currently 2.3ms, and doesn't vary.
			// This keeps the cycle time more constant.
			if (PWMOverride)
    6a90:	2f a5       	ldd	r18, Y+47	; 0x2f
    6a92:	22 23       	and	r18, r18
    6a94:	39 f0       	breq	.+14     	; 0x6aa4 <main+0xd54>
	#else
		//round up by default
		__ticks_dc = (uint32_t)(ceil(fabs(__tmp)));
	#endif

	__builtin_avr_delay_cycles(__ticks_dc);
    6a96:	8b ee       	ldi	r24, 0xEB	; 235
    6a98:	9c e2       	ldi	r25, 0x2C	; 44
    6a9a:	01 97       	sbiw	r24, 0x01	; 1
    6a9c:	f1 f7       	brne	.-4      	; 0x6a9a <main+0xd4a>
    6a9e:	00 c0       	rjmp	.+0      	; 0x6aa0 <main+0xd50>
    6aa0:	00 00       	nop
    6aa2:	02 c0       	rjmp	.+4      	; 0x6aa8 <main+0xd58>
				_delay_us(2300);
			}
			// Otherwise just output PWM normally
			else
			{
				output_servo_ppm(ServoFlag);		// Output servo signal			
    6aa4:	0e 94 d5 69 	call	0xd3aa	; 0xd3aa <output_servo_ppm>
			}


			// Decrement PWM pulse sum
			if ((Config.Servo_rate == FAST) && (PWM_pulses > 0))
    6aa8:	80 91 43 06 	lds	r24, 0x0643
    6aac:	82 30       	cpi	r24, 0x02	; 2
    6aae:	29 f4       	brne	.+10     	; 0x6aba <main+0xd6a>
    6ab0:	10 16       	cp	r1, r16
    6ab2:	11 06       	cpc	r1, r17
    6ab4:	14 f4       	brge	.+4      	; 0x6aba <main+0xd6a>
			{
				PWM_pulses--;
    6ab6:	01 50       	subi	r16, 0x01	; 1
    6ab8:	11 09       	sbc	r17, r1
			}
			
			LoopCount = 0;						// Reset loop counter for averaging sensors
    6aba:	10 92 2d 05 	sts	0x052D, r1
    6abe:	1b 8e       	std	Y+27, r1	; 0x1b
    6ac0:	1d 82       	std	Y+5, r1	; 0x05
    6ac2:	24 c0       	rjmp	.+72     	; 0x6b0c <main+0xdbc>
		}
		
		// In FAST mode and in-between bursts, sync up with the RC so that the time from Interrupt to PWM is constant.
		// This helps tighten up the number of pulses allowable
		else if ((Config.Servo_rate == FAST) && (PWMBlocked == true) && (RCrateMeasured == true) && (RCInterruptsON == true) && (Overdue == false))
    6ac4:	82 30       	cpi	r24, 0x02	; 2
    6ac6:	11 f5       	brne	.+68     	; 0x6b0c <main+0xdbc>
    6ac8:	28 89       	ldd	r18, Y+16	; 0x10
    6aca:	22 23       	and	r18, r18
    6acc:	f9 f0       	breq	.+62     	; 0x6b0c <main+0xdbc>
    6ace:	3b 81       	ldd	r19, Y+3	; 0x03
    6ad0:	33 23       	and	r19, r19
    6ad2:	79 f1       	breq	.+94     	; 0x6b32 <main+0xde2>
    6ad4:	49 89       	ldd	r20, Y+17	; 0x11
    6ad6:	44 23       	and	r20, r20
    6ad8:	09 f4       	brne	.+2      	; 0x6adc <main+0xd8c>
    6ada:	5e c0       	rjmp	.+188    	; 0x6b98 <main+0xe48>
    6adc:	80 91 2e 05 	lds	r24, 0x052E
    6ae0:	81 11       	cpse	r24, r1
    6ae2:	14 c0       	rjmp	.+40     	; 0x6b0c <main+0xdbc>
    6ae4:	80 e0       	ldi	r24, 0x00	; 0
    6ae6:	90 e0       	ldi	r25, 0x00	; 0
		{
			fast_sync_timer = 0;
			
			// Wait here until interrupted or timed out (15ms)
			while ((Interrupted == false) && (fast_sync_timer < FASTSYNCLIMIT))
    6ae8:	20 91 ce 08 	lds	r18, 0x08CE
    6aec:	21 11       	cpse	r18, r1
    6aee:	0e c0       	rjmp	.+28     	; 0x6b0c <main+0xdbc>
    6af0:	85 32       	cpi	r24, 0x25	; 37
    6af2:	31 e0       	ldi	r19, 0x01	; 1
    6af4:	93 07       	cpc	r25, r19
    6af6:	50 f4       	brcc	.+20     	; 0x6b0c <main+0xdbc>
			{
				fast_sync_timer += (uint8_t)(TCNT2 - fast_sync_TCNT2);
    6af8:	20 91 b2 00 	lds	r18, 0x00B2
    6afc:	5a a5       	ldd	r21, Y+42	; 0x2a
    6afe:	25 1b       	sub	r18, r21
    6b00:	82 0f       	add	r24, r18
    6b02:	91 1d       	adc	r25, r1
				fast_sync_TCNT2 = TCNT2;
    6b04:	20 91 b2 00 	lds	r18, 0x00B2
    6b08:	2a a7       	std	Y+42, r18	; 0x2a
    6b0a:	ee cf       	rjmp	.-36     	; 0x6ae8 <main+0xd98>
		//************************************************************
		//* Enable RC interrupts when ready (RC rate measured and RC interrupts OFF)
		//* and just one PWM remains
		//************************************************************

		if ((PWM_pulses < 1) && RCrateMeasured && !RCInterruptsON && (Config.Servo_rate == FAST))
    6b0c:	10 16       	cp	r1, r16
    6b0e:	11 06       	cpc	r1, r17
    6b10:	84 f0       	brlt	.+32     	; 0x6b32 <main+0xde2>
    6b12:	4b 81       	ldd	r20, Y+3	; 0x03
    6b14:	44 23       	and	r20, r20
    6b16:	69 f0       	breq	.+26     	; 0x6b32 <main+0xde2>
    6b18:	59 89       	ldd	r21, Y+17	; 0x11
    6b1a:	51 11       	cpse	r21, r1
    6b1c:	0a c0       	rjmp	.+20     	; 0x6b32 <main+0xde2>
    6b1e:	80 91 43 06 	lds	r24, 0x0643
    6b22:	82 30       	cpi	r24, 0x02	; 2
    6b24:	29 f4       	brne	.+10     	; 0x6b30 <main+0xde0>
		{
			init_int();					// Re-enable interrupts
    6b26:	0e 94 6d 47 	call	0x8eda	; 0x8eda <init_int>
			RCInterruptsON = true;
    6b2a:	21 e0       	ldi	r18, 0x01	; 1
    6b2c:	29 8b       	std	Y+17, r18	; 0x11
    6b2e:	01 c0       	rjmp	.+2      	; 0x6b32 <main+0xde2>
    6b30:	19 8a       	std	Y+17, r1	; 0x11
		//* Carefully update idle screen if error level changed
		//************************************************************	

		// Only update idle when error state has changed.
		// This prevents the continual updating of the LCD disrupting the FC
		if ((old_alarms != General_error) && (Menu_mode == IDLE))
    6b32:	80 91 35 05 	lds	r24, 0x0535
    6b36:	3b a5       	ldd	r19, Y+43	; 0x2b
    6b38:	38 17       	cp	r19, r24
    6b3a:	29 f0       	breq	.+10     	; 0x6b46 <main+0xdf6>
    6b3c:	48 a9       	ldd	r20, Y+48	; 0x30
    6b3e:	41 11       	cpse	r20, r1
    6b40:	02 c0       	rjmp	.+4      	; 0x6b46 <main+0xdf6>
		{
			// Force safe update of idle screen
			Menu_mode = PRESTATUS_TIMEOUT;
    6b42:	57 e0       	ldi	r21, 0x07	; 7
    6b44:	58 ab       	std	Y+48, r21	; 0x30
		}
			
		// Save current alarm state into old_alarms
		old_alarms = General_error;
    6b46:	20 91 35 05 	lds	r18, 0x0535
    6b4a:	2b a7       	std	Y+43, r18	; 0x2b
		
	} // while loop
    6b4c:	9a a0       	ldd	r9, Y+34	; 0x22
    6b4e:	ae 88       	ldd	r10, Y+22	; 0x16
    6b50:	bf 88       	ldd	r11, Y+23	; 0x17
    6b52:	47 c9       	rjmp	.-3442   	; 0x5de2 <main+0x92>
			
			// Rate not measured or re-calibrating or not FAST mode
			// In all these other modes, just output one pulse
			else
			{
				PWM_pulses = 1;
    6b54:	01 e0       	ldi	r16, 0x01	; 1
    6b56:	10 e0       	ldi	r17, 0x00	; 0
    6b58:	a3 ce       	rjmp	.-698    	; 0x68a0 <main+0xb50>
				// Each PWM period is about 2.6ms so we need to see how many will fit before the next packet.
				// It is easiest to assume that say 38ms is safe for all formats.

				if (SlowRC)
				{
					PWM_pulses = 4;				// Four pulses will fit if interval faster than 103Hz
    6b5a:	04 e0       	ldi	r16, 0x04	; 4
    6b5c:	10 e0       	ldi	r17, 0x00	; 0
    6b5e:	0b c0       	rjmp	.+22     	; 0x6b76 <main+0xe26>
				
					if (PWM_interval < 19400)	// 19600 = 7.76ms
					{
						PWM_pulses += 1;		// One more pulse will fit if interval faster than 129Hz
    6b60:	05 e0       	ldi	r16, 0x05	; 5
    6b62:	10 e0       	ldi	r17, 0x00	; 0
    6b64:	08 c0       	rjmp	.+16     	; 0x6b76 <main+0xe26>
					}
				
					if (PWM_interval < 16166)	// 16333 = 6.46ms
					{
						PWM_pulses += 1;		// One more pulse will fit if interval faster than 154Hz
    6b66:	06 e0       	ldi	r16, 0x06	; 6
    6b68:	10 e0       	ldi	r17, 0x00	; 0
    6b6a:	05 c0       	rjmp	.+10     	; 0x6b76 <main+0xe26>
					}
				
					if (PWM_interval < 13857)	// 14000 = 5.5ms
					{
						PWM_pulses += 1;		// One more pulse will fit if interval faster than 180Hz
    6b6c:	07 e0       	ldi	r16, 0x07	; 7
    6b6e:	10 e0       	ldi	r17, 0x00	; 0
    6b70:	02 c0       	rjmp	.+4      	; 0x6b76 <main+0xe26>
					}
				
					if (PWM_interval < 12125)	// 12250 = 4.85ms
					{
						PWM_pulses += 1;		// One more pulse will fit if interval faster than 206Hz
    6b72:	08 e0       	ldi	r16, 0x08	; 8
    6b74:	10 e0       	ldi	r17, 0x00	; 0
						PWM_pulses += 1;		// One more pulse will fit if interval faster than 232Hz
					}
				
					if (PWM_interval < 9700)	// 9800 = 3.88ms
					{
						PWM_pulses += 1;		// One more pulse will fit if interval faster than 257Hz
    6b76:	31 e0       	ldi	r19, 0x01	; 1
    6b78:	3b 83       	std	Y+3, r19	; 0x03
    6b7a:	92 ce       	rjmp	.-732    	; 0x68a0 <main+0xb50>
				// Each PWM period is about 2.6ms so we need to see how many will fit before the next packet.
				// It is easiest to assume that say 29ms is safe for all formats.

				else
				{
					PWM_pulses = 3;				// Three pulses will fit if interval faster than 103Hz
    6b7c:	03 e0       	ldi	r16, 0x03	; 3
    6b7e:	10 e0       	ldi	r17, 0x00	; 0
    6b80:	08 c0       	rjmp	.+16     	; 0x6b92 <main+0xe42>
				
					if (PWM_interval < 18125)	// 18125 = 7.25ms
					{
						PWM_pulses += 1;		// One more pulse will fit if interval faster than 138Hz
    6b82:	04 e0       	ldi	r16, 0x04	; 4
    6b84:	10 e0       	ldi	r17, 0x00	; 0
    6b86:	05 c0       	rjmp	.+10     	; 0x6b92 <main+0xe42>
					}
				
					if (PWM_interval < 14500)	// 14500 = 5.8ms
					{
						PWM_pulses += 1;		// One more pulse will fit if interval faster than 172Hz
    6b88:	05 e0       	ldi	r16, 0x05	; 5
    6b8a:	10 e0       	ldi	r17, 0x00	; 0
    6b8c:	02 c0       	rjmp	.+4      	; 0x6b92 <main+0xe42>
					}
				
					if (PWM_interval < 12083)	// 12083 = 4.83ms
					{
						PWM_pulses += 1;		// One more pulse will fit if interval faster than 206Hz
    6b8e:	06 e0       	ldi	r16, 0x06	; 6
    6b90:	10 e0       	ldi	r17, 0x00	; 0
			Servo_Rate = 0;
		}
		
		if (FastServo_Rate > SERVO_RATE_HIGH)
		{
			FastServoTick = true;	// Slow device is ready for output generation
    6b92:	41 e0       	ldi	r20, 0x01	; 1
    6b94:	4b 83       	std	Y+3, r20	; 0x03
    6b96:	84 ce       	rjmp	.-760    	; 0x68a0 <main+0xb50>
		//************************************************************
		//* Enable RC interrupts when ready (RC rate measured and RC interrupts OFF)
		//* and just one PWM remains
		//************************************************************

		if ((PWM_pulses < 1) && RCrateMeasured && !RCInterruptsON && (Config.Servo_rate == FAST))
    6b98:	10 16       	cp	r1, r16
    6b9a:	11 06       	cpc	r1, r17
    6b9c:	54 f2       	brlt	.-108    	; 0x6b32 <main+0xde2>
    6b9e:	bf cf       	rjmp	.-130    	; 0x6b1e <main+0xdce>

00006ba0 <spiwrite>:
    6ba0:	0f 93       	push	r16
    6ba2:	1f 93       	push	r17
    6ba4:	cf 93       	push	r28
    6ba6:	df 93       	push	r29
    6ba8:	c7 e0       	ldi	r28, 0x07	; 7
    6baa:	d0 e0       	ldi	r29, 0x00	; 0
    6bac:	08 2f       	mov	r16, r24
    6bae:	10 e0       	ldi	r17, 0x00	; 0
    6bb0:	5c 98       	cbi	0x0b, 4	; 11
    6bb2:	c8 01       	movw	r24, r16
    6bb4:	0c 2e       	mov	r0, r28
    6bb6:	02 c0       	rjmp	.+4      	; 0x6bbc <spiwrite+0x1c>
    6bb8:	95 95       	asr	r25
    6bba:	87 95       	ror	r24
    6bbc:	0a 94       	dec	r0
    6bbe:	e2 f7       	brpl	.-8      	; 0x6bb8 <spiwrite+0x18>
    6bc0:	80 ff       	sbrs	r24, 0
    6bc2:	02 c0       	rjmp	.+4      	; 0x6bc8 <spiwrite+0x28>
    6bc4:	59 9a       	sbi	0x0b, 1	; 11
    6bc6:	01 c0       	rjmp	.+2      	; 0x6bca <spiwrite+0x2a>
    6bc8:	59 98       	cbi	0x0b, 1	; 11
    6bca:	5c 9a       	sbi	0x0b, 4	; 11
    6bcc:	0e 94 fe 15 	call	0x2bfc	; 0x2bfc <glcd_delay>
    6bd0:	21 97       	sbiw	r28, 0x01	; 1
    6bd2:	70 f7       	brcc	.-36     	; 0x6bb0 <spiwrite+0x10>
    6bd4:	df 91       	pop	r29
    6bd6:	cf 91       	pop	r28
    6bd8:	1f 91       	pop	r17
    6bda:	0f 91       	pop	r16
    6bdc:	08 95       	ret

00006bde <st7565_command>:
    6bde:	5f 98       	cbi	0x0b, 7	; 11
    6be0:	0c 94 d0 35 	jmp	0x6ba0	; 0x6ba0 <spiwrite>

00006be4 <st7565_data>:
    6be4:	5f 9a       	sbi	0x0b, 7	; 11
    6be6:	0c 94 d0 35 	jmp	0x6ba0	; 0x6ba0 <spiwrite>

00006bea <st7565_set_brightness>:
    6bea:	cf 93       	push	r28
    6bec:	c8 2f       	mov	r28, r24
    6bee:	81 e8       	ldi	r24, 0x81	; 129
    6bf0:	0e 94 ef 35 	call	0x6bde	; 0x6bde <st7565_command>
    6bf4:	8c 2f       	mov	r24, r28
    6bf6:	cf 91       	pop	r28
    6bf8:	0c 94 ef 35 	jmp	0x6bde	; 0x6bde <st7565_command>

00006bfc <st7565_init>:
    6bfc:	cf 93       	push	r28
    6bfe:	df 93       	push	r29
    6c00:	5d 98       	cbi	0x0b, 5	; 11
    6c02:	5e 98       	cbi	0x0b, 6	; 11
	#else
		//round up by default
		__ticks_dc = (uint32_t)(ceil(fabs(__tmp)));
	#endif

	__builtin_avr_delay_cycles(__ticks_dc);
    6c04:	87 e8       	ldi	r24, 0x87	; 135
    6c06:	93 e1       	ldi	r25, 0x13	; 19
    6c08:	01 97       	sbiw	r24, 0x01	; 1
    6c0a:	f1 f7       	brne	.-4      	; 0x6c08 <st7565_init+0xc>
    6c0c:	00 c0       	rjmp	.+0      	; 0x6c0e <st7565_init+0x12>
    6c0e:	00 00       	nop
    6c10:	5e 9a       	sbi	0x0b, 6	; 11
    6c12:	c9 e2       	ldi	r28, 0x29	; 41
    6c14:	d4 e1       	ldi	r29, 0x14	; 20
    6c16:	fe 01       	movw	r30, r28
    6c18:	84 91       	lpm	r24, Z
    6c1a:	0e 94 ef 35 	call	0x6bde	; 0x6bde <st7565_command>
    6c1e:	21 96       	adiw	r28, 0x01	; 1
    6c20:	f4 e1       	ldi	r31, 0x14	; 20
    6c22:	c7 33       	cpi	r28, 0x37	; 55
    6c24:	df 07       	cpc	r29, r31
    6c26:	b9 f7       	brne	.-18     	; 0x6c16 <st7565_init+0x1a>
    6c28:	80 91 ba 06 	lds	r24, 0x06BA
    6c2c:	0e 94 f5 35 	call	0x6bea	; 0x6bea <st7565_set_brightness>
    6c30:	88 ec       	ldi	r24, 0xC8	; 200
    6c32:	df 91       	pop	r29
    6c34:	cf 91       	pop	r28
    6c36:	0c 94 ef 35 	jmp	0x6bde	; 0x6bde <st7565_command>

00006c3a <write_buffer>:
    6c3a:	cf 92       	push	r12
    6c3c:	df 92       	push	r13
    6c3e:	ef 92       	push	r14
    6c40:	ff 92       	push	r15
    6c42:	0f 93       	push	r16
    6c44:	1f 93       	push	r17
    6c46:	cf 93       	push	r28
    6c48:	df 93       	push	r29
    6c4a:	8c 01       	movw	r16, r24
    6c4c:	c7 e3       	ldi	r28, 0x37	; 55
    6c4e:	d4 e1       	ldi	r29, 0x14	; 20
    6c50:	ec 2e       	mov	r14, r28
    6c52:	88 e0       	ldi	r24, 0x08	; 8
    6c54:	e8 0e       	add	r14, r24
    6c56:	fe 01       	movw	r30, r28
    6c58:	84 91       	lpm	r24, Z
    6c5a:	80 6b       	ori	r24, 0xB0	; 176
    6c5c:	0e 94 ef 35 	call	0x6bde	; 0x6bde <st7565_command>
    6c60:	80 e0       	ldi	r24, 0x00	; 0
    6c62:	0e 94 ef 35 	call	0x6bde	; 0x6bde <st7565_command>
    6c66:	80 e1       	ldi	r24, 0x10	; 16
    6c68:	0e 94 ef 35 	call	0x6bde	; 0x6bde <st7565_command>
    6c6c:	80 ee       	ldi	r24, 0xE0	; 224
    6c6e:	0e 94 ef 35 	call	0x6bde	; 0x6bde <st7565_command>
    6c72:	68 01       	movw	r12, r16
    6c74:	f1 2c       	mov	r15, r1
    6c76:	f6 01       	movw	r30, r12
    6c78:	81 91       	ld	r24, Z+
    6c7a:	6f 01       	movw	r12, r30
    6c7c:	0e 94 f2 35 	call	0x6be4	; 0x6be4 <st7565_data>
    6c80:	f3 94       	inc	r15
    6c82:	f0 e8       	ldi	r31, 0x80	; 128
    6c84:	ff 12       	cpse	r15, r31
    6c86:	f7 cf       	rjmp	.-18     	; 0x6c76 <write_buffer+0x3c>
    6c88:	21 96       	adiw	r28, 0x01	; 1
    6c8a:	00 58       	subi	r16, 0x80	; 128
    6c8c:	1f 4f       	sbci	r17, 0xFF	; 255
    6c8e:	ec 12       	cpse	r14, r28
    6c90:	e2 cf       	rjmp	.-60     	; 0x6c56 <write_buffer+0x1c>
    6c92:	df 91       	pop	r29
    6c94:	cf 91       	pop	r28
    6c96:	1f 91       	pop	r17
    6c98:	0f 91       	pop	r16
    6c9a:	ff 90       	pop	r15
    6c9c:	ef 90       	pop	r14
    6c9e:	df 90       	pop	r13
    6ca0:	cf 90       	pop	r12
    6ca2:	08 95       	ret

00006ca4 <clear_buffer>:
    6ca4:	20 e0       	ldi	r18, 0x00	; 0
    6ca6:	34 e0       	ldi	r19, 0x04	; 4
    6ca8:	fc 01       	movw	r30, r24
    6caa:	a9 01       	movw	r20, r18
    6cac:	11 92       	st	Z+, r1
    6cae:	41 50       	subi	r20, 0x01	; 1
    6cb0:	50 40       	sbci	r21, 0x00	; 0
    6cb2:	e1 f7       	brne	.-8      	; 0x6cac <clear_buffer+0x8>
    6cb4:	08 95       	ret

00006cb6 <clear_screen>:
    6cb6:	cf 93       	push	r28
    6cb8:	df 93       	push	r29
    6cba:	d0 e0       	ldi	r29, 0x00	; 0
    6cbc:	8d 2f       	mov	r24, r29
    6cbe:	80 6b       	ori	r24, 0xB0	; 176
    6cc0:	0e 94 ef 35 	call	0x6bde	; 0x6bde <st7565_command>
    6cc4:	c0 e0       	ldi	r28, 0x00	; 0
    6cc6:	8c 2f       	mov	r24, r28
    6cc8:	8f 70       	andi	r24, 0x0F	; 15
    6cca:	0e 94 ef 35 	call	0x6bde	; 0x6bde <st7565_command>
    6cce:	8c 2f       	mov	r24, r28
    6cd0:	82 95       	swap	r24
    6cd2:	8f 70       	andi	r24, 0x0F	; 15
    6cd4:	80 61       	ori	r24, 0x10	; 16
    6cd6:	0e 94 ef 35 	call	0x6bde	; 0x6bde <st7565_command>
    6cda:	80 e0       	ldi	r24, 0x00	; 0
    6cdc:	0e 94 f2 35 	call	0x6be4	; 0x6be4 <st7565_data>
    6ce0:	cf 5f       	subi	r28, 0xFF	; 255
    6ce2:	c0 38       	cpi	r28, 0x80	; 128
    6ce4:	81 f7       	brne	.-32     	; 0x6cc6 <clear_screen+0x10>
    6ce6:	df 5f       	subi	r29, 0xFF	; 255
    6ce8:	d8 30       	cpi	r29, 0x08	; 8
    6cea:	41 f7       	brne	.-48     	; 0x6cbc <clear_screen+0x6>
    6cec:	df 91       	pop	r29
    6cee:	cf 91       	pop	r28
    6cf0:	08 95       	ret

00006cf2 <setpixel>:
    6cf2:	67 fd       	sbrc	r22, 7
    6cf4:	35 c0       	rjmp	.+106    	; 0x6d60 <setpixel+0x6e>
    6cf6:	40 34       	cpi	r20, 0x40	; 64
    6cf8:	98 f5       	brcc	.+102    	; 0x6d60 <setpixel+0x6e>
    6cfa:	34 2f       	mov	r19, r20
    6cfc:	36 95       	lsr	r19
    6cfe:	36 95       	lsr	r19
    6d00:	36 95       	lsr	r19
    6d02:	70 e0       	ldi	r23, 0x00	; 0
    6d04:	50 e0       	ldi	r21, 0x00	; 0
    6d06:	22 23       	and	r18, r18
    6d08:	a9 f0       	breq	.+42     	; 0x6d34 <setpixel+0x42>
    6d0a:	20 e8       	ldi	r18, 0x80	; 128
    6d0c:	32 9f       	mul	r19, r18
    6d0e:	60 0d       	add	r22, r0
    6d10:	71 1d       	adc	r23, r1
    6d12:	11 24       	eor	r1, r1
    6d14:	fc 01       	movw	r30, r24
    6d16:	e6 0f       	add	r30, r22
    6d18:	f7 1f       	adc	r31, r23
    6d1a:	40 95       	com	r20
    6d1c:	50 95       	com	r21
    6d1e:	47 70       	andi	r20, 0x07	; 7
    6d20:	55 27       	eor	r21, r21
    6d22:	81 e0       	ldi	r24, 0x01	; 1
    6d24:	90 e0       	ldi	r25, 0x00	; 0
    6d26:	01 c0       	rjmp	.+2      	; 0x6d2a <setpixel+0x38>
    6d28:	88 0f       	add	r24, r24
    6d2a:	4a 95       	dec	r20
    6d2c:	ea f7       	brpl	.-6      	; 0x6d28 <setpixel+0x36>
    6d2e:	90 81       	ld	r25, Z
    6d30:	89 2b       	or	r24, r25
    6d32:	15 c0       	rjmp	.+42     	; 0x6d5e <setpixel+0x6c>
    6d34:	20 e8       	ldi	r18, 0x80	; 128
    6d36:	32 9f       	mul	r19, r18
    6d38:	60 0d       	add	r22, r0
    6d3a:	71 1d       	adc	r23, r1
    6d3c:	11 24       	eor	r1, r1
    6d3e:	fc 01       	movw	r30, r24
    6d40:	e6 0f       	add	r30, r22
    6d42:	f7 1f       	adc	r31, r23
    6d44:	40 95       	com	r20
    6d46:	50 95       	com	r21
    6d48:	47 70       	andi	r20, 0x07	; 7
    6d4a:	55 27       	eor	r21, r21
    6d4c:	81 e0       	ldi	r24, 0x01	; 1
    6d4e:	90 e0       	ldi	r25, 0x00	; 0
    6d50:	01 c0       	rjmp	.+2      	; 0x6d54 <setpixel+0x62>
    6d52:	88 0f       	add	r24, r24
    6d54:	4a 95       	dec	r20
    6d56:	ea f7       	brpl	.-6      	; 0x6d52 <setpixel+0x60>
    6d58:	80 95       	com	r24
    6d5a:	90 81       	ld	r25, Z
    6d5c:	89 23       	and	r24, r25
    6d5e:	80 83       	st	Z, r24
    6d60:	08 95       	ret

00006d62 <drawline>:
    6d62:	9f 92       	push	r9
    6d64:	af 92       	push	r10
    6d66:	bf 92       	push	r11
    6d68:	cf 92       	push	r12
    6d6a:	df 92       	push	r13
    6d6c:	ef 92       	push	r14
    6d6e:	ff 92       	push	r15
    6d70:	0f 93       	push	r16
    6d72:	1f 93       	push	r17
    6d74:	cf 93       	push	r28
    6d76:	df 93       	push	r29
    6d78:	6c 01       	movw	r12, r24
    6d7a:	c6 2f       	mov	r28, r22
    6d7c:	d4 2f       	mov	r29, r20
    6d7e:	12 2f       	mov	r17, r18
    6d80:	40 2f       	mov	r20, r16
    6d82:	50 e0       	ldi	r21, 0x00	; 0
    6d84:	4d 1b       	sub	r20, r29
    6d86:	51 09       	sbc	r21, r1
    6d88:	57 ff       	sbrs	r21, 7
    6d8a:	03 c0       	rjmp	.+6      	; 0x6d92 <drawline+0x30>
    6d8c:	51 95       	neg	r21
    6d8e:	41 95       	neg	r20
    6d90:	51 09       	sbc	r21, r1
    6d92:	81 2f       	mov	r24, r17
    6d94:	90 e0       	ldi	r25, 0x00	; 0
    6d96:	8c 1b       	sub	r24, r28
    6d98:	91 09       	sbc	r25, r1
    6d9a:	97 ff       	sbrs	r25, 7
    6d9c:	03 c0       	rjmp	.+6      	; 0x6da4 <drawline+0x42>
    6d9e:	91 95       	neg	r25
    6da0:	81 95       	neg	r24
    6da2:	91 09       	sbc	r25, r1
    6da4:	aa 24       	eor	r10, r10
    6da6:	a3 94       	inc	r10
    6da8:	84 17       	cp	r24, r20
    6daa:	95 07       	cpc	r25, r21
    6dac:	14 f0       	brlt	.+4      	; 0x6db2 <drawline+0x50>
    6dae:	a1 2c       	mov	r10, r1
    6db0:	06 c0       	rjmp	.+12     	; 0x6dbe <drawline+0x5c>
    6db2:	81 2f       	mov	r24, r17
    6db4:	10 2f       	mov	r17, r16
    6db6:	08 2f       	mov	r16, r24
    6db8:	8c 2f       	mov	r24, r28
    6dba:	cd 2f       	mov	r28, r29
    6dbc:	d8 2f       	mov	r29, r24
    6dbe:	1c 17       	cp	r17, r28
    6dc0:	30 f4       	brcc	.+12     	; 0x6dce <drawline+0x6c>
    6dc2:	8d 2f       	mov	r24, r29
    6dc4:	d0 2f       	mov	r29, r16
    6dc6:	08 2f       	mov	r16, r24
    6dc8:	8c 2f       	mov	r24, r28
    6dca:	c1 2f       	mov	r28, r17
    6dcc:	18 2f       	mov	r17, r24
    6dce:	91 2e       	mov	r9, r17
    6dd0:	9c 1a       	sub	r9, r28
    6dd2:	40 2f       	mov	r20, r16
    6dd4:	50 e0       	ldi	r21, 0x00	; 0
    6dd6:	4d 1b       	sub	r20, r29
    6dd8:	51 09       	sbc	r21, r1
    6dda:	57 ff       	sbrs	r21, 7
    6ddc:	03 c0       	rjmp	.+6      	; 0x6de4 <drawline+0x82>
    6dde:	51 95       	neg	r21
    6de0:	41 95       	neg	r20
    6de2:	51 09       	sbc	r21, r1
    6de4:	f4 2e       	mov	r15, r20
    6de6:	b9 2c       	mov	r11, r9
    6de8:	b6 94       	lsr	r11
    6dea:	d0 17       	cp	r29, r16
    6dec:	10 f0       	brcs	.+4      	; 0x6df2 <drawline+0x90>
    6dee:	0f ef       	ldi	r16, 0xFF	; 255
    6df0:	10 c0       	rjmp	.+32     	; 0x6e12 <drawline+0xb0>
    6df2:	01 e0       	ldi	r16, 0x01	; 1
    6df4:	0e c0       	rjmp	.+28     	; 0x6e12 <drawline+0xb0>
    6df6:	2e 2d       	mov	r18, r14
    6df8:	aa 20       	and	r10, r10
    6dfa:	71 f0       	breq	.+28     	; 0x6e18 <drawline+0xb6>
    6dfc:	4c 2f       	mov	r20, r28
    6dfe:	6d 2f       	mov	r22, r29
    6e00:	c6 01       	movw	r24, r12
    6e02:	0e 94 79 36 	call	0x6cf2	; 0x6cf2 <setpixel>
    6e06:	bf 18       	sub	r11, r15
    6e08:	b7 fe       	sbrs	r11, 7
    6e0a:	02 c0       	rjmp	.+4      	; 0x6e10 <drawline+0xae>
    6e0c:	d0 0f       	add	r29, r16
    6e0e:	b9 0c       	add	r11, r9
    6e10:	cf 5f       	subi	r28, 0xFF	; 255
    6e12:	c1 17       	cp	r28, r17
    6e14:	80 f3       	brcs	.-32     	; 0x6df6 <drawline+0x94>
    6e16:	03 c0       	rjmp	.+6      	; 0x6e1e <drawline+0xbc>
    6e18:	4d 2f       	mov	r20, r29
    6e1a:	6c 2f       	mov	r22, r28
    6e1c:	f1 cf       	rjmp	.-30     	; 0x6e00 <drawline+0x9e>
    6e1e:	df 91       	pop	r29
    6e20:	cf 91       	pop	r28
    6e22:	1f 91       	pop	r17
    6e24:	0f 91       	pop	r16
    6e26:	ff 90       	pop	r15
    6e28:	ef 90       	pop	r14
    6e2a:	df 90       	pop	r13
    6e2c:	cf 90       	pop	r12
    6e2e:	bf 90       	pop	r11
    6e30:	af 90       	pop	r10
    6e32:	9f 90       	pop	r9
    6e34:	08 95       	ret

00006e36 <fillrect>:
    6e36:	af 92       	push	r10
    6e38:	bf 92       	push	r11
    6e3a:	cf 92       	push	r12
    6e3c:	df 92       	push	r13
    6e3e:	ef 92       	push	r14
    6e40:	ff 92       	push	r15
    6e42:	0f 93       	push	r16
    6e44:	1f 93       	push	r17
    6e46:	cf 93       	push	r28
    6e48:	df 93       	push	r29
    6e4a:	5c 01       	movw	r10, r24
    6e4c:	f4 2e       	mov	r15, r20
    6e4e:	c6 2f       	mov	r28, r22
    6e50:	c2 2e       	mov	r12, r18
    6e52:	d1 2c       	mov	r13, r1
    6e54:	c6 0e       	add	r12, r22
    6e56:	d1 1c       	adc	r13, r1
    6e58:	10 e0       	ldi	r17, 0x00	; 0
    6e5a:	04 0f       	add	r16, r20
    6e5c:	11 1d       	adc	r17, r1
    6e5e:	8c 2f       	mov	r24, r28
    6e60:	90 e0       	ldi	r25, 0x00	; 0
    6e62:	8c 15       	cp	r24, r12
    6e64:	9d 05       	cpc	r25, r13
    6e66:	84 f4       	brge	.+32     	; 0x6e88 <fillrect+0x52>
    6e68:	df 2d       	mov	r29, r15
    6e6a:	8d 2f       	mov	r24, r29
    6e6c:	90 e0       	ldi	r25, 0x00	; 0
    6e6e:	80 17       	cp	r24, r16
    6e70:	91 07       	cpc	r25, r17
    6e72:	44 f4       	brge	.+16     	; 0x6e84 <fillrect+0x4e>
    6e74:	2e 2d       	mov	r18, r14
    6e76:	4d 2f       	mov	r20, r29
    6e78:	6c 2f       	mov	r22, r28
    6e7a:	c5 01       	movw	r24, r10
    6e7c:	0e 94 79 36 	call	0x6cf2	; 0x6cf2 <setpixel>
    6e80:	df 5f       	subi	r29, 0xFF	; 255
    6e82:	f3 cf       	rjmp	.-26     	; 0x6e6a <fillrect+0x34>
    6e84:	cf 5f       	subi	r28, 0xFF	; 255
    6e86:	eb cf       	rjmp	.-42     	; 0x6e5e <fillrect+0x28>
    6e88:	df 91       	pop	r29
    6e8a:	cf 91       	pop	r28
    6e8c:	1f 91       	pop	r17
    6e8e:	0f 91       	pop	r16
    6e90:	ff 90       	pop	r15
    6e92:	ef 90       	pop	r14
    6e94:	df 90       	pop	r13
    6e96:	cf 90       	pop	r12
    6e98:	bf 90       	pop	r11
    6e9a:	af 90       	pop	r10
    6e9c:	08 95       	ret

00006e9e <drawrect>:
    6e9e:	9f 92       	push	r9
    6ea0:	af 92       	push	r10
    6ea2:	bf 92       	push	r11
    6ea4:	cf 92       	push	r12
    6ea6:	df 92       	push	r13
    6ea8:	ef 92       	push	r14
    6eaa:	ff 92       	push	r15
    6eac:	0f 93       	push	r16
    6eae:	1f 93       	push	r17
    6eb0:	cf 93       	push	r28
    6eb2:	df 93       	push	r29
    6eb4:	6c 01       	movw	r12, r24
    6eb6:	f6 2e       	mov	r15, r22
    6eb8:	c4 2f       	mov	r28, r20
    6eba:	d2 2f       	mov	r29, r18
    6ebc:	16 2f       	mov	r17, r22
    6ebe:	a2 2e       	mov	r10, r18
    6ec0:	b1 2c       	mov	r11, r1
    6ec2:	a6 0e       	add	r10, r22
    6ec4:	b1 1c       	adc	r11, r1
    6ec6:	99 24       	eor	r9, r9
    6ec8:	9a 94       	dec	r9
    6eca:	90 0e       	add	r9, r16
    6ecc:	94 0e       	add	r9, r20
    6ece:	81 2f       	mov	r24, r17
    6ed0:	90 e0       	ldi	r25, 0x00	; 0
    6ed2:	8a 15       	cp	r24, r10
    6ed4:	9b 05       	cpc	r25, r11
    6ed6:	74 f4       	brge	.+28     	; 0x6ef4 <drawrect+0x56>
    6ed8:	2e 2d       	mov	r18, r14
    6eda:	4c 2f       	mov	r20, r28
    6edc:	61 2f       	mov	r22, r17
    6ede:	c6 01       	movw	r24, r12
    6ee0:	0e 94 79 36 	call	0x6cf2	; 0x6cf2 <setpixel>
    6ee4:	2e 2d       	mov	r18, r14
    6ee6:	49 2d       	mov	r20, r9
    6ee8:	61 2f       	mov	r22, r17
    6eea:	c6 01       	movw	r24, r12
    6eec:	0e 94 79 36 	call	0x6cf2	; 0x6cf2 <setpixel>
    6ef0:	1f 5f       	subi	r17, 0xFF	; 255
    6ef2:	ed cf       	rjmp	.-38     	; 0x6ece <drawrect+0x30>
    6ef4:	10 e0       	ldi	r17, 0x00	; 0
    6ef6:	0c 0f       	add	r16, r28
    6ef8:	11 1d       	adc	r17, r1
    6efa:	d1 50       	subi	r29, 0x01	; 1
    6efc:	df 0d       	add	r29, r15
    6efe:	8c 2f       	mov	r24, r28
    6f00:	90 e0       	ldi	r25, 0x00	; 0
    6f02:	80 17       	cp	r24, r16
    6f04:	91 07       	cpc	r25, r17
    6f06:	74 f4       	brge	.+28     	; 0x6f24 <drawrect+0x86>
    6f08:	2e 2d       	mov	r18, r14
    6f0a:	4c 2f       	mov	r20, r28
    6f0c:	6f 2d       	mov	r22, r15
    6f0e:	c6 01       	movw	r24, r12
    6f10:	0e 94 79 36 	call	0x6cf2	; 0x6cf2 <setpixel>
    6f14:	2e 2d       	mov	r18, r14
    6f16:	4c 2f       	mov	r20, r28
    6f18:	6d 2f       	mov	r22, r29
    6f1a:	c6 01       	movw	r24, r12
    6f1c:	0e 94 79 36 	call	0x6cf2	; 0x6cf2 <setpixel>
    6f20:	cf 5f       	subi	r28, 0xFF	; 255
    6f22:	ed cf       	rjmp	.-38     	; 0x6efe <drawrect+0x60>
    6f24:	df 91       	pop	r29
    6f26:	cf 91       	pop	r28
    6f28:	1f 91       	pop	r17
    6f2a:	0f 91       	pop	r16
    6f2c:	ff 90       	pop	r15
    6f2e:	ef 90       	pop	r14
    6f30:	df 90       	pop	r13
    6f32:	cf 90       	pop	r12
    6f34:	bf 90       	pop	r11
    6f36:	af 90       	pop	r10
    6f38:	9f 90       	pop	r9
    6f3a:	08 95       	ret

00006f3c <fillcircle>:
    6f3c:	4f 92       	push	r4
    6f3e:	5f 92       	push	r5
    6f40:	6f 92       	push	r6
    6f42:	7f 92       	push	r7
    6f44:	8f 92       	push	r8
    6f46:	9f 92       	push	r9
    6f48:	af 92       	push	r10
    6f4a:	bf 92       	push	r11
    6f4c:	cf 92       	push	r12
    6f4e:	df 92       	push	r13
    6f50:	ef 92       	push	r14
    6f52:	ff 92       	push	r15
    6f54:	0f 93       	push	r16
    6f56:	1f 93       	push	r17
    6f58:	cf 93       	push	r28
    6f5a:	df 93       	push	r29
    6f5c:	6c 01       	movw	r12, r24
    6f5e:	e6 2e       	mov	r14, r22
    6f60:	64 2e       	mov	r6, r20
    6f62:	11 e0       	ldi	r17, 0x01	; 1
    6f64:	12 1b       	sub	r17, r18
    6f66:	f2 2e       	mov	r15, r18
    6f68:	f1 94       	neg	r15
    6f6a:	ff 0c       	add	r15, r15
    6f6c:	c2 2f       	mov	r28, r18
    6f6e:	d4 2f       	mov	r29, r20
    6f70:	d2 1b       	sub	r29, r18
    6f72:	a4 2e       	mov	r10, r20
    6f74:	b1 2c       	mov	r11, r1
    6f76:	45 01       	movw	r8, r10
    6f78:	82 0e       	add	r8, r18
    6f7a:	91 1c       	adc	r9, r1
    6f7c:	8d 2f       	mov	r24, r29
    6f7e:	0d 2e       	mov	r0, r29
    6f80:	00 0c       	add	r0, r0
    6f82:	99 0b       	sbc	r25, r25
    6f84:	88 16       	cp	r8, r24
    6f86:	99 06       	cpc	r9, r25
    6f88:	44 f0       	brlt	.+16     	; 0x6f9a <fillcircle+0x5e>
    6f8a:	20 2f       	mov	r18, r16
    6f8c:	4d 2f       	mov	r20, r29
    6f8e:	6e 2d       	mov	r22, r14
    6f90:	c6 01       	movw	r24, r12
    6f92:	0e 94 79 36 	call	0x6cf2	; 0x6cf2 <setpixel>
    6f96:	df 5f       	subi	r29, 0xFF	; 255
    6f98:	f1 cf       	rjmp	.-30     	; 0x6f7c <fillcircle+0x40>
    6f9a:	d0 e0       	ldi	r29, 0x00	; 0
    6f9c:	dc 17       	cp	r29, r28
    6f9e:	0c f0       	brlt	.+2      	; 0x6fa2 <fillcircle+0x66>
    6fa0:	4c c0       	rjmp	.+152    	; 0x703a <fillcircle+0xfe>
    6fa2:	17 fd       	sbrc	r17, 7
    6fa4:	04 c0       	rjmp	.+8      	; 0x6fae <fillcircle+0x72>
    6fa6:	c1 50       	subi	r28, 0x01	; 1
    6fa8:	f3 94       	inc	r15
    6faa:	f3 94       	inc	r15
    6fac:	1f 0d       	add	r17, r15
    6fae:	df 5f       	subi	r29, 0xFF	; 255
    6fb0:	8d 2f       	mov	r24, r29
    6fb2:	88 0f       	add	r24, r24
    6fb4:	8f 5f       	subi	r24, 0xFF	; 255
    6fb6:	18 0f       	add	r17, r24
    6fb8:	76 2c       	mov	r7, r6
    6fba:	7c 1a       	sub	r7, r28
    6fbc:	45 01       	movw	r8, r10
    6fbe:	8c 0e       	add	r8, r28
    6fc0:	91 1c       	adc	r9, r1
    6fc2:	c7 fd       	sbrc	r28, 7
    6fc4:	9a 94       	dec	r9
    6fc6:	5d 2e       	mov	r5, r29
    6fc8:	5e 0c       	add	r5, r14
    6fca:	4e 2c       	mov	r4, r14
    6fcc:	4d 1a       	sub	r4, r29
    6fce:	87 2d       	mov	r24, r7
    6fd0:	07 2c       	mov	r0, r7
    6fd2:	00 0c       	add	r0, r0
    6fd4:	99 0b       	sbc	r25, r25
    6fd6:	88 16       	cp	r8, r24
    6fd8:	99 06       	cpc	r9, r25
    6fda:	74 f0       	brlt	.+28     	; 0x6ff8 <fillcircle+0xbc>
    6fdc:	20 2f       	mov	r18, r16
    6fde:	47 2d       	mov	r20, r7
    6fe0:	65 2d       	mov	r22, r5
    6fe2:	c6 01       	movw	r24, r12
    6fe4:	0e 94 79 36 	call	0x6cf2	; 0x6cf2 <setpixel>
    6fe8:	20 2f       	mov	r18, r16
    6fea:	47 2d       	mov	r20, r7
    6fec:	64 2d       	mov	r22, r4
    6fee:	c6 01       	movw	r24, r12
    6ff0:	0e 94 79 36 	call	0x6cf2	; 0x6cf2 <setpixel>
    6ff4:	73 94       	inc	r7
    6ff6:	eb cf       	rjmp	.-42     	; 0x6fce <fillcircle+0x92>
    6ff8:	76 2c       	mov	r7, r6
    6ffa:	7d 1a       	sub	r7, r29
    6ffc:	45 01       	movw	r8, r10
    6ffe:	8d 0e       	add	r8, r29
    7000:	91 1c       	adc	r9, r1
    7002:	d7 fd       	sbrc	r29, 7
    7004:	9a 94       	dec	r9
    7006:	5c 2e       	mov	r5, r28
    7008:	5e 0c       	add	r5, r14
    700a:	4e 2c       	mov	r4, r14
    700c:	4c 1a       	sub	r4, r28
    700e:	87 2d       	mov	r24, r7
    7010:	07 2c       	mov	r0, r7
    7012:	00 0c       	add	r0, r0
    7014:	99 0b       	sbc	r25, r25
    7016:	88 16       	cp	r8, r24
    7018:	99 06       	cpc	r9, r25
    701a:	0c f4       	brge	.+2      	; 0x701e <fillcircle+0xe2>
    701c:	bf cf       	rjmp	.-130    	; 0x6f9c <fillcircle+0x60>
    701e:	20 2f       	mov	r18, r16
    7020:	47 2d       	mov	r20, r7
    7022:	65 2d       	mov	r22, r5
    7024:	c6 01       	movw	r24, r12
    7026:	0e 94 79 36 	call	0x6cf2	; 0x6cf2 <setpixel>
    702a:	20 2f       	mov	r18, r16
    702c:	47 2d       	mov	r20, r7
    702e:	64 2d       	mov	r22, r4
    7030:	c6 01       	movw	r24, r12
    7032:	0e 94 79 36 	call	0x6cf2	; 0x6cf2 <setpixel>
    7036:	73 94       	inc	r7
    7038:	ea cf       	rjmp	.-44     	; 0x700e <fillcircle+0xd2>
    703a:	df 91       	pop	r29
    703c:	cf 91       	pop	r28
    703e:	1f 91       	pop	r17
    7040:	0f 91       	pop	r16
    7042:	ff 90       	pop	r15
    7044:	ef 90       	pop	r14
    7046:	df 90       	pop	r13
    7048:	cf 90       	pop	r12
    704a:	bf 90       	pop	r11
    704c:	af 90       	pop	r10
    704e:	9f 90       	pop	r9
    7050:	8f 90       	pop	r8
    7052:	7f 90       	pop	r7
    7054:	6f 90       	pop	r6
    7056:	5f 90       	pop	r5
    7058:	4f 90       	pop	r4
    705a:	08 95       	ret

0000705c <LCD_Display_Text>:
//************************************************************

// Print Menuitem from Program memory at a particular location
void LCD_Display_Text (uint16_t menuitem, const unsigned char* font,uint16_t x, uint16_t y)
{
	gLCDprint_Menu_P((char*)pgm_read_word(&text_menu[menuitem]), font, x, y);
    705c:	88 0f       	add	r24, r24
    705e:	99 1f       	adc	r25, r25
    7060:	fc 01       	movw	r30, r24
    7062:	e1 5c       	subi	r30, 0xC1	; 193
    7064:	fb 4e       	sbci	r31, 0xEB	; 235
    7066:	85 91       	lpm	r24, Z+
    7068:	94 91       	lpm	r25, Z
}

// Print a string from RAM at a particular location in a particular font
void gLCDprint_Menu_P(const char *s, const unsigned char* font,uint16_t x, uint16_t y)
{
	pgm_mugui_lcd_puts((const unsigned char*)s, font, x, y);
    706a:	0c 94 16 62 	jmp	0xc42c	; 0xc42c <pgm_mugui_lcd_puts>

0000706e <gLCDprint_Menu_P>:
    706e:	0c 94 16 62 	jmp	0xc42c	; 0xc42c <pgm_mugui_lcd_puts>

00007072 <idle_screen>:
}

// Pop up the Idle screen
void idle_screen(void)
{
	clear_buffer(buffer);
    7072:	80 e0       	ldi	r24, 0x00	; 0
    7074:	91 e0       	ldi	r25, 0x01	; 1
    7076:	0e 94 52 36 	call	0x6ca4	; 0x6ca4 <clear_buffer>

	// Change Status screen depending on arm mode
	LCD_Display_Text(121,(const unsigned char*)Verdana14,41,3); 	// "Press"
    707a:	23 e0       	ldi	r18, 0x03	; 3
    707c:	30 e0       	ldi	r19, 0x00	; 0
    707e:	49 e2       	ldi	r20, 0x29	; 41
    7080:	50 e0       	ldi	r21, 0x00	; 0
    7082:	6f ec       	ldi	r22, 0xCF	; 207
    7084:	74 e0       	ldi	r23, 0x04	; 4
    7086:	89 e7       	ldi	r24, 0x79	; 121
    7088:	90 e0       	ldi	r25, 0x00	; 0
    708a:	0e 94 2e 38 	call	0x705c	; 0x705c <LCD_Display_Text>
	LCD_Display_Text(122,(const unsigned char*)Verdana14,24,23);	// "for status."
    708e:	27 e1       	ldi	r18, 0x17	; 23
    7090:	30 e0       	ldi	r19, 0x00	; 0
    7092:	48 e1       	ldi	r20, 0x18	; 24
    7094:	50 e0       	ldi	r21, 0x00	; 0
    7096:	6f ec       	ldi	r22, 0xCF	; 207
    7098:	74 e0       	ldi	r23, 0x04	; 4
    709a:	8a e7       	ldi	r24, 0x7A	; 122
    709c:	90 e0       	ldi	r25, 0x00	; 0
    709e:	0e 94 2e 38 	call	0x705c	; 0x705c <LCD_Display_Text>

	// Display most important error
	if (General_error & (1 << LVA_ALARM))							// Low voltage
    70a2:	80 91 35 05 	lds	r24, 0x0535
    70a6:	83 ff       	sbrs	r24, 3
    70a8:	13 c0       	rjmp	.+38     	; 0x70d0 <idle_screen+0x5e>
	{
		LCD_Display_Text(134,(const unsigned char*)Verdana14,12,43);// "Battery"
    70aa:	2b e2       	ldi	r18, 0x2B	; 43
    70ac:	30 e0       	ldi	r19, 0x00	; 0
    70ae:	4c e0       	ldi	r20, 0x0C	; 12
    70b0:	50 e0       	ldi	r21, 0x00	; 0
    70b2:	6f ec       	ldi	r22, 0xCF	; 207
    70b4:	74 e0       	ldi	r23, 0x04	; 4
    70b6:	86 e8       	ldi	r24, 0x86	; 134
    70b8:	90 e0       	ldi	r25, 0x00	; 0
    70ba:	0e 94 2e 38 	call	0x705c	; 0x705c <LCD_Display_Text>
		LCD_Display_Text(118,(const unsigned char*)Verdana14,80,43); // "Low"
    70be:	2b e2       	ldi	r18, 0x2B	; 43
    70c0:	30 e0       	ldi	r19, 0x00	; 0
    70c2:	40 e5       	ldi	r20, 0x50	; 80
    70c4:	50 e0       	ldi	r21, 0x00	; 0
    70c6:	6f ec       	ldi	r22, 0xCF	; 207
    70c8:	74 e0       	ldi	r23, 0x04	; 4
    70ca:	86 e7       	ldi	r24, 0x76	; 118
    70cc:	90 e0       	ldi	r25, 0x00	; 0
    70ce:	41 c0       	rjmp	.+130    	; 0x7152 <idle_screen+0xe0>
	}
	
	else if (General_error & (1 << NO_SIGNAL))						// No signal
    70d0:	80 91 35 05 	lds	r24, 0x0535
    70d4:	81 ff       	sbrs	r24, 1
    70d6:	13 c0       	rjmp	.+38     	; 0x70fe <idle_screen+0x8c>
	{
		LCD_Display_Text(75,(const unsigned char*)Verdana14,28,43); // "No"
    70d8:	2b e2       	ldi	r18, 0x2B	; 43
    70da:	30 e0       	ldi	r19, 0x00	; 0
    70dc:	4c e1       	ldi	r20, 0x1C	; 28
    70de:	50 e0       	ldi	r21, 0x00	; 0
    70e0:	6f ec       	ldi	r22, 0xCF	; 207
    70e2:	74 e0       	ldi	r23, 0x04	; 4
    70e4:	8b e4       	ldi	r24, 0x4B	; 75
    70e6:	90 e0       	ldi	r25, 0x00	; 0
    70e8:	0e 94 2e 38 	call	0x705c	; 0x705c <LCD_Display_Text>
		LCD_Display_Text(76,(const unsigned char*)Verdana14,54,43); // "Signal"
    70ec:	2b e2       	ldi	r18, 0x2B	; 43
    70ee:	30 e0       	ldi	r19, 0x00	; 0
    70f0:	46 e3       	ldi	r20, 0x36	; 54
    70f2:	50 e0       	ldi	r21, 0x00	; 0
    70f4:	6f ec       	ldi	r22, 0xCF	; 207
    70f6:	74 e0       	ldi	r23, 0x04	; 4
    70f8:	8c e4       	ldi	r24, 0x4C	; 76
    70fa:	90 e0       	ldi	r25, 0x00	; 0
    70fc:	2a c0       	rjmp	.+84     	; 0x7152 <idle_screen+0xe0>
	}
	
	else if (General_error & (1 << THROTTLE_HIGH))					// Throttle high
    70fe:	80 91 35 05 	lds	r24, 0x0535
    7102:	80 ff       	sbrs	r24, 0
    7104:	13 c0       	rjmp	.+38     	; 0x712c <idle_screen+0xba>
	{
		LCD_Display_Text(105,(const unsigned char*)Verdana14,10,43);// "Throttle"
    7106:	2b e2       	ldi	r18, 0x2B	; 43
    7108:	30 e0       	ldi	r19, 0x00	; 0
    710a:	4a e0       	ldi	r20, 0x0A	; 10
    710c:	50 e0       	ldi	r21, 0x00	; 0
    710e:	6f ec       	ldi	r22, 0xCF	; 207
    7110:	74 e0       	ldi	r23, 0x04	; 4
    7112:	89 e6       	ldi	r24, 0x69	; 105
    7114:	90 e0       	ldi	r25, 0x00	; 0
    7116:	0e 94 2e 38 	call	0x705c	; 0x705c <LCD_Display_Text>
		LCD_Display_Text(55,(const unsigned char*)Verdana14,81,43);	// "High"
    711a:	2b e2       	ldi	r18, 0x2B	; 43
    711c:	30 e0       	ldi	r19, 0x00	; 0
    711e:	41 e5       	ldi	r20, 0x51	; 81
    7120:	50 e0       	ldi	r21, 0x00	; 0
    7122:	6f ec       	ldi	r22, 0xCF	; 207
    7124:	74 e0       	ldi	r23, 0x04	; 4
    7126:	87 e3       	ldi	r24, 0x37	; 55
    7128:	90 e0       	ldi	r25, 0x00	; 0
    712a:	13 c0       	rjmp	.+38     	; 0x7152 <idle_screen+0xe0>
	}
	
	else if (General_error & (1 << DISARMED))						// Disarmed
    712c:	80 91 35 05 	lds	r24, 0x0535
	{
		LCD_Display_Text(139,(const unsigned char*)Verdana14,20,43);// "(Disarmed)"
    7130:	2b e2       	ldi	r18, 0x2B	; 43
    7132:	30 e0       	ldi	r19, 0x00	; 0
	{
		LCD_Display_Text(105,(const unsigned char*)Verdana14,10,43);// "Throttle"
		LCD_Display_Text(55,(const unsigned char*)Verdana14,81,43);	// "High"
	}
	
	else if (General_error & (1 << DISARMED))						// Disarmed
    7134:	82 ff       	sbrs	r24, 2
    7136:	07 c0       	rjmp	.+14     	; 0x7146 <idle_screen+0xd4>
	{
		LCD_Display_Text(139,(const unsigned char*)Verdana14,20,43);// "(Disarmed)"
    7138:	44 e1       	ldi	r20, 0x14	; 20
    713a:	50 e0       	ldi	r21, 0x00	; 0
    713c:	6f ec       	ldi	r22, 0xCF	; 207
    713e:	74 e0       	ldi	r23, 0x04	; 4
    7140:	8b e8       	ldi	r24, 0x8B	; 139
    7142:	90 e0       	ldi	r25, 0x00	; 0
    7144:	06 c0       	rjmp	.+12     	; 0x7152 <idle_screen+0xe0>
	}
	else
	{
		LCD_Display_Text(138,(const unsigned char*)Verdana14,28,43);// "(Armed)"
    7146:	4c e1       	ldi	r20, 0x1C	; 28
    7148:	50 e0       	ldi	r21, 0x00	; 0
    714a:	6f ec       	ldi	r22, 0xCF	; 207
    714c:	74 e0       	ldi	r23, 0x04	; 4
    714e:	8a e8       	ldi	r24, 0x8A	; 138
    7150:	90 e0       	ldi	r25, 0x00	; 0
    7152:	0e 94 2e 38 	call	0x705c	; 0x705c <LCD_Display_Text>
	}

	write_buffer(buffer);
    7156:	80 e0       	ldi	r24, 0x00	; 0
    7158:	91 e0       	ldi	r25, 0x01	; 1
    715a:	0c 94 1d 36 	jmp	0x6c3a	; 0x6c3a <write_buffer>

0000715e <get_raw_gyros>:
    715e:	0f 93       	push	r16
    7160:	1f 93       	push	r17
    7162:	cf 93       	push	r28
    7164:	df 93       	push	r29
    7166:	00 d0       	rcall	.+0      	; 0x7168 <get_raw_gyros+0xa>
    7168:	00 d0       	rcall	.+0      	; 0x716a <get_raw_gyros+0xc>
    716a:	00 d0       	rcall	.+0      	; 0x716c <get_raw_gyros+0xe>
    716c:	cd b7       	in	r28, 0x3d	; 61
    716e:	de b7       	in	r29, 0x3e	; 62
    7170:	26 e0       	ldi	r18, 0x06	; 6
    7172:	ae 01       	movw	r20, r28
    7174:	4f 5f       	subi	r20, 0xFF	; 255
    7176:	5f 4f       	sbci	r21, 0xFF	; 255
    7178:	63 e4       	ldi	r22, 0x43	; 67
    717a:	80 ed       	ldi	r24, 0xD0	; 208
    717c:	0e 94 bb 3b 	call	0x7776	; 0x7776 <readI2CbyteArray>
    7180:	89 81       	ldd	r24, Y+1	; 0x01
    7182:	90 e0       	ldi	r25, 0x00	; 0
    7184:	98 2f       	mov	r25, r24
    7186:	88 27       	eor	r24, r24
    7188:	2a 81       	ldd	r18, Y+2	; 0x02
    718a:	82 0f       	add	r24, r18
    718c:	91 1d       	adc	r25, r1
    718e:	90 93 c4 05 	sts	0x05C4, r25
    7192:	80 93 c3 05 	sts	0x05C3, r24
    7196:	8b 81       	ldd	r24, Y+3	; 0x03
    7198:	90 e0       	ldi	r25, 0x00	; 0
    719a:	98 2f       	mov	r25, r24
    719c:	88 27       	eor	r24, r24
    719e:	2c 81       	ldd	r18, Y+4	; 0x04
    71a0:	82 0f       	add	r24, r18
    71a2:	91 1d       	adc	r25, r1
    71a4:	90 93 c2 05 	sts	0x05C2, r25
    71a8:	80 93 c1 05 	sts	0x05C1, r24
    71ac:	8d 81       	ldd	r24, Y+5	; 0x05
    71ae:	90 e0       	ldi	r25, 0x00	; 0
    71b0:	98 2f       	mov	r25, r24
    71b2:	88 27       	eor	r24, r24
    71b4:	2e 81       	ldd	r18, Y+6	; 0x06
    71b6:	82 0f       	add	r24, r18
    71b8:	91 1d       	adc	r25, r1
    71ba:	90 93 c6 05 	sts	0x05C6, r25
    71be:	80 93 c5 05 	sts	0x05C5, r24
    71c2:	40 91 43 08 	lds	r20, 0x0843
    71c6:	20 91 b8 06 	lds	r18, 0x06B8
    71ca:	67 ec       	ldi	r22, 0xC7	; 199
    71cc:	75 e0       	ldi	r23, 0x05	; 5
    71ce:	a3 ed       	ldi	r26, 0xD3	; 211
    71d0:	b5 e0       	ldi	r27, 0x05	; 5
    71d2:	83 e0       	ldi	r24, 0x03	; 3
    71d4:	48 02       	muls	r20, r24
    71d6:	a0 01       	movw	r20, r0
    71d8:	11 24       	eor	r1, r1
    71da:	e3 e0       	ldi	r30, 0x03	; 3
    71dc:	2e 02       	muls	r18, r30
    71de:	90 01       	movw	r18, r0
    71e0:	11 24       	eor	r1, r1
    71e2:	80 e0       	ldi	r24, 0x00	; 0
    71e4:	90 e0       	ldi	r25, 0x00	; 0
    71e6:	fc 01       	movw	r30, r24
    71e8:	e4 0f       	add	r30, r20
    71ea:	f5 1f       	adc	r31, r21
    71ec:	ee 5b       	subi	r30, 0xBE	; 190
    71ee:	fb 4d       	sbci	r31, 0xDB	; 219
    71f0:	e4 91       	lpm	r30, Z
    71f2:	ee 0f       	add	r30, r30
    71f4:	ff 0b       	sbc	r31, r31
    71f6:	ef 53       	subi	r30, 0x3F	; 63
    71f8:	fa 4f       	sbci	r31, 0xFA	; 250
    71fa:	01 90       	ld	r0, Z+
    71fc:	f0 81       	ld	r31, Z
    71fe:	e0 2d       	mov	r30, r0
    7200:	8f 01       	movw	r16, r30
    7202:	e4 e0       	ldi	r30, 0x04	; 4
    7204:	15 95       	asr	r17
    7206:	07 95       	ror	r16
    7208:	ea 95       	dec	r30
    720a:	e1 f7       	brne	.-8      	; 0x7204 <get_raw_gyros+0xa6>
    720c:	fb 01       	movw	r30, r22
    720e:	01 93       	st	Z+, r16
    7210:	11 93       	st	Z+, r17
    7212:	bf 01       	movw	r22, r30
    7214:	fc 01       	movw	r30, r24
    7216:	e2 0f       	add	r30, r18
    7218:	f3 1f       	adc	r31, r19
    721a:	ee 5b       	subi	r30, 0xBE	; 190
    721c:	fb 4d       	sbci	r31, 0xDB	; 219
    721e:	e4 91       	lpm	r30, Z
    7220:	ee 0f       	add	r30, r30
    7222:	ff 0b       	sbc	r31, r31
    7224:	ef 53       	subi	r30, 0x3F	; 63
    7226:	fa 4f       	sbci	r31, 0xFA	; 250
    7228:	01 90       	ld	r0, Z+
    722a:	f0 81       	ld	r31, Z
    722c:	e0 2d       	mov	r30, r0
    722e:	14 e0       	ldi	r17, 0x04	; 4
    7230:	f5 95       	asr	r31
    7232:	e7 95       	ror	r30
    7234:	1a 95       	dec	r17
    7236:	e1 f7       	brne	.-8      	; 0x7230 <get_raw_gyros+0xd2>
    7238:	ed 93       	st	X+, r30
    723a:	fd 93       	st	X+, r31
    723c:	01 96       	adiw	r24, 0x01	; 1
    723e:	83 30       	cpi	r24, 0x03	; 3
    7240:	91 05       	cpc	r25, r1
    7242:	89 f6       	brne	.-94     	; 0x71e6 <get_raw_gyros+0x88>
    7244:	26 96       	adiw	r28, 0x06	; 6
    7246:	0f b6       	in	r0, 0x3f	; 63
    7248:	f8 94       	cli
    724a:	de bf       	out	0x3e, r29	; 62
    724c:	0f be       	out	0x3f, r0	; 63
    724e:	cd bf       	out	0x3d, r28	; 61
    7250:	df 91       	pop	r29
    7252:	cf 91       	pop	r28
    7254:	1f 91       	pop	r17
    7256:	0f 91       	pop	r16
    7258:	08 95       	ret

0000725a <ReadGyros>:
    725a:	2f 92       	push	r2
    725c:	3f 92       	push	r3
    725e:	4f 92       	push	r4
    7260:	5f 92       	push	r5
    7262:	6f 92       	push	r6
    7264:	7f 92       	push	r7
    7266:	8f 92       	push	r8
    7268:	9f 92       	push	r9
    726a:	af 92       	push	r10
    726c:	bf 92       	push	r11
    726e:	cf 92       	push	r12
    7270:	df 92       	push	r13
    7272:	ef 92       	push	r14
    7274:	ff 92       	push	r15
    7276:	0f 93       	push	r16
    7278:	1f 93       	push	r17
    727a:	cf 93       	push	r28
    727c:	df 93       	push	r29
    727e:	0e 94 af 38 	call	0x715e	; 0x715e <get_raw_gyros>
    7282:	6b eb       	ldi	r22, 0xBB	; 187
    7284:	e6 2e       	mov	r14, r22
    7286:	65 e0       	ldi	r22, 0x05	; 5
    7288:	f6 2e       	mov	r15, r22
    728a:	73 ed       	ldi	r23, 0xD3	; 211
    728c:	a7 2e       	mov	r10, r23
    728e:	75 e0       	ldi	r23, 0x05	; 5
    7290:	b7 2e       	mov	r11, r23
    7292:	0d e3       	ldi	r16, 0x3D	; 61
    7294:	18 e0       	ldi	r17, 0x08	; 8
    7296:	ed ec       	ldi	r30, 0xCD	; 205
    7298:	ce 2e       	mov	r12, r30
    729a:	e5 e0       	ldi	r30, 0x05	; 5
    729c:	de 2e       	mov	r13, r30
    729e:	f7 ec       	ldi	r31, 0xC7	; 199
    72a0:	6f 2e       	mov	r6, r31
    72a2:	f5 e0       	ldi	r31, 0x05	; 5
    72a4:	7f 2e       	mov	r7, r31
    72a6:	c0 e0       	ldi	r28, 0x00	; 0
    72a8:	d0 e0       	ldi	r29, 0x00	; 0
    72aa:	a4 e6       	ldi	r26, 0x64	; 100
    72ac:	2a 2e       	mov	r2, r26
    72ae:	31 2c       	mov	r3, r1
    72b0:	80 91 b9 06 	lds	r24, 0x06B9
    72b4:	90 91 b8 06 	lds	r25, 0x06B8
    72b8:	88 23       	and	r24, r24
    72ba:	09 f4       	brne	.+2      	; 0x72be <ReadGyros+0x64>
    72bc:	55 c0       	rjmp	.+170    	; 0x7368 <ReadGyros+0x10e>
    72be:	e0 91 43 08 	lds	r30, 0x0843
    72c2:	0e 2e       	mov	r0, r30
    72c4:	00 0c       	add	r0, r0
    72c6:	ff 0b       	sbc	r31, r31
    72c8:	af 01       	movw	r20, r30
    72ca:	44 0f       	add	r20, r20
    72cc:	55 1f       	adc	r21, r21
    72ce:	e4 0f       	add	r30, r20
    72d0:	f5 1f       	adc	r31, r21
    72d2:	ec 0f       	add	r30, r28
    72d4:	fd 1f       	adc	r31, r29
    72d6:	e6 50       	subi	r30, 0x06	; 6
    72d8:	fc 4d       	sbci	r31, 0xDC	; 220
    72da:	44 91       	lpm	r20, Z
    72dc:	e9 2f       	mov	r30, r25
    72de:	99 0f       	add	r25, r25
    72e0:	ff 0b       	sbc	r31, r31
    72e2:	cf 01       	movw	r24, r30
    72e4:	88 0f       	add	r24, r24
    72e6:	99 1f       	adc	r25, r25
    72e8:	e8 0f       	add	r30, r24
    72ea:	f9 1f       	adc	r31, r25
    72ec:	ec 0f       	add	r30, r28
    72ee:	fd 1f       	adc	r31, r29
    72f0:	e6 50       	subi	r30, 0x06	; 6
    72f2:	fc 4d       	sbci	r31, 0xDC	; 220
    72f4:	24 91       	lpm	r18, Z
    72f6:	f5 01       	movw	r30, r10
    72f8:	60 81       	ld	r22, Z
    72fa:	71 81       	ldd	r23, Z+1	; 0x01
    72fc:	f8 01       	movw	r30, r16
    72fe:	80 81       	ld	r24, Z
    7300:	91 81       	ldd	r25, Z+1	; 0x01
    7302:	68 1b       	sub	r22, r24
    7304:	79 0b       	sbc	r23, r25
    7306:	26 03       	mulsu	r18, r22
    7308:	20 01       	movw	r4, r0
    730a:	27 9f       	mul	r18, r23
    730c:	50 0c       	add	r5, r0
    730e:	11 24       	eor	r1, r1
    7310:	80 91 38 05 	lds	r24, 0x0538
    7314:	90 91 39 05 	lds	r25, 0x0539
    7318:	b1 01       	movw	r22, r2
    731a:	68 1b       	sub	r22, r24
    731c:	79 0b       	sbc	r23, r25
    731e:	f3 01       	movw	r30, r6
    7320:	20 81       	ld	r18, Z
    7322:	31 81       	ldd	r19, Z+1	; 0x01
    7324:	f8 01       	movw	r30, r16
    7326:	f5 97       	sbiw	r30, 0x35	; 53
    7328:	80 81       	ld	r24, Z
    732a:	91 81       	ldd	r25, Z+1	; 0x01
    732c:	28 1b       	sub	r18, r24
    732e:	39 0b       	sbc	r19, r25
    7330:	42 03       	mulsu	r20, r18
    7332:	c0 01       	movw	r24, r0
    7334:	43 9f       	mul	r20, r19
    7336:	90 0d       	add	r25, r0
    7338:	11 24       	eor	r1, r1
    733a:	0e 94 92 58 	call	0xb124	; 0xb124 <scale32>
    733e:	4c 01       	movw	r8, r24
    7340:	60 91 38 05 	lds	r22, 0x0538
    7344:	70 91 39 05 	lds	r23, 0x0539
    7348:	c2 01       	movw	r24, r4
    734a:	0e 94 92 58 	call	0xb124	; 0xb124 <scale32>
    734e:	88 0d       	add	r24, r8
    7350:	99 1d       	adc	r25, r9
    7352:	f6 01       	movw	r30, r12
    7354:	91 83       	std	Z+1, r25	; 0x01
    7356:	80 83       	st	Z, r24
    7358:	20 91 b9 06 	lds	r18, 0x06B9
    735c:	f7 01       	movw	r30, r14
    735e:	22 30       	cpi	r18, 0x02	; 2
    7360:	09 f5       	brne	.+66     	; 0x73a4 <ReadGyros+0x14a>
    7362:	51 82       	std	Z+1, r5	; 0x01
    7364:	40 82       	st	Z, r4
    7366:	20 c0       	rjmp	.+64     	; 0x73a8 <ReadGyros+0x14e>
    7368:	e9 2f       	mov	r30, r25
    736a:	99 0f       	add	r25, r25
    736c:	ff 0b       	sbc	r31, r31
    736e:	cf 01       	movw	r24, r30
    7370:	88 0f       	add	r24, r24
    7372:	99 1f       	adc	r25, r25
    7374:	e8 0f       	add	r30, r24
    7376:	f9 1f       	adc	r31, r25
    7378:	ec 0f       	add	r30, r28
    737a:	fd 1f       	adc	r31, r29
    737c:	e6 50       	subi	r30, 0x06	; 6
    737e:	fc 4d       	sbci	r31, 0xDC	; 220
    7380:	24 91       	lpm	r18, Z
    7382:	f5 01       	movw	r30, r10
    7384:	40 81       	ld	r20, Z
    7386:	51 81       	ldd	r21, Z+1	; 0x01
    7388:	f8 01       	movw	r30, r16
    738a:	80 81       	ld	r24, Z
    738c:	91 81       	ldd	r25, Z+1	; 0x01
    738e:	48 1b       	sub	r20, r24
    7390:	59 0b       	sbc	r21, r25
    7392:	24 03       	mulsu	r18, r20
    7394:	c0 01       	movw	r24, r0
    7396:	25 9f       	mul	r18, r21
    7398:	90 0d       	add	r25, r0
    739a:	11 24       	eor	r1, r1
    739c:	f7 01       	movw	r30, r14
    739e:	91 83       	std	Z+1, r25	; 0x01
    73a0:	80 83       	st	Z, r24
    73a2:	f6 01       	movw	r30, r12
    73a4:	91 83       	std	Z+1, r25	; 0x01
    73a6:	80 83       	st	Z, r24
    73a8:	21 96       	adiw	r28, 0x01	; 1
    73aa:	f2 e0       	ldi	r31, 0x02	; 2
    73ac:	ef 0e       	add	r14, r31
    73ae:	f1 1c       	adc	r15, r1
    73b0:	82 e0       	ldi	r24, 0x02	; 2
    73b2:	a8 0e       	add	r10, r24
    73b4:	b1 1c       	adc	r11, r1
    73b6:	0e 5f       	subi	r16, 0xFE	; 254
    73b8:	1f 4f       	sbci	r17, 0xFF	; 255
    73ba:	e2 e0       	ldi	r30, 0x02	; 2
    73bc:	ce 0e       	add	r12, r30
    73be:	d1 1c       	adc	r13, r1
    73c0:	f2 e0       	ldi	r31, 0x02	; 2
    73c2:	6f 0e       	add	r6, r31
    73c4:	71 1c       	adc	r7, r1
    73c6:	c3 30       	cpi	r28, 0x03	; 3
    73c8:	d1 05       	cpc	r29, r1
    73ca:	09 f0       	breq	.+2      	; 0x73ce <ReadGyros+0x174>
    73cc:	71 cf       	rjmp	.-286    	; 0x72b0 <ReadGyros+0x56>
    73ce:	df 91       	pop	r29
    73d0:	cf 91       	pop	r28
    73d2:	1f 91       	pop	r17
    73d4:	0f 91       	pop	r16
    73d6:	ff 90       	pop	r15
    73d8:	ef 90       	pop	r14
    73da:	df 90       	pop	r13
    73dc:	cf 90       	pop	r12
    73de:	bf 90       	pop	r11
    73e0:	af 90       	pop	r10
    73e2:	9f 90       	pop	r9
    73e4:	8f 90       	pop	r8
    73e6:	7f 90       	pop	r7
    73e8:	6f 90       	pop	r6
    73ea:	5f 90       	pop	r5
    73ec:	4f 90       	pop	r4
    73ee:	3f 90       	pop	r3
    73f0:	2f 90       	pop	r2
    73f2:	08 95       	ret

000073f4 <CalibrateGyrosFast>:
    73f4:	cf 93       	push	r28
    73f6:	80 91 38 05 	lds	r24, 0x0538
    73fa:	90 91 39 05 	lds	r25, 0x0539
    73fe:	80 36       	cpi	r24, 0x60	; 96
    7400:	91 05       	cpc	r25, r1
    7402:	24 f4       	brge	.+8      	; 0x740c <CalibrateGyrosFast+0x18>
    7404:	20 91 b9 06 	lds	r18, 0x06B9
    7408:	21 11       	cpse	r18, r1
    740a:	54 c0       	rjmp	.+168    	; 0x74b4 <CalibrateGyrosFast+0xc0>
    740c:	86 e0       	ldi	r24, 0x06	; 6
    740e:	ed e3       	ldi	r30, 0x3D	; 61
    7410:	f8 e0       	ldi	r31, 0x08	; 8
    7412:	df 01       	movw	r26, r30
    7414:	1d 92       	st	X+, r1
    7416:	8a 95       	dec	r24
    7418:	e9 f7       	brne	.-6      	; 0x7414 <CalibrateGyrosFast+0x20>
    741a:	c0 e2       	ldi	r28, 0x20	; 32
    741c:	0e 94 af 38 	call	0x715e	; 0x715e <get_raw_gyros>
    7420:	40 91 3d 08 	lds	r20, 0x083D
    7424:	50 91 3e 08 	lds	r21, 0x083E
    7428:	80 91 d3 05 	lds	r24, 0x05D3
    742c:	90 91 d4 05 	lds	r25, 0x05D4
    7430:	48 0f       	add	r20, r24
    7432:	59 1f       	adc	r21, r25
    7434:	50 93 3e 08 	sts	0x083E, r21
    7438:	40 93 3d 08 	sts	0x083D, r20
    743c:	20 91 3f 08 	lds	r18, 0x083F
    7440:	30 91 40 08 	lds	r19, 0x0840
    7444:	80 91 d5 05 	lds	r24, 0x05D5
    7448:	90 91 d6 05 	lds	r25, 0x05D6
    744c:	28 0f       	add	r18, r24
    744e:	39 1f       	adc	r19, r25
    7450:	30 93 40 08 	sts	0x0840, r19
    7454:	20 93 3f 08 	sts	0x083F, r18
    7458:	60 91 41 08 	lds	r22, 0x0841
    745c:	70 91 42 08 	lds	r23, 0x0842
    7460:	80 91 d7 05 	lds	r24, 0x05D7
    7464:	90 91 d8 05 	lds	r25, 0x05D8
    7468:	86 0f       	add	r24, r22
    746a:	97 1f       	adc	r25, r23
    746c:	90 93 42 08 	sts	0x0842, r25
    7470:	80 93 41 08 	sts	0x0841, r24
    7474:	c1 50       	subi	r28, 0x01	; 1
    7476:	91 f6       	brne	.-92     	; 0x741c <CalibrateGyrosFast+0x28>
    7478:	f5 e0       	ldi	r31, 0x05	; 5
    747a:	55 95       	asr	r21
    747c:	47 95       	ror	r20
    747e:	fa 95       	dec	r31
    7480:	e1 f7       	brne	.-8      	; 0x747a <CalibrateGyrosFast+0x86>
    7482:	50 93 3e 08 	sts	0x083E, r21
    7486:	40 93 3d 08 	sts	0x083D, r20
    748a:	a5 e0       	ldi	r26, 0x05	; 5
    748c:	35 95       	asr	r19
    748e:	27 95       	ror	r18
    7490:	aa 95       	dec	r26
    7492:	e1 f7       	brne	.-8      	; 0x748c <CalibrateGyrosFast+0x98>
    7494:	30 93 40 08 	sts	0x0840, r19
    7498:	20 93 3f 08 	sts	0x083F, r18
    749c:	b5 e0       	ldi	r27, 0x05	; 5
    749e:	95 95       	asr	r25
    74a0:	87 95       	ror	r24
    74a2:	ba 95       	dec	r27
    74a4:	e1 f7       	brne	.-8      	; 0x749e <CalibrateGyrosFast+0xaa>
    74a6:	90 93 42 08 	sts	0x0842, r25
    74aa:	80 93 41 08 	sts	0x0841, r24
    74ae:	cf 91       	pop	r28
    74b0:	0c 94 4e 26 	jmp	0x4c9c	; 0x4c9c <Save_Config_to_EEPROM>
    74b4:	06 97       	sbiw	r24, 0x06	; 6
    74b6:	dc f7       	brge	.-10     	; 0x74ae <CalibrateGyrosFast+0xba>
    74b8:	86 e0       	ldi	r24, 0x06	; 6
    74ba:	e8 e0       	ldi	r30, 0x08	; 8
    74bc:	f8 e0       	ldi	r31, 0x08	; 8
    74be:	df 01       	movw	r26, r30
    74c0:	1d 92       	st	X+, r1
    74c2:	8a 95       	dec	r24
    74c4:	e9 f7       	brne	.-6      	; 0x74c0 <CalibrateGyrosFast+0xcc>
    74c6:	c0 e2       	ldi	r28, 0x20	; 32
    74c8:	0e 94 af 38 	call	0x715e	; 0x715e <get_raw_gyros>
    74cc:	40 91 08 08 	lds	r20, 0x0808
    74d0:	50 91 09 08 	lds	r21, 0x0809
    74d4:	80 91 c7 05 	lds	r24, 0x05C7
    74d8:	90 91 c8 05 	lds	r25, 0x05C8
    74dc:	48 0f       	add	r20, r24
    74de:	59 1f       	adc	r21, r25
    74e0:	50 93 09 08 	sts	0x0809, r21
    74e4:	40 93 08 08 	sts	0x0808, r20
    74e8:	20 91 0a 08 	lds	r18, 0x080A
    74ec:	30 91 0b 08 	lds	r19, 0x080B
    74f0:	80 91 c9 05 	lds	r24, 0x05C9
    74f4:	90 91 ca 05 	lds	r25, 0x05CA
    74f8:	28 0f       	add	r18, r24
    74fa:	39 1f       	adc	r19, r25
    74fc:	30 93 0b 08 	sts	0x080B, r19
    7500:	20 93 0a 08 	sts	0x080A, r18
    7504:	60 91 0c 08 	lds	r22, 0x080C
    7508:	70 91 0d 08 	lds	r23, 0x080D
    750c:	80 91 cb 05 	lds	r24, 0x05CB
    7510:	90 91 cc 05 	lds	r25, 0x05CC
    7514:	86 0f       	add	r24, r22
    7516:	97 1f       	adc	r25, r23
    7518:	90 93 0d 08 	sts	0x080D, r25
    751c:	80 93 0c 08 	sts	0x080C, r24
    7520:	c1 50       	subi	r28, 0x01	; 1
    7522:	91 f6       	brne	.-92     	; 0x74c8 <CalibrateGyrosFast+0xd4>
    7524:	65 e0       	ldi	r22, 0x05	; 5
    7526:	55 95       	asr	r21
    7528:	47 95       	ror	r20
    752a:	6a 95       	dec	r22
    752c:	e1 f7       	brne	.-8      	; 0x7526 <CalibrateGyrosFast+0x132>
    752e:	50 93 09 08 	sts	0x0809, r21
    7532:	40 93 08 08 	sts	0x0808, r20
    7536:	75 e0       	ldi	r23, 0x05	; 5
    7538:	35 95       	asr	r19
    753a:	27 95       	ror	r18
    753c:	7a 95       	dec	r23
    753e:	e1 f7       	brne	.-8      	; 0x7538 <CalibrateGyrosFast+0x144>
    7540:	30 93 0b 08 	sts	0x080B, r19
    7544:	20 93 0a 08 	sts	0x080A, r18
    7548:	e5 e0       	ldi	r30, 0x05	; 5
    754a:	95 95       	asr	r25
    754c:	87 95       	ror	r24
    754e:	ea 95       	dec	r30
    7550:	e1 f7       	brne	.-8      	; 0x754a <CalibrateGyrosFast+0x156>
    7552:	90 93 0d 08 	sts	0x080D, r25
    7556:	80 93 0c 08 	sts	0x080C, r24
    755a:	a9 cf       	rjmp	.-174    	; 0x74ae <CalibrateGyrosFast+0xba>

0000755c <CalibrateGyrosSlow>:
    755c:	2f 92       	push	r2
    755e:	3f 92       	push	r3
    7560:	4f 92       	push	r4
    7562:	5f 92       	push	r5
    7564:	6f 92       	push	r6
    7566:	7f 92       	push	r7
    7568:	8f 92       	push	r8
    756a:	9f 92       	push	r9
    756c:	af 92       	push	r10
    756e:	bf 92       	push	r11
    7570:	cf 92       	push	r12
    7572:	df 92       	push	r13
    7574:	ef 92       	push	r14
    7576:	ff 92       	push	r15
    7578:	0f 93       	push	r16
    757a:	1f 93       	push	r17
    757c:	cf 93       	push	r28
    757e:	df 93       	push	r29
    7580:	cd b7       	in	r28, 0x3d	; 61
    7582:	de b7       	in	r29, 0x3e	; 62
    7584:	66 97       	sbiw	r28, 0x16	; 22
    7586:	0f b6       	in	r0, 0x3f	; 63
    7588:	f8 94       	cli
    758a:	de bf       	out	0x3e, r29	; 62
    758c:	0f be       	out	0x3f, r0	; 63
    758e:	cd bf       	out	0x3d, r28	; 61
    7590:	1e 86       	std	Y+14, r1	; 0x0e
    7592:	1d 86       	std	Y+13, r1	; 0x0d
    7594:	18 8a       	std	Y+16, r1	; 0x10
    7596:	1f 86       	std	Y+15, r1	; 0x0f
    7598:	1a 8a       	std	Y+18, r1	; 0x12
    759a:	19 8a       	std	Y+17, r1	; 0x11
    759c:	0e 94 fa 39 	call	0x73f4	; 0x73f4 <CalibrateGyrosFast>
    75a0:	c0 90 38 05 	lds	r12, 0x0538
    75a4:	d0 90 39 05 	lds	r13, 0x0539
    75a8:	b0 90 b9 06 	lds	r11, 0x06B9
    75ac:	ce 01       	movw	r24, r28
    75ae:	01 96       	adiw	r24, 0x01	; 1
    75b0:	7c 01       	movw	r14, r24
    75b2:	00 e0       	ldi	r16, 0x00	; 0
    75b4:	10 e0       	ldi	r17, 0x00	; 0
    75b6:	f8 01       	movw	r30, r16
    75b8:	90 e6       	ldi	r25, 0x60	; 96
    75ba:	c9 16       	cp	r12, r25
    75bc:	d1 04       	cpc	r13, r1
    75be:	14 f4       	brge	.+4      	; 0x75c4 <CalibrateGyrosSlow+0x68>
    75c0:	b1 10       	cpse	r11, r1
    75c2:	03 c0       	rjmp	.+6      	; 0x75ca <CalibrateGyrosSlow+0x6e>
    75c4:	e3 5c       	subi	r30, 0xC3	; 195
    75c6:	f7 4f       	sbci	r31, 0xF7	; 247
    75c8:	02 c0       	rjmp	.+4      	; 0x75ce <CalibrateGyrosSlow+0x72>
    75ca:	e8 5f       	subi	r30, 0xF8	; 248
    75cc:	f7 4f       	sbci	r31, 0xF7	; 247
    75ce:	60 81       	ld	r22, Z
    75d0:	71 81       	ldd	r23, Z+1	; 0x01
    75d2:	07 2e       	mov	r0, r23
    75d4:	00 0c       	add	r0, r0
    75d6:	88 0b       	sbc	r24, r24
    75d8:	99 0b       	sbc	r25, r25
    75da:	0e 94 47 6d 	call	0xda8e	; 0xda8e <__floatsisf>
    75de:	f7 01       	movw	r30, r14
    75e0:	60 83       	st	Z, r22
    75e2:	71 83       	std	Z+1, r23	; 0x01
    75e4:	82 83       	std	Z+2, r24	; 0x02
    75e6:	93 83       	std	Z+3, r25	; 0x03
    75e8:	0e 5f       	subi	r16, 0xFE	; 254
    75ea:	1f 4f       	sbci	r17, 0xFF	; 255
    75ec:	f4 e0       	ldi	r31, 0x04	; 4
    75ee:	ef 0e       	add	r14, r31
    75f0:	f1 1c       	adc	r15, r1
    75f2:	06 30       	cpi	r16, 0x06	; 6
    75f4:	11 05       	cpc	r17, r1
    75f6:	f9 f6       	brne	.-66     	; 0x75b6 <CalibrateGyrosSlow+0x5a>
    75f8:	1c 8a       	std	Y+20, r1	; 0x14
    75fa:	1b 8a       	std	Y+19, r1	; 0x13
    75fc:	00 e0       	ldi	r16, 0x00	; 0
    75fe:	10 e0       	ldi	r17, 0x00	; 0
    7600:	e1 2c       	mov	r14, r1
    7602:	f1 2c       	mov	r15, r1
    7604:	4e 01       	movw	r8, r28
    7606:	8d e0       	ldi	r24, 0x0D	; 13
    7608:	88 0e       	add	r8, r24
    760a:	91 1c       	adc	r9, r1
    760c:	80 91 b2 00 	lds	r24, 0x00B2
    7610:	9c 89       	ldd	r25, Y+20	; 0x14
    7612:	89 1b       	sub	r24, r25
    7614:	e8 0e       	add	r14, r24
    7616:	f1 1c       	adc	r15, r1
    7618:	e0 91 b2 00 	lds	r30, 0x00B2
    761c:	ec 8b       	std	Y+20, r30	; 0x14
    761e:	fc e4       	ldi	r31, 0x4C	; 76
    7620:	ef 16       	cp	r14, r31
    7622:	ff 06       	cpc	r15, r31
    7624:	28 f0       	brcs	.+10     	; 0x7630 <CalibrateGyrosSlow+0xd4>
    7626:	8b 89       	ldd	r24, Y+19	; 0x13
    7628:	8f 5f       	subi	r24, 0xFF	; 255
    762a:	8b 8b       	std	Y+19, r24	; 0x13
    762c:	e1 2c       	mov	r14, r1
    762e:	f1 2c       	mov	r15, r1
    7630:	0e 94 af 38 	call	0x715e	; 0x715e <get_raw_gyros>
    7634:	eb eb       	ldi	r30, 0xBB	; 187
    7636:	f5 e0       	ldi	r31, 0x05	; 5
    7638:	fe 8b       	std	Y+22, r31	; 0x16
    763a:	ed 8b       	std	Y+21, r30	; 0x15
    763c:	14 01       	movw	r2, r8
    763e:	ce 01       	movw	r24, r28
    7640:	01 96       	adiw	r24, 0x01	; 1
    7642:	6c 01       	movw	r12, r24
    7644:	ed 89       	ldd	r30, Y+21	; 0x15
    7646:	fe 89       	ldd	r31, Y+22	; 0x16
    7648:	a1 90       	ld	r10, Z+
    764a:	b1 90       	ld	r11, Z+
    764c:	fe 8b       	std	Y+22, r31	; 0x16
    764e:	ed 8b       	std	Y+21, r30	; 0x15
    7650:	20 e0       	ldi	r18, 0x00	; 0
    7652:	30 ec       	ldi	r19, 0xC0	; 192
    7654:	49 e7       	ldi	r20, 0x79	; 121
    7656:	54 e4       	ldi	r21, 0x44	; 68
    7658:	f6 01       	movw	r30, r12
    765a:	60 81       	ld	r22, Z
    765c:	71 81       	ldd	r23, Z+1	; 0x01
    765e:	82 81       	ldd	r24, Z+2	; 0x02
    7660:	93 81       	ldd	r25, Z+3	; 0x03
    7662:	0e 94 fc 6d 	call	0xdbf8	; 0xdbf8 <__mulsf3>
    7666:	2b 01       	movw	r4, r22
    7668:	3c 01       	movw	r6, r24
    766a:	b5 01       	movw	r22, r10
    766c:	bb 0c       	add	r11, r11
    766e:	88 0b       	sbc	r24, r24
    7670:	99 0b       	sbc	r25, r25
    7672:	0e 94 47 6d 	call	0xda8e	; 0xda8e <__floatsisf>
    7676:	9b 01       	movw	r18, r22
    7678:	ac 01       	movw	r20, r24
    767a:	c3 01       	movw	r24, r6
    767c:	b2 01       	movw	r22, r4
    767e:	0e 94 2c 6c 	call	0xd858	; 0xd858 <__addsf3>
    7682:	20 e0       	ldi	r18, 0x00	; 0
    7684:	30 e0       	ldi	r19, 0x00	; 0
    7686:	4a e7       	ldi	r20, 0x7A	; 122
    7688:	54 e4       	ldi	r21, 0x44	; 68
    768a:	0e 94 9d 6c 	call	0xd93a	; 0xd93a <__divsf3>
    768e:	f6 01       	movw	r30, r12
    7690:	61 93       	st	Z+, r22
    7692:	71 93       	st	Z+, r23
    7694:	81 93       	st	Z+, r24
    7696:	91 93       	st	Z+, r25
    7698:	6f 01       	movw	r12, r30
    769a:	0e 94 0f 6d 	call	0xda1e	; 0xda1e <__fixsfsi>
    769e:	f1 01       	movw	r30, r2
    76a0:	20 81       	ld	r18, Z
    76a2:	31 81       	ldd	r19, Z+1	; 0x01
    76a4:	26 17       	cp	r18, r22
    76a6:	37 07       	cpc	r19, r23
    76a8:	11 f0       	breq	.+4      	; 0x76ae <CalibrateGyrosSlow+0x152>
    76aa:	00 e0       	ldi	r16, 0x00	; 0
    76ac:	10 e0       	ldi	r17, 0x00	; 0
    76ae:	f1 01       	movw	r30, r2
    76b0:	61 93       	st	Z+, r22
    76b2:	71 93       	st	Z+, r23
    76b4:	1f 01       	movw	r2, r30
    76b6:	c8 14       	cp	r12, r8
    76b8:	d9 04       	cpc	r13, r9
    76ba:	21 f6       	brne	.-120    	; 0x7644 <CalibrateGyrosSlow+0xe8>
    76bc:	0f 5f       	subi	r16, 0xFF	; 255
    76be:	1f 4f       	sbci	r17, 0xFF	; 255
    76c0:	09 3c       	cpi	r16, 0xC9	; 201
    76c2:	11 05       	cpc	r17, r1
    76c4:	20 f0       	brcs	.+8      	; 0x76ce <CalibrateGyrosSlow+0x172>
    76c6:	0e 94 fa 39 	call	0x73f4	; 0x73f4 <CalibrateGyrosFast>
    76ca:	81 e0       	ldi	r24, 0x01	; 1
    76cc:	01 c0       	rjmp	.+2      	; 0x76d0 <CalibrateGyrosSlow+0x174>
    76ce:	80 e0       	ldi	r24, 0x00	; 0
    76d0:	e7 e8       	ldi	r30, 0x87	; 135
    76d2:	f3 e1       	ldi	r31, 0x13	; 19
    76d4:	31 97       	sbiw	r30, 0x01	; 1
    76d6:	f1 f7       	brne	.-4      	; 0x76d4 <CalibrateGyrosSlow+0x178>
    76d8:	00 c0       	rjmp	.+0      	; 0x76da <CalibrateGyrosSlow+0x17e>
    76da:	00 00       	nop
    76dc:	81 11       	cpse	r24, r1
    76de:	04 c0       	rjmp	.+8      	; 0x76e8 <CalibrateGyrosSlow+0x18c>
    76e0:	fb 89       	ldd	r31, Y+19	; 0x13
    76e2:	f6 30       	cpi	r31, 0x06	; 6
    76e4:	08 f4       	brcc	.+2      	; 0x76e8 <CalibrateGyrosSlow+0x18c>
    76e6:	92 cf       	rjmp	.-220    	; 0x760c <CalibrateGyrosSlow+0xb0>
    76e8:	66 96       	adiw	r28, 0x16	; 22
    76ea:	0f b6       	in	r0, 0x3f	; 63
    76ec:	f8 94       	cli
    76ee:	de bf       	out	0x3e, r29	; 62
    76f0:	0f be       	out	0x3f, r0	; 63
    76f2:	cd bf       	out	0x3d, r28	; 61
    76f4:	df 91       	pop	r29
    76f6:	cf 91       	pop	r28
    76f8:	1f 91       	pop	r17
    76fa:	0f 91       	pop	r16
    76fc:	ff 90       	pop	r15
    76fe:	ef 90       	pop	r14
    7700:	df 90       	pop	r13
    7702:	cf 90       	pop	r12
    7704:	bf 90       	pop	r11
    7706:	af 90       	pop	r10
    7708:	9f 90       	pop	r9
    770a:	8f 90       	pop	r8
    770c:	7f 90       	pop	r7
    770e:	6f 90       	pop	r6
    7710:	5f 90       	pop	r5
    7712:	4f 90       	pop	r4
    7714:	3f 90       	pop	r3
    7716:	2f 90       	pop	r2
    7718:	08 95       	ret

0000771a <init_i2c_gyros>:
    771a:	41 e0       	ldi	r20, 0x01	; 1
    771c:	6b e6       	ldi	r22, 0x6B	; 107
    771e:	80 ed       	ldi	r24, 0xD0	; 208
    7720:	0e 94 a4 3b 	call	0x7748	; 0x7748 <writeI2Cbyte>
    7724:	40 e4       	ldi	r20, 0x40	; 64
    7726:	67 e3       	ldi	r22, 0x37	; 55
    7728:	80 ed       	ldi	r24, 0xD0	; 208
    772a:	0e 94 a4 3b 	call	0x7748	; 0x7748 <writeI2Cbyte>
    772e:	80 91 be 06 	lds	r24, 0x06BE
    7732:	46 e0       	ldi	r20, 0x06	; 6
    7734:	48 1b       	sub	r20, r24
    7736:	6a e1       	ldi	r22, 0x1A	; 26
    7738:	80 ed       	ldi	r24, 0xD0	; 208
    773a:	0e 94 a4 3b 	call	0x7748	; 0x7748 <writeI2Cbyte>
    773e:	48 e1       	ldi	r20, 0x18	; 24
    7740:	6b e1       	ldi	r22, 0x1B	; 27
    7742:	80 ed       	ldi	r24, 0xD0	; 208
    7744:	0c 94 a4 3b 	jmp	0x7748	; 0x7748 <writeI2Cbyte>

00007748 <writeI2Cbyte>:
    7748:	cf 93       	push	r28
    774a:	df 93       	push	r29
    774c:	00 d0       	rcall	.+0      	; 0x774e <writeI2Cbyte+0x6>
    774e:	cd b7       	in	r28, 0x3d	; 61
    7750:	de b7       	in	r29, 0x3e	; 62
    7752:	4a 83       	std	Y+2, r20	; 0x02
    7754:	69 83       	std	Y+1, r22	; 0x01
    7756:	0e 94 ed 6a 	call	0xd5da	; 0xd5da <i2c_start_wait>
    775a:	69 81       	ldd	r22, Y+1	; 0x01
    775c:	86 2f       	mov	r24, r22
    775e:	0e 94 3d 6b 	call	0xd67a	; 0xd67a <i2c_write>
    7762:	4a 81       	ldd	r20, Y+2	; 0x02
    7764:	84 2f       	mov	r24, r20
    7766:	0e 94 3d 6b 	call	0xd67a	; 0xd67a <i2c_write>
    776a:	0f 90       	pop	r0
    776c:	0f 90       	pop	r0
    776e:	df 91       	pop	r29
    7770:	cf 91       	pop	r28
    7772:	0c 94 2e 6b 	jmp	0xd65c	; 0xd65c <i2c_stop>

00007776 <readI2CbyteArray>:
    7776:	cf 92       	push	r12
    7778:	df 92       	push	r13
    777a:	ef 92       	push	r14
    777c:	ff 92       	push	r15
    777e:	0f 93       	push	r16
    7780:	1f 93       	push	r17
    7782:	cf 93       	push	r28
    7784:	df 93       	push	r29
    7786:	00 d0       	rcall	.+0      	; 0x7788 <readI2CbyteArray+0x12>
    7788:	1f 92       	push	r1
    778a:	cd b7       	in	r28, 0x3d	; 61
    778c:	de b7       	in	r29, 0x3e	; 62
    778e:	18 2f       	mov	r17, r24
    7790:	02 2f       	mov	r16, r18
    7792:	4a 83       	std	Y+2, r20	; 0x02
    7794:	5b 83       	std	Y+3, r21	; 0x03
    7796:	69 83       	std	Y+1, r22	; 0x01
    7798:	0e 94 ed 6a 	call	0xd5da	; 0xd5da <i2c_start_wait>
    779c:	69 81       	ldd	r22, Y+1	; 0x01
    779e:	86 2f       	mov	r24, r22
    77a0:	0e 94 3d 6b 	call	0xd67a	; 0xd67a <i2c_write>
    77a4:	81 e0       	ldi	r24, 0x01	; 1
    77a6:	81 0f       	add	r24, r17
    77a8:	0e 94 2c 6b 	call	0xd658	; 0xd658 <i2c_rep_start>
    77ac:	4a 81       	ldd	r20, Y+2	; 0x02
    77ae:	c4 2e       	mov	r12, r20
    77b0:	5b 81       	ldd	r21, Y+3	; 0x03
    77b2:	d5 2e       	mov	r13, r21
    77b4:	e1 2c       	mov	r14, r1
    77b6:	f1 2c       	mov	r15, r1
    77b8:	10 e0       	ldi	r17, 0x00	; 0
    77ba:	e0 16       	cp	r14, r16
    77bc:	f1 06       	cpc	r15, r17
    77be:	8c f4       	brge	.+34     	; 0x77e2 <readI2CbyteArray+0x6c>
    77c0:	8f ef       	ldi	r24, 0xFF	; 255
    77c2:	e8 1a       	sub	r14, r24
    77c4:	f8 0a       	sbc	r15, r24
    77c6:	e0 16       	cp	r14, r16
    77c8:	f1 06       	cpc	r15, r17
    77ca:	19 f0       	breq	.+6      	; 0x77d2 <readI2CbyteArray+0x5c>
    77cc:	0e 94 5d 6b 	call	0xd6ba	; 0xd6ba <i2c_readAck>
    77d0:	02 c0       	rjmp	.+4      	; 0x77d6 <readI2CbyteArray+0x60>
    77d2:	0e 94 76 6b 	call	0xd6ec	; 0xd6ec <i2c_readNak>
    77d6:	f6 01       	movw	r30, r12
    77d8:	80 83       	st	Z, r24
    77da:	ff ef       	ldi	r31, 0xFF	; 255
    77dc:	cf 1a       	sub	r12, r31
    77de:	df 0a       	sbc	r13, r31
    77e0:	ec cf       	rjmp	.-40     	; 0x77ba <readI2CbyteArray+0x44>
    77e2:	0f 90       	pop	r0
    77e4:	0f 90       	pop	r0
    77e6:	0f 90       	pop	r0
    77e8:	df 91       	pop	r29
    77ea:	cf 91       	pop	r28
    77ec:	1f 91       	pop	r17
    77ee:	0f 91       	pop	r16
    77f0:	ff 90       	pop	r15
    77f2:	ef 90       	pop	r14
    77f4:	df 90       	pop	r13
    77f6:	cf 90       	pop	r12
    77f8:	0c 94 2e 6b 	jmp	0xd65c	; 0xd65c <i2c_stop>

000077fc <RotateVector>:
    77fc:	4f 92       	push	r4
    77fe:	5f 92       	push	r5
    7800:	6f 92       	push	r6
    7802:	7f 92       	push	r7
    7804:	8f 92       	push	r8
    7806:	9f 92       	push	r9
    7808:	af 92       	push	r10
    780a:	bf 92       	push	r11
    780c:	cf 92       	push	r12
    780e:	df 92       	push	r13
    7810:	ef 92       	push	r14
    7812:	ff 92       	push	r15
    7814:	cf 93       	push	r28
    7816:	df 93       	push	r29
    7818:	cd b7       	in	r28, 0x3d	; 61
    781a:	de b7       	in	r29, 0x3e	; 62
    781c:	28 97       	sbiw	r28, 0x08	; 8
    781e:	0f b6       	in	r0, 0x3f	; 63
    7820:	f8 94       	cli
    7822:	de bf       	out	0x3e, r29	; 62
    7824:	0f be       	out	0x3f, r0	; 63
    7826:	cd bf       	out	0x3d, r28	; 61
    7828:	6b 01       	movw	r12, r22
    782a:	7c 01       	movw	r14, r24
    782c:	80 90 11 06 	lds	r8, 0x0611
    7830:	90 90 12 06 	lds	r9, 0x0612
    7834:	a0 90 13 06 	lds	r10, 0x0613
    7838:	b0 90 14 06 	lds	r11, 0x0614
    783c:	9b 01       	movw	r18, r22
    783e:	ac 01       	movw	r20, r24
    7840:	0e 94 fc 6d 	call	0xdbf8	; 0xdbf8 <__mulsf3>
    7844:	20 e0       	ldi	r18, 0x00	; 0
    7846:	30 e0       	ldi	r19, 0x00	; 0
    7848:	40 e0       	ldi	r20, 0x00	; 0
    784a:	5f e3       	ldi	r21, 0x3F	; 63
    784c:	0e 94 fc 6d 	call	0xdbf8	; 0xdbf8 <__mulsf3>
    7850:	9b 01       	movw	r18, r22
    7852:	ac 01       	movw	r20, r24
    7854:	60 e0       	ldi	r22, 0x00	; 0
    7856:	70 e0       	ldi	r23, 0x00	; 0
    7858:	80 e8       	ldi	r24, 0x80	; 128
    785a:	9f e3       	ldi	r25, 0x3F	; 63
    785c:	0e 94 2b 6c 	call	0xd856	; 0xd856 <__subsf3>
    7860:	69 83       	std	Y+1, r22	; 0x01
    7862:	7a 83       	std	Y+2, r23	; 0x02
    7864:	8b 83       	std	Y+3, r24	; 0x03
    7866:	9c 83       	std	Y+4, r25	; 0x04
    7868:	40 90 15 06 	lds	r4, 0x0615
    786c:	50 90 16 06 	lds	r5, 0x0616
    7870:	60 90 17 06 	lds	r6, 0x0617
    7874:	70 90 18 06 	lds	r7, 0x0618
    7878:	9b 01       	movw	r18, r22
    787a:	ac 01       	movw	r20, r24
    787c:	c5 01       	movw	r24, r10
    787e:	b4 01       	movw	r22, r8
    7880:	0e 94 fc 6d 	call	0xdbf8	; 0xdbf8 <__mulsf3>
    7884:	6d 83       	std	Y+5, r22	; 0x05
    7886:	7e 83       	std	Y+6, r23	; 0x06
    7888:	8f 83       	std	Y+7, r24	; 0x07
    788a:	98 87       	std	Y+8, r25	; 0x08
    788c:	a7 01       	movw	r20, r14
    788e:	96 01       	movw	r18, r12
    7890:	c3 01       	movw	r24, r6
    7892:	b2 01       	movw	r22, r4
    7894:	0e 94 fc 6d 	call	0xdbf8	; 0xdbf8 <__mulsf3>
    7898:	9b 01       	movw	r18, r22
    789a:	ac 01       	movw	r20, r24
    789c:	6d 81       	ldd	r22, Y+5	; 0x05
    789e:	7e 81       	ldd	r23, Y+6	; 0x06
    78a0:	8f 81       	ldd	r24, Y+7	; 0x07
    78a2:	98 85       	ldd	r25, Y+8	; 0x08
    78a4:	0e 94 2b 6c 	call	0xd856	; 0xd856 <__subsf3>
    78a8:	60 93 fd 05 	sts	0x05FD, r22
    78ac:	70 93 fe 05 	sts	0x05FE, r23
    78b0:	80 93 ff 05 	sts	0x05FF, r24
    78b4:	90 93 00 06 	sts	0x0600, r25
    78b8:	a7 01       	movw	r20, r14
    78ba:	96 01       	movw	r18, r12
    78bc:	c5 01       	movw	r24, r10
    78be:	b4 01       	movw	r22, r8
    78c0:	0e 94 fc 6d 	call	0xdbf8	; 0xdbf8 <__mulsf3>
    78c4:	6b 01       	movw	r12, r22
    78c6:	7c 01       	movw	r14, r24
    78c8:	29 81       	ldd	r18, Y+1	; 0x01
    78ca:	3a 81       	ldd	r19, Y+2	; 0x02
    78cc:	4b 81       	ldd	r20, Y+3	; 0x03
    78ce:	5c 81       	ldd	r21, Y+4	; 0x04
    78d0:	c3 01       	movw	r24, r6
    78d2:	b2 01       	movw	r22, r4
    78d4:	0e 94 fc 6d 	call	0xdbf8	; 0xdbf8 <__mulsf3>
    78d8:	9b 01       	movw	r18, r22
    78da:	ac 01       	movw	r20, r24
    78dc:	c7 01       	movw	r24, r14
    78de:	b6 01       	movw	r22, r12
    78e0:	0e 94 2c 6c 	call	0xd858	; 0xd858 <__addsf3>
    78e4:	60 93 d9 05 	sts	0x05D9, r22
    78e8:	70 93 da 05 	sts	0x05DA, r23
    78ec:	80 93 db 05 	sts	0x05DB, r24
    78f0:	90 93 dc 05 	sts	0x05DC, r25
    78f4:	28 96       	adiw	r28, 0x08	; 8
    78f6:	0f b6       	in	r0, 0x3f	; 63
    78f8:	f8 94       	cli
    78fa:	de bf       	out	0x3e, r29	; 62
    78fc:	0f be       	out	0x3f, r0	; 63
    78fe:	cd bf       	out	0x3d, r28	; 61
    7900:	df 91       	pop	r29
    7902:	cf 91       	pop	r28
    7904:	ff 90       	pop	r15
    7906:	ef 90       	pop	r14
    7908:	df 90       	pop	r13
    790a:	cf 90       	pop	r12
    790c:	bf 90       	pop	r11
    790e:	af 90       	pop	r10
    7910:	9f 90       	pop	r9
    7912:	8f 90       	pop	r8
    7914:	7f 90       	pop	r7
    7916:	6f 90       	pop	r6
    7918:	5f 90       	pop	r5
    791a:	4f 90       	pop	r4
    791c:	08 95       	ret

0000791e <thetascale>:
    791e:	cf 92       	push	r12
    7920:	df 92       	push	r13
    7922:	ef 92       	push	r14
    7924:	ff 92       	push	r15
    7926:	69 01       	movw	r12, r18
    7928:	7a 01       	movw	r14, r20
    792a:	25 ef       	ldi	r18, 0xF5	; 245
    792c:	31 ea       	ldi	r19, 0xA1	; 161
    792e:	4b e8       	ldi	r20, 0x8B	; 139
    7930:	5c e3       	ldi	r21, 0x3C	; 60
    7932:	0e 94 fc 6d 	call	0xdbf8	; 0xdbf8 <__mulsf3>
    7936:	a7 01       	movw	r20, r14
    7938:	96 01       	movw	r18, r12
    793a:	0e 94 fc 6d 	call	0xdbf8	; 0xdbf8 <__mulsf3>
    793e:	6b 01       	movw	r12, r22
    7940:	7c 01       	movw	r14, r24
    7942:	26 ea       	ldi	r18, 0xA6	; 166
    7944:	3a e0       	ldi	r19, 0x0A	; 10
    7946:	46 e8       	ldi	r20, 0x86	; 134
    7948:	5e e3       	ldi	r21, 0x3E	; 62
    794a:	0e 94 f7 6d 	call	0xdbee	; 0xdbee <__gesf2>
    794e:	18 16       	cp	r1, r24
    7950:	9c f0       	brlt	.+38     	; 0x7978 <thetascale+0x5a>
    7952:	26 ea       	ldi	r18, 0xA6	; 166
    7954:	3a e0       	ldi	r19, 0x0A	; 10
    7956:	46 e8       	ldi	r20, 0x86	; 134
    7958:	5e eb       	ldi	r21, 0xBE	; 190
    795a:	c7 01       	movw	r24, r14
    795c:	b6 01       	movw	r22, r12
    795e:	0e 94 98 6c 	call	0xd930	; 0xd930 <__cmpsf2>
    7962:	87 ff       	sbrs	r24, 7
    7964:	11 c0       	rjmp	.+34     	; 0x7988 <thetascale+0x6a>
    7966:	96 ea       	ldi	r25, 0xA6	; 166
    7968:	c9 2e       	mov	r12, r25
    796a:	9a e0       	ldi	r25, 0x0A	; 10
    796c:	d9 2e       	mov	r13, r25
    796e:	96 e8       	ldi	r25, 0x86	; 134
    7970:	e9 2e       	mov	r14, r25
    7972:	9e eb       	ldi	r25, 0xBE	; 190
    7974:	f9 2e       	mov	r15, r25
    7976:	08 c0       	rjmp	.+16     	; 0x7988 <thetascale+0x6a>
    7978:	86 ea       	ldi	r24, 0xA6	; 166
    797a:	c8 2e       	mov	r12, r24
    797c:	8a e0       	ldi	r24, 0x0A	; 10
    797e:	d8 2e       	mov	r13, r24
    7980:	86 e8       	ldi	r24, 0x86	; 134
    7982:	e8 2e       	mov	r14, r24
    7984:	8e e3       	ldi	r24, 0x3E	; 62
    7986:	f8 2e       	mov	r15, r24
    7988:	c7 01       	movw	r24, r14
    798a:	b6 01       	movw	r22, r12
    798c:	ff 90       	pop	r15
    798e:	ef 90       	pop	r14
    7990:	df 90       	pop	r13
    7992:	cf 90       	pop	r12
    7994:	08 95       	ret

00007996 <Rotate3dVector>:
    7996:	8f 92       	push	r8
    7998:	9f 92       	push	r9
    799a:	af 92       	push	r10
    799c:	bf 92       	push	r11
    799e:	cf 92       	push	r12
    79a0:	df 92       	push	r13
    79a2:	ef 92       	push	r14
    79a4:	ff 92       	push	r15
    79a6:	0f 93       	push	r16
    79a8:	1f 93       	push	r17
    79aa:	6b 01       	movw	r12, r22
    79ac:	7c 01       	movw	r14, r24
    79ae:	60 91 ed 05 	lds	r22, 0x05ED
    79b2:	70 91 ee 05 	lds	r23, 0x05EE
    79b6:	80 91 ef 05 	lds	r24, 0x05EF
    79ba:	90 91 f0 05 	lds	r25, 0x05F0
    79be:	a7 01       	movw	r20, r14
    79c0:	96 01       	movw	r18, r12
    79c2:	0e 94 8f 3c 	call	0x791e	; 0x791e <thetascale>
    79c6:	00 91 3e 05 	lds	r16, 0x053E
    79ca:	10 91 3f 05 	lds	r17, 0x053F
    79ce:	20 91 40 05 	lds	r18, 0x0540
    79d2:	30 91 41 05 	lds	r19, 0x0541
    79d6:	00 93 11 06 	sts	0x0611, r16
    79da:	10 93 12 06 	sts	0x0612, r17
    79de:	20 93 13 06 	sts	0x0613, r18
    79e2:	30 93 14 06 	sts	0x0614, r19
    79e6:	00 91 00 05 	lds	r16, 0x0500
    79ea:	10 91 01 05 	lds	r17, 0x0501
    79ee:	20 91 02 05 	lds	r18, 0x0502
    79f2:	30 91 03 05 	lds	r19, 0x0503
    79f6:	00 93 15 06 	sts	0x0615, r16
    79fa:	10 93 16 06 	sts	0x0616, r17
    79fe:	20 93 17 06 	sts	0x0617, r18
    7a02:	30 93 18 06 	sts	0x0618, r19
    7a06:	0e 94 fe 3b 	call	0x77fc	; 0x77fc <RotateVector>
    7a0a:	80 91 fd 05 	lds	r24, 0x05FD
    7a0e:	90 91 fe 05 	lds	r25, 0x05FE
    7a12:	a0 91 ff 05 	lds	r26, 0x05FF
    7a16:	b0 91 00 06 	lds	r27, 0x0600
    7a1a:	80 93 3e 05 	sts	0x053E, r24
    7a1e:	90 93 3f 05 	sts	0x053F, r25
    7a22:	a0 93 40 05 	sts	0x0540, r26
    7a26:	b0 93 41 05 	sts	0x0541, r27
    7a2a:	80 90 d9 05 	lds	r8, 0x05D9
    7a2e:	90 90 da 05 	lds	r9, 0x05DA
    7a32:	a0 90 db 05 	lds	r10, 0x05DB
    7a36:	b0 90 dc 05 	lds	r11, 0x05DC
    7a3a:	80 92 00 05 	sts	0x0500, r8
    7a3e:	90 92 01 05 	sts	0x0501, r9
    7a42:	a0 92 02 05 	sts	0x0502, r10
    7a46:	b0 92 03 05 	sts	0x0503, r11
    7a4a:	60 91 f1 05 	lds	r22, 0x05F1
    7a4e:	70 91 f2 05 	lds	r23, 0x05F2
    7a52:	80 91 f3 05 	lds	r24, 0x05F3
    7a56:	90 91 f4 05 	lds	r25, 0x05F4
    7a5a:	a7 01       	movw	r20, r14
    7a5c:	96 01       	movw	r18, r12
    7a5e:	0e 94 8f 3c 	call	0x791e	; 0x791e <thetascale>
    7a62:	00 91 42 05 	lds	r16, 0x0542
    7a66:	10 91 43 05 	lds	r17, 0x0543
    7a6a:	20 91 44 05 	lds	r18, 0x0544
    7a6e:	30 91 45 05 	lds	r19, 0x0545
    7a72:	00 93 11 06 	sts	0x0611, r16
    7a76:	10 93 12 06 	sts	0x0612, r17
    7a7a:	20 93 13 06 	sts	0x0613, r18
    7a7e:	30 93 14 06 	sts	0x0614, r19
    7a82:	80 92 15 06 	sts	0x0615, r8
    7a86:	90 92 16 06 	sts	0x0616, r9
    7a8a:	a0 92 17 06 	sts	0x0617, r10
    7a8e:	b0 92 18 06 	sts	0x0618, r11
    7a92:	0e 94 fe 3b 	call	0x77fc	; 0x77fc <RotateVector>
    7a96:	80 90 fd 05 	lds	r8, 0x05FD
    7a9a:	90 90 fe 05 	lds	r9, 0x05FE
    7a9e:	a0 90 ff 05 	lds	r10, 0x05FF
    7aa2:	b0 90 00 06 	lds	r11, 0x0600
    7aa6:	80 92 42 05 	sts	0x0542, r8
    7aaa:	90 92 43 05 	sts	0x0543, r9
    7aae:	a0 92 44 05 	sts	0x0544, r10
    7ab2:	b0 92 45 05 	sts	0x0545, r11
    7ab6:	80 91 d9 05 	lds	r24, 0x05D9
    7aba:	90 91 da 05 	lds	r25, 0x05DA
    7abe:	a0 91 db 05 	lds	r26, 0x05DB
    7ac2:	b0 91 dc 05 	lds	r27, 0x05DC
    7ac6:	80 93 00 05 	sts	0x0500, r24
    7aca:	90 93 01 05 	sts	0x0501, r25
    7ace:	a0 93 02 05 	sts	0x0502, r26
    7ad2:	b0 93 03 05 	sts	0x0503, r27
    7ad6:	60 91 f5 05 	lds	r22, 0x05F5
    7ada:	70 91 f6 05 	lds	r23, 0x05F6
    7ade:	80 91 f7 05 	lds	r24, 0x05F7
    7ae2:	90 91 f8 05 	lds	r25, 0x05F8
    7ae6:	a7 01       	movw	r20, r14
    7ae8:	96 01       	movw	r18, r12
    7aea:	0e 94 8f 3c 	call	0x791e	; 0x791e <thetascale>
    7aee:	80 92 11 06 	sts	0x0611, r8
    7af2:	90 92 12 06 	sts	0x0612, r9
    7af6:	a0 92 13 06 	sts	0x0613, r10
    7afa:	b0 92 14 06 	sts	0x0614, r11
    7afe:	c0 90 3e 05 	lds	r12, 0x053E
    7b02:	d0 90 3f 05 	lds	r13, 0x053F
    7b06:	e0 90 40 05 	lds	r14, 0x0540
    7b0a:	f0 90 41 05 	lds	r15, 0x0541
    7b0e:	c0 92 15 06 	sts	0x0615, r12
    7b12:	d0 92 16 06 	sts	0x0616, r13
    7b16:	e0 92 17 06 	sts	0x0617, r14
    7b1a:	f0 92 18 06 	sts	0x0618, r15
    7b1e:	0e 94 fe 3b 	call	0x77fc	; 0x77fc <RotateVector>
    7b22:	80 91 fd 05 	lds	r24, 0x05FD
    7b26:	90 91 fe 05 	lds	r25, 0x05FE
    7b2a:	a0 91 ff 05 	lds	r26, 0x05FF
    7b2e:	b0 91 00 06 	lds	r27, 0x0600
    7b32:	80 93 42 05 	sts	0x0542, r24
    7b36:	90 93 43 05 	sts	0x0543, r25
    7b3a:	a0 93 44 05 	sts	0x0544, r26
    7b3e:	b0 93 45 05 	sts	0x0545, r27
    7b42:	80 91 d9 05 	lds	r24, 0x05D9
    7b46:	90 91 da 05 	lds	r25, 0x05DA
    7b4a:	a0 91 db 05 	lds	r26, 0x05DB
    7b4e:	b0 91 dc 05 	lds	r27, 0x05DC
    7b52:	80 93 3e 05 	sts	0x053E, r24
    7b56:	90 93 3f 05 	sts	0x053F, r25
    7b5a:	a0 93 40 05 	sts	0x0540, r26
    7b5e:	b0 93 41 05 	sts	0x0541, r27
    7b62:	1f 91       	pop	r17
    7b64:	0f 91       	pop	r16
    7b66:	ff 90       	pop	r15
    7b68:	ef 90       	pop	r14
    7b6a:	df 90       	pop	r13
    7b6c:	cf 90       	pop	r12
    7b6e:	bf 90       	pop	r11
    7b70:	af 90       	pop	r10
    7b72:	9f 90       	pop	r9
    7b74:	8f 90       	pop	r8
    7b76:	08 95       	ret

00007b78 <ext2>:
    7b78:	cf 92       	push	r12
    7b7a:	df 92       	push	r13
    7b7c:	ef 92       	push	r14
    7b7e:	ff 92       	push	r15
    7b80:	20 e0       	ldi	r18, 0x00	; 0
    7b82:	30 e0       	ldi	r19, 0x00	; 0
    7b84:	44 eb       	ldi	r20, 0xB4	; 180
    7b86:	52 e4       	ldi	r21, 0x42	; 66
    7b88:	0e 94 fc 6d 	call	0xdbf8	; 0xdbf8 <__mulsf3>
    7b8c:	6b 01       	movw	r12, r22
    7b8e:	7c 01       	movw	r14, r24
    7b90:	20 e0       	ldi	r18, 0x00	; 0
    7b92:	30 e0       	ldi	r19, 0x00	; 0
    7b94:	a9 01       	movw	r20, r18
    7b96:	60 91 00 05 	lds	r22, 0x0500
    7b9a:	70 91 01 05 	lds	r23, 0x0501
    7b9e:	80 91 02 05 	lds	r24, 0x0502
    7ba2:	90 91 03 05 	lds	r25, 0x0503
    7ba6:	0e 94 98 6c 	call	0xd930	; 0xd930 <__cmpsf2>
    7baa:	87 ff       	sbrs	r24, 7
    7bac:	18 c0       	rjmp	.+48     	; 0x7bde <ext2+0x66>
    7bae:	20 e0       	ldi	r18, 0x00	; 0
    7bb0:	30 e0       	ldi	r19, 0x00	; 0
    7bb2:	a9 01       	movw	r20, r18
    7bb4:	c7 01       	movw	r24, r14
    7bb6:	b6 01       	movw	r22, r12
    7bb8:	0e 94 f7 6d 	call	0xdbee	; 0xdbee <__gesf2>
    7bbc:	a7 01       	movw	r20, r14
    7bbe:	96 01       	movw	r18, r12
    7bc0:	18 16       	cp	r1, r24
    7bc2:	2c f4       	brge	.+10     	; 0x7bce <ext2+0x56>
    7bc4:	60 e0       	ldi	r22, 0x00	; 0
    7bc6:	70 e0       	ldi	r23, 0x00	; 0
    7bc8:	84 e3       	ldi	r24, 0x34	; 52
    7bca:	93 e4       	ldi	r25, 0x43	; 67
    7bcc:	04 c0       	rjmp	.+8      	; 0x7bd6 <ext2+0x5e>
    7bce:	60 e0       	ldi	r22, 0x00	; 0
    7bd0:	70 e0       	ldi	r23, 0x00	; 0
    7bd2:	84 e3       	ldi	r24, 0x34	; 52
    7bd4:	93 ec       	ldi	r25, 0xC3	; 195
    7bd6:	0e 94 2b 6c 	call	0xd856	; 0xd856 <__subsf3>
    7bda:	6b 01       	movw	r12, r22
    7bdc:	7c 01       	movw	r14, r24
    7bde:	c7 01       	movw	r24, r14
    7be0:	b6 01       	movw	r22, r12
    7be2:	ff 90       	pop	r15
    7be4:	ef 90       	pop	r14
    7be6:	df 90       	pop	r13
    7be8:	cf 90       	pop	r12
    7bea:	08 95       	ret

00007bec <ExtractEulerAngles>:
    7bec:	60 91 42 05 	lds	r22, 0x0542
    7bf0:	70 91 43 05 	lds	r23, 0x0543
    7bf4:	80 91 44 05 	lds	r24, 0x0544
    7bf8:	90 91 45 05 	lds	r25, 0x0545
    7bfc:	0e 94 bc 3d 	call	0x7b78	; 0x7b78 <ext2>
    7c00:	60 93 0d 06 	sts	0x060D, r22
    7c04:	70 93 0e 06 	sts	0x060E, r23
    7c08:	80 93 0f 06 	sts	0x060F, r24
    7c0c:	90 93 10 06 	sts	0x0610, r25
    7c10:	60 91 3e 05 	lds	r22, 0x053E
    7c14:	70 91 3f 05 	lds	r23, 0x053F
    7c18:	80 91 40 05 	lds	r24, 0x0540
    7c1c:	90 91 41 05 	lds	r25, 0x0541
    7c20:	0e 94 bc 3d 	call	0x7b78	; 0x7b78 <ext2>
    7c24:	60 93 e1 05 	sts	0x05E1, r22
    7c28:	70 93 e2 05 	sts	0x05E2, r23
    7c2c:	80 93 e3 05 	sts	0x05E3, r24
    7c30:	90 93 e4 05 	sts	0x05E4, r25
    7c34:	08 95       	ret

00007c36 <imu_update>:
    7c36:	4f 92       	push	r4
    7c38:	5f 92       	push	r5
    7c3a:	6f 92       	push	r6
    7c3c:	7f 92       	push	r7
    7c3e:	8f 92       	push	r8
    7c40:	9f 92       	push	r9
    7c42:	af 92       	push	r10
    7c44:	bf 92       	push	r11
    7c46:	cf 92       	push	r12
    7c48:	df 92       	push	r13
    7c4a:	ef 92       	push	r14
    7c4c:	ff 92       	push	r15
    7c4e:	0f 93       	push	r16
    7c50:	1f 93       	push	r17
    7c52:	cf 93       	push	r28
    7c54:	df 93       	push	r29
    7c56:	cd b7       	in	r28, 0x3d	; 61
    7c58:	de b7       	in	r29, 0x3e	; 62
    7c5a:	2c 97       	sbiw	r28, 0x0c	; 12
    7c5c:	0f b6       	in	r0, 0x3f	; 63
    7c5e:	f8 94       	cli
    7c60:	de bf       	out	0x3e, r29	; 62
    7c62:	0f be       	out	0x3f, r0	; 63
    7c64:	cd bf       	out	0x3d, r28	; 61
    7c66:	0e 94 45 6d 	call	0xda8a	; 0xda8a <__floatunsisf>
    7c6a:	69 83       	std	Y+1, r22	; 0x01
    7c6c:	7a 83       	std	Y+2, r23	; 0x02
    7c6e:	8b 83       	std	Y+3, r24	; 0x03
    7c70:	9c 83       	std	Y+4, r25	; 0x04
    7c72:	20 e8       	ldi	r18, 0x80	; 128
    7c74:	36 e9       	ldi	r19, 0x96	; 150
    7c76:	48 e1       	ldi	r20, 0x18	; 24
    7c78:	5a e4       	ldi	r21, 0x4A	; 74
    7c7a:	0e 94 9d 6c 	call	0xd93a	; 0xd93a <__divsf3>
    7c7e:	60 93 dd 05 	sts	0x05DD, r22
    7c82:	70 93 de 05 	sts	0x05DE, r23
    7c86:	80 93 df 05 	sts	0x05DF, r24
    7c8a:	90 93 e0 05 	sts	0x05E0, r25
    7c8e:	80 91 43 06 	lds	r24, 0x0643
    7c92:	60 91 bf 06 	lds	r22, 0x06BF
    7c96:	82 30       	cpi	r24, 0x02	; 2
    7c98:	39 f0       	breq	.+14     	; 0x7ca8 <imu_update+0x72>
    7c9a:	04 e0       	ldi	r16, 0x04	; 4
    7c9c:	60 02       	muls	r22, r16
    7c9e:	b0 01       	movw	r22, r0
    7ca0:	11 24       	eor	r1, r1
    7ca2:	66 55       	subi	r22, 0x56	; 86
    7ca4:	7b 4d       	sbci	r23, 0xDB	; 219
    7ca6:	06 c0       	rjmp	.+12     	; 0x7cb4 <imu_update+0x7e>
    7ca8:	14 e0       	ldi	r17, 0x04	; 4
    7caa:	61 02       	muls	r22, r17
    7cac:	b0 01       	movw	r22, r0
    7cae:	11 24       	eor	r1, r1
    7cb0:	66 57       	subi	r22, 0x76	; 118
    7cb2:	7b 4d       	sbci	r23, 0xDB	; 219
    7cb4:	44 e0       	ldi	r20, 0x04	; 4
    7cb6:	50 e0       	ldi	r21, 0x00	; 0
    7cb8:	ce 01       	movw	r24, r28
    7cba:	01 96       	adiw	r24, 0x01	; 1
    7cbc:	0e 94 09 6f 	call	0xde12	; 0xde12 <memcpy_P>
    7cc0:	90 90 bf 06 	lds	r9, 0x06BF
    7cc4:	49 80       	ldd	r4, Y+1	; 0x01
    7cc6:	5a 80       	ldd	r5, Y+2	; 0x02
    7cc8:	6b 80       	ldd	r6, Y+3	; 0x03
    7cca:	7c 80       	ldd	r7, Y+4	; 0x04
    7ccc:	80 e7       	ldi	r24, 0x70	; 112
    7cce:	a8 2e       	mov	r10, r24
    7cd0:	85 e0       	ldi	r24, 0x05	; 5
    7cd2:	b8 2e       	mov	r11, r24
    7cd4:	01 e0       	ldi	r16, 0x01	; 1
    7cd6:	16 e0       	ldi	r17, 0x06	; 6
    7cd8:	d5 01       	movw	r26, r10
    7cda:	6d 91       	ld	r22, X+
    7cdc:	7d 91       	ld	r23, X+
    7cde:	5d 01       	movw	r10, r26
    7ce0:	07 2e       	mov	r0, r23
    7ce2:	00 0c       	add	r0, r0
    7ce4:	88 0b       	sbc	r24, r24
    7ce6:	99 0b       	sbc	r25, r25
    7ce8:	0e 94 47 6d 	call	0xda8e	; 0xda8e <__floatsisf>
    7cec:	6b 01       	movw	r12, r22
    7cee:	7c 01       	movw	r14, r24
    7cf0:	b7 e0       	ldi	r27, 0x07	; 7
    7cf2:	9b 16       	cp	r9, r27
    7cf4:	f1 f0       	breq	.+60     	; 0x7d32 <imu_update+0xfc>
    7cf6:	20 e0       	ldi	r18, 0x00	; 0
    7cf8:	30 e0       	ldi	r19, 0x00	; 0
    7cfa:	40 e8       	ldi	r20, 0x80	; 128
    7cfc:	5f e3       	ldi	r21, 0x3F	; 63
    7cfe:	c3 01       	movw	r24, r6
    7d00:	b2 01       	movw	r22, r4
    7d02:	0e 94 2b 6c 	call	0xd856	; 0xd856 <__subsf3>
    7d06:	f8 01       	movw	r30, r16
    7d08:	20 81       	ld	r18, Z
    7d0a:	31 81       	ldd	r19, Z+1	; 0x01
    7d0c:	42 81       	ldd	r20, Z+2	; 0x02
    7d0e:	53 81       	ldd	r21, Z+3	; 0x03
    7d10:	0e 94 fc 6d 	call	0xdbf8	; 0xdbf8 <__mulsf3>
    7d14:	a7 01       	movw	r20, r14
    7d16:	96 01       	movw	r18, r12
    7d18:	0e 94 2b 6c 	call	0xd856	; 0xd856 <__subsf3>
    7d1c:	a3 01       	movw	r20, r6
    7d1e:	92 01       	movw	r18, r4
    7d20:	0e 94 9d 6c 	call	0xd93a	; 0xd93a <__divsf3>
    7d24:	d8 01       	movw	r26, r16
    7d26:	6d 93       	st	X+, r22
    7d28:	7d 93       	st	X+, r23
    7d2a:	8d 93       	st	X+, r24
    7d2c:	9c 93       	st	X, r25
    7d2e:	13 97       	sbiw	r26, 0x03	; 3
    7d30:	09 c0       	rjmp	.+18     	; 0x7d44 <imu_update+0x10e>
    7d32:	f7 fa       	bst	r15, 7
    7d34:	f0 94       	com	r15
    7d36:	f7 f8       	bld	r15, 7
    7d38:	f0 94       	com	r15
    7d3a:	f8 01       	movw	r30, r16
    7d3c:	c0 82       	st	Z, r12
    7d3e:	d1 82       	std	Z+1, r13	; 0x01
    7d40:	e2 82       	std	Z+2, r14	; 0x02
    7d42:	f3 82       	std	Z+3, r15	; 0x03
    7d44:	0c 5f       	subi	r16, 0xFC	; 252
    7d46:	1f 4f       	sbci	r17, 0xFF	; 255
    7d48:	f6 e0       	ldi	r31, 0x06	; 6
    7d4a:	0d 30       	cpi	r16, 0x0D	; 13
    7d4c:	1f 07       	cpc	r17, r31
    7d4e:	21 f6       	brne	.-120    	; 0x7cd8 <imu_update+0xa2>
    7d50:	23 ec       	ldi	r18, 0xC3	; 195
    7d52:	35 ef       	ldi	r19, 0xF5	; 245
    7d54:	48 e2       	ldi	r20, 0x28	; 40
    7d56:	5f e3       	ldi	r21, 0x3F	; 63
    7d58:	60 91 01 06 	lds	r22, 0x0601
    7d5c:	70 91 02 06 	lds	r23, 0x0602
    7d60:	80 91 03 06 	lds	r24, 0x0603
    7d64:	90 91 04 06 	lds	r25, 0x0604
    7d68:	0e 94 fc 6d 	call	0xdbf8	; 0xdbf8 <__mulsf3>
    7d6c:	6d 83       	std	Y+5, r22	; 0x05
    7d6e:	7e 83       	std	Y+6, r23	; 0x06
    7d70:	8f 83       	std	Y+7, r24	; 0x07
    7d72:	98 87       	std	Y+8, r25	; 0x08
    7d74:	60 93 e5 05 	sts	0x05E5, r22
    7d78:	70 93 e6 05 	sts	0x05E6, r23
    7d7c:	80 93 e7 05 	sts	0x05E7, r24
    7d80:	90 93 e8 05 	sts	0x05E8, r25
    7d84:	23 ec       	ldi	r18, 0xC3	; 195
    7d86:	35 ef       	ldi	r19, 0xF5	; 245
    7d88:	48 e2       	ldi	r20, 0x28	; 40
    7d8a:	5f e3       	ldi	r21, 0x3F	; 63
    7d8c:	60 91 05 06 	lds	r22, 0x0605
    7d90:	70 91 06 06 	lds	r23, 0x0606
    7d94:	80 91 07 06 	lds	r24, 0x0607
    7d98:	90 91 08 06 	lds	r25, 0x0608
    7d9c:	0e 94 fc 6d 	call	0xdbf8	; 0xdbf8 <__mulsf3>
    7da0:	69 87       	std	Y+9, r22	; 0x09
    7da2:	7a 87       	std	Y+10, r23	; 0x0a
    7da4:	8b 87       	std	Y+11, r24	; 0x0b
    7da6:	9c 87       	std	Y+12, r25	; 0x0c
    7da8:	60 93 e9 05 	sts	0x05E9, r22
    7dac:	70 93 ea 05 	sts	0x05EA, r23
    7db0:	80 93 eb 05 	sts	0x05EB, r24
    7db4:	90 93 ec 05 	sts	0x05EC, r25
    7db8:	60 91 cd 05 	lds	r22, 0x05CD
    7dbc:	70 91 ce 05 	lds	r23, 0x05CE
    7dc0:	07 2e       	mov	r0, r23
    7dc2:	00 0c       	add	r0, r0
    7dc4:	88 0b       	sbc	r24, r24
    7dc6:	99 0b       	sbc	r25, r25
    7dc8:	0e 94 47 6d 	call	0xda8e	; 0xda8e <__floatsisf>
    7dcc:	2b 01       	movw	r4, r22
    7dce:	3c 01       	movw	r6, r24
    7dd0:	60 93 f1 05 	sts	0x05F1, r22
    7dd4:	70 93 f2 05 	sts	0x05F2, r23
    7dd8:	80 93 f3 05 	sts	0x05F3, r24
    7ddc:	90 93 f4 05 	sts	0x05F4, r25
    7de0:	60 91 cf 05 	lds	r22, 0x05CF
    7de4:	70 91 d0 05 	lds	r23, 0x05D0
    7de8:	07 2e       	mov	r0, r23
    7dea:	00 0c       	add	r0, r0
    7dec:	88 0b       	sbc	r24, r24
    7dee:	99 0b       	sbc	r25, r25
    7df0:	0e 94 47 6d 	call	0xda8e	; 0xda8e <__floatsisf>
    7df4:	4b 01       	movw	r8, r22
    7df6:	5c 01       	movw	r10, r24
    7df8:	60 93 ed 05 	sts	0x05ED, r22
    7dfc:	70 93 ee 05 	sts	0x05EE, r23
    7e00:	80 93 ef 05 	sts	0x05EF, r24
    7e04:	90 93 f0 05 	sts	0x05F0, r25
    7e08:	60 91 d1 05 	lds	r22, 0x05D1
    7e0c:	70 91 d2 05 	lds	r23, 0x05D2
    7e10:	07 2e       	mov	r0, r23
    7e12:	00 0c       	add	r0, r0
    7e14:	88 0b       	sbc	r24, r24
    7e16:	99 0b       	sbc	r25, r25
    7e18:	0e 94 47 6d 	call	0xda8e	; 0xda8e <__floatsisf>
    7e1c:	60 93 f5 05 	sts	0x05F5, r22
    7e20:	70 93 f6 05 	sts	0x05F6, r23
    7e24:	80 93 f7 05 	sts	0x05F7, r24
    7e28:	90 93 f8 05 	sts	0x05F8, r25
    7e2c:	e0 91 70 05 	lds	r30, 0x0570
    7e30:	f0 91 71 05 	lds	r31, 0x0571
    7e34:	80 91 72 05 	lds	r24, 0x0572
    7e38:	90 91 73 05 	lds	r25, 0x0573
    7e3c:	20 91 74 05 	lds	r18, 0x0574
    7e40:	30 91 75 05 	lds	r19, 0x0575
    7e44:	88 9f       	mul	r24, r24
    7e46:	a0 01       	movw	r20, r0
    7e48:	89 9f       	mul	r24, r25
    7e4a:	50 0d       	add	r21, r0
    7e4c:	50 0d       	add	r21, r0
    7e4e:	11 24       	eor	r1, r1
    7e50:	05 2e       	mov	r0, r21
    7e52:	00 0c       	add	r0, r0
    7e54:	66 0b       	sbc	r22, r22
    7e56:	77 0b       	sbc	r23, r23
    7e58:	ee 9f       	mul	r30, r30
    7e5a:	c0 01       	movw	r24, r0
    7e5c:	ef 9f       	mul	r30, r31
    7e5e:	90 0d       	add	r25, r0
    7e60:	90 0d       	add	r25, r0
    7e62:	11 24       	eor	r1, r1
    7e64:	09 2e       	mov	r0, r25
    7e66:	00 0c       	add	r0, r0
    7e68:	aa 0b       	sbc	r26, r26
    7e6a:	bb 0b       	sbc	r27, r27
    7e6c:	48 0f       	add	r20, r24
    7e6e:	59 1f       	adc	r21, r25
    7e70:	6a 1f       	adc	r22, r26
    7e72:	7b 1f       	adc	r23, r27
    7e74:	22 9f       	mul	r18, r18
    7e76:	c0 01       	movw	r24, r0
    7e78:	23 9f       	mul	r18, r19
    7e7a:	90 0d       	add	r25, r0
    7e7c:	90 0d       	add	r25, r0
    7e7e:	11 24       	eor	r1, r1
    7e80:	09 2e       	mov	r0, r25
    7e82:	00 0c       	add	r0, r0
    7e84:	aa 0b       	sbc	r26, r26
    7e86:	bb 0b       	sbc	r27, r27
    7e88:	8a 01       	movw	r16, r20
    7e8a:	9b 01       	movw	r18, r22
    7e8c:	08 0f       	add	r16, r24
    7e8e:	19 1f       	adc	r17, r25
    7e90:	2a 1f       	adc	r18, r26
    7e92:	3b 1f       	adc	r19, r27
    7e94:	c9 01       	movw	r24, r18
    7e96:	b8 01       	movw	r22, r16
    7e98:	0e 94 45 6d 	call	0xda8a	; 0xda8a <__floatunsisf>
    7e9c:	6b 01       	movw	r12, r22
    7e9e:	7c 01       	movw	r14, r24
    7ea0:	20 e0       	ldi	r18, 0x00	; 0
    7ea2:	34 ef       	ldi	r19, 0xF4	; 244
    7ea4:	48 e3       	ldi	r20, 0x38	; 56
    7ea6:	56 e4       	ldi	r21, 0x46	; 70
    7ea8:	0e 94 f7 6d 	call	0xdbee	; 0xdbee <__gesf2>
    7eac:	18 16       	cp	r1, r24
    7eae:	f4 f4       	brge	.+60     	; 0x7eec <imu_update+0x2b6>
    7eb0:	20 e0       	ldi	r18, 0x00	; 0
    7eb2:	38 e4       	ldi	r19, 0x48	; 72
    7eb4:	49 ea       	ldi	r20, 0xA9	; 169
    7eb6:	56 e4       	ldi	r21, 0x46	; 70
    7eb8:	c7 01       	movw	r24, r14
    7eba:	b6 01       	movw	r22, r12
    7ebc:	0e 94 98 6c 	call	0xd930	; 0xd930 <__cmpsf2>
    7ec0:	87 ff       	sbrs	r24, 7
    7ec2:	14 c0       	rjmp	.+40     	; 0x7eec <imu_update+0x2b6>
    7ec4:	20 e0       	ldi	r18, 0x00	; 0
    7ec6:	30 e0       	ldi	r19, 0x00	; 0
    7ec8:	40 e0       	ldi	r20, 0x00	; 0
    7eca:	5f e3       	ldi	r21, 0x3F	; 63
    7ecc:	60 91 00 05 	lds	r22, 0x0500
    7ed0:	70 91 01 05 	lds	r23, 0x0501
    7ed4:	80 91 02 05 	lds	r24, 0x0502
    7ed8:	90 91 03 05 	lds	r25, 0x0503
    7edc:	0e 94 f7 6d 	call	0xdbee	; 0xdbee <__gesf2>
    7ee0:	18 16       	cp	r1, r24
    7ee2:	24 f4       	brge	.+8      	; 0x7eec <imu_update+0x2b6>
    7ee4:	80 91 b9 06 	lds	r24, 0x06B9
    7ee8:	88 23       	and	r24, r24
    7eea:	d1 f0       	breq	.+52     	; 0x7f20 <imu_update+0x2ea>
    7eec:	20 e0       	ldi	r18, 0x00	; 0
    7eee:	30 ed       	ldi	r19, 0xD0	; 208
    7ef0:	43 e2       	ldi	r20, 0x23	; 35
    7ef2:	55 e4       	ldi	r21, 0x45	; 69
    7ef4:	c7 01       	movw	r24, r14
    7ef6:	b6 01       	movw	r22, r12
    7ef8:	0e 94 f7 6d 	call	0xdbee	; 0xdbee <__gesf2>
    7efc:	18 16       	cp	r1, r24
    7efe:	0c f0       	brlt	.+2      	; 0x7f02 <imu_update+0x2cc>
    7f00:	6f c0       	rjmp	.+222    	; 0x7fe0 <imu_update+0x3aa>
    7f02:	20 e0       	ldi	r18, 0x00	; 0
    7f04:	37 ed       	ldi	r19, 0xD7	; 215
    7f06:	43 e2       	ldi	r20, 0x23	; 35
    7f08:	57 e4       	ldi	r21, 0x47	; 71
    7f0a:	c7 01       	movw	r24, r14
    7f0c:	b6 01       	movw	r22, r12
    7f0e:	0e 94 98 6c 	call	0xd930	; 0xd930 <__cmpsf2>
    7f12:	87 ff       	sbrs	r24, 7
    7f14:	65 c0       	rjmp	.+202    	; 0x7fe0 <imu_update+0x3aa>
    7f16:	80 91 b9 06 	lds	r24, 0x06B9
    7f1a:	88 23       	and	r24, r24
    7f1c:	09 f4       	brne	.+2      	; 0x7f20 <imu_update+0x2ea>
    7f1e:	60 c0       	rjmp	.+192    	; 0x7fe0 <imu_update+0x3aa>
    7f20:	80 91 c1 06 	lds	r24, 0x06C1
    7f24:	6c e0       	ldi	r22, 0x0C	; 12
    7f26:	70 e0       	ldi	r23, 0x00	; 0
    7f28:	68 1b       	sub	r22, r24
    7f2a:	71 09       	sbc	r23, r1
    7f2c:	87 fd       	sbrc	r24, 7
    7f2e:	73 95       	inc	r23
    7f30:	07 2e       	mov	r0, r23
    7f32:	00 0c       	add	r0, r0
    7f34:	88 0b       	sbc	r24, r24
    7f36:	99 0b       	sbc	r25, r25
    7f38:	0e 94 47 6d 	call	0xda8e	; 0xda8e <__floatsisf>
    7f3c:	6b 01       	movw	r12, r22
    7f3e:	7c 01       	movw	r14, r24
    7f40:	2d 81       	ldd	r18, Y+5	; 0x05
    7f42:	3e 81       	ldd	r19, Y+6	; 0x06
    7f44:	4f 81       	ldd	r20, Y+7	; 0x07
    7f46:	58 85       	ldd	r21, Y+8	; 0x08
    7f48:	60 91 0d 06 	lds	r22, 0x060D
    7f4c:	70 91 0e 06 	lds	r23, 0x060E
    7f50:	80 91 0f 06 	lds	r24, 0x060F
    7f54:	90 91 10 06 	lds	r25, 0x0610
    7f58:	0e 94 2b 6c 	call	0xd856	; 0xd856 <__subsf3>
    7f5c:	20 e0       	ldi	r18, 0x00	; 0
    7f5e:	30 e0       	ldi	r19, 0x00	; 0
    7f60:	40 e2       	ldi	r20, 0x20	; 32
    7f62:	51 e4       	ldi	r21, 0x41	; 65
    7f64:	0e 94 9d 6c 	call	0xd93a	; 0xd93a <__divsf3>
    7f68:	a7 01       	movw	r20, r14
    7f6a:	96 01       	movw	r18, r12
    7f6c:	0e 94 fc 6d 	call	0xdbf8	; 0xdbf8 <__mulsf3>
    7f70:	9b 01       	movw	r18, r22
    7f72:	ac 01       	movw	r20, r24
    7f74:	c3 01       	movw	r24, r6
    7f76:	b2 01       	movw	r22, r4
    7f78:	0e 94 2c 6c 	call	0xd858	; 0xd858 <__addsf3>
    7f7c:	60 93 f1 05 	sts	0x05F1, r22
    7f80:	70 93 f2 05 	sts	0x05F2, r23
    7f84:	80 93 f3 05 	sts	0x05F3, r24
    7f88:	90 93 f4 05 	sts	0x05F4, r25
    7f8c:	29 85       	ldd	r18, Y+9	; 0x09
    7f8e:	3a 85       	ldd	r19, Y+10	; 0x0a
    7f90:	4b 85       	ldd	r20, Y+11	; 0x0b
    7f92:	5c 85       	ldd	r21, Y+12	; 0x0c
    7f94:	60 91 e1 05 	lds	r22, 0x05E1
    7f98:	70 91 e2 05 	lds	r23, 0x05E2
    7f9c:	80 91 e3 05 	lds	r24, 0x05E3
    7fa0:	90 91 e4 05 	lds	r25, 0x05E4
    7fa4:	0e 94 2b 6c 	call	0xd856	; 0xd856 <__subsf3>
    7fa8:	20 e0       	ldi	r18, 0x00	; 0
    7faa:	30 e0       	ldi	r19, 0x00	; 0
    7fac:	40 e2       	ldi	r20, 0x20	; 32
    7fae:	51 e4       	ldi	r21, 0x41	; 65
    7fb0:	0e 94 9d 6c 	call	0xd93a	; 0xd93a <__divsf3>
    7fb4:	a7 01       	movw	r20, r14
    7fb6:	96 01       	movw	r18, r12
    7fb8:	0e 94 fc 6d 	call	0xdbf8	; 0xdbf8 <__mulsf3>
    7fbc:	9b 01       	movw	r18, r22
    7fbe:	ac 01       	movw	r20, r24
    7fc0:	69 83       	std	Y+1, r22	; 0x01
    7fc2:	7a 83       	std	Y+2, r23	; 0x02
    7fc4:	8b 83       	std	Y+3, r24	; 0x03
    7fc6:	9c 83       	std	Y+4, r25	; 0x04
    7fc8:	c5 01       	movw	r24, r10
    7fca:	b4 01       	movw	r22, r8
    7fcc:	0e 94 2c 6c 	call	0xd858	; 0xd858 <__addsf3>
    7fd0:	60 93 ed 05 	sts	0x05ED, r22
    7fd4:	70 93 ee 05 	sts	0x05EE, r23
    7fd8:	80 93 ef 05 	sts	0x05EF, r24
    7fdc:	90 93 f0 05 	sts	0x05F0, r25
    7fe0:	60 91 dd 05 	lds	r22, 0x05DD
    7fe4:	70 91 de 05 	lds	r23, 0x05DE
    7fe8:	80 91 df 05 	lds	r24, 0x05DF
    7fec:	90 91 e0 05 	lds	r25, 0x05E0
    7ff0:	0e 94 cb 3c 	call	0x7996	; 0x7996 <Rotate3dVector>
    7ff4:	0e 94 f6 3d 	call	0x7bec	; 0x7bec <ExtractEulerAngles>
    7ff8:	20 e0       	ldi	r18, 0x00	; 0
    7ffa:	30 e0       	ldi	r19, 0x00	; 0
    7ffc:	48 ec       	ldi	r20, 0xC8	; 200
    7ffe:	52 ec       	ldi	r21, 0xC2	; 194
    8000:	60 91 0d 06 	lds	r22, 0x060D
    8004:	70 91 0e 06 	lds	r23, 0x060E
    8008:	80 91 0f 06 	lds	r24, 0x060F
    800c:	90 91 10 06 	lds	r25, 0x0610
    8010:	0e 94 fc 6d 	call	0xdbf8	; 0xdbf8 <__mulsf3>
    8014:	0e 94 0f 6d 	call	0xda1e	; 0xda1e <__fixsfsi>
    8018:	70 93 fa 05 	sts	0x05FA, r23
    801c:	60 93 f9 05 	sts	0x05F9, r22
    8020:	20 e0       	ldi	r18, 0x00	; 0
    8022:	30 e0       	ldi	r19, 0x00	; 0
    8024:	48 ec       	ldi	r20, 0xC8	; 200
    8026:	52 ec       	ldi	r21, 0xC2	; 194
    8028:	60 91 e1 05 	lds	r22, 0x05E1
    802c:	70 91 e2 05 	lds	r23, 0x05E2
    8030:	80 91 e3 05 	lds	r24, 0x05E3
    8034:	90 91 e4 05 	lds	r25, 0x05E4
    8038:	0e 94 fc 6d 	call	0xdbf8	; 0xdbf8 <__mulsf3>
    803c:	0e 94 0f 6d 	call	0xda1e	; 0xda1e <__fixsfsi>
    8040:	70 93 fc 05 	sts	0x05FC, r23
    8044:	60 93 fb 05 	sts	0x05FB, r22
    8048:	2c 96       	adiw	r28, 0x0c	; 12
    804a:	0f b6       	in	r0, 0x3f	; 63
    804c:	f8 94       	cli
    804e:	de bf       	out	0x3e, r29	; 62
    8050:	0f be       	out	0x3f, r0	; 63
    8052:	cd bf       	out	0x3d, r28	; 61
    8054:	df 91       	pop	r29
    8056:	cf 91       	pop	r28
    8058:	1f 91       	pop	r17
    805a:	0f 91       	pop	r16
    805c:	ff 90       	pop	r15
    805e:	ef 90       	pop	r14
    8060:	df 90       	pop	r13
    8062:	cf 90       	pop	r12
    8064:	bf 90       	pop	r11
    8066:	af 90       	pop	r10
    8068:	9f 90       	pop	r9
    806a:	8f 90       	pop	r8
    806c:	7f 90       	pop	r7
    806e:	6f 90       	pop	r6
    8070:	5f 90       	pop	r5
    8072:	4f 90       	pop	r4
    8074:	08 95       	ret

00008076 <reset_IMU>:
    8076:	10 92 42 05 	sts	0x0542, r1
    807a:	10 92 43 05 	sts	0x0543, r1
    807e:	10 92 44 05 	sts	0x0544, r1
    8082:	10 92 45 05 	sts	0x0545, r1
    8086:	10 92 3e 05 	sts	0x053E, r1
    808a:	10 92 3f 05 	sts	0x053F, r1
    808e:	10 92 40 05 	sts	0x0540, r1
    8092:	10 92 41 05 	sts	0x0541, r1
    8096:	80 e0       	ldi	r24, 0x00	; 0
    8098:	90 e0       	ldi	r25, 0x00	; 0
    809a:	a0 e8       	ldi	r26, 0x80	; 128
    809c:	bf e3       	ldi	r27, 0x3F	; 63
    809e:	80 93 00 05 	sts	0x0500, r24
    80a2:	90 93 01 05 	sts	0x0501, r25
    80a6:	a0 93 02 05 	sts	0x0502, r26
    80aa:	b0 93 03 05 	sts	0x0503, r27
    80ae:	10 92 11 06 	sts	0x0611, r1
    80b2:	10 92 12 06 	sts	0x0612, r1
    80b6:	10 92 13 06 	sts	0x0613, r1
    80ba:	10 92 14 06 	sts	0x0614, r1
    80be:	10 92 15 06 	sts	0x0615, r1
    80c2:	10 92 16 06 	sts	0x0616, r1
    80c6:	10 92 17 06 	sts	0x0617, r1
    80ca:	10 92 18 06 	sts	0x0618, r1
    80ce:	10 92 0d 06 	sts	0x060D, r1
    80d2:	10 92 0e 06 	sts	0x060E, r1
    80d6:	10 92 0f 06 	sts	0x060F, r1
    80da:	10 92 10 06 	sts	0x0610, r1
    80de:	10 92 e1 05 	sts	0x05E1, r1
    80e2:	10 92 e2 05 	sts	0x05E2, r1
    80e6:	10 92 e3 05 	sts	0x05E3, r1
    80ea:	10 92 e4 05 	sts	0x05E4, r1
    80ee:	10 92 e2 08 	sts	0x08E2, r1
    80f2:	10 92 e1 08 	sts	0x08E1, r1
    80f6:	10 92 85 00 	sts	0x0085, r1
    80fa:	10 92 84 00 	sts	0x0084, r1
    80fe:	10 92 30 05 	sts	0x0530, r1
    8102:	10 92 2f 05 	sts	0x052F, r1
    8106:	08 95       	ret

00008108 <init>:
    8108:	cf 93       	push	r28
    810a:	df 93       	push	r29
    810c:	80 e3       	ldi	r24, 0x30	; 48
    810e:	81 b9       	out	0x01, r24	; 1
    8110:	8a e0       	ldi	r24, 0x0A	; 10
    8112:	84 b9       	out	0x04, r24	; 4
    8114:	8c ef       	ldi	r24, 0xFC	; 252
    8116:	87 b9       	out	0x07, r24	; 7
    8118:	82 ef       	ldi	r24, 0xF2	; 242
    811a:	8a b9       	out	0x0a, r24	; 10
    811c:	18 b8       	out	0x08, r1	; 8
    811e:	14 98       	cbi	0x02, 4	; 2
    8120:	15 98       	cbi	0x02, 5	; 2
    8122:	2b 98       	cbi	0x05, 3	; 5
    8124:	29 98       	cbi	0x05, 1	; 5
    8126:	5c 9a       	sbi	0x0b, 4	; 11
    8128:	85 ef       	ldi	r24, 0xF5	; 245
    812a:	83 b9       	out	0x03, r24	; 3
    812c:	8c e0       	ldi	r24, 0x0C	; 12
    812e:	89 b9       	out	0x09, r24	; 9
    8130:	89 b9       	out	0x09, r24	; 9
    8132:	2f e5       	ldi	r18, 0x5F	; 95
    8134:	88 ed       	ldi	r24, 0xD8	; 216
    8136:	93 e0       	ldi	r25, 0x03	; 3
    8138:	21 50       	subi	r18, 0x01	; 1
    813a:	80 40       	sbci	r24, 0x00	; 0
    813c:	90 40       	sbci	r25, 0x00	; 0
    813e:	e1 f7       	brne	.-8      	; 0x8138 <init+0x30>
    8140:	00 c0       	rjmp	.+0      	; 0x8142 <init+0x3a>
    8142:	00 00       	nop
    8144:	83 b1       	in	r24, 0x03	; 3
    8146:	80 7f       	andi	r24, 0xF0	; 240
    8148:	80 37       	cpi	r24, 0x70	; 112
    814a:	29 f4       	brne	.+10     	; 0x8156 <init+0x4e>
    814c:	83 ef       	ldi	r24, 0xF3	; 243
    814e:	8a b9       	out	0x0a, r24	; 10
    8150:	83 e0       	ldi	r24, 0x03	; 3
    8152:	0e 94 05 16 	call	0x2c0a	; 0x2c0a <bind_master>
    8156:	83 b1       	in	r24, 0x03	; 3
    8158:	80 7f       	andi	r24, 0xF0	; 240
    815a:	80 3b       	cpi	r24, 0xB0	; 176
    815c:	29 f4       	brne	.+10     	; 0x8168 <init+0x60>
    815e:	83 ef       	ldi	r24, 0xF3	; 243
    8160:	8a b9       	out	0x0a, r24	; 10
    8162:	85 e0       	ldi	r24, 0x05	; 5
    8164:	0e 94 05 16 	call	0x2c0a	; 0x2c0a <bind_master>
    8168:	83 b1       	in	r24, 0x03	; 3
    816a:	80 7f       	andi	r24, 0xF0	; 240
    816c:	80 3d       	cpi	r24, 0xD0	; 208
    816e:	29 f4       	brne	.+10     	; 0x817a <init+0x72>
    8170:	83 ef       	ldi	r24, 0xF3	; 243
    8172:	8a b9       	out	0x0a, r24	; 10
    8174:	87 e0       	ldi	r24, 0x07	; 7
    8176:	0e 94 05 16 	call	0x2c0a	; 0x2c0a <bind_master>
    817a:	83 b1       	in	r24, 0x03	; 3
    817c:	80 7f       	andi	r24, 0xF0	; 240
    817e:	80 3e       	cpi	r24, 0xE0	; 224
    8180:	29 f4       	brne	.+10     	; 0x818c <init+0x84>
    8182:	83 ef       	ldi	r24, 0xF3	; 243
    8184:	8a b9       	out	0x0a, r24	; 10
    8186:	89 e0       	ldi	r24, 0x09	; 9
    8188:	0e 94 05 16 	call	0x2c0a	; 0x2c0a <bind_master>
    818c:	82 ef       	ldi	r24, 0xF2	; 242
    818e:	8a b9       	out	0x0a, r24	; 10
    8190:	8d e0       	ldi	r24, 0x0D	; 13
    8192:	89 b9       	out	0x09, r24	; 9
    8194:	14 bc       	out	0x24, r1	; 36
    8196:	85 e0       	ldi	r24, 0x05	; 5
    8198:	85 bd       	out	0x25, r24	; 37
    819a:	80 91 6e 00 	lds	r24, 0x006E
    819e:	81 60       	ori	r24, 0x01	; 1
    81a0:	80 93 6e 00 	sts	0x006E, r24
    81a4:	16 bc       	out	0x26, r1	; 38
    81a6:	10 92 80 00 	sts	0x0080, r1
    81aa:	80 91 81 00 	lds	r24, 0x0081
    81ae:	82 60       	ori	r24, 0x02	; 2
    81b0:	80 93 81 00 	sts	0x0081, r24
    81b4:	10 92 b0 00 	sts	0x00B0, r1
    81b8:	87 e0       	ldi	r24, 0x07	; 7
    81ba:	80 93 b1 00 	sts	0x00B1, r24
    81be:	10 92 70 00 	sts	0x0070, r1
    81c2:	17 ba       	out	0x17, r1	; 23
    81c4:	10 92 b2 00 	sts	0x00B2, r1
    81c8:	9a e0       	ldi	r25, 0x0A	; 10
    81ca:	90 93 68 00 	sts	0x0068, r25
    81ce:	9f e0       	ldi	r25, 0x0F	; 15
    81d0:	9b bb       	out	0x1b, r25	; 27
    81d2:	95 e1       	ldi	r25, 0x15	; 21
    81d4:	90 93 69 00 	sts	0x0069, r25
    81d8:	8c bb       	out	0x1c, r24	; 28
    81da:	10 92 ce 08 	sts	0x08CE, r1
    81de:	0e 94 71 2e 	call	0x5ce2	; 0x5ce2 <Initial_EEPROM_Config_Load>
    81e2:	c8 2f       	mov	r28, r24
    81e4:	20 e0       	ldi	r18, 0x00	; 0
    81e6:	30 e0       	ldi	r19, 0x00	; 0
    81e8:	86 ea       	ldi	r24, 0xA6	; 166
    81ea:	9e e0       	ldi	r25, 0x0E	; 14
    81ec:	f9 01       	movw	r30, r18
    81ee:	ee 0f       	add	r30, r30
    81f0:	ff 1f       	adc	r31, r31
    81f2:	e2 54       	subi	r30, 0x42	; 66
    81f4:	f7 4f       	sbci	r31, 0xF7	; 247
    81f6:	91 83       	std	Z+1, r25	; 0x01
    81f8:	80 83       	st	Z, r24
    81fa:	2f 5f       	subi	r18, 0xFF	; 255
    81fc:	3f 4f       	sbci	r19, 0xFF	; 255
    81fe:	28 30       	cpi	r18, 0x08	; 8
    8200:	31 05       	cpc	r19, r1
    8202:	a1 f7       	brne	.-24     	; 0x81ec <init+0xe4>
    8204:	84 ec       	ldi	r24, 0xC4	; 196
    8206:	99 e0       	ldi	r25, 0x09	; 9
    8208:	90 93 bf 08 	sts	0x08BF, r25
    820c:	80 93 be 08 	sts	0x08BE, r24
    8210:	0e 94 fe 35 	call	0x6bfc	; 0x6bfc <st7565_init>
    8214:	0e 94 5b 36 	call	0x6cb6	; 0x6cb6 <clear_screen>
    8218:	1f 99       	sbic	0x03, 7	; 3
    821a:	72 c0       	rjmp	.+228    	; 0x8300 <init+0x1f8>
    821c:	1c 99       	sbic	0x03, 4	; 3
    821e:	70 c0       	rjmp	.+224    	; 0x8300 <init+0x1f8>
    8220:	80 ec       	ldi	r24, 0xC0	; 192
    8222:	0e 94 ef 35 	call	0x6bde	; 0x6bde <st7565_command>
    8226:	80 e0       	ldi	r24, 0x00	; 0
    8228:	91 e0       	ldi	r25, 0x01	; 1
    822a:	0e 94 52 36 	call	0x6ca4	; 0x6ca4 <clear_buffer>
    822e:	29 e1       	ldi	r18, 0x19	; 25
    8230:	30 e0       	ldi	r19, 0x00	; 0
    8232:	4a e0       	ldi	r20, 0x0A	; 10
    8234:	50 e0       	ldi	r21, 0x00	; 0
    8236:	6f ec       	ldi	r22, 0xCF	; 207
    8238:	74 e0       	ldi	r23, 0x04	; 4
    823a:	8b e3       	ldi	r24, 0x3B	; 59
    823c:	90 e0       	ldi	r25, 0x00	; 0
    823e:	0e 94 2e 38 	call	0x705c	; 0x705c <LCD_Display_Text>
    8242:	80 e0       	ldi	r24, 0x00	; 0
    8244:	91 e0       	ldi	r25, 0x01	; 1
    8246:	0e 94 1d 36 	call	0x6c3a	; 0x6c3a <write_buffer>
    824a:	80 e0       	ldi	r24, 0x00	; 0
    824c:	91 e0       	ldi	r25, 0x01	; 1
    824e:	0e 94 52 36 	call	0x6ca4	; 0x6ca4 <clear_buffer>
    8252:	c8 ec       	ldi	r28, 0xC8	; 200
    8254:	d6 e0       	ldi	r29, 0x06	; 6
    8256:	fe 01       	movw	r30, r28
    8258:	20 e0       	ldi	r18, 0x00	; 0
    825a:	30 e0       	ldi	r19, 0x00	; 0
    825c:	4c ed       	ldi	r20, 0xDC	; 220
    825e:	55 e0       	ldi	r21, 0x05	; 5
    8260:	6c e6       	ldi	r22, 0x6C	; 108
    8262:	77 e0       	ldi	r23, 0x07	; 7
    8264:	a0 81       	ld	r26, Z
    8266:	c9 01       	movw	r24, r18
    8268:	88 0f       	add	r24, r24
    826a:	99 1f       	adc	r25, r25
    826c:	a2 30       	cpi	r26, 0x02	; 2
    826e:	39 f4       	brne	.+14     	; 0x827e <init+0x176>
    8270:	dc 01       	movw	r26, r24
    8272:	ab 58       	subi	r26, 0x8B	; 139
    8274:	b6 4f       	sbci	r27, 0xF6	; 246
    8276:	11 96       	adiw	r26, 0x01	; 1
    8278:	7c 93       	st	X, r23
    827a:	6e 93       	st	-X, r22
    827c:	06 c0       	rjmp	.+12     	; 0x828a <init+0x182>
    827e:	dc 01       	movw	r26, r24
    8280:	ab 58       	subi	r26, 0x8B	; 139
    8282:	b6 4f       	sbci	r27, 0xF6	; 246
    8284:	11 96       	adiw	r26, 0x01	; 1
    8286:	5c 93       	st	X, r21
    8288:	4e 93       	st	-X, r20
    828a:	2f 5f       	subi	r18, 0xFF	; 255
    828c:	3f 4f       	sbci	r19, 0xFF	; 255
    828e:	b2 96       	adiw	r30, 0x22	; 34
    8290:	28 30       	cpi	r18, 0x08	; 8
    8292:	31 05       	cpc	r19, r1
    8294:	39 f7       	brne	.-50     	; 0x8264 <init+0x15c>
    8296:	83 b1       	in	r24, 0x03	; 3
    8298:	80 7f       	andi	r24, 0xF0	; 240
    829a:	80 36       	cpi	r24, 0x60	; 96
    829c:	79 f4       	brne	.+30     	; 0x82bc <init+0x1b4>
    829e:	6f ef       	ldi	r22, 0xFF	; 255
    82a0:	85 e7       	ldi	r24, 0x75	; 117
    82a2:	99 e0       	ldi	r25, 0x09	; 9
    82a4:	0e 94 1e 16 	call	0x2c3c	; 0x2c3c <output_servo_ppm_asm>
    82a8:	2f e7       	ldi	r18, 0x7F	; 127
    82aa:	88 e3       	ldi	r24, 0x38	; 56
    82ac:	91 e0       	ldi	r25, 0x01	; 1
    82ae:	21 50       	subi	r18, 0x01	; 1
    82b0:	80 40       	sbci	r24, 0x00	; 0
    82b2:	90 40       	sbci	r25, 0x00	; 0
    82b4:	e1 f7       	brne	.-8      	; 0x82ae <init+0x1a6>
    82b6:	00 c0       	rjmp	.+0      	; 0x82b8 <init+0x1b0>
    82b8:	00 00       	nop
    82ba:	ed cf       	rjmp	.-38     	; 0x8296 <init+0x18e>
    82bc:	80 e0       	ldi	r24, 0x00	; 0
    82be:	90 e0       	ldi	r25, 0x00	; 0
    82c0:	2c e4       	ldi	r18, 0x4C	; 76
    82c2:	34 e0       	ldi	r19, 0x04	; 4
    82c4:	48 81       	ld	r20, Y
    82c6:	42 30       	cpi	r20, 0x02	; 2
    82c8:	39 f4       	brne	.+14     	; 0x82d8 <init+0x1d0>
    82ca:	fc 01       	movw	r30, r24
    82cc:	ee 0f       	add	r30, r30
    82ce:	ff 1f       	adc	r31, r31
    82d0:	eb 58       	subi	r30, 0x8B	; 139
    82d2:	f6 4f       	sbci	r31, 0xF6	; 246
    82d4:	31 83       	std	Z+1, r19	; 0x01
    82d6:	20 83       	st	Z, r18
    82d8:	01 96       	adiw	r24, 0x01	; 1
    82da:	a2 96       	adiw	r28, 0x22	; 34
    82dc:	88 30       	cpi	r24, 0x08	; 8
    82de:	91 05       	cpc	r25, r1
    82e0:	89 f7       	brne	.-30     	; 0x82c4 <init+0x1bc>
    82e2:	6f ef       	ldi	r22, 0xFF	; 255
    82e4:	85 e7       	ldi	r24, 0x75	; 117
    82e6:	99 e0       	ldi	r25, 0x09	; 9
    82e8:	0e 94 1e 16 	call	0x2c3c	; 0x2c3c <output_servo_ppm_asm>
    82ec:	2f e7       	ldi	r18, 0x7F	; 127
    82ee:	88 e3       	ldi	r24, 0x38	; 56
    82f0:	91 e0       	ldi	r25, 0x01	; 1
    82f2:	21 50       	subi	r18, 0x01	; 1
    82f4:	80 40       	sbci	r24, 0x00	; 0
    82f6:	90 40       	sbci	r25, 0x00	; 0
    82f8:	e1 f7       	brne	.-8      	; 0x82f2 <init+0x1ea>
    82fa:	00 c0       	rjmp	.+0      	; 0x82fc <init+0x1f4>
    82fc:	00 00       	nop
    82fe:	f1 cf       	rjmp	.-30     	; 0x82e2 <init+0x1da>
    8300:	2f e7       	ldi	r18, 0x7F	; 127
    8302:	8f e4       	ldi	r24, 0x4F	; 79
    8304:	92 e1       	ldi	r25, 0x12	; 18
    8306:	21 50       	subi	r18, 0x01	; 1
    8308:	80 40       	sbci	r24, 0x00	; 0
    830a:	90 40       	sbci	r25, 0x00	; 0
    830c:	e1 f7       	brne	.-8      	; 0x8306 <init+0x1fe>
    830e:	00 c0       	rjmp	.+0      	; 0x8310 <init+0x208>
    8310:	00 00       	nop
    8312:	1e 99       	sbic	0x03, 6	; 3
    8314:	2c c0       	rjmp	.+88     	; 0x836e <init+0x266>
    8316:	1d 99       	sbic	0x03, 5	; 3
    8318:	2a c0       	rjmp	.+84     	; 0x836e <init+0x266>
    831a:	80 ec       	ldi	r24, 0xC0	; 192
    831c:	0e 94 ef 35 	call	0x6bde	; 0x6bde <st7565_command>
    8320:	80 e0       	ldi	r24, 0x00	; 0
    8322:	91 e0       	ldi	r25, 0x01	; 1
    8324:	0e 94 52 36 	call	0x6ca4	; 0x6ca4 <clear_buffer>
    8328:	29 e1       	ldi	r18, 0x19	; 25
    832a:	30 e0       	ldi	r19, 0x00	; 0
    832c:	48 e2       	ldi	r20, 0x28	; 40
    832e:	50 e0       	ldi	r21, 0x00	; 0
    8330:	6f ec       	ldi	r22, 0xCF	; 207
    8332:	74 e0       	ldi	r23, 0x04	; 4
    8334:	86 e0       	ldi	r24, 0x06	; 6
    8336:	91 e0       	ldi	r25, 0x01	; 1
    8338:	0e 94 2e 38 	call	0x705c	; 0x705c <LCD_Display_Text>
    833c:	80 e0       	ldi	r24, 0x00	; 0
    833e:	91 e0       	ldi	r25, 0x01	; 1
    8340:	0e 94 1d 36 	call	0x6c3a	; 0x6c3a <write_buffer>
    8344:	80 e0       	ldi	r24, 0x00	; 0
    8346:	91 e0       	ldi	r25, 0x01	; 1
    8348:	0e 94 52 36 	call	0x6ca4	; 0x6ca4 <clear_buffer>
    834c:	0e 94 a1 2d 	call	0x5b42	; 0x5b42 <Set_EEPROM_Default_Config>
    8350:	0e 94 4e 26 	call	0x4c9c	; 0x4c9c <Save_Config_to_EEPROM>
    8354:	80 91 ba 06 	lds	r24, 0x06BA
    8358:	0e 94 f5 35 	call	0x6bea	; 0x6bea <st7565_set_brightness>
    835c:	2f e7       	ldi	r18, 0x7F	; 127
    835e:	84 e8       	ldi	r24, 0x84	; 132
    8360:	9e e1       	ldi	r25, 0x1E	; 30
    8362:	21 50       	subi	r18, 0x01	; 1
    8364:	80 40       	sbci	r24, 0x00	; 0
    8366:	90 40       	sbci	r25, 0x00	; 0
    8368:	e1 f7       	brne	.-8      	; 0x8362 <init+0x25a>
    836a:	00 c0       	rjmp	.+0      	; 0x836c <init+0x264>
    836c:	00 00       	nop
    836e:	cc 23       	and	r28, r28
    8370:	21 f1       	breq	.+72     	; 0x83ba <init+0x2b2>
    8372:	80 ec       	ldi	r24, 0xC0	; 192
    8374:	0e 94 ef 35 	call	0x6bde	; 0x6bde <st7565_command>
    8378:	80 e0       	ldi	r24, 0x00	; 0
    837a:	91 e0       	ldi	r25, 0x01	; 1
    837c:	0e 94 52 36 	call	0x6ca4	; 0x6ca4 <clear_buffer>
    8380:	2d e0       	ldi	r18, 0x0D	; 13
    8382:	30 e0       	ldi	r19, 0x00	; 0
    8384:	4e e1       	ldi	r20, 0x1E	; 30
    8386:	50 e0       	ldi	r21, 0x00	; 0
    8388:	6f ec       	ldi	r22, 0xCF	; 207
    838a:	74 e0       	ldi	r23, 0x04	; 4
    838c:	83 e0       	ldi	r24, 0x03	; 3
    838e:	91 e0       	ldi	r25, 0x01	; 1
    8390:	0e 94 2e 38 	call	0x705c	; 0x705c <LCD_Display_Text>
    8394:	25 e2       	ldi	r18, 0x25	; 37
    8396:	30 e0       	ldi	r19, 0x00	; 0
    8398:	41 e2       	ldi	r20, 0x21	; 33
    839a:	50 e0       	ldi	r21, 0x00	; 0
    839c:	6f ec       	ldi	r22, 0xCF	; 207
    839e:	74 e0       	ldi	r23, 0x04	; 4
    83a0:	84 e0       	ldi	r24, 0x04	; 4
    83a2:	91 e0       	ldi	r25, 0x01	; 1
    83a4:	0e 94 2e 38 	call	0x705c	; 0x705c <LCD_Display_Text>
    83a8:	80 e0       	ldi	r24, 0x00	; 0
    83aa:	91 e0       	ldi	r25, 0x01	; 1
    83ac:	0e 94 1d 36 	call	0x6c3a	; 0x6c3a <write_buffer>
    83b0:	80 e0       	ldi	r24, 0x00	; 0
    83b2:	91 e0       	ldi	r25, 0x01	; 1
    83b4:	0e 94 52 36 	call	0x6ca4	; 0x6ca4 <clear_buffer>
    83b8:	04 c0       	rjmp	.+8      	; 0x83c2 <init+0x2ba>
    83ba:	80 e0       	ldi	r24, 0x00	; 0
    83bc:	91 e0       	ldi	r25, 0x01	; 1
    83be:	0e 94 1d 36 	call	0x6c3a	; 0x6c3a <write_buffer>
    83c2:	2f ef       	ldi	r18, 0xFF	; 255
    83c4:	88 e0       	ldi	r24, 0x08	; 8
    83c6:	9d e3       	ldi	r25, 0x3D	; 61
    83c8:	21 50       	subi	r18, 0x01	; 1
    83ca:	80 40       	sbci	r24, 0x00	; 0
    83cc:	90 40       	sbci	r25, 0x00	; 0
    83ce:	e1 f7       	brne	.-8      	; 0x83c8 <init+0x2c0>
    83d0:	00 c0       	rjmp	.+0      	; 0x83d2 <init+0x2ca>
    83d2:	00 00       	nop
    83d4:	80 e0       	ldi	r24, 0x00	; 0
    83d6:	91 e0       	ldi	r25, 0x01	; 1
    83d8:	0e 94 52 36 	call	0x6ca4	; 0x6ca4 <clear_buffer>
    83dc:	80 e0       	ldi	r24, 0x00	; 0
    83de:	91 e0       	ldi	r25, 0x01	; 1
    83e0:	0e 94 1d 36 	call	0x6c3a	; 0x6c3a <write_buffer>
    83e4:	0e 94 fe 35 	call	0x6bfc	; 0x6bfc <st7565_init>
    83e8:	0e 94 aa 6a 	call	0xd554	; 0xd554 <i2c_init>
    83ec:	0e 94 8d 3b 	call	0x771a	; 0x771a <init_i2c_gyros>
    83f0:	0e 94 cc 1b 	call	0x3798	; 0x3798 <init_i2c_accs>
    83f4:	80 e0       	ldi	r24, 0x00	; 0
    83f6:	91 e0       	ldi	r25, 0x01	; 1
    83f8:	0e 94 52 36 	call	0x6ca4	; 0x6ca4 <clear_buffer>
    83fc:	80 ec       	ldi	r24, 0xC0	; 192
    83fe:	0e 94 ef 35 	call	0x6bde	; 0x6bde <st7565_command>
    8402:	29 e1       	ldi	r18, 0x19	; 25
    8404:	30 e0       	ldi	r19, 0x00	; 0
    8406:	42 e1       	ldi	r20, 0x12	; 18
    8408:	50 e0       	ldi	r21, 0x00	; 0
    840a:	6f ec       	ldi	r22, 0xCF	; 207
    840c:	74 e0       	ldi	r23, 0x04	; 4
    840e:	87 e0       	ldi	r24, 0x07	; 7
    8410:	91 e0       	ldi	r25, 0x01	; 1
    8412:	0e 94 2e 38 	call	0x705c	; 0x705c <LCD_Display_Text>
    8416:	80 e0       	ldi	r24, 0x00	; 0
    8418:	91 e0       	ldi	r25, 0x01	; 1
    841a:	0e 94 1d 36 	call	0x6c3a	; 0x6c3a <write_buffer>
    841e:	80 e0       	ldi	r24, 0x00	; 0
    8420:	91 e0       	ldi	r25, 0x01	; 1
    8422:	0e 94 52 36 	call	0x6ca4	; 0x6ca4 <clear_buffer>
    8426:	0e 94 d6 1b 	call	0x37ac	; 0x37ac <Init_ADC>
    842a:	0e 94 6d 47 	call	0x8eda	; 0x8eda <init_int>
    842e:	0e 94 8f 6b 	call	0xd71e	; 0xd71e <init_uart>
    8432:	0e 94 ae 3a 	call	0x755c	; 0x755c <CalibrateGyrosSlow>
    8436:	81 11       	cpse	r24, r1
    8438:	27 c0       	rjmp	.+78     	; 0x8488 <init+0x380>
    843a:	80 e0       	ldi	r24, 0x00	; 0
    843c:	91 e0       	ldi	r25, 0x01	; 1
    843e:	0e 94 52 36 	call	0x6ca4	; 0x6ca4 <clear_buffer>
    8442:	29 e1       	ldi	r18, 0x19	; 25
    8444:	30 e0       	ldi	r19, 0x00	; 0
    8446:	49 e1       	ldi	r20, 0x19	; 25
    8448:	50 e0       	ldi	r21, 0x00	; 0
    844a:	6f ec       	ldi	r22, 0xCF	; 207
    844c:	74 e0       	ldi	r23, 0x04	; 4
    844e:	8d e3       	ldi	r24, 0x3D	; 61
    8450:	90 e0       	ldi	r25, 0x00	; 0
    8452:	0e 94 2e 38 	call	0x705c	; 0x705c <LCD_Display_Text>
    8456:	80 e0       	ldi	r24, 0x00	; 0
    8458:	91 e0       	ldi	r25, 0x01	; 1
    845a:	0e 94 1d 36 	call	0x6c3a	; 0x6c3a <write_buffer>
    845e:	2f ef       	ldi	r18, 0xFF	; 255
    8460:	88 e0       	ldi	r24, 0x08	; 8
    8462:	9d e3       	ldi	r25, 0x3D	; 61
    8464:	21 50       	subi	r18, 0x01	; 1
    8466:	80 40       	sbci	r24, 0x00	; 0
    8468:	90 40       	sbci	r25, 0x00	; 0
    846a:	e1 f7       	brne	.-8      	; 0x8464 <init+0x35c>
    846c:	00 c0       	rjmp	.+0      	; 0x846e <init+0x366>
    846e:	00 00       	nop
    8470:	f8 94       	cli
				: "r0"
		);
	}
	else
	{
		__asm__ __volatile__ (
    8472:	98 e0       	ldi	r25, 0x08	; 8
    8474:	88 e1       	ldi	r24, 0x18	; 24
    8476:	0f b6       	in	r0, 0x3f	; 63
    8478:	f8 94       	cli
    847a:	a8 95       	wdr
    847c:	80 93 60 00 	sts	0x0060, r24
    8480:	0f be       	out	0x3f, r0	; 63
    8482:	90 93 60 00 	sts	0x0060, r25
    8486:	ff cf       	rjmp	.-2      	; 0x8486 <init+0x37e>
    8488:	0e 94 0c 6c 	call	0xd818	; 0xd818 <GetVbat>
    848c:	90 93 47 05 	sts	0x0547, r25
    8490:	80 93 46 05 	sts	0x0546, r24
    8494:	0e 94 87 56 	call	0xad0e	; 0xad0e <UpdateLimits>
    8498:	80 91 bb 06 	lds	r24, 0x06BB
    849c:	81 30       	cpi	r24, 0x01	; 1
    849e:	29 f4       	brne	.+10     	; 0x84aa <init+0x3a2>
    84a0:	80 91 35 05 	lds	r24, 0x0535
    84a4:	84 60       	ori	r24, 0x04	; 4
    84a6:	80 93 35 05 	sts	0x0535, r24
    84aa:	80 91 ce 08 	lds	r24, 0x08CE
    84ae:	88 23       	and	r24, r24
    84b0:	69 f0       	breq	.+26     	; 0x84cc <init+0x3c4>
    84b2:	0e 94 c3 68 	call	0xd186	; 0xd186 <RxGetChannels>
    84b6:	80 91 61 09 	lds	r24, 0x0961
    84ba:	90 91 62 09 	lds	r25, 0x0962
    84be:	c3 97       	sbiw	r24, 0x33	; 51
    84c0:	2c f0       	brlt	.+10     	; 0x84cc <init+0x3c4>
    84c2:	80 91 35 05 	lds	r24, 0x0535
    84c6:	81 60       	ori	r24, 0x01	; 1
    84c8:	80 93 35 05 	sts	0x0535, r24
    84cc:	0e 94 3b 40 	call	0x8076	; 0x8076 <reset_IMU>
    84d0:	80 91 c3 06 	lds	r24, 0x06C3
    84d4:	81 30       	cpi	r24, 0x01	; 1
    84d6:	59 f4       	brne	.+22     	; 0x84ee <init+0x3e6>
    84d8:	29 9a       	sbi	0x05, 1	; 5
    84da:	2f e9       	ldi	r18, 0x9F	; 159
    84dc:	86 e8       	ldi	r24, 0x86	; 134
    84de:	91 e0       	ldi	r25, 0x01	; 1
    84e0:	21 50       	subi	r18, 0x01	; 1
    84e2:	80 40       	sbci	r24, 0x00	; 0
    84e4:	90 40       	sbci	r25, 0x00	; 0
    84e6:	e1 f7       	brne	.-8      	; 0x84e0 <init+0x3d8>
    84e8:	00 c0       	rjmp	.+0      	; 0x84ea <init+0x3e2>
    84ea:	00 00       	nop
    84ec:	29 98       	cbi	0x05, 1	; 5
    84ee:	df 91       	pop	r29
    84f0:	cf 91       	pop	r28
    84f2:	08 95       	ret

000084f4 <__vector_18>:
    84f4:	1f 92       	push	r1
    84f6:	0f 92       	push	r0
    84f8:	0f b6       	in	r0, 0x3f	; 63
    84fa:	0f 92       	push	r0
    84fc:	11 24       	eor	r1, r1
    84fe:	8f 93       	push	r24
    8500:	9f 93       	push	r25
    8502:	80 91 e1 08 	lds	r24, 0x08E1
    8506:	90 91 e2 08 	lds	r25, 0x08E2
    850a:	01 96       	adiw	r24, 0x01	; 1
    850c:	90 93 e2 08 	sts	0x08E2, r25
    8510:	80 93 e1 08 	sts	0x08E1, r24
    8514:	9f 91       	pop	r25
    8516:	8f 91       	pop	r24
    8518:	0f 90       	pop	r0
    851a:	0f be       	out	0x3f, r0	; 63
    851c:	0f 90       	pop	r0
    851e:	1f 90       	pop	r1
    8520:	18 95       	reti

00008522 <__vector_2>:
    8522:	1f 92       	push	r1
    8524:	0f 92       	push	r0
    8526:	0f b6       	in	r0, 0x3f	; 63
    8528:	0f 92       	push	r0
    852a:	11 24       	eor	r1, r1
    852c:	2f 93       	push	r18
    852e:	3f 93       	push	r19
    8530:	8f 93       	push	r24
    8532:	9f 93       	push	r25
    8534:	80 91 f9 08 	lds	r24, 0x08F9
    8538:	88 23       	and	r24, r24
    853a:	19 f0       	breq	.+6      	; 0x8542 <__vector_2+0x20>
    853c:	81 e0       	ldi	r24, 0x01	; 1
    853e:	80 93 fa 08 	sts	0x08FA, r24
    8542:	4b 9b       	sbis	0x09, 3	; 9
    8544:	09 c0       	rjmp	.+18     	; 0x8558 <__vector_2+0x36>
    8546:	80 91 84 00 	lds	r24, 0x0084
    854a:	90 91 85 00 	lds	r25, 0x0085
    854e:	90 93 e6 08 	sts	0x08E6, r25
    8552:	80 93 e5 08 	sts	0x08E5, r24
    8556:	1e c0       	rjmp	.+60     	; 0x8594 <__vector_2+0x72>
    8558:	80 91 84 00 	lds	r24, 0x0084
    855c:	90 91 85 00 	lds	r25, 0x0085
    8560:	20 91 e5 08 	lds	r18, 0x08E5
    8564:	30 91 e6 08 	lds	r19, 0x08E6
    8568:	82 1b       	sub	r24, r18
    856a:	93 0b       	sbc	r25, r19
    856c:	90 93 c1 08 	sts	0x08C1, r25
    8570:	80 93 c0 08 	sts	0x08C0, r24
    8574:	80 91 44 06 	lds	r24, 0x0644
    8578:	81 30       	cpi	r24, 0x01	; 1
    857a:	61 f4       	brne	.+24     	; 0x8594 <__vector_2+0x72>
    857c:	80 93 ce 08 	sts	0x08CE, r24
    8580:	80 91 b2 00 	lds	r24, 0x00B2
    8584:	80 93 2c 05 	sts	0x052C, r24
    8588:	10 92 2b 05 	sts	0x052B, r1
    858c:	10 92 2a 05 	sts	0x052A, r1
    8590:	10 92 2e 05 	sts	0x052E, r1
    8594:	9f 91       	pop	r25
    8596:	8f 91       	pop	r24
    8598:	3f 91       	pop	r19
    859a:	2f 91       	pop	r18
    859c:	0f 90       	pop	r0
    859e:	0f be       	out	0x3f, r0	; 63
    85a0:	0f 90       	pop	r0
    85a2:	1f 90       	pop	r1
    85a4:	18 95       	reti

000085a6 <__vector_1>:
    85a6:	1f 92       	push	r1
    85a8:	0f 92       	push	r0
    85aa:	0f b6       	in	r0, 0x3f	; 63
    85ac:	0f 92       	push	r0
    85ae:	11 24       	eor	r1, r1
    85b0:	2f 93       	push	r18
    85b2:	3f 93       	push	r19
    85b4:	8f 93       	push	r24
    85b6:	9f 93       	push	r25
    85b8:	80 91 f9 08 	lds	r24, 0x08F9
    85bc:	88 23       	and	r24, r24
    85be:	19 f0       	breq	.+6      	; 0x85c6 <__vector_1+0x20>
    85c0:	81 e0       	ldi	r24, 0x01	; 1
    85c2:	80 93 fa 08 	sts	0x08FA, r24
    85c6:	4a 9b       	sbis	0x09, 2	; 9
    85c8:	09 c0       	rjmp	.+18     	; 0x85dc <__vector_1+0x36>
    85ca:	80 91 84 00 	lds	r24, 0x0084
    85ce:	90 91 85 00 	lds	r25, 0x0085
    85d2:	90 93 e8 08 	sts	0x08E8, r25
    85d6:	80 93 e7 08 	sts	0x08E7, r24
    85da:	1f c0       	rjmp	.+62     	; 0x861a <__vector_1+0x74>
    85dc:	80 91 84 00 	lds	r24, 0x0084
    85e0:	90 91 85 00 	lds	r25, 0x0085
    85e4:	20 91 e7 08 	lds	r18, 0x08E7
    85e8:	30 91 e8 08 	lds	r19, 0x08E8
    85ec:	82 1b       	sub	r24, r18
    85ee:	93 0b       	sbc	r25, r19
    85f0:	90 93 c3 08 	sts	0x08C3, r25
    85f4:	80 93 c2 08 	sts	0x08C2, r24
    85f8:	80 91 44 06 	lds	r24, 0x0644
    85fc:	82 30       	cpi	r24, 0x02	; 2
    85fe:	69 f4       	brne	.+26     	; 0x861a <__vector_1+0x74>
    8600:	81 e0       	ldi	r24, 0x01	; 1
    8602:	80 93 ce 08 	sts	0x08CE, r24
    8606:	80 91 b2 00 	lds	r24, 0x00B2
    860a:	80 93 2c 05 	sts	0x052C, r24
    860e:	10 92 2b 05 	sts	0x052B, r1
    8612:	10 92 2a 05 	sts	0x052A, r1
    8616:	10 92 2e 05 	sts	0x052E, r1
    861a:	9f 91       	pop	r25
    861c:	8f 91       	pop	r24
    861e:	3f 91       	pop	r19
    8620:	2f 91       	pop	r18
    8622:	0f 90       	pop	r0
    8624:	0f be       	out	0x3f, r0	; 63
    8626:	0f 90       	pop	r0
    8628:	1f 90       	pop	r1
    862a:	18 95       	reti

0000862c <__vector_7>:
    862c:	1f 92       	push	r1
    862e:	0f 92       	push	r0
    8630:	0f b6       	in	r0, 0x3f	; 63
    8632:	0f 92       	push	r0
    8634:	11 24       	eor	r1, r1
    8636:	2f 93       	push	r18
    8638:	3f 93       	push	r19
    863a:	8f 93       	push	r24
    863c:	9f 93       	push	r25
    863e:	80 91 f9 08 	lds	r24, 0x08F9
    8642:	88 23       	and	r24, r24
    8644:	19 f0       	breq	.+6      	; 0x864c <__vector_7+0x20>
    8646:	81 e0       	ldi	r24, 0x01	; 1
    8648:	80 93 fa 08 	sts	0x08FA, r24
    864c:	48 9b       	sbis	0x09, 0	; 9
    864e:	09 c0       	rjmp	.+18     	; 0x8662 <__vector_7+0x36>
    8650:	80 91 84 00 	lds	r24, 0x0084
    8654:	90 91 85 00 	lds	r25, 0x0085
    8658:	90 93 e4 08 	sts	0x08E4, r25
    865c:	80 93 e3 08 	sts	0x08E3, r24
    8660:	1f c0       	rjmp	.+62     	; 0x86a0 <__vector_7+0x74>
    8662:	80 91 84 00 	lds	r24, 0x0084
    8666:	90 91 85 00 	lds	r25, 0x0085
    866a:	20 91 e3 08 	lds	r18, 0x08E3
    866e:	30 91 e4 08 	lds	r19, 0x08E4
    8672:	82 1b       	sub	r24, r18
    8674:	93 0b       	sbc	r25, r19
    8676:	90 93 bf 08 	sts	0x08BF, r25
    867a:	80 93 be 08 	sts	0x08BE, r24
    867e:	80 91 44 06 	lds	r24, 0x0644
    8682:	81 11       	cpse	r24, r1
    8684:	0d c0       	rjmp	.+26     	; 0x86a0 <__vector_7+0x74>
    8686:	81 e0       	ldi	r24, 0x01	; 1
    8688:	80 93 ce 08 	sts	0x08CE, r24
    868c:	80 91 b2 00 	lds	r24, 0x00B2
    8690:	80 93 2c 05 	sts	0x052C, r24
    8694:	10 92 2b 05 	sts	0x052B, r1
    8698:	10 92 2a 05 	sts	0x052A, r1
    869c:	10 92 2e 05 	sts	0x052E, r1
    86a0:	9f 91       	pop	r25
    86a2:	8f 91       	pop	r24
    86a4:	3f 91       	pop	r19
    86a6:	2f 91       	pop	r18
    86a8:	0f 90       	pop	r0
    86aa:	0f be       	out	0x3f, r0	; 63
    86ac:	0f 90       	pop	r0
    86ae:	1f 90       	pop	r1
    86b0:	18 95       	reti

000086b2 <__vector_5>:
    86b2:	1f 92       	push	r1
    86b4:	0f 92       	push	r0
    86b6:	0f b6       	in	r0, 0x3f	; 63
    86b8:	0f 92       	push	r0
    86ba:	11 24       	eor	r1, r1
    86bc:	2f 93       	push	r18
    86be:	3f 93       	push	r19
    86c0:	8f 93       	push	r24
    86c2:	9f 93       	push	r25
    86c4:	80 91 f9 08 	lds	r24, 0x08F9
    86c8:	88 23       	and	r24, r24
    86ca:	19 f0       	breq	.+6      	; 0x86d2 <__vector_5+0x20>
    86cc:	81 e0       	ldi	r24, 0x01	; 1
    86ce:	80 93 fa 08 	sts	0x08FA, r24
    86d2:	18 9b       	sbis	0x03, 0	; 3
    86d4:	09 c0       	rjmp	.+18     	; 0x86e8 <__vector_5+0x36>
    86d6:	80 91 84 00 	lds	r24, 0x0084
    86da:	90 91 85 00 	lds	r25, 0x0085
    86de:	90 93 ec 08 	sts	0x08EC, r25
    86e2:	80 93 eb 08 	sts	0x08EB, r24
    86e6:	1f c0       	rjmp	.+62     	; 0x8726 <__vector_5+0x74>
    86e8:	80 91 84 00 	lds	r24, 0x0084
    86ec:	90 91 85 00 	lds	r25, 0x0085
    86f0:	20 91 eb 08 	lds	r18, 0x08EB
    86f4:	30 91 ec 08 	lds	r19, 0x08EC
    86f8:	82 1b       	sub	r24, r18
    86fa:	93 0b       	sbc	r25, r19
    86fc:	90 93 c7 08 	sts	0x08C7, r25
    8700:	80 93 c6 08 	sts	0x08C6, r24
    8704:	80 91 44 06 	lds	r24, 0x0644
    8708:	84 30       	cpi	r24, 0x04	; 4
    870a:	69 f4       	brne	.+26     	; 0x8726 <__vector_5+0x74>
    870c:	81 e0       	ldi	r24, 0x01	; 1
    870e:	80 93 ce 08 	sts	0x08CE, r24
    8712:	80 91 b2 00 	lds	r24, 0x00B2
    8716:	80 93 2c 05 	sts	0x052C, r24
    871a:	10 92 2b 05 	sts	0x052B, r1
    871e:	10 92 2a 05 	sts	0x052A, r1
    8722:	10 92 2e 05 	sts	0x052E, r1
    8726:	9f 91       	pop	r25
    8728:	8f 91       	pop	r24
    872a:	3f 91       	pop	r19
    872c:	2f 91       	pop	r18
    872e:	0f 90       	pop	r0
    8730:	0f be       	out	0x3f, r0	; 63
    8732:	0f 90       	pop	r0
    8734:	1f 90       	pop	r1
    8736:	18 95       	reti

00008738 <TIM16_ReadTCNT1>:
    8738:	2f b7       	in	r18, 0x3f	; 63
    873a:	f8 94       	cli
    873c:	80 91 84 00 	lds	r24, 0x0084
    8740:	90 91 85 00 	lds	r25, 0x0085
    8744:	2f bf       	out	0x3f, r18	; 63
    8746:	08 95       	ret

00008748 <__vector_3>:
    8748:	1f 92       	push	r1
    874a:	0f 92       	push	r0
    874c:	0f b6       	in	r0, 0x3f	; 63
    874e:	0f 92       	push	r0
    8750:	11 24       	eor	r1, r1
    8752:	2f 93       	push	r18
    8754:	3f 93       	push	r19
    8756:	4f 93       	push	r20
    8758:	5f 93       	push	r21
    875a:	6f 93       	push	r22
    875c:	7f 93       	push	r23
    875e:	8f 93       	push	r24
    8760:	9f 93       	push	r25
    8762:	af 93       	push	r26
    8764:	bf 93       	push	r27
    8766:	ef 93       	push	r30
    8768:	ff 93       	push	r31
    876a:	80 91 f9 08 	lds	r24, 0x08F9
    876e:	88 23       	and	r24, r24
    8770:	19 f0       	breq	.+6      	; 0x8778 <__vector_3+0x30>
    8772:	81 e0       	ldi	r24, 0x01	; 1
    8774:	80 93 fa 08 	sts	0x08FA, r24
    8778:	0e 94 9c 43 	call	0x8738	; 0x8738 <TIM16_ReadTCNT1>
    877c:	20 91 42 06 	lds	r18, 0x0642
    8780:	22 23       	and	r18, r18
    8782:	11 f1       	breq	.+68     	; 0x87c8 <__vector_3+0x80>
    8784:	1a 9b       	sbis	0x03, 2	; 3
    8786:	05 c0       	rjmp	.+10     	; 0x8792 <__vector_3+0x4a>
    8788:	90 93 ea 08 	sts	0x08EA, r25
    878c:	80 93 e9 08 	sts	0x08E9, r24
    8790:	98 c0       	rjmp	.+304    	; 0x88c2 <__vector_3+0x17a>
    8792:	20 91 e9 08 	lds	r18, 0x08E9
    8796:	30 91 ea 08 	lds	r19, 0x08EA
    879a:	82 1b       	sub	r24, r18
    879c:	93 0b       	sbc	r25, r19
    879e:	90 93 c5 08 	sts	0x08C5, r25
    87a2:	80 93 c4 08 	sts	0x08C4, r24
    87a6:	80 91 44 06 	lds	r24, 0x0644
    87aa:	83 30       	cpi	r24, 0x03	; 3
    87ac:	09 f0       	breq	.+2      	; 0x87b0 <__vector_3+0x68>
    87ae:	89 c0       	rjmp	.+274    	; 0x88c2 <__vector_3+0x17a>
    87b0:	81 e0       	ldi	r24, 0x01	; 1
    87b2:	80 93 ce 08 	sts	0x08CE, r24
    87b6:	80 91 b2 00 	lds	r24, 0x00B2
    87ba:	80 93 2c 05 	sts	0x052C, r24
    87be:	10 92 2b 05 	sts	0x052B, r1
    87c2:	10 92 2a 05 	sts	0x052A, r1
    87c6:	7b c0       	rjmp	.+246    	; 0x88be <__vector_3+0x176>
    87c8:	1a 99       	sbic	0x03, 2	; 3
    87ca:	7b c0       	rjmp	.+246    	; 0x88c2 <__vector_3+0x17a>
    87cc:	20 91 f7 08 	lds	r18, 0x08F7
    87d0:	30 91 f8 08 	lds	r19, 0x08F8
    87d4:	ac 01       	movw	r20, r24
    87d6:	42 1b       	sub	r20, r18
    87d8:	53 0b       	sbc	r21, r19
    87da:	9a 01       	movw	r18, r20
    87dc:	2f 35       	cpi	r18, 0x5F	; 95
    87de:	3a 41       	sbci	r19, 0x1A	; 26
    87e0:	58 f4       	brcc	.+22     	; 0x87f8 <__vector_3+0xb0>
    87e2:	20 91 f7 08 	lds	r18, 0x08F7
    87e6:	30 91 f8 08 	lds	r19, 0x08F8
    87ea:	ac 01       	movw	r20, r24
    87ec:	42 1b       	sub	r20, r18
    87ee:	53 0b       	sbc	r21, r19
    87f0:	9a 01       	movw	r18, r20
    87f2:	2e 3e       	cpi	r18, 0xEE	; 238
    87f4:	32 40       	sbci	r19, 0x02	; 2
    87f6:	10 f4       	brcc	.+4      	; 0x87fc <__vector_3+0xb4>
    87f8:	10 92 f6 08 	sts	0x08F6, r1
    87fc:	90 93 f8 08 	sts	0x08F8, r25
    8800:	80 93 f7 08 	sts	0x08F7, r24
    8804:	e0 91 f6 08 	lds	r30, 0x08F6
    8808:	f0 e0       	ldi	r31, 0x00	; 0
    880a:	e7 5e       	subi	r30, 0xE7	; 231
    880c:	f9 4f       	sbci	r31, 0xF9	; 249
    880e:	e1 81       	ldd	r30, Z+1	; 0x01
    8810:	20 91 f6 08 	lds	r18, 0x08F6
    8814:	22 23       	and	r18, r18
    8816:	39 f0       	breq	.+14     	; 0x8826 <__vector_3+0xde>
    8818:	a0 91 f6 08 	lds	r26, 0x08F6
    881c:	b0 e0       	ldi	r27, 0x00	; 0
    881e:	a7 5e       	subi	r26, 0xE7	; 231
    8820:	b9 4f       	sbci	r27, 0xF9	; 249
    8822:	2c 91       	ld	r18, X
    8824:	01 c0       	rjmp	.+2      	; 0x8828 <__vector_3+0xe0>
    8826:	20 e0       	ldi	r18, 0x00	; 0
    8828:	30 91 f6 08 	lds	r19, 0x08F6
    882c:	38 30       	cpi	r19, 0x08	; 8
    882e:	38 f4       	brcc	.+14     	; 0x883e <__vector_3+0xf6>
    8830:	f0 e0       	ldi	r31, 0x00	; 0
    8832:	ee 0f       	add	r30, r30
    8834:	ff 1f       	adc	r31, r31
    8836:	ed 51       	subi	r30, 0x1D	; 29
    8838:	f7 4f       	sbci	r31, 0xF7	; 247
    883a:	91 83       	std	Z+1, r25	; 0x01
    883c:	80 83       	st	Z, r24
    883e:	30 91 f6 08 	lds	r19, 0x08F6
    8842:	33 23       	and	r19, r19
    8844:	99 f0       	breq	.+38     	; 0x886c <__vector_3+0x124>
    8846:	30 91 f6 08 	lds	r19, 0x08F6
    884a:	39 30       	cpi	r19, 0x09	; 9
    884c:	78 f4       	brcc	.+30     	; 0x886c <__vector_3+0x124>
    884e:	30 e0       	ldi	r19, 0x00	; 0
    8850:	22 0f       	add	r18, r18
    8852:	33 1f       	adc	r19, r19
    8854:	f9 01       	movw	r30, r18
    8856:	ed 51       	subi	r30, 0x1D	; 29
    8858:	f7 4f       	sbci	r31, 0xF7	; 247
    885a:	40 81       	ld	r20, Z
    885c:	51 81       	ldd	r21, Z+1	; 0x01
    885e:	84 1b       	sub	r24, r20
    8860:	95 0b       	sbc	r25, r21
    8862:	f9 01       	movw	r30, r18
    8864:	e2 54       	subi	r30, 0x42	; 66
    8866:	f7 4f       	sbci	r31, 0xF7	; 247
    8868:	91 83       	std	Z+1, r25	; 0x01
    886a:	80 83       	st	Z, r24
    886c:	80 91 f6 08 	lds	r24, 0x08F6
    8870:	8f 5f       	subi	r24, 0xFF	; 255
    8872:	80 93 f6 08 	sts	0x08F6, r24
    8876:	90 91 f6 08 	lds	r25, 0x08F6
    887a:	80 91 cf 08 	lds	r24, 0x08CF
    887e:	89 17       	cp	r24, r25
    8880:	28 f4       	brcc	.+10     	; 0x888c <__vector_3+0x144>
    8882:	80 91 f6 08 	lds	r24, 0x08F6
    8886:	80 93 cf 08 	sts	0x08CF, r24
    888a:	13 c0       	rjmp	.+38     	; 0x88b2 <__vector_3+0x16a>
    888c:	90 91 f6 08 	lds	r25, 0x08F6
    8890:	80 91 cf 08 	lds	r24, 0x08CF
    8894:	98 13       	cpse	r25, r24
    8896:	0d c0       	rjmp	.+26     	; 0x88b2 <__vector_3+0x16a>
    8898:	81 e0       	ldi	r24, 0x01	; 1
    889a:	80 93 ce 08 	sts	0x08CE, r24
    889e:	80 91 b2 00 	lds	r24, 0x00B2
    88a2:	80 93 2c 05 	sts	0x052C, r24
    88a6:	10 92 2b 05 	sts	0x052B, r1
    88aa:	10 92 2a 05 	sts	0x052A, r1
    88ae:	10 92 2e 05 	sts	0x052E, r1
    88b2:	80 91 2e 05 	lds	r24, 0x052E
    88b6:	88 23       	and	r24, r24
    88b8:	21 f0       	breq	.+8      	; 0x88c2 <__vector_3+0x17a>
    88ba:	10 92 cf 08 	sts	0x08CF, r1
    88be:	10 92 2e 05 	sts	0x052E, r1
    88c2:	ff 91       	pop	r31
    88c4:	ef 91       	pop	r30
    88c6:	bf 91       	pop	r27
    88c8:	af 91       	pop	r26
    88ca:	9f 91       	pop	r25
    88cc:	8f 91       	pop	r24
    88ce:	7f 91       	pop	r23
    88d0:	6f 91       	pop	r22
    88d2:	5f 91       	pop	r21
    88d4:	4f 91       	pop	r20
    88d6:	3f 91       	pop	r19
    88d8:	2f 91       	pop	r18
    88da:	0f 90       	pop	r0
    88dc:	0f be       	out	0x3f, r0	; 63
    88de:	0f 90       	pop	r0
    88e0:	1f 90       	pop	r1
    88e2:	18 95       	reti

000088e4 <__vector_20>:
    88e4:	1f 92       	push	r1
    88e6:	0f 92       	push	r0
    88e8:	0f b6       	in	r0, 0x3f	; 63
    88ea:	0f 92       	push	r0
    88ec:	11 24       	eor	r1, r1
    88ee:	2f 93       	push	r18
    88f0:	3f 93       	push	r19
    88f2:	4f 93       	push	r20
    88f4:	5f 93       	push	r21
    88f6:	6f 93       	push	r22
    88f8:	7f 93       	push	r23
    88fa:	8f 93       	push	r24
    88fc:	9f 93       	push	r25
    88fe:	af 93       	push	r26
    8900:	bf 93       	push	r27
    8902:	cf 93       	push	r28
    8904:	df 93       	push	r29
    8906:	ef 93       	push	r30
    8908:	ff 93       	push	r31
    890a:	80 91 f9 08 	lds	r24, 0x08F9
    890e:	88 23       	and	r24, r24
    8910:	19 f0       	breq	.+6      	; 0x8918 <__vector_20+0x34>
    8912:	81 e0       	ldi	r24, 0x01	; 1
    8914:	80 93 fa 08 	sts	0x08FA, r24
    8918:	80 91 c0 00 	lds	r24, 0x00C0
    891c:	98 2f       	mov	r25, r24
    891e:	94 71       	andi	r25, 0x14	; 20
    8920:	21 f4       	brne	.+8      	; 0x892a <__vector_20+0x46>
    8922:	83 ff       	sbrs	r24, 3
    8924:	05 c0       	rjmp	.+10     	; 0x8930 <__vector_20+0x4c>
    8926:	80 91 c6 00 	lds	r24, 0x00C6
    892a:	80 91 c6 00 	lds	r24, 0x00C6
    892e:	af c2       	rjmp	.+1374   	; 0x8e8e <__vector_20+0x5aa>
    8930:	c0 91 c6 00 	lds	r28, 0x00C6
    8934:	0e 94 9c 43 	call	0x8738	; 0x8738 <TIM16_ReadTCNT1>
    8938:	20 91 f7 08 	lds	r18, 0x08F7
    893c:	30 91 f8 08 	lds	r19, 0x08F8
    8940:	82 17       	cp	r24, r18
    8942:	93 07       	cpc	r25, r19
    8944:	48 f4       	brcc	.+18     	; 0x8958 <__vector_20+0x74>
    8946:	20 91 f7 08 	lds	r18, 0x08F7
    894a:	30 91 f8 08 	lds	r19, 0x08F8
    894e:	ac 01       	movw	r20, r24
    8950:	42 1b       	sub	r20, r18
    8952:	53 0b       	sbc	r21, r19
    8954:	9a 01       	movw	r18, r20
    8956:	08 c0       	rjmp	.+16     	; 0x8968 <__vector_20+0x84>
    8958:	20 91 f7 08 	lds	r18, 0x08F7
    895c:	30 91 f8 08 	lds	r19, 0x08F8
    8960:	dc 01       	movw	r26, r24
    8962:	a2 1b       	sub	r26, r18
    8964:	b3 0b       	sbc	r27, r19
    8966:	9d 01       	movw	r18, r26
    8968:	25 3c       	cpi	r18, 0xC5	; 197
    896a:	b9 e0       	ldi	r27, 0x09	; 9
    896c:	3b 07       	cpc	r19, r27
    896e:	c8 f0       	brcs	.+50     	; 0x89a2 <__vector_20+0xbe>
    8970:	10 92 bd 08 	sts	0x08BD, r1
    8974:	10 92 d0 08 	sts	0x08D0, r1
    8978:	10 92 f6 08 	sts	0x08F6, r1
    897c:	10 92 fc 08 	sts	0x08FC, r1
    8980:	10 92 fb 08 	sts	0x08FB, r1
    8984:	10 92 f4 08 	sts	0x08F4, r1
    8988:	10 92 f3 08 	sts	0x08F3, r1
    898c:	30 93 fe 08 	sts	0x08FE, r19
    8990:	20 93 fd 08 	sts	0x08FD, r18
    8994:	26 e2       	ldi	r18, 0x26	; 38
    8996:	ec e7       	ldi	r30, 0x7C	; 124
    8998:	f5 e0       	ldi	r31, 0x05	; 5
    899a:	df 01       	movw	r26, r30
    899c:	1d 92       	st	X+, r1
    899e:	2a 95       	dec	r18
    89a0:	e9 f7       	brne	.-6      	; 0x899c <__vector_20+0xb8>
    89a2:	90 93 f8 08 	sts	0x08F8, r25
    89a6:	80 93 f7 08 	sts	0x08F7, r24
    89aa:	80 91 bd 08 	lds	r24, 0x08BD
    89ae:	86 32       	cpi	r24, 0x26	; 38
    89b0:	50 f4       	brcc	.+20     	; 0x89c6 <__vector_20+0xe2>
    89b2:	e0 91 bd 08 	lds	r30, 0x08BD
    89b6:	81 e0       	ldi	r24, 0x01	; 1
    89b8:	8e 0f       	add	r24, r30
    89ba:	80 93 bd 08 	sts	0x08BD, r24
    89be:	f0 e0       	ldi	r31, 0x00	; 0
    89c0:	e4 58       	subi	r30, 0x84	; 132
    89c2:	fa 4f       	sbci	r31, 0xFA	; 250
    89c4:	c0 83       	st	Z, r28
    89c6:	90 91 42 06 	lds	r25, 0x0642
    89ca:	94 30       	cpi	r25, 0x04	; 4
    89cc:	09 f0       	breq	.+2      	; 0x89d0 <__vector_20+0xec>
    89ce:	c2 c0       	rjmp	.+388    	; 0x8b54 <__vector_20+0x270>
    89d0:	80 91 d0 08 	lds	r24, 0x08D0
    89d4:	81 11       	cpse	r24, r1
    89d6:	0d c0       	rjmp	.+26     	; 0x89f2 <__vector_20+0x10e>
    89d8:	8c 2f       	mov	r24, r28
    89da:	80 7e       	andi	r24, 0xE0	; 224
    89dc:	51 f0       	breq	.+20     	; 0x89f2 <__vector_20+0x10e>
    89de:	80 91 fb 08 	lds	r24, 0x08FB
    89e2:	90 91 fc 08 	lds	r25, 0x08FC
    89e6:	8b 5a       	subi	r24, 0xAB	; 171
    89e8:	9f 4f       	sbci	r25, 0xFF	; 255
    89ea:	90 93 fc 08 	sts	0x08FC, r25
    89ee:	80 93 fb 08 	sts	0x08FB, r24
    89f2:	20 91 d0 08 	lds	r18, 0x08D0
    89f6:	8c 2f       	mov	r24, r28
    89f8:	90 e0       	ldi	r25, 0x00	; 0
    89fa:	22 30       	cpi	r18, 0x02	; 2
    89fc:	51 f4       	brne	.+20     	; 0x8a12 <__vector_20+0x12e>
    89fe:	10 92 f4 08 	sts	0x08F4, r1
    8a02:	10 92 f3 08 	sts	0x08F3, r1
    8a06:	38 2f       	mov	r19, r24
    8a08:	22 27       	eor	r18, r18
    8a0a:	30 93 f4 08 	sts	0x08F4, r19
    8a0e:	20 93 f3 08 	sts	0x08F3, r18
    8a12:	20 91 d0 08 	lds	r18, 0x08D0
    8a16:	23 30       	cpi	r18, 0x03	; 3
    8a18:	c1 f0       	breq	.+48     	; 0x8a4a <__vector_20+0x166>
    8a1a:	20 91 f6 08 	lds	r18, 0x08F6
    8a1e:	40 91 d0 08 	lds	r20, 0x08D0
    8a22:	30 e0       	ldi	r19, 0x00	; 0
    8a24:	22 0f       	add	r18, r18
    8a26:	33 1f       	adc	r19, r19
    8a28:	2d 5f       	subi	r18, 0xFD	; 253
    8a2a:	3f 4f       	sbci	r19, 0xFF	; 255
    8a2c:	50 e0       	ldi	r21, 0x00	; 0
    8a2e:	24 17       	cp	r18, r20
    8a30:	35 07       	cpc	r19, r21
    8a32:	4c f1       	brlt	.+82     	; 0x8a86 <__vector_20+0x1a2>
    8a34:	20 91 fb 08 	lds	r18, 0x08FB
    8a38:	30 91 fc 08 	lds	r19, 0x08FC
    8a3c:	82 0f       	add	r24, r18
    8a3e:	93 1f       	adc	r25, r19
    8a40:	90 93 fc 08 	sts	0x08FC, r25
    8a44:	80 93 fb 08 	sts	0x08FB, r24
    8a48:	1d c2       	rjmp	.+1082   	; 0x8e84 <__vector_20+0x5a0>
    8a4a:	20 91 f3 08 	lds	r18, 0x08F3
    8a4e:	30 91 f4 08 	lds	r19, 0x08F4
    8a52:	28 0f       	add	r18, r24
    8a54:	39 1f       	adc	r19, r25
    8a56:	30 93 f4 08 	sts	0x08F4, r19
    8a5a:	20 93 f3 08 	sts	0x08F3, r18
    8a5e:	20 91 f3 08 	lds	r18, 0x08F3
    8a62:	30 91 f4 08 	lds	r19, 0x08F4
    8a66:	10 92 f6 08 	sts	0x08F6, r1
    8a6a:	21 15       	cp	r18, r1
    8a6c:	31 05       	cpc	r19, r1
    8a6e:	a9 f2       	breq	.-86     	; 0x8a1a <__vector_20+0x136>
    8a70:	a9 01       	movw	r20, r18
    8a72:	41 50       	subi	r20, 0x01	; 1
    8a74:	51 09       	sbc	r21, r1
    8a76:	24 23       	and	r18, r20
    8a78:	35 23       	and	r19, r21
    8a7a:	40 91 f6 08 	lds	r20, 0x08F6
    8a7e:	4f 5f       	subi	r20, 0xFF	; 255
    8a80:	40 93 f6 08 	sts	0x08F6, r20
    8a84:	f2 cf       	rjmp	.-28     	; 0x8a6a <__vector_20+0x186>
    8a86:	20 91 fb 08 	lds	r18, 0x08FB
    8a8a:	30 91 fc 08 	lds	r19, 0x08FC
    8a8e:	33 27       	eor	r19, r19
    8a90:	30 93 fc 08 	sts	0x08FC, r19
    8a94:	20 93 fb 08 	sts	0x08FB, r18
    8a98:	20 91 fb 08 	lds	r18, 0x08FB
    8a9c:	30 91 fc 08 	lds	r19, 0x08FC
    8aa0:	28 17       	cp	r18, r24
    8aa2:	39 07       	cpc	r19, r25
    8aa4:	49 f0       	breq	.+18     	; 0x8ab8 <__vector_20+0x1d4>
    8aa6:	10 92 ce 08 	sts	0x08CE, r1
    8aaa:	10 92 f6 08 	sts	0x08F6, r1
    8aae:	10 92 fc 08 	sts	0x08FC, r1
    8ab2:	10 92 fb 08 	sts	0x08FB, r1
    8ab6:	e6 c1       	rjmp	.+972    	; 0x8e84 <__vector_20+0x5a0>
    8ab8:	81 e0       	ldi	r24, 0x01	; 1
    8aba:	80 93 ce 08 	sts	0x08CE, r24
    8abe:	80 91 b2 00 	lds	r24, 0x00B2
    8ac2:	80 93 2c 05 	sts	0x052C, r24
    8ac6:	10 92 2b 05 	sts	0x052B, r1
    8aca:	10 92 2a 05 	sts	0x052A, r1
    8ace:	10 92 2e 05 	sts	0x052E, r1
    8ad2:	20 e0       	ldi	r18, 0x00	; 0
    8ad4:	30 e0       	ldi	r19, 0x00	; 0
    8ad6:	44 e0       	ldi	r20, 0x04	; 4
    8ad8:	61 e0       	ldi	r22, 0x01	; 1
    8ada:	70 e0       	ldi	r23, 0x00	; 0
    8adc:	5a e0       	ldi	r21, 0x0A	; 10
    8ade:	80 91 f3 08 	lds	r24, 0x08F3
    8ae2:	90 91 f4 08 	lds	r25, 0x08F4
    8ae6:	fb 01       	movw	r30, r22
    8ae8:	02 2e       	mov	r0, r18
    8aea:	02 c0       	rjmp	.+4      	; 0x8af0 <__vector_20+0x20c>
    8aec:	ee 0f       	add	r30, r30
    8aee:	ff 1f       	adc	r31, r31
    8af0:	0a 94       	dec	r0
    8af2:	e2 f7       	brpl	.-8      	; 0x8aec <__vector_20+0x208>
    8af4:	8e 23       	and	r24, r30
    8af6:	9f 23       	and	r25, r31
    8af8:	89 2b       	or	r24, r25
    8afa:	31 f1       	breq	.+76     	; 0x8b48 <__vector_20+0x264>
    8afc:	e4 2f       	mov	r30, r20
    8afe:	f0 e0       	ldi	r31, 0x00	; 0
    8b00:	e4 58       	subi	r30, 0x84	; 132
    8b02:	fa 4f       	sbci	r31, 0xFA	; 250
    8b04:	80 81       	ld	r24, Z
    8b06:	f1 81       	ldd	r31, Z+1	; 0x01
    8b08:	28 30       	cpi	r18, 0x08	; 8
    8b0a:	31 05       	cpc	r19, r1
    8b0c:	d0 f4       	brcc	.+52     	; 0x8b42 <__vector_20+0x25e>
    8b0e:	d9 01       	movw	r26, r18
    8b10:	a7 5e       	subi	r26, 0xE7	; 231
    8b12:	b9 4f       	sbci	r27, 0xF9	; 249
    8b14:	11 96       	adiw	r26, 0x01	; 1
    8b16:	ec 91       	ld	r30, X
    8b18:	90 e0       	ldi	r25, 0x00	; 0
    8b1a:	98 2f       	mov	r25, r24
    8b1c:	88 27       	eor	r24, r24
    8b1e:	8f 0f       	add	r24, r31
    8b20:	91 1d       	adc	r25, r1
    8b22:	58 9f       	mul	r21, r24
    8b24:	d0 01       	movw	r26, r0
    8b26:	59 9f       	mul	r21, r25
    8b28:	b0 0d       	add	r27, r0
    8b2a:	11 24       	eor	r1, r1
    8b2c:	cd 01       	movw	r24, r26
    8b2e:	96 95       	lsr	r25
    8b30:	87 95       	ror	r24
    8b32:	96 95       	lsr	r25
    8b34:	87 95       	ror	r24
    8b36:	ee 0f       	add	r30, r30
    8b38:	ff 0b       	sbc	r31, r31
    8b3a:	e2 54       	subi	r30, 0x42	; 66
    8b3c:	f7 4f       	sbci	r31, 0xF7	; 247
    8b3e:	91 83       	std	Z+1, r25	; 0x01
    8b40:	80 83       	st	Z, r24
    8b42:	46 32       	cpi	r20, 0x26	; 38
    8b44:	08 f4       	brcc	.+2      	; 0x8b48 <__vector_20+0x264>
    8b46:	4e 5f       	subi	r20, 0xFE	; 254
    8b48:	2f 5f       	subi	r18, 0xFF	; 255
    8b4a:	3f 4f       	sbci	r19, 0xFF	; 255
    8b4c:	20 31       	cpi	r18, 0x10	; 16
    8b4e:	31 05       	cpc	r19, r1
    8b50:	31 f6       	brne	.-116    	; 0x8ade <__vector_20+0x1fa>
    8b52:	98 c1       	rjmp	.+816    	; 0x8e84 <__vector_20+0x5a0>
    8b54:	92 30       	cpi	r25, 0x02	; 2
    8b56:	09 f0       	breq	.+2      	; 0x8b5a <__vector_20+0x276>
    8b58:	76 c0       	rjmp	.+236    	; 0x8c46 <__vector_20+0x362>
    8b5a:	80 91 d0 08 	lds	r24, 0x08D0
    8b5e:	88 31       	cpi	r24, 0x18	; 24
    8b60:	09 f0       	breq	.+2      	; 0x8b64 <__vector_20+0x280>
    8b62:	90 c1       	rjmp	.+800    	; 0x8e84 <__vector_20+0x5a0>
    8b64:	81 e0       	ldi	r24, 0x01	; 1
    8b66:	80 93 ce 08 	sts	0x08CE, r24
    8b6a:	80 91 b2 00 	lds	r24, 0x00B2
    8b6e:	80 93 2c 05 	sts	0x052C, r24
    8b72:	10 92 2b 05 	sts	0x052B, r1
    8b76:	10 92 2a 05 	sts	0x052A, r1
    8b7a:	10 92 2e 05 	sts	0x052E, r1
    8b7e:	80 e0       	ldi	r24, 0x00	; 0
    8b80:	90 e0       	ldi	r25, 0x00	; 0
    8b82:	fc 01       	movw	r30, r24
    8b84:	ee 0f       	add	r30, r30
    8b86:	ff 1f       	adc	r31, r31
    8b88:	e2 54       	subi	r30, 0x42	; 66
    8b8a:	f7 4f       	sbci	r31, 0xF7	; 247
    8b8c:	11 82       	std	Z+1, r1	; 0x01
    8b8e:	10 82       	st	Z, r1
    8b90:	01 96       	adiw	r24, 0x01	; 1
    8b92:	88 30       	cpi	r24, 0x08	; 8
    8b94:	91 05       	cpc	r25, r1
    8b96:	a9 f7       	brne	.-22     	; 0x8b82 <__vector_20+0x29e>
    8b98:	48 e5       	ldi	r20, 0x58	; 88
    8b9a:	90 e0       	ldi	r25, 0x00	; 0
    8b9c:	60 e0       	ldi	r22, 0x00	; 0
    8b9e:	80 e0       	ldi	r24, 0x00	; 0
    8ba0:	51 e0       	ldi	r21, 0x01	; 1
    8ba2:	a1 e0       	ldi	r26, 0x01	; 1
    8ba4:	b0 e0       	ldi	r27, 0x00	; 0
    8ba6:	e5 2f       	mov	r30, r21
    8ba8:	f0 e0       	ldi	r31, 0x00	; 0
    8baa:	e4 58       	subi	r30, 0x84	; 132
    8bac:	fa 4f       	sbci	r31, 0xFA	; 250
    8bae:	20 81       	ld	r18, Z
    8bb0:	30 e0       	ldi	r19, 0x00	; 0
    8bb2:	08 2e       	mov	r0, r24
    8bb4:	02 c0       	rjmp	.+4      	; 0x8bba <__vector_20+0x2d6>
    8bb6:	35 95       	asr	r19
    8bb8:	27 95       	ror	r18
    8bba:	0a 94       	dec	r0
    8bbc:	e2 f7       	brpl	.-8      	; 0x8bb6 <__vector_20+0x2d2>
    8bbe:	20 ff       	sbrs	r18, 0
    8bc0:	16 c0       	rjmp	.+44     	; 0x8bee <__vector_20+0x30a>
    8bc2:	e6 2f       	mov	r30, r22
    8bc4:	f0 e0       	ldi	r31, 0x00	; 0
    8bc6:	e7 5e       	subi	r30, 0xE7	; 231
    8bc8:	f9 4f       	sbci	r31, 0xF9	; 249
    8bca:	e1 81       	ldd	r30, Z+1	; 0x01
    8bcc:	ee 0f       	add	r30, r30
    8bce:	ff 0b       	sbc	r31, r31
    8bd0:	e2 54       	subi	r30, 0x42	; 66
    8bd2:	f7 4f       	sbci	r31, 0xF7	; 247
    8bd4:	c0 81       	ld	r28, Z
    8bd6:	d1 81       	ldd	r29, Z+1	; 0x01
    8bd8:	9d 01       	movw	r18, r26
    8bda:	09 2e       	mov	r0, r25
    8bdc:	02 c0       	rjmp	.+4      	; 0x8be2 <__vector_20+0x2fe>
    8bde:	22 0f       	add	r18, r18
    8be0:	33 1f       	adc	r19, r19
    8be2:	0a 94       	dec	r0
    8be4:	e2 f7       	brpl	.-8      	; 0x8bde <__vector_20+0x2fa>
    8be6:	2c 2b       	or	r18, r28
    8be8:	3d 2b       	or	r19, r29
    8bea:	31 83       	std	Z+1, r19	; 0x01
    8bec:	20 83       	st	Z, r18
    8bee:	8f 5f       	subi	r24, 0xFF	; 255
    8bf0:	9f 5f       	subi	r25, 0xFF	; 255
    8bf2:	88 30       	cpi	r24, 0x08	; 8
    8bf4:	11 f4       	brne	.+4      	; 0x8bfa <__vector_20+0x316>
    8bf6:	5f 5f       	subi	r21, 0xFF	; 255
    8bf8:	80 e0       	ldi	r24, 0x00	; 0
    8bfa:	9b 30       	cpi	r25, 0x0B	; 11
    8bfc:	11 f4       	brne	.+4      	; 0x8c02 <__vector_20+0x31e>
    8bfe:	6f 5f       	subi	r22, 0xFF	; 255
    8c00:	90 e0       	ldi	r25, 0x00	; 0
    8c02:	41 50       	subi	r20, 0x01	; 1
    8c04:	81 f6       	brne	.-96     	; 0x8ba6 <__vector_20+0x2c2>
    8c06:	20 e0       	ldi	r18, 0x00	; 0
    8c08:	30 e0       	ldi	r19, 0x00	; 0
    8c0a:	f9 01       	movw	r30, r18
    8c0c:	ee 0f       	add	r30, r30
    8c0e:	ff 1f       	adc	r31, r31
    8c10:	e2 54       	subi	r30, 0x42	; 66
    8c12:	f7 4f       	sbci	r31, 0xF7	; 247
    8c14:	80 81       	ld	r24, Z
    8c16:	91 81       	ldd	r25, Z+1	; 0x01
    8c18:	94 50       	subi	r25, 0x04	; 4
    8c1a:	ac 01       	movw	r20, r24
    8c1c:	55 95       	asr	r21
    8c1e:	47 95       	ror	r20
    8c20:	48 0f       	add	r20, r24
    8c22:	59 1f       	adc	r21, r25
    8c24:	c4 e0       	ldi	r28, 0x04	; 4
    8c26:	95 95       	asr	r25
    8c28:	87 95       	ror	r24
    8c2a:	ca 95       	dec	r28
    8c2c:	e1 f7       	brne	.-8      	; 0x8c26 <__vector_20+0x342>
    8c2e:	84 0f       	add	r24, r20
    8c30:	95 1f       	adc	r25, r21
    8c32:	8a 55       	subi	r24, 0x5A	; 90
    8c34:	91 4f       	sbci	r25, 0xF1	; 241
    8c36:	91 83       	std	Z+1, r25	; 0x01
    8c38:	80 83       	st	Z, r24
    8c3a:	2f 5f       	subi	r18, 0xFF	; 255
    8c3c:	3f 4f       	sbci	r19, 0xFF	; 255
    8c3e:	28 30       	cpi	r18, 0x08	; 8
    8c40:	31 05       	cpc	r19, r1
    8c42:	19 f7       	brne	.-58     	; 0x8c0a <__vector_20+0x326>
    8c44:	1f c1       	rjmp	.+574    	; 0x8e84 <__vector_20+0x5a0>
    8c46:	93 30       	cpi	r25, 0x03	; 3
    8c48:	09 f0       	breq	.+2      	; 0x8c4c <__vector_20+0x368>
    8c4a:	72 c0       	rjmp	.+228    	; 0x8d30 <__vector_20+0x44c>
    8c4c:	80 91 d0 08 	lds	r24, 0x08D0
    8c50:	8f 30       	cpi	r24, 0x0F	; 15
    8c52:	09 f0       	breq	.+2      	; 0x8c56 <__vector_20+0x372>
    8c54:	17 c1       	rjmp	.+558    	; 0x8e84 <__vector_20+0x5a0>
    8c56:	c0 93 8b 05 	sts	0x058B, r28
    8c5a:	80 91 7d 05 	lds	r24, 0x057D
    8c5e:	84 fd       	sbrc	r24, 4
    8c60:	04 c0       	rjmp	.+8      	; 0x8c6a <__vector_20+0x386>
    8c62:	63 e0       	ldi	r22, 0x03	; 3
    8c64:	42 e0       	ldi	r20, 0x02	; 2
    8c66:	5c e3       	ldi	r21, 0x3C	; 60
    8c68:	03 c0       	rjmp	.+6      	; 0x8c70 <__vector_20+0x38c>
    8c6a:	67 e0       	ldi	r22, 0x07	; 7
    8c6c:	43 e0       	ldi	r20, 0x03	; 3
    8c6e:	58 e7       	ldi	r21, 0x78	; 120
    8c70:	20 e0       	ldi	r18, 0x00	; 0
    8c72:	30 e0       	ldi	r19, 0x00	; 0
    8c74:	d9 01       	movw	r26, r18
    8c76:	a4 58       	subi	r26, 0x84	; 132
    8c78:	ba 4f       	sbci	r27, 0xFA	; 250
    8c7a:	12 96       	adiw	r26, 0x02	; 2
    8c7c:	8c 91       	ld	r24, X
    8c7e:	12 97       	sbiw	r26, 0x02	; 2
    8c80:	e8 2f       	mov	r30, r24
    8c82:	e5 23       	and	r30, r21
    8c84:	f0 e0       	ldi	r31, 0x00	; 0
    8c86:	04 2e       	mov	r0, r20
    8c88:	02 c0       	rjmp	.+4      	; 0x8c8e <__vector_20+0x3aa>
    8c8a:	f5 95       	asr	r31
    8c8c:	e7 95       	ror	r30
    8c8e:	0a 94       	dec	r0
    8c90:	e2 f7       	brpl	.-8      	; 0x8c8a <__vector_20+0x3a6>
    8c92:	e0 93 f6 08 	sts	0x08F6, r30
    8c96:	13 96       	adiw	r26, 0x03	; 3
    8c98:	7c 91       	ld	r23, X
    8c9a:	90 91 f6 08 	lds	r25, 0x08F6
    8c9e:	98 30       	cpi	r25, 0x08	; 8
    8ca0:	98 f5       	brcc	.+102    	; 0x8d08 <__vector_20+0x424>
    8ca2:	86 23       	and	r24, r22
    8ca4:	90 e0       	ldi	r25, 0x00	; 0
    8ca6:	98 2f       	mov	r25, r24
    8ca8:	88 27       	eor	r24, r24
    8caa:	87 0f       	add	r24, r23
    8cac:	91 1d       	adc	r25, r1
    8cae:	43 30       	cpi	r20, 0x03	; 3
    8cb0:	11 f4       	brne	.+4      	; 0x8cb6 <__vector_20+0x3d2>
    8cb2:	94 50       	subi	r25, 0x04	; 4
    8cb4:	01 c0       	rjmp	.+2      	; 0x8cb8 <__vector_20+0x3d4>
    8cb6:	92 50       	subi	r25, 0x02	; 2
    8cb8:	dc 01       	movw	r26, r24
    8cba:	aa 0f       	add	r26, r26
    8cbc:	bb 1f       	adc	r27, r27
    8cbe:	fc 01       	movw	r30, r24
    8cc0:	f5 95       	asr	r31
    8cc2:	e7 95       	ror	r30
    8cc4:	ea 0f       	add	r30, r26
    8cc6:	fb 1f       	adc	r31, r27
    8cc8:	dc 01       	movw	r26, r24
    8cca:	b5 95       	asr	r27
    8ccc:	a7 95       	ror	r26
    8cce:	b5 95       	asr	r27
    8cd0:	a7 95       	ror	r26
    8cd2:	ea 0f       	add	r30, r26
    8cd4:	fb 1f       	adc	r31, r27
    8cd6:	73 e0       	ldi	r23, 0x03	; 3
    8cd8:	95 95       	asr	r25
    8cda:	87 95       	ror	r24
    8cdc:	7a 95       	dec	r23
    8cde:	e1 f7       	brne	.-8      	; 0x8cd8 <__vector_20+0x3f4>
    8ce0:	8e 0f       	add	r24, r30
    8ce2:	9f 1f       	adc	r25, r31
    8ce4:	43 30       	cpi	r20, 0x03	; 3
    8ce6:	11 f4       	brne	.+4      	; 0x8cec <__vector_20+0x408>
    8ce8:	95 95       	asr	r25
    8cea:	87 95       	ror	r24
    8cec:	e0 91 f6 08 	lds	r30, 0x08F6
    8cf0:	f0 e0       	ldi	r31, 0x00	; 0
    8cf2:	e7 5e       	subi	r30, 0xE7	; 231
    8cf4:	f9 4f       	sbci	r31, 0xF9	; 249
    8cf6:	e1 81       	ldd	r30, Z+1	; 0x01
    8cf8:	8a 55       	subi	r24, 0x5A	; 90
    8cfa:	91 4f       	sbci	r25, 0xF1	; 241
    8cfc:	ee 0f       	add	r30, r30
    8cfe:	ff 0b       	sbc	r31, r31
    8d00:	e2 54       	subi	r30, 0x42	; 66
    8d02:	f7 4f       	sbci	r31, 0xF7	; 247
    8d04:	91 83       	std	Z+1, r25	; 0x01
    8d06:	80 83       	st	Z, r24
    8d08:	2e 5f       	subi	r18, 0xFE	; 254
    8d0a:	3f 4f       	sbci	r19, 0xFF	; 255
    8d0c:	2e 30       	cpi	r18, 0x0E	; 14
    8d0e:	31 05       	cpc	r19, r1
    8d10:	09 f0       	breq	.+2      	; 0x8d14 <__vector_20+0x430>
    8d12:	b0 cf       	rjmp	.-160    	; 0x8c74 <__vector_20+0x390>
    8d14:	81 e0       	ldi	r24, 0x01	; 1
    8d16:	80 93 ce 08 	sts	0x08CE, r24
    8d1a:	80 91 b2 00 	lds	r24, 0x00B2
    8d1e:	80 93 2c 05 	sts	0x052C, r24
    8d22:	10 92 2b 05 	sts	0x052B, r1
    8d26:	10 92 2a 05 	sts	0x052A, r1
    8d2a:	10 92 2e 05 	sts	0x052E, r1
    8d2e:	aa c0       	rjmp	.+340    	; 0x8e84 <__vector_20+0x5a0>
    8d30:	95 30       	cpi	r25, 0x05	; 5
    8d32:	09 f0       	breq	.+2      	; 0x8d36 <__vector_20+0x452>
    8d34:	a7 c0       	rjmp	.+334    	; 0x8e84 <__vector_20+0x5a0>
    8d36:	80 91 d0 08 	lds	r24, 0x08D0
    8d3a:	81 11       	cpse	r24, r1
    8d3c:	09 c0       	rjmp	.+18     	; 0x8d50 <__vector_20+0x46c>
    8d3e:	80 91 7c 05 	lds	r24, 0x057C
    8d42:	81 3a       	cpi	r24, 0xA1	; 161
    8d44:	11 f4       	brne	.+4      	; 0x8d4a <__vector_20+0x466>
    8d46:	8b e1       	ldi	r24, 0x1B	; 27
    8d48:	01 c0       	rjmp	.+2      	; 0x8d4c <__vector_20+0x468>
    8d4a:	83 e2       	ldi	r24, 0x23	; 35
    8d4c:	80 93 f5 08 	sts	0x08F5, r24
    8d50:	20 91 d0 08 	lds	r18, 0x08D0
    8d54:	80 91 f5 08 	lds	r24, 0x08F5
    8d58:	30 e0       	ldi	r19, 0x00	; 0
    8d5a:	90 e0       	ldi	r25, 0x00	; 0
    8d5c:	01 97       	sbiw	r24, 0x01	; 1
    8d5e:	28 17       	cp	r18, r24
    8d60:	39 07       	cpc	r19, r25
    8d62:	09 f0       	breq	.+2      	; 0x8d66 <__vector_20+0x482>
    8d64:	8f c0       	rjmp	.+286    	; 0x8e84 <__vector_20+0x5a0>
    8d66:	80 e0       	ldi	r24, 0x00	; 0
    8d68:	90 e0       	ldi	r25, 0x00	; 0
    8d6a:	c0 e0       	ldi	r28, 0x00	; 0
    8d6c:	4c 2f       	mov	r20, r28
    8d6e:	50 e0       	ldi	r21, 0x00	; 0
    8d70:	20 91 f5 08 	lds	r18, 0x08F5
    8d74:	30 e0       	ldi	r19, 0x00	; 0
    8d76:	22 50       	subi	r18, 0x02	; 2
    8d78:	31 09       	sbc	r19, r1
    8d7a:	42 17       	cp	r20, r18
    8d7c:	53 07       	cpc	r21, r19
    8d7e:	44 f4       	brge	.+16     	; 0x8d90 <__vector_20+0x4ac>
    8d80:	fa 01       	movw	r30, r20
    8d82:	e4 58       	subi	r30, 0x84	; 132
    8d84:	fa 4f       	sbci	r31, 0xFA	; 250
    8d86:	60 81       	ld	r22, Z
    8d88:	0e 94 fb 6b 	call	0xd7f6	; 0xd7f6 <CRC16>
    8d8c:	cf 5f       	subi	r28, 0xFF	; 255
    8d8e:	ee cf       	rjmp	.-36     	; 0x8d6c <__vector_20+0x488>
    8d90:	a0 91 f5 08 	lds	r26, 0x08F5
    8d94:	e0 91 f5 08 	lds	r30, 0x08F5
    8d98:	b0 e0       	ldi	r27, 0x00	; 0
    8d9a:	a6 58       	subi	r26, 0x86	; 134
    8d9c:	ba 4f       	sbci	r27, 0xFA	; 250
    8d9e:	2c 91       	ld	r18, X
    8da0:	30 e0       	ldi	r19, 0x00	; 0
    8da2:	32 2f       	mov	r19, r18
    8da4:	22 27       	eor	r18, r18
    8da6:	f0 e0       	ldi	r31, 0x00	; 0
    8da8:	e5 58       	subi	r30, 0x85	; 133
    8daa:	fa 4f       	sbci	r31, 0xFA	; 250
    8dac:	40 81       	ld	r20, Z
    8dae:	24 2b       	or	r18, r20
    8db0:	28 17       	cp	r18, r24
    8db2:	39 07       	cpc	r19, r25
    8db4:	09 f0       	breq	.+2      	; 0x8db8 <__vector_20+0x4d4>
    8db6:	66 c0       	rjmp	.+204    	; 0x8e84 <__vector_20+0x5a0>
    8db8:	81 e0       	ldi	r24, 0x01	; 1
    8dba:	80 93 ce 08 	sts	0x08CE, r24
    8dbe:	80 91 b2 00 	lds	r24, 0x00B2
    8dc2:	80 93 2c 05 	sts	0x052C, r24
    8dc6:	10 92 2b 05 	sts	0x052B, r1
    8dca:	10 92 2a 05 	sts	0x052A, r1
    8dce:	10 92 2e 05 	sts	0x052E, r1
    8dd2:	20 e0       	ldi	r18, 0x00	; 0
    8dd4:	30 e0       	ldi	r19, 0x00	; 0
    8dd6:	a9 01       	movw	r20, r18
    8dd8:	44 0f       	add	r20, r20
    8dda:	55 1f       	adc	r21, r21
    8ddc:	fa 01       	movw	r30, r20
    8dde:	e4 58       	subi	r30, 0x84	; 132
    8de0:	fa 4f       	sbci	r31, 0xFA	; 250
    8de2:	81 81       	ldd	r24, Z+1	; 0x01
    8de4:	90 e0       	ldi	r25, 0x00	; 0
    8de6:	98 2f       	mov	r25, r24
    8de8:	88 27       	eor	r24, r24
    8dea:	62 81       	ldd	r22, Z+2	; 0x02
    8dec:	86 2b       	or	r24, r22
    8dee:	fa 01       	movw	r30, r20
    8df0:	ef 52       	subi	r30, 0x2F	; 47
    8df2:	f7 4f       	sbci	r31, 0xF7	; 247
    8df4:	91 83       	std	Z+1, r25	; 0x01
    8df6:	80 83       	st	Z, r24
    8df8:	2f 5f       	subi	r18, 0xFF	; 255
    8dfa:	3f 4f       	sbci	r19, 0xFF	; 255
    8dfc:	28 30       	cpi	r18, 0x08	; 8
    8dfe:	31 05       	cpc	r19, r1
    8e00:	51 f7       	brne	.-44     	; 0x8dd6 <__vector_20+0x4f2>
    8e02:	20 e0       	ldi	r18, 0x00	; 0
    8e04:	30 e0       	ldi	r19, 0x00	; 0
    8e06:	f9 01       	movw	r30, r18
    8e08:	ee 0f       	add	r30, r30
    8e0a:	ff 1f       	adc	r31, r31
    8e0c:	ef 52       	subi	r30, 0x2F	; 47
    8e0e:	f7 4f       	sbci	r31, 0xF7	; 247
    8e10:	80 81       	ld	r24, Z
    8e12:	91 81       	ldd	r25, Z+1	; 0x01
    8e14:	98 50       	subi	r25, 0x08	; 8
    8e16:	bc 01       	movw	r22, r24
    8e18:	75 95       	asr	r23
    8e1a:	67 95       	ror	r22
    8e1c:	ac 01       	movw	r20, r24
    8e1e:	55 95       	asr	r21
    8e20:	47 95       	ror	r20
    8e22:	55 95       	asr	r21
    8e24:	47 95       	ror	r20
    8e26:	46 0f       	add	r20, r22
    8e28:	57 1f       	adc	r21, r23
    8e2a:	bc 01       	movw	r22, r24
    8e2c:	f4 e0       	ldi	r31, 0x04	; 4
    8e2e:	75 95       	asr	r23
    8e30:	67 95       	ror	r22
    8e32:	fa 95       	dec	r31
    8e34:	e1 f7       	brne	.-8      	; 0x8e2e <__vector_20+0x54a>
    8e36:	46 0f       	add	r20, r22
    8e38:	57 1f       	adc	r21, r23
    8e3a:	bc 01       	movw	r22, r24
    8e3c:	a5 e0       	ldi	r26, 0x05	; 5
    8e3e:	75 95       	asr	r23
    8e40:	67 95       	ror	r22
    8e42:	aa 95       	dec	r26
    8e44:	e1 f7       	brne	.-8      	; 0x8e3e <__vector_20+0x55a>
    8e46:	46 0f       	add	r20, r22
    8e48:	57 1f       	adc	r21, r23
    8e4a:	bc 01       	movw	r22, r24
    8e4c:	66 0f       	add	r22, r22
    8e4e:	67 2f       	mov	r22, r23
    8e50:	66 1f       	adc	r22, r22
    8e52:	77 0b       	sbc	r23, r23
    8e54:	46 0f       	add	r20, r22
    8e56:	57 1f       	adc	r21, r23
    8e58:	89 2f       	mov	r24, r25
    8e5a:	99 0f       	add	r25, r25
    8e5c:	99 0b       	sbc	r25, r25
    8e5e:	f9 01       	movw	r30, r18
    8e60:	e7 5e       	subi	r30, 0xE7	; 231
    8e62:	f9 4f       	sbci	r31, 0xF9	; 249
    8e64:	e1 81       	ldd	r30, Z+1	; 0x01
    8e66:	84 0f       	add	r24, r20
    8e68:	95 1f       	adc	r25, r21
    8e6a:	8a 55       	subi	r24, 0x5A	; 90
    8e6c:	91 4f       	sbci	r25, 0xF1	; 241
    8e6e:	ee 0f       	add	r30, r30
    8e70:	ff 0b       	sbc	r31, r31
    8e72:	e2 54       	subi	r30, 0x42	; 66
    8e74:	f7 4f       	sbci	r31, 0xF7	; 247
    8e76:	91 83       	std	Z+1, r25	; 0x01
    8e78:	80 83       	st	Z, r24
    8e7a:	2f 5f       	subi	r18, 0xFF	; 255
    8e7c:	3f 4f       	sbci	r19, 0xFF	; 255
    8e7e:	28 30       	cpi	r18, 0x08	; 8
    8e80:	31 05       	cpc	r19, r1
    8e82:	09 f6       	brne	.-126    	; 0x8e06 <__vector_20+0x522>
    8e84:	80 91 d0 08 	lds	r24, 0x08D0
    8e88:	8f 5f       	subi	r24, 0xFF	; 255
    8e8a:	80 93 d0 08 	sts	0x08D0, r24
    8e8e:	ff 91       	pop	r31
    8e90:	ef 91       	pop	r30
    8e92:	df 91       	pop	r29
    8e94:	cf 91       	pop	r28
    8e96:	bf 91       	pop	r27
    8e98:	af 91       	pop	r26
    8e9a:	9f 91       	pop	r25
    8e9c:	8f 91       	pop	r24
    8e9e:	7f 91       	pop	r23
    8ea0:	6f 91       	pop	r22
    8ea2:	5f 91       	pop	r21
    8ea4:	4f 91       	pop	r20
    8ea6:	3f 91       	pop	r19
    8ea8:	2f 91       	pop	r18
    8eaa:	0f 90       	pop	r0
    8eac:	0f be       	out	0x3f, r0	; 63
    8eae:	0f 90       	pop	r0
    8eb0:	1f 90       	pop	r1
    8eb2:	18 95       	reti

00008eb4 <Disable_RC_Interrupts>:
    8eb4:	f8 94       	cli
    8eb6:	10 92 6c 00 	sts	0x006C, r1
    8eba:	10 92 73 00 	sts	0x0073, r1
    8ebe:	1d ba       	out	0x1d, r1	; 29
    8ec0:	e1 ec       	ldi	r30, 0xC1	; 193
    8ec2:	f0 e0       	ldi	r31, 0x00	; 0
    8ec4:	80 81       	ld	r24, Z
    8ec6:	8f 7e       	andi	r24, 0xEF	; 239
    8ec8:	80 83       	st	Z, r24
    8eca:	80 81       	ld	r24, Z
    8ecc:	8f 77       	andi	r24, 0x7F	; 127
    8ece:	80 83       	st	Z, r24
    8ed0:	8f e0       	ldi	r24, 0x0F	; 15
    8ed2:	8b bb       	out	0x1b, r24	; 27
    8ed4:	1c ba       	out	0x1c, r1	; 28
    8ed6:	78 94       	sei
    8ed8:	08 95       	ret

00008eda <init_int>:
    8eda:	f8 94       	cli
    8edc:	80 91 42 06 	lds	r24, 0x0642
    8ee0:	81 30       	cpi	r24, 0x01	; 1
    8ee2:	c9 f0       	breq	.+50     	; 0x8f16 <init_int+0x3c>
    8ee4:	44 f4       	brge	.+16     	; 0x8ef6 <init_int+0x1c>
    8ee6:	81 11       	cpse	r24, r1
    8ee8:	2c c0       	rjmp	.+88     	; 0x8f42 <init_int+0x68>
    8eea:	10 92 6c 00 	sts	0x006C, r1
    8eee:	10 92 73 00 	sts	0x0073, r1
    8ef2:	84 e0       	ldi	r24, 0x04	; 4
    8ef4:	1b c0       	rjmp	.+54     	; 0x8f2c <init_int+0x52>
    8ef6:	86 30       	cpi	r24, 0x06	; 6
    8ef8:	24 f5       	brge	.+72     	; 0x8f42 <init_int+0x68>
    8efa:	10 92 6c 00 	sts	0x006C, r1
    8efe:	10 92 73 00 	sts	0x0073, r1
    8f02:	1d ba       	out	0x1d, r1	; 29
    8f04:	80 91 c1 00 	lds	r24, 0x00C1
    8f08:	80 68       	ori	r24, 0x80	; 128
    8f0a:	80 93 c1 00 	sts	0x00C1, r24
    8f0e:	80 91 c1 00 	lds	r24, 0x00C1
    8f12:	80 61       	ori	r24, 0x10	; 16
    8f14:	14 c0       	rjmp	.+40     	; 0x8f3e <init_int+0x64>
    8f16:	80 91 6c 00 	lds	r24, 0x006C
    8f1a:	81 60       	ori	r24, 0x01	; 1
    8f1c:	80 93 6c 00 	sts	0x006C, r24
    8f20:	80 91 73 00 	lds	r24, 0x0073
    8f24:	81 60       	ori	r24, 0x01	; 1
    8f26:	80 93 73 00 	sts	0x0073, r24
    8f2a:	87 e0       	ldi	r24, 0x07	; 7
    8f2c:	8d bb       	out	0x1d, r24	; 29
    8f2e:	80 91 c1 00 	lds	r24, 0x00C1
    8f32:	8f 77       	andi	r24, 0x7F	; 127
    8f34:	80 93 c1 00 	sts	0x00C1, r24
    8f38:	80 91 c1 00 	lds	r24, 0x00C1
    8f3c:	8f 7e       	andi	r24, 0xEF	; 239
    8f3e:	80 93 c1 00 	sts	0x00C1, r24
    8f42:	8f e0       	ldi	r24, 0x0F	; 15
    8f44:	8b bb       	out	0x1b, r24	; 27
    8f46:	1c ba       	out	0x1c, r1	; 28
    8f48:	78 94       	sei
    8f4a:	08 95       	ret

00008f4c <menu_channel>:
    8f4c:	8f 92       	push	r8
    8f4e:	9f 92       	push	r9
    8f50:	af 92       	push	r10
    8f52:	bf 92       	push	r11
    8f54:	cf 92       	push	r12
    8f56:	df 92       	push	r13
    8f58:	ef 92       	push	r14
    8f5a:	ff 92       	push	r15
    8f5c:	0f 93       	push	r16
    8f5e:	1f 93       	push	r17
    8f60:	cf 93       	push	r28
    8f62:	df 93       	push	r29
    8f64:	00 d0       	rcall	.+0      	; 0x8f66 <menu_channel+0x1a>
    8f66:	00 d0       	rcall	.+0      	; 0x8f68 <menu_channel+0x1c>
    8f68:	1f 92       	push	r1
    8f6a:	cd b7       	in	r28, 0x3d	; 61
    8f6c:	de b7       	in	r29, 0x3e	; 62
    8f6e:	80 91 08 05 	lds	r24, 0x0508
    8f72:	88 23       	and	r24, r24
    8f74:	41 f0       	breq	.+16     	; 0x8f86 <menu_channel+0x3a>
    8f76:	80 e8       	ldi	r24, 0x80	; 128
    8f78:	91 e0       	ldi	r25, 0x01	; 1
    8f7a:	90 93 4f 05 	sts	0x054F, r25
    8f7e:	80 93 4e 05 	sts	0x054E, r24
    8f82:	10 92 08 05 	sts	0x0508, r1
    8f86:	84 e7       	ldi	r24, 0x74	; 116
    8f88:	98 e0       	ldi	r25, 0x08	; 8
    8f8a:	78 e0       	ldi	r23, 0x08	; 8
    8f8c:	97 2e       	mov	r9, r23
    8f8e:	98 0e       	add	r9, r24
    8f90:	80 91 ff 08 	lds	r24, 0x08FF
    8f94:	80 37       	cpi	r24, 0x70	; 112
    8f96:	09 f4       	brne	.+2      	; 0x8f9a <menu_channel+0x4e>
    8f98:	73 c0       	rjmp	.+230    	; 0x9080 <menu_channel+0x134>
    8f9a:	a0 90 04 05 	lds	r10, 0x0504
    8f9e:	b0 90 05 05 	lds	r11, 0x0505
    8fa2:	32 e0       	ldi	r19, 0x02	; 2
    8fa4:	c3 2e       	mov	r12, r19
    8fa6:	35 e2       	ldi	r19, 0x25	; 37
    8fa8:	d3 2e       	mov	r13, r19
    8faa:	42 ef       	ldi	r20, 0xF2	; 242
    8fac:	e4 2e       	mov	r14, r20
    8fae:	44 e2       	ldi	r20, 0x24	; 36
    8fb0:	f4 2e       	mov	r15, r20
    8fb2:	00 e0       	ldi	r16, 0x00	; 0
    8fb4:	2a ec       	ldi	r18, 0xCA	; 202
    8fb6:	34 e2       	ldi	r19, 0x24	; 36
    8fb8:	44 e7       	ldi	r20, 0x74	; 116
    8fba:	58 e0       	ldi	r21, 0x08	; 8
    8fbc:	60 e8       	ldi	r22, 0x80	; 128
    8fbe:	71 e0       	ldi	r23, 0x01	; 1
    8fc0:	80 91 4e 05 	lds	r24, 0x054E
    8fc4:	90 91 4f 05 	lds	r25, 0x054F
    8fc8:	0e 94 a9 50 	call	0xa152	; 0xa152 <print_menu_items>
    8fcc:	59 e4       	ldi	r21, 0x49	; 73
    8fce:	c5 2e       	mov	r12, r21
    8fd0:	55 e0       	ldi	r21, 0x05	; 5
    8fd2:	d5 2e       	mov	r13, r21
    8fd4:	6e e4       	ldi	r22, 0x4E	; 78
    8fd6:	e6 2e       	mov	r14, r22
    8fd8:	65 e0       	ldi	r22, 0x05	; 5
    8fda:	f6 2e       	mov	r15, r22
    8fdc:	04 e0       	ldi	r16, 0x04	; 4
    8fde:	15 e0       	ldi	r17, 0x05	; 5
    8fe0:	20 91 ff 08 	lds	r18, 0x08FF
    8fe4:	40 e0       	ldi	r20, 0x00	; 0
    8fe6:	50 e0       	ldi	r21, 0x00	; 0
    8fe8:	60 e8       	ldi	r22, 0x80	; 128
    8fea:	71 e0       	ldi	r23, 0x01	; 1
    8fec:	88 e0       	ldi	r24, 0x08	; 8
    8fee:	90 e0       	ldi	r25, 0x00	; 0
    8ff0:	0e 94 d8 4f 	call	0x9fb0	; 0x9fb0 <update_menu>
    8ff4:	60 91 49 05 	lds	r22, 0x0549
    8ff8:	60 58       	subi	r22, 0x80	; 128
    8ffa:	8a ec       	ldi	r24, 0xCA	; 202
    8ffc:	94 e2       	ldi	r25, 0x24	; 36
    8ffe:	0e 94 5f 49 	call	0x92be	; 0x92be <get_menu_range>
    9002:	29 83       	std	Y+1, r18	; 0x01
    9004:	3a 83       	std	Y+2, r19	; 0x02
    9006:	4b 83       	std	Y+3, r20	; 0x03
    9008:	5c 83       	std	Y+4, r21	; 0x04
    900a:	6d 83       	std	Y+5, r22	; 0x05
    900c:	80 91 ff 08 	lds	r24, 0x08FF
    9010:	80 3e       	cpi	r24, 0xE0	; 224
    9012:	f9 f4       	brne	.+62     	; 0x9052 <menu_channel+0x106>
    9014:	80 91 49 05 	lds	r24, 0x0549
    9018:	90 91 4a 05 	lds	r25, 0x054A
    901c:	bc 01       	movw	r22, r24
    901e:	60 58       	subi	r22, 0x80	; 128
    9020:	71 40       	sbci	r23, 0x01	; 1
    9022:	fb 01       	movw	r30, r22
    9024:	ee 0f       	add	r30, r30
    9026:	ff 1f       	adc	r31, r31
    9028:	ee 5f       	subi	r30, 0xFE	; 254
    902a:	fa 4d       	sbci	r31, 0xDA	; 218
    902c:	a5 90       	lpm	r10, Z+
    902e:	b4 90       	lpm	r11, Z
    9030:	bb 24       	eor	r11, r11
    9032:	6c 58       	subi	r22, 0x8C	; 140
    9034:	77 4f       	sbci	r23, 0xF7	; 247
    9036:	1f 92       	push	r1
    9038:	1f 92       	push	r1
    903a:	81 2c       	mov	r8, r1
    903c:	c1 2c       	mov	r12, r1
    903e:	e9 80       	ldd	r14, Y+1	; 0x01
    9040:	fa 80       	ldd	r15, Y+2	; 0x02
    9042:	0b 81       	ldd	r16, Y+3	; 0x03
    9044:	1c 81       	ldd	r17, Y+4	; 0x04
    9046:	2d 81       	ldd	r18, Y+5	; 0x05
    9048:	41 e0       	ldi	r20, 0x01	; 1
    904a:	0e 94 ed 49 	call	0x93da	; 0x93da <do_menu_item>
    904e:	0f 90       	pop	r0
    9050:	0f 90       	pop	r0
    9052:	80 91 ff 08 	lds	r24, 0x08FF
    9056:	80 3e       	cpi	r24, 0xE0	; 224
    9058:	09 f0       	breq	.+2      	; 0x905c <menu_channel+0x110>
    905a:	9a cf       	rjmp	.-204    	; 0x8f90 <menu_channel+0x44>
    905c:	80 91 45 06 	lds	r24, 0x0645
    9060:	83 30       	cpi	r24, 0x03	; 3
    9062:	49 f4       	brne	.+18     	; 0x9076 <menu_channel+0x12a>
    9064:	e4 e7       	ldi	r30, 0x74	; 116
    9066:	f8 e0       	ldi	r31, 0x08	; 8
    9068:	81 91       	ld	r24, Z+
    906a:	df 01       	movw	r26, r30
    906c:	ab 55       	subi	r26, 0x5B	; 91
    906e:	b2 40       	sbci	r27, 0x02	; 2
    9070:	8c 93       	st	X, r24
    9072:	9e 12       	cpse	r9, r30
    9074:	f9 cf       	rjmp	.-14     	; 0x9068 <menu_channel+0x11c>
    9076:	0e 94 4e 26 	call	0x4c9c	; 0x4c9c <Save_Config_to_EEPROM>
    907a:	0e 94 ef 52 	call	0xa5de	; 0xa5de <Wait_BUTTON4>
    907e:	88 cf       	rjmp	.-240    	; 0x8f90 <menu_channel+0x44>
    9080:	0f 90       	pop	r0
    9082:	0f 90       	pop	r0
    9084:	0f 90       	pop	r0
    9086:	0f 90       	pop	r0
    9088:	0f 90       	pop	r0
    908a:	df 91       	pop	r29
    908c:	cf 91       	pop	r28
    908e:	1f 91       	pop	r17
    9090:	0f 91       	pop	r16
    9092:	ff 90       	pop	r15
    9094:	ef 90       	pop	r14
    9096:	df 90       	pop	r13
    9098:	cf 90       	pop	r12
    909a:	bf 90       	pop	r11
    909c:	af 90       	pop	r10
    909e:	9f 90       	pop	r9
    90a0:	8f 90       	pop	r8
    90a2:	08 95       	ret

000090a4 <menu_curves>:
    90a4:	af 92       	push	r10
    90a6:	bf 92       	push	r11
    90a8:	cf 92       	push	r12
    90aa:	df 92       	push	r13
    90ac:	ef 92       	push	r14
    90ae:	ff 92       	push	r15
    90b0:	0f 93       	push	r16
    90b2:	1f 93       	push	r17
    90b4:	cf 93       	push	r28
    90b6:	80 91 08 05 	lds	r24, 0x0508
    90ba:	88 23       	and	r24, r24
    90bc:	41 f0       	breq	.+16     	; 0x90ce <menu_curves+0x2a>
    90be:	83 e9       	ldi	r24, 0x93	; 147
    90c0:	91 e0       	ldi	r25, 0x01	; 1
    90c2:	90 93 4f 05 	sts	0x054F, r25
    90c6:	80 93 4e 05 	sts	0x054E, r24
    90ca:	10 92 08 05 	sts	0x0508, r1
    90ce:	c0 ef       	ldi	r28, 0xF0	; 240
    90d0:	80 91 ff 08 	lds	r24, 0x08FF
    90d4:	80 37       	cpi	r24, 0x70	; 112
    90d6:	09 f4       	brne	.+2      	; 0x90da <menu_curves+0x36>
    90d8:	4b c0       	rjmp	.+150    	; 0x9170 <menu_curves+0xcc>
    90da:	a0 90 04 05 	lds	r10, 0x0504
    90de:	b0 90 05 05 	lds	r11, 0x0505
    90e2:	8e e0       	ldi	r24, 0x0E	; 14
    90e4:	c8 2e       	mov	r12, r24
    90e6:	86 e2       	ldi	r24, 0x26	; 38
    90e8:	d8 2e       	mov	r13, r24
    90ea:	92 e0       	ldi	r25, 0x02	; 2
    90ec:	e9 2e       	mov	r14, r25
    90ee:	96 e2       	ldi	r25, 0x26	; 38
    90f0:	f9 2e       	mov	r15, r25
    90f2:	00 e0       	ldi	r16, 0x00	; 0
    90f4:	22 e1       	ldi	r18, 0x12	; 18
    90f6:	35 e2       	ldi	r19, 0x25	; 37
    90f8:	44 e4       	ldi	r20, 0x44	; 68
    90fa:	58 e0       	ldi	r21, 0x08	; 8
    90fc:	63 e9       	ldi	r22, 0x93	; 147
    90fe:	71 e0       	ldi	r23, 0x01	; 1
    9100:	80 91 4e 05 	lds	r24, 0x054E
    9104:	90 91 4f 05 	lds	r25, 0x054F
    9108:	0e 94 a9 50 	call	0xa152	; 0xa152 <print_menu_items>
    910c:	29 e4       	ldi	r18, 0x49	; 73
    910e:	c2 2e       	mov	r12, r18
    9110:	25 e0       	ldi	r18, 0x05	; 5
    9112:	d2 2e       	mov	r13, r18
    9114:	3e e4       	ldi	r19, 0x4E	; 78
    9116:	e3 2e       	mov	r14, r19
    9118:	35 e0       	ldi	r19, 0x05	; 5
    911a:	f3 2e       	mov	r15, r19
    911c:	04 e0       	ldi	r16, 0x04	; 4
    911e:	15 e0       	ldi	r17, 0x05	; 5
    9120:	20 91 ff 08 	lds	r18, 0x08FF
    9124:	40 e0       	ldi	r20, 0x00	; 0
    9126:	50 e0       	ldi	r21, 0x00	; 0
    9128:	63 e9       	ldi	r22, 0x93	; 147
    912a:	71 e0       	ldi	r23, 0x01	; 1
    912c:	86 e0       	ldi	r24, 0x06	; 6
    912e:	90 e0       	ldi	r25, 0x00	; 0
    9130:	0e 94 d8 4f 	call	0x9fb0	; 0x9fb0 <update_menu>
    9134:	80 91 ff 08 	lds	r24, 0x08FF
    9138:	80 3e       	cpi	r24, 0xE0	; 224
    913a:	31 f4       	brne	.+12     	; 0x9148 <menu_curves+0xa4>
    913c:	80 91 49 05 	lds	r24, 0x0549
    9140:	64 e0       	ldi	r22, 0x04	; 4
    9142:	83 59       	subi	r24, 0x93	; 147
    9144:	0e 94 d6 4b 	call	0x97ac	; 0x97ac <edit_curve_item>
    9148:	80 91 ff 08 	lds	r24, 0x08FF
    914c:	80 3a       	cpi	r24, 0xA0	; 160
    914e:	21 f4       	brne	.+8      	; 0x9158 <menu_curves+0xb4>
    9150:	0e 94 59 52 	call	0xa4b2	; 0xa4b2 <Wait_BUTTON1>
    9154:	c0 93 ff 08 	sts	0x08FF, r28
    9158:	80 91 ff 08 	lds	r24, 0x08FF
    915c:	80 3e       	cpi	r24, 0xE0	; 224
    915e:	09 f0       	breq	.+2      	; 0x9162 <menu_curves+0xbe>
    9160:	b7 cf       	rjmp	.-146    	; 0x90d0 <menu_curves+0x2c>
    9162:	0e 94 4e 26 	call	0x4c9c	; 0x4c9c <Save_Config_to_EEPROM>
    9166:	0e 94 ef 52 	call	0xa5de	; 0xa5de <Wait_BUTTON4>
    916a:	0e 94 59 52 	call	0xa4b2	; 0xa4b2 <Wait_BUTTON1>
    916e:	b0 cf       	rjmp	.-160    	; 0x90d0 <menu_curves+0x2c>
    9170:	cf 91       	pop	r28
    9172:	1f 91       	pop	r17
    9174:	0f 91       	pop	r16
    9176:	ff 90       	pop	r15
    9178:	ef 90       	pop	r14
    917a:	df 90       	pop	r13
    917c:	cf 90       	pop	r12
    917e:	bf 90       	pop	r11
    9180:	af 90       	pop	r10
    9182:	08 95       	ret

00009184 <print_menu_frame>:
    9184:	cf 93       	push	r28
    9186:	c8 2f       	mov	r28, r24
    9188:	2b e3       	ldi	r18, 0x3B	; 59
    918a:	30 e0       	ldi	r19, 0x00	; 0
    918c:	46 e2       	ldi	r20, 0x26	; 38
    918e:	50 e0       	ldi	r21, 0x00	; 0
    9190:	6f ee       	ldi	r22, 0xEF	; 239
    9192:	71 e0       	ldi	r23, 0x01	; 1
    9194:	8a e0       	ldi	r24, 0x0A	; 10
    9196:	90 e0       	ldi	r25, 0x00	; 0
    9198:	0e 94 2e 38 	call	0x705c	; 0x705c <LCD_Display_Text>
    919c:	2b e3       	ldi	r18, 0x3B	; 59
    919e:	30 e0       	ldi	r19, 0x00	; 0
    91a0:	40 e5       	ldi	r20, 0x50	; 80
    91a2:	50 e0       	ldi	r21, 0x00	; 0
    91a4:	6f ee       	ldi	r22, 0xEF	; 239
    91a6:	71 e0       	ldi	r23, 0x01	; 1
    91a8:	89 e0       	ldi	r24, 0x09	; 9
    91aa:	90 e0       	ldi	r25, 0x00	; 0
    91ac:	0e 94 2e 38 	call	0x705c	; 0x705c <LCD_Display_Text>
    91b0:	c3 30       	cpi	r28, 0x03	; 3
    91b2:	41 f1       	breq	.+80     	; 0x9204 <print_menu_frame+0x80>
    91b4:	70 f4       	brcc	.+28     	; 0x91d2 <print_menu_frame+0x4e>
    91b6:	cc 23       	and	r28, r28
    91b8:	c1 f1       	breq	.+112    	; 0x922a <print_menu_frame+0xa6>
    91ba:	c1 30       	cpi	r28, 0x01	; 1
    91bc:	09 f0       	breq	.+2      	; 0x91c0 <print_menu_frame+0x3c>
    91be:	7a c0       	rjmp	.+244    	; 0x92b4 <print_menu_frame+0x130>
    91c0:	26 e3       	ldi	r18, 0x36	; 54
    91c2:	30 e0       	ldi	r19, 0x00	; 0
    91c4:	40 e0       	ldi	r20, 0x00	; 0
    91c6:	50 e0       	ldi	r21, 0x00	; 0
    91c8:	6d e7       	ldi	r22, 0x7D	; 125
    91ca:	7f e0       	ldi	r23, 0x0F	; 15
    91cc:	80 e1       	ldi	r24, 0x10	; 16
    91ce:	90 e0       	ldi	r25, 0x00	; 0
    91d0:	0e c0       	rjmp	.+28     	; 0x91ee <print_menu_frame+0x6a>
    91d2:	c5 30       	cpi	r28, 0x05	; 5
    91d4:	e9 f1       	breq	.+122    	; 0x9250 <print_menu_frame+0xcc>
    91d6:	48 f1       	brcs	.+82     	; 0x922a <print_menu_frame+0xa6>
    91d8:	c0 3a       	cpi	r28, 0xA0	; 160
    91da:	09 f0       	breq	.+2      	; 0x91de <print_menu_frame+0x5a>
    91dc:	6b c0       	rjmp	.+214    	; 0x92b4 <print_menu_frame+0x130>
    91de:	26 e3       	ldi	r18, 0x36	; 54
    91e0:	30 e0       	ldi	r19, 0x00	; 0
    91e2:	40 e0       	ldi	r20, 0x00	; 0
    91e4:	50 e0       	ldi	r21, 0x00	; 0
    91e6:	6d e7       	ldi	r22, 0x7D	; 125
    91e8:	7f e0       	ldi	r23, 0x0F	; 15
    91ea:	88 e1       	ldi	r24, 0x18	; 24
    91ec:	91 e0       	ldi	r25, 0x01	; 1
    91ee:	0e 94 2e 38 	call	0x705c	; 0x705c <LCD_Display_Text>
    91f2:	26 e3       	ldi	r18, 0x36	; 54
    91f4:	30 e0       	ldi	r19, 0x00	; 0
    91f6:	47 e6       	ldi	r20, 0x67	; 103
    91f8:	50 e0       	ldi	r21, 0x00	; 0
    91fa:	6d e7       	ldi	r22, 0x7D	; 125
    91fc:	7f e0       	ldi	r23, 0x0F	; 15
    91fe:	81 e1       	ldi	r24, 0x11	; 17
    9200:	90 e0       	ldi	r25, 0x00	; 0
    9202:	56 c0       	rjmp	.+172    	; 0x92b0 <print_menu_frame+0x12c>
    9204:	29 e3       	ldi	r18, 0x39	; 57
    9206:	30 e0       	ldi	r19, 0x00	; 0
    9208:	40 e0       	ldi	r20, 0x00	; 0
    920a:	50 e0       	ldi	r21, 0x00	; 0
    920c:	6f ee       	ldi	r22, 0xEF	; 239
    920e:	71 e0       	ldi	r23, 0x01	; 1
    9210:	8c e0       	ldi	r24, 0x0C	; 12
    9212:	90 e0       	ldi	r25, 0x00	; 0
    9214:	0e 94 2e 38 	call	0x705c	; 0x705c <LCD_Display_Text>
    9218:	26 e3       	ldi	r18, 0x36	; 54
    921a:	30 e0       	ldi	r19, 0x00	; 0
    921c:	44 e6       	ldi	r20, 0x64	; 100
    921e:	50 e0       	ldi	r21, 0x00	; 0
    9220:	6d e7       	ldi	r22, 0x7D	; 125
    9222:	7f e0       	ldi	r23, 0x0F	; 15
    9224:	83 e2       	ldi	r24, 0x23	; 35
    9226:	91 e0       	ldi	r25, 0x01	; 1
    9228:	43 c0       	rjmp	.+134    	; 0x92b0 <print_menu_frame+0x12c>
    922a:	29 e3       	ldi	r18, 0x39	; 57
    922c:	30 e0       	ldi	r19, 0x00	; 0
    922e:	40 e0       	ldi	r20, 0x00	; 0
    9230:	50 e0       	ldi	r21, 0x00	; 0
    9232:	6f ee       	ldi	r22, 0xEF	; 239
    9234:	71 e0       	ldi	r23, 0x01	; 1
    9236:	8c e0       	ldi	r24, 0x0C	; 12
    9238:	90 e0       	ldi	r25, 0x00	; 0
    923a:	0e 94 2e 38 	call	0x705c	; 0x705c <LCD_Display_Text>
    923e:	29 e3       	ldi	r18, 0x39	; 57
    9240:	30 e0       	ldi	r19, 0x00	; 0
    9242:	48 e7       	ldi	r20, 0x78	; 120
    9244:	50 e0       	ldi	r21, 0x00	; 0
    9246:	6f ee       	ldi	r22, 0xEF	; 239
    9248:	71 e0       	ldi	r23, 0x01	; 1
    924a:	8b e0       	ldi	r24, 0x0B	; 11
    924c:	90 e0       	ldi	r25, 0x00	; 0
    924e:	30 c0       	rjmp	.+96     	; 0x92b0 <print_menu_frame+0x12c>
    9250:	26 e3       	ldi	r18, 0x36	; 54
    9252:	30 e0       	ldi	r19, 0x00	; 0
    9254:	4a e0       	ldi	r20, 0x0A	; 10
    9256:	50 e0       	ldi	r21, 0x00	; 0
    9258:	6d e7       	ldi	r22, 0x7D	; 125
    925a:	7f e0       	ldi	r23, 0x0F	; 15
    925c:	80 e3       	ldi	r24, 0x30	; 48
    925e:	90 e0       	ldi	r25, 0x00	; 0
    9260:	0e 94 2e 38 	call	0x705c	; 0x705c <LCD_Display_Text>
    9264:	29 e3       	ldi	r18, 0x39	; 57
    9266:	30 e0       	ldi	r19, 0x00	; 0
    9268:	40 e0       	ldi	r20, 0x00	; 0
    926a:	50 e0       	ldi	r21, 0x00	; 0
    926c:	6f ee       	ldi	r22, 0xEF	; 239
    926e:	71 e0       	ldi	r23, 0x01	; 1
    9270:	8c e0       	ldi	r24, 0x0C	; 12
    9272:	90 e0       	ldi	r25, 0x00	; 0
    9274:	0e 94 2e 38 	call	0x705c	; 0x705c <LCD_Display_Text>
    9278:	26 e3       	ldi	r18, 0x36	; 54
    927a:	30 e0       	ldi	r19, 0x00	; 0
    927c:	47 e3       	ldi	r20, 0x37	; 55
    927e:	50 e0       	ldi	r21, 0x00	; 0
    9280:	6d e7       	ldi	r22, 0x7D	; 125
    9282:	7f e0       	ldi	r23, 0x0F	; 15
    9284:	81 e3       	ldi	r24, 0x31	; 49
    9286:	90 e0       	ldi	r25, 0x00	; 0
    9288:	0e 94 2e 38 	call	0x705c	; 0x705c <LCD_Display_Text>
    928c:	29 e3       	ldi	r18, 0x39	; 57
    928e:	30 e0       	ldi	r19, 0x00	; 0
    9290:	48 e7       	ldi	r20, 0x78	; 120
    9292:	50 e0       	ldi	r21, 0x00	; 0
    9294:	6f ee       	ldi	r22, 0xEF	; 239
    9296:	71 e0       	ldi	r23, 0x01	; 1
    9298:	8b e0       	ldi	r24, 0x0B	; 11
    929a:	90 e0       	ldi	r25, 0x00	; 0
    929c:	0e 94 2e 38 	call	0x705c	; 0x705c <LCD_Display_Text>
    92a0:	26 e3       	ldi	r18, 0x36	; 54
    92a2:	30 e0       	ldi	r19, 0x00	; 0
    92a4:	4b e6       	ldi	r20, 0x6B	; 107
    92a6:	50 e0       	ldi	r21, 0x00	; 0
    92a8:	6d e7       	ldi	r22, 0x7D	; 125
    92aa:	7f e0       	ldi	r23, 0x0F	; 15
    92ac:	82 e3       	ldi	r24, 0x32	; 50
    92ae:	90 e0       	ldi	r25, 0x00	; 0
    92b0:	0e 94 2e 38 	call	0x705c	; 0x705c <LCD_Display_Text>
    92b4:	80 e0       	ldi	r24, 0x00	; 0
    92b6:	91 e0       	ldi	r25, 0x01	; 1
    92b8:	cf 91       	pop	r28
    92ba:	0c 94 1d 36 	jmp	0x6c3a	; 0x6c3a <write_buffer>

000092be <get_menu_range>:
    92be:	cf 93       	push	r28
    92c0:	df 93       	push	r29
    92c2:	cd b7       	in	r28, 0x3d	; 61
    92c4:	de b7       	in	r29, 0x3e	; 62
    92c6:	2a 97       	sbiw	r28, 0x0a	; 10
    92c8:	0f b6       	in	r0, 0x3f	; 63
    92ca:	f8 94       	cli
    92cc:	de bf       	out	0x3e, r29	; 62
    92ce:	0f be       	out	0x3f, r0	; 63
    92d0:	cd bf       	out	0x3d, r28	; 61
    92d2:	25 e0       	ldi	r18, 0x05	; 5
    92d4:	62 9f       	mul	r22, r18
    92d6:	80 0d       	add	r24, r0
    92d8:	91 1d       	adc	r25, r1
    92da:	11 24       	eor	r1, r1
    92dc:	bc 01       	movw	r22, r24
    92de:	45 e0       	ldi	r20, 0x05	; 5
    92e0:	50 e0       	ldi	r21, 0x00	; 0
    92e2:	ce 01       	movw	r24, r28
    92e4:	06 96       	adiw	r24, 0x06	; 6
    92e6:	0e 94 09 6f 	call	0xde12	; 0xde12 <memcpy_P>
    92ea:	85 e0       	ldi	r24, 0x05	; 5
    92ec:	fe 01       	movw	r30, r28
    92ee:	36 96       	adiw	r30, 0x06	; 6
    92f0:	de 01       	movw	r26, r28
    92f2:	11 96       	adiw	r26, 0x01	; 1
    92f4:	01 90       	ld	r0, Z+
    92f6:	0d 92       	st	X+, r0
    92f8:	8a 95       	dec	r24
    92fa:	e1 f7       	brne	.-8      	; 0x92f4 <get_menu_range+0x36>
    92fc:	29 81       	ldd	r18, Y+1	; 0x01
    92fe:	3a 81       	ldd	r19, Y+2	; 0x02
    9300:	4b 81       	ldd	r20, Y+3	; 0x03
    9302:	5c 81       	ldd	r21, Y+4	; 0x04
    9304:	6d 81       	ldd	r22, Y+5	; 0x05
    9306:	70 e0       	ldi	r23, 0x00	; 0
    9308:	80 e0       	ldi	r24, 0x00	; 0
    930a:	90 e0       	ldi	r25, 0x00	; 0
    930c:	2a 96       	adiw	r28, 0x0a	; 10
    930e:	0f b6       	in	r0, 0x3f	; 63
    9310:	f8 94       	cli
    9312:	de bf       	out	0x3e, r29	; 62
    9314:	0f be       	out	0x3f, r0	; 63
    9316:	cd bf       	out	0x3d, r28	; 61
    9318:	df 91       	pop	r29
    931a:	cf 91       	pop	r28
    931c:	08 95       	ret

0000931e <print_menu_text>:
    931e:	0f 93       	push	r16
    9320:	1f 93       	push	r17
    9322:	cf 93       	push	r28
    9324:	df 93       	push	r29
    9326:	fa 01       	movw	r30, r20
    9328:	10 e0       	ldi	r17, 0x00	; 0
    932a:	c2 2f       	mov	r28, r18
    932c:	d0 e0       	ldi	r29, 0x00	; 0
    932e:	66 23       	and	r22, r22
    9330:	19 f0       	breq	.+6      	; 0x9338 <print_menu_text+0x1a>
    9332:	62 50       	subi	r22, 0x02	; 2
    9334:	62 30       	cpi	r22, 0x02	; 2
    9336:	78 f4       	brcc	.+30     	; 0x9356 <print_menu_text+0x38>
    9338:	4a e0       	ldi	r20, 0x0A	; 10
    933a:	62 ea       	ldi	r22, 0xA2	; 162
    933c:	75 e0       	ldi	r23, 0x05	; 5
    933e:	0e 94 24 6f 	call	0xde48	; 0xde48 <__itoa_ncheck>
    9342:	98 01       	movw	r18, r16
    9344:	ae 01       	movw	r20, r28
    9346:	6d e7       	ldi	r22, 0x7D	; 125
    9348:	7f e0       	ldi	r23, 0x0F	; 15
    934a:	df 91       	pop	r29
    934c:	cf 91       	pop	r28
    934e:	1f 91       	pop	r17
    9350:	0f 91       	pop	r16
    9352:	0c 94 44 62 	jmp	0xc488	; 0xc488 <mugui_lcd_puts>
    9356:	98 01       	movw	r18, r16
    9358:	ae 01       	movw	r20, r28
    935a:	6d e7       	ldi	r22, 0x7D	; 125
    935c:	7f e0       	ldi	r23, 0x0F	; 15
    935e:	cf 01       	movw	r24, r30
    9360:	df 91       	pop	r29
    9362:	cf 91       	pop	r28
    9364:	1f 91       	pop	r17
    9366:	0f 91       	pop	r16
    9368:	0c 94 2e 38 	jmp	0x705c	; 0x705c <LCD_Display_Text>

0000936c <poll_buttons>:
    936c:	48 2f       	mov	r20, r24
    936e:	93 b1       	in	r25, 0x03	; 3
    9370:	90 7f       	andi	r25, 0xF0	; 240
    9372:	90 93 ff 08 	sts	0x08FF, r25
    9376:	80 e0       	ldi	r24, 0x00	; 0
    9378:	51 e0       	ldi	r21, 0x01	; 1
    937a:	90 91 ff 08 	lds	r25, 0x08FF
    937e:	90 3f       	cpi	r25, 0xF0	; 240
    9380:	d1 f4       	brne	.+52     	; 0x93b6 <poll_buttons+0x4a>
    9382:	93 b1       	in	r25, 0x03	; 3
    9384:	89 2f       	mov	r24, r25
    9386:	80 7f       	andi	r24, 0xF0	; 240
    9388:	e7 ea       	ldi	r30, 0xA7	; 167
    938a:	f1 e6       	ldi	r31, 0x61	; 97
    938c:	31 97       	sbiw	r30, 0x01	; 1
    938e:	f1 f7       	brne	.-4      	; 0x938c <poll_buttons+0x20>
    9390:	00 c0       	rjmp	.+0      	; 0x9392 <poll_buttons+0x26>
    9392:	00 00       	nop
    9394:	23 b1       	in	r18, 0x03	; 3
    9396:	68 2f       	mov	r22, r24
    9398:	70 e0       	ldi	r23, 0x00	; 0
    939a:	20 7f       	andi	r18, 0xF0	; 240
    939c:	30 e0       	ldi	r19, 0x00	; 0
    939e:	62 17       	cp	r22, r18
    93a0:	73 07       	cpc	r23, r19
    93a2:	19 f4       	brne	.+6      	; 0x93aa <poll_buttons+0x3e>
    93a4:	80 93 ff 08 	sts	0x08FF, r24
    93a8:	01 c0       	rjmp	.+2      	; 0x93ac <poll_buttons+0x40>
    93aa:	80 e0       	ldi	r24, 0x00	; 0
    93ac:	10 92 48 05 	sts	0x0548, r1
    93b0:	50 93 00 09 	sts	0x0900, r21
    93b4:	e2 cf       	rjmp	.-60     	; 0x937a <poll_buttons+0xe>
    93b6:	44 23       	and	r20, r20
    93b8:	79 f0       	breq	.+30     	; 0x93d8 <poll_buttons+0x6c>
    93ba:	90 91 48 05 	lds	r25, 0x0548
    93be:	9f 5f       	subi	r25, 0xFF	; 255
    93c0:	9a 30       	cpi	r25, 0x0A	; 10
    93c2:	18 f4       	brcc	.+6      	; 0x93ca <poll_buttons+0x5e>
    93c4:	90 93 48 05 	sts	0x0548, r25
    93c8:	08 95       	ret
    93ca:	10 92 48 05 	sts	0x0548, r1
    93ce:	90 91 00 09 	lds	r25, 0x0900
    93d2:	9f 5f       	subi	r25, 0xFF	; 255
    93d4:	90 93 00 09 	sts	0x0900, r25
    93d8:	08 95       	ret

000093da <do_menu_item>:
    93da:	2f 92       	push	r2
    93dc:	3f 92       	push	r3
    93de:	4f 92       	push	r4
    93e0:	5f 92       	push	r5
    93e2:	6f 92       	push	r6
    93e4:	7f 92       	push	r7
    93e6:	8f 92       	push	r8
    93e8:	9f 92       	push	r9
    93ea:	af 92       	push	r10
    93ec:	bf 92       	push	r11
    93ee:	cf 92       	push	r12
    93f0:	df 92       	push	r13
    93f2:	ef 92       	push	r14
    93f4:	ff 92       	push	r15
    93f6:	0f 93       	push	r16
    93f8:	1f 93       	push	r17
    93fa:	cf 93       	push	r28
    93fc:	df 93       	push	r29
    93fe:	cd b7       	in	r28, 0x3d	; 61
    9400:	de b7       	in	r29, 0x3e	; 62
    9402:	66 97       	sbiw	r28, 0x16	; 22
    9404:	0f b6       	in	r0, 0x3f	; 63
    9406:	f8 94       	cli
    9408:	de bf       	out	0x3e, r29	; 62
    940a:	0f be       	out	0x3f, r0	; 63
    940c:	cd bf       	out	0x3d, r28	; 61
    940e:	3c 01       	movw	r6, r24
    9410:	7e 87       	std	Y+14, r23	; 0x0e
    9412:	6d 87       	std	Y+13, r22	; 0x0d
    9414:	4a 87       	std	Y+10, r20	; 0x0a
    9416:	9e 2d       	mov	r25, r14
    9418:	ed 82       	std	Y+5, r14	; 0x05
    941a:	8f 2d       	mov	r24, r15
    941c:	fe 82       	std	Y+6, r15	; 0x06
    941e:	90 2e       	mov	r9, r16
    9420:	0f 83       	std	Y+7, r16	; 0x07
    9422:	18 87       	std	Y+8, r17	; 0x08
    9424:	29 87       	std	Y+9, r18	; 0x09
    9426:	ba 8a       	std	Y+18, r11	; 0x12
    9428:	a9 8a       	std	Y+17, r10	; 0x11
    942a:	ac 01       	movw	r20, r24
    942c:	fb 01       	movw	r30, r22
    942e:	20 81       	ld	r18, Z
    9430:	a2 2e       	mov	r10, r18
    9432:	02 2e       	mov	r0, r18
    9434:	00 0c       	add	r0, r0
    9436:	bb 08       	sbc	r11, r11
    9438:	12 30       	cpi	r17, 0x02	; 2
    943a:	29 f4       	brne	.+10     	; 0x9446 <do_menu_item+0x6c>
    943c:	3a 85       	ldd	r19, Y+10	; 0x0a
    943e:	23 03       	mulsu	r18, r19
    9440:	50 01       	movw	r10, r0
    9442:	11 24       	eor	r1, r1
    9444:	02 c0       	rjmp	.+4      	; 0x944a <do_menu_item+0x70>
    9446:	81 e0       	ldi	r24, 0x01	; 1
    9448:	8a 87       	std	Y+10, r24	; 0x0a
    944a:	20 ef       	ldi	r18, 0xF0	; 240
    944c:	20 93 ff 08 	sts	0x08FF, r18
    9450:	fa 85       	ldd	r31, Y+10	; 0x0a
    9452:	ef 2f       	mov	r30, r31
    9454:	f0 e0       	ldi	r31, 0x00	; 0
    9456:	f8 8b       	std	Y+16, r31	; 0x10
    9458:	ef 87       	std	Y+15, r30	; 0x0f
    945a:	2a 85       	ldd	r18, Y+10	; 0x0a
    945c:	52 03       	mulsu	r21, r18
    945e:	10 01       	movw	r2, r0
    9460:	11 24       	eor	r1, r1
    9462:	42 03       	mulsu	r20, r18
    9464:	c0 01       	movw	r24, r0
    9466:	11 24       	eor	r1, r1
    9468:	9c 87       	std	Y+12, r25	; 0x0c
    946a:	8b 87       	std	Y+11, r24	; 0x0b
    946c:	91 e0       	ldi	r25, 0x01	; 1
    946e:	00 e0       	ldi	r16, 0x00	; 0
    9470:	f1 2c       	mov	r15, r1
    9472:	51 2c       	mov	r5, r1
    9474:	93 01       	movw	r18, r6
    9476:	22 0f       	add	r18, r18
    9478:	33 1f       	adc	r19, r19
    947a:	a9 01       	movw	r20, r18
    947c:	41 5c       	subi	r20, 0xC1	; 193
    947e:	5b 4e       	sbci	r21, 0xEB	; 235
    9480:	5c 8b       	std	Y+20, r21	; 0x14
    9482:	4b 8b       	std	Y+19, r20	; 0x13
    9484:	0c 2c       	mov	r0, r12
    9486:	00 0c       	add	r0, r0
    9488:	dd 08       	sbc	r13, r13
    948a:	ae ef       	ldi	r26, 0xFE	; 254
    948c:	ea 2e       	mov	r14, r26
    948e:	e1 0e       	add	r14, r17
    9490:	82 e2       	ldi	r24, 0x22	; 34
    9492:	eb a5       	ldd	r30, Y+43	; 0x2b
    9494:	fc a5       	ldd	r31, Y+44	; 0x2c
    9496:	8e 9f       	mul	r24, r30
    9498:	90 01       	movw	r18, r0
    949a:	8f 9f       	mul	r24, r31
    949c:	30 0d       	add	r19, r0
    949e:	11 24       	eor	r1, r1
    94a0:	a9 01       	movw	r20, r18
    94a2:	48 53       	subi	r20, 0x38	; 56
    94a4:	59 4f       	sbci	r21, 0xF9	; 249
    94a6:	5e 8b       	std	Y+22, r21	; 0x16
    94a8:	4d 8b       	std	Y+21, r20	; 0x15
    94aa:	80 91 ff 08 	lds	r24, 0x08FF
    94ae:	28 2f       	mov	r18, r24
    94b0:	2f 7b       	andi	r18, 0xBF	; 191
    94b2:	20 3a       	cpi	r18, 0xA0	; 160
    94b4:	19 f0       	breq	.+6      	; 0x94bc <do_menu_item+0xe2>
    94b6:	81 10       	cpse	r8, r1
    94b8:	2a c0       	rjmp	.+84     	; 0x950e <do_menu_item+0x134>
    94ba:	24 c0       	rjmp	.+72     	; 0x9504 <do_menu_item+0x12a>
    94bc:	12 30       	cpi	r17, 0x02	; 2
    94be:	31 f4       	brne	.+12     	; 0x94cc <do_menu_item+0xf2>
    94c0:	c5 01       	movw	r24, r10
    94c2:	6f 85       	ldd	r22, Y+15	; 0x0f
    94c4:	78 89       	ldd	r23, Y+16	; 0x10
    94c6:	0e 94 7d 6e 	call	0xdcfa	; 0xdcfa <__divmodhi4>
    94ca:	5b 01       	movw	r10, r22
    94cc:	ed 85       	ldd	r30, Y+13	; 0x0d
    94ce:	fe 85       	ldd	r31, Y+14	; 0x0e
    94d0:	a0 82       	st	Z, r10
    94d2:	66 96       	adiw	r28, 0x16	; 22
    94d4:	0f b6       	in	r0, 0x3f	; 63
    94d6:	f8 94       	cli
    94d8:	de bf       	out	0x3e, r29	; 62
    94da:	0f be       	out	0x3f, r0	; 63
    94dc:	cd bf       	out	0x3d, r28	; 61
    94de:	df 91       	pop	r29
    94e0:	cf 91       	pop	r28
    94e2:	1f 91       	pop	r17
    94e4:	0f 91       	pop	r16
    94e6:	ff 90       	pop	r15
    94e8:	ef 90       	pop	r14
    94ea:	df 90       	pop	r13
    94ec:	cf 90       	pop	r12
    94ee:	bf 90       	pop	r11
    94f0:	af 90       	pop	r10
    94f2:	9f 90       	pop	r9
    94f4:	8f 90       	pop	r8
    94f6:	7f 90       	pop	r7
    94f8:	6f 90       	pop	r6
    94fa:	5f 90       	pop	r5
    94fc:	4f 90       	pop	r4
    94fe:	3f 90       	pop	r3
    9500:	2f 90       	pop	r2
    9502:	08 95       	ret
    9504:	80 3f       	cpi	r24, 0xF0	; 240
    9506:	09 f4       	brne	.+2      	; 0x950a <do_menu_item+0x130>
    9508:	4b c1       	rjmp	.+662    	; 0x97a0 <do_menu_item+0x3c6>
    950a:	21 e0       	ldi	r18, 0x01	; 1
    950c:	04 c0       	rjmp	.+8      	; 0x9516 <do_menu_item+0x13c>
    950e:	80 3f       	cpi	r24, 0xF0	; 240
    9510:	09 f4       	brne	.+2      	; 0x9514 <do_menu_item+0x13a>
    9512:	49 c1       	rjmp	.+658    	; 0x97a6 <do_menu_item+0x3cc>
    9514:	25 e0       	ldi	r18, 0x05	; 5
    9516:	f3 94       	inc	r15
    9518:	2f 15       	cp	r18, r15
    951a:	10 f4       	brcc	.+4      	; 0x9520 <do_menu_item+0x146>
    951c:	00 e0       	ldi	r16, 0x00	; 0
    951e:	f1 2c       	mov	r15, r1
    9520:	88 20       	and	r8, r8
    9522:	49 f0       	breq	.+18     	; 0x9536 <do_menu_item+0x15c>
    9524:	53 94       	inc	r5
    9526:	57 e0       	ldi	r21, 0x07	; 7
    9528:	55 15       	cp	r21, r5
    952a:	10 f4       	brcc	.+4      	; 0x9530 <do_menu_item+0x156>
    952c:	80 3f       	cpi	r24, 0xF0	; 240
    952e:	19 f4       	brne	.+6      	; 0x9536 <do_menu_item+0x15c>
    9530:	99 23       	and	r25, r25
    9532:	09 f4       	brne	.+2      	; 0x9536 <do_menu_item+0x15c>
    9534:	9b c0       	rjmp	.+310    	; 0x966c <do_menu_item+0x292>
    9536:	80 e0       	ldi	r24, 0x00	; 0
    9538:	91 e0       	ldi	r25, 0x01	; 1
    953a:	0e 94 52 36 	call	0x6ca4	; 0x6ca4 <clear_buffer>
    953e:	14 30       	cpi	r17, 0x04	; 4
    9540:	a9 f4       	brne	.+42     	; 0x956c <do_menu_item+0x192>
    9542:	20 e0       	ldi	r18, 0x00	; 0
    9544:	30 e0       	ldi	r19, 0x00	; 0
    9546:	40 e0       	ldi	r20, 0x00	; 0
    9548:	50 e0       	ldi	r21, 0x00	; 0
    954a:	6d e7       	ldi	r22, 0x7D	; 125
    954c:	7f e0       	ldi	r23, 0x0F	; 15
    954e:	89 e1       	ldi	r24, 0x19	; 25
    9550:	91 e0       	ldi	r25, 0x01	; 1
    9552:	0e 94 2e 38 	call	0x705c	; 0x705c <LCD_Display_Text>
    9556:	2c e0       	ldi	r18, 0x0C	; 12
    9558:	30 e0       	ldi	r19, 0x00	; 0
    955a:	49 e1       	ldi	r20, 0x19	; 25
    955c:	50 e0       	ldi	r21, 0x00	; 0
    955e:	6d e7       	ldi	r22, 0x7D	; 125
    9560:	7f e0       	ldi	r23, 0x0F	; 15
    9562:	8a e1       	ldi	r24, 0x1A	; 26
    9564:	91 e0       	ldi	r25, 0x01	; 1
    9566:	0e 94 2e 38 	call	0x705c	; 0x705c <LCD_Display_Text>
    956a:	37 c0       	rjmp	.+110    	; 0x95da <do_menu_item+0x200>
    956c:	eb 89       	ldd	r30, Y+19	; 0x13
    956e:	fc 89       	ldd	r31, Y+20	; 0x14
    9570:	85 91       	lpm	r24, Z+
    9572:	94 91       	lpm	r25, Z
    9574:	20 e0       	ldi	r18, 0x00	; 0
    9576:	30 e0       	ldi	r19, 0x00	; 0
    9578:	40 e0       	ldi	r20, 0x00	; 0
    957a:	50 e0       	ldi	r21, 0x00	; 0
    957c:	6f ec       	ldi	r22, 0xCF	; 207
    957e:	74 e0       	ldi	r23, 0x04	; 4
    9580:	0e 94 37 38 	call	0x706e	; 0x706e <gLCDprint_Menu_P>
    9584:	11 23       	and	r17, r17
    9586:	19 f0       	breq	.+6      	; 0x958e <do_menu_item+0x1b4>
    9588:	81 e0       	ldi	r24, 0x01	; 1
    958a:	8e 15       	cp	r24, r14
    958c:	30 f1       	brcs	.+76     	; 0x95da <do_menu_item+0x200>
    958e:	4a e0       	ldi	r20, 0x0A	; 10
    9590:	62 ea       	ldi	r22, 0xA2	; 162
    9592:	75 e0       	ldi	r23, 0x05	; 5
    9594:	c5 01       	movw	r24, r10
    9596:	0e 94 24 6f 	call	0xde48	; 0xde48 <__itoa_ncheck>
    959a:	ae 01       	movw	r20, r28
    959c:	4f 5f       	subi	r20, 0xFF	; 255
    959e:	5f 4f       	sbci	r21, 0xFF	; 255
    95a0:	6f ec       	ldi	r22, 0xCF	; 207
    95a2:	74 e0       	ldi	r23, 0x04	; 4
    95a4:	0e 94 f1 60 	call	0xc1e2	; 0xc1e2 <mugui_text_sizestring>
    95a8:	89 81       	ldd	r24, Y+1	; 0x01
    95aa:	9a 81       	ldd	r25, Y+2	; 0x02
    95ac:	70 e8       	ldi	r23, 0x80	; 128
    95ae:	47 2e       	mov	r4, r23
    95b0:	51 2c       	mov	r5, r1
    95b2:	48 1a       	sub	r4, r24
    95b4:	59 0a       	sbc	r5, r25
    95b6:	56 94       	lsr	r5
    95b8:	47 94       	ror	r4
    95ba:	4c 0c       	add	r4, r12
    95bc:	5d 1c       	adc	r5, r13
    95be:	4a e0       	ldi	r20, 0x0A	; 10
    95c0:	62 ea       	ldi	r22, 0xA2	; 162
    95c2:	75 e0       	ldi	r23, 0x05	; 5
    95c4:	c5 01       	movw	r24, r10
    95c6:	0e 94 24 6f 	call	0xde48	; 0xde48 <__itoa_ncheck>
    95ca:	29 e1       	ldi	r18, 0x19	; 25
    95cc:	30 e0       	ldi	r19, 0x00	; 0
    95ce:	a2 01       	movw	r20, r4
    95d0:	6f ec       	ldi	r22, 0xCF	; 207
    95d2:	74 e0       	ldi	r23, 0x04	; 4
    95d4:	0e 94 44 62 	call	0xc488	; 0xc488 <mugui_lcd_puts>
    95d8:	29 c0       	rjmp	.+82     	; 0x962c <do_menu_item+0x252>
    95da:	49 88       	ldd	r4, Y+17	; 0x11
    95dc:	5a 88       	ldd	r5, Y+18	; 0x12
    95de:	4a 0c       	add	r4, r10
    95e0:	5b 1c       	adc	r5, r11
    95e2:	f2 01       	movw	r30, r4
    95e4:	ee 0f       	add	r30, r30
    95e6:	ff 1f       	adc	r31, r31
    95e8:	e1 5c       	subi	r30, 0xC1	; 193
    95ea:	fb 4e       	sbci	r31, 0xEB	; 235
    95ec:	85 91       	lpm	r24, Z+
    95ee:	94 91       	lpm	r25, Z
    95f0:	0e 94 43 61 	call	0xc286	; 0xc286 <pgm_mugui_scopy>
    95f4:	ae 01       	movw	r20, r28
    95f6:	4f 5f       	subi	r20, 0xFF	; 255
    95f8:	5f 4f       	sbci	r21, 0xFF	; 255
    95fa:	6f ec       	ldi	r22, 0xCF	; 207
    95fc:	74 e0       	ldi	r23, 0x04	; 4
    95fe:	82 ea       	ldi	r24, 0xA2	; 162
    9600:	95 e0       	ldi	r25, 0x05	; 5
    9602:	0e 94 f1 60 	call	0xc1e2	; 0xc1e2 <mugui_text_sizestring>
    9606:	89 81       	ldd	r24, Y+1	; 0x01
    9608:	9a 81       	ldd	r25, Y+2	; 0x02
    960a:	40 e8       	ldi	r20, 0x80	; 128
    960c:	50 e0       	ldi	r21, 0x00	; 0
    960e:	48 1b       	sub	r20, r24
    9610:	59 0b       	sbc	r21, r25
    9612:	56 95       	lsr	r21
    9614:	47 95       	ror	r20
    9616:	29 e1       	ldi	r18, 0x19	; 25
    9618:	30 e0       	ldi	r19, 0x00	; 0
    961a:	6f ec       	ldi	r22, 0xCF	; 207
    961c:	74 e0       	ldi	r23, 0x04	; 4
    961e:	c2 01       	movw	r24, r4
    9620:	0e 94 2e 38 	call	0x705c	; 0x705c <LCD_Display_Text>
    9624:	14 30       	cpi	r17, 0x04	; 4
    9626:	11 f4       	brne	.+4      	; 0x962c <do_menu_item+0x252>
    9628:	80 ea       	ldi	r24, 0xA0	; 160
    962a:	01 c0       	rjmp	.+2      	; 0x962e <do_menu_item+0x254>
    962c:	81 e0       	ldi	r24, 0x01	; 1
    962e:	0e 94 c2 48 	call	0x9184	; 0x9184 <print_menu_frame>
    9632:	80 e0       	ldi	r24, 0x00	; 0
    9634:	91 e0       	ldi	r25, 0x01	; 1
    9636:	0e 94 1d 36 	call	0x6c3a	; 0x6c3a <write_buffer>
    963a:	12 30       	cpi	r17, 0x02	; 2
    963c:	31 f1       	breq	.+76     	; 0x968a <do_menu_item+0x2b0>
    963e:	38 f4       	brcc	.+14     	; 0x964e <do_menu_item+0x274>
    9640:	11 23       	and	r17, r17
    9642:	59 f0       	breq	.+22     	; 0x965a <do_menu_item+0x280>
    9644:	11 30       	cpi	r17, 0x01	; 1
    9646:	09 f0       	breq	.+2      	; 0x964a <do_menu_item+0x270>
    9648:	40 c0       	rjmp	.+128    	; 0x96ca <do_menu_item+0x2f0>
    964a:	51 2c       	mov	r5, r1
    964c:	16 c0       	rjmp	.+44     	; 0x967a <do_menu_item+0x2a0>
    964e:	13 30       	cpi	r17, 0x03	; 3
    9650:	29 f1       	breq	.+74     	; 0x969c <do_menu_item+0x2c2>
    9652:	14 30       	cpi	r17, 0x04	; 4
    9654:	d1 f5       	brne	.+116    	; 0x96ca <do_menu_item+0x2f0>
    9656:	51 2c       	mov	r5, r1
    9658:	2e c0       	rjmp	.+92     	; 0x96b6 <do_menu_item+0x2dc>
    965a:	51 2c       	mov	r5, r1
    965c:	9f e7       	ldi	r25, 0x7F	; 127
    965e:	ea e1       	ldi	r30, 0x1A	; 26
    9660:	f6 e0       	ldi	r31, 0x06	; 6
    9662:	91 50       	subi	r25, 0x01	; 1
    9664:	e0 40       	sbci	r30, 0x00	; 0
    9666:	f0 40       	sbci	r31, 0x00	; 0
    9668:	e1 f7       	brne	.-8      	; 0x9662 <do_menu_item+0x288>
    966a:	2c c0       	rjmp	.+88     	; 0x96c4 <do_menu_item+0x2ea>
    966c:	12 30       	cpi	r17, 0x02	; 2
    966e:	71 f0       	breq	.+28     	; 0x968c <do_menu_item+0x2b2>
    9670:	f0 f4       	brcc	.+60     	; 0x96ae <do_menu_item+0x2d4>
    9672:	11 23       	and	r17, r17
    9674:	99 f3       	breq	.-26     	; 0x965c <do_menu_item+0x282>
    9676:	11 30       	cpi	r17, 0x01	; 1
    9678:	59 f5       	brne	.+86     	; 0x96d0 <do_menu_item+0x2f6>
    967a:	2f e3       	ldi	r18, 0x3F	; 63
    967c:	32 e4       	ldi	r19, 0x42	; 66
    967e:	4f e0       	ldi	r20, 0x0F	; 15
    9680:	21 50       	subi	r18, 0x01	; 1
    9682:	30 40       	sbci	r19, 0x00	; 0
    9684:	40 40       	sbci	r20, 0x00	; 0
    9686:	e1 f7       	brne	.-8      	; 0x9680 <do_menu_item+0x2a6>
    9688:	1d c0       	rjmp	.+58     	; 0x96c4 <do_menu_item+0x2ea>
    968a:	51 2c       	mov	r5, r1
    968c:	5f e7       	ldi	r21, 0x7F	; 127
    968e:	8a e1       	ldi	r24, 0x1A	; 26
    9690:	96 e0       	ldi	r25, 0x06	; 6
    9692:	51 50       	subi	r21, 0x01	; 1
    9694:	80 40       	sbci	r24, 0x00	; 0
    9696:	90 40       	sbci	r25, 0x00	; 0
    9698:	e1 f7       	brne	.-8      	; 0x9692 <do_menu_item+0x2b8>
    969a:	14 c0       	rjmp	.+40     	; 0x96c4 <do_menu_item+0x2ea>
    969c:	51 2c       	mov	r5, r1
    969e:	ef e7       	ldi	r30, 0x7F	; 127
    96a0:	f8 e3       	ldi	r31, 0x38	; 56
    96a2:	21 e0       	ldi	r18, 0x01	; 1
    96a4:	e1 50       	subi	r30, 0x01	; 1
    96a6:	f0 40       	sbci	r31, 0x00	; 0
    96a8:	20 40       	sbci	r18, 0x00	; 0
    96aa:	e1 f7       	brne	.-8      	; 0x96a4 <do_menu_item+0x2ca>
    96ac:	0b c0       	rjmp	.+22     	; 0x96c4 <do_menu_item+0x2ea>
    96ae:	13 30       	cpi	r17, 0x03	; 3
    96b0:	b1 f3       	breq	.-20     	; 0x969e <do_menu_item+0x2c4>
    96b2:	14 30       	cpi	r17, 0x04	; 4
    96b4:	69 f4       	brne	.+26     	; 0x96d0 <do_menu_item+0x2f6>
    96b6:	3f e3       	ldi	r19, 0x3F	; 63
    96b8:	42 e4       	ldi	r20, 0x42	; 66
    96ba:	5f e0       	ldi	r21, 0x0F	; 15
    96bc:	31 50       	subi	r19, 0x01	; 1
    96be:	40 40       	sbci	r20, 0x00	; 0
    96c0:	50 40       	sbci	r21, 0x00	; 0
    96c2:	e1 f7       	brne	.-8      	; 0x96bc <do_menu_item+0x2e2>
    96c4:	00 c0       	rjmp	.+0      	; 0x96c6 <do_menu_item+0x2ec>
    96c6:	00 00       	nop
    96c8:	01 c0       	rjmp	.+2      	; 0x96cc <do_menu_item+0x2f2>
    96ca:	51 2c       	mov	r5, r1
    96cc:	88 20       	and	r8, r8
    96ce:	41 f0       	breq	.+16     	; 0x96e0 <do_menu_item+0x306>
    96d0:	83 b1       	in	r24, 0x03	; 3
    96d2:	80 7f       	andi	r24, 0xF0	; 240
    96d4:	80 93 ff 08 	sts	0x08FF, r24
    96d8:	81 e0       	ldi	r24, 0x01	; 1
    96da:	80 93 00 09 	sts	0x0900, r24
    96de:	03 c0       	rjmp	.+6      	; 0x96e6 <do_menu_item+0x30c>
    96e0:	81 e0       	ldi	r24, 0x01	; 1
    96e2:	0e 94 b6 49 	call	0x936c	; 0x936c <poll_buttons>
    96e6:	80 91 ff 08 	lds	r24, 0x08FF
    96ea:	80 3f       	cpi	r24, 0xF0	; 240
    96ec:	59 f1       	breq	.+86     	; 0x9744 <do_menu_item+0x36a>
    96ee:	88 20       	and	r8, r8
    96f0:	b9 f0       	breq	.+46     	; 0x9720 <do_menu_item+0x346>
    96f2:	80 3d       	cpi	r24, 0xD0	; 208
    96f4:	49 f4       	brne	.+18     	; 0x9708 <do_menu_item+0x32e>
    96f6:	01 11       	cpse	r16, r1
    96f8:	51 c0       	rjmp	.+162    	; 0x979c <do_menu_item+0x3c2>
    96fa:	80 91 00 09 	lds	r24, 0x0900
    96fe:	98 9e       	mul	r9, r24
    9700:	a0 18       	sub	r10, r0
    9702:	b1 08       	sbc	r11, r1
    9704:	11 24       	eor	r1, r1
    9706:	0a c0       	rjmp	.+20     	; 0x971c <do_menu_item+0x342>
    9708:	80 3b       	cpi	r24, 0xB0	; 176
    970a:	79 f4       	brne	.+30     	; 0x972a <do_menu_item+0x350>
    970c:	01 11       	cpse	r16, r1
    970e:	46 c0       	rjmp	.+140    	; 0x979c <do_menu_item+0x3c2>
    9710:	80 91 00 09 	lds	r24, 0x0900
    9714:	98 9e       	mul	r9, r24
    9716:	a0 0c       	add	r10, r0
    9718:	b1 1c       	adc	r11, r1
    971a:	11 24       	eor	r1, r1
    971c:	f1 2c       	mov	r15, r1
    971e:	3e c0       	rjmp	.+124    	; 0x979c <do_menu_item+0x3c2>
    9720:	80 3d       	cpi	r24, 0xD0	; 208
    9722:	59 f3       	breq	.-42     	; 0x96fa <do_menu_item+0x320>
    9724:	80 3b       	cpi	r24, 0xB0	; 176
    9726:	a1 f3       	breq	.-24     	; 0x9710 <do_menu_item+0x336>
    9728:	00 e0       	ldi	r16, 0x00	; 0
    972a:	80 37       	cpi	r24, 0x70	; 112
    972c:	59 f4       	brne	.+22     	; 0x9744 <do_menu_item+0x36a>
    972e:	14 30       	cpi	r17, 0x04	; 4
    9730:	21 f4       	brne	.+8      	; 0x973a <do_menu_item+0x360>
    9732:	80 ea       	ldi	r24, 0xA0	; 160
    9734:	80 93 ff 08 	sts	0x08FF, r24
    9738:	05 c0       	rjmp	.+10     	; 0x9744 <do_menu_item+0x36a>
    973a:	29 85       	ldd	r18, Y+9	; 0x09
    973c:	3a 85       	ldd	r19, Y+10	; 0x0a
    973e:	23 03       	mulsu	r18, r19
    9740:	50 01       	movw	r10, r0
    9742:	11 24       	eor	r1, r1
    9744:	a2 14       	cp	r10, r2
    9746:	b3 04       	cpc	r11, r3
    9748:	0c f4       	brge	.+2      	; 0x974c <do_menu_item+0x372>
    974a:	51 01       	movw	r10, r2
    974c:	4b 85       	ldd	r20, Y+11	; 0x0b
    974e:	5c 85       	ldd	r21, Y+12	; 0x0c
    9750:	4a 15       	cp	r20, r10
    9752:	5b 05       	cpc	r21, r11
    9754:	0c f4       	brge	.+2      	; 0x9758 <do_menu_item+0x37e>
    9756:	5a 01       	movw	r10, r20
    9758:	50 ea       	ldi	r21, 0xA0	; 160
    975a:	65 16       	cp	r6, r21
    975c:	71 04       	cpc	r7, r1
    975e:	19 f4       	brne	.+6      	; 0x9766 <do_menu_item+0x38c>
    9760:	8a 2d       	mov	r24, r10
    9762:	0e 94 f5 35 	call	0x6bea	; 0x6bea <st7565_set_brightness>
    9766:	88 20       	and	r8, r8
    9768:	b9 f0       	breq	.+46     	; 0x9798 <do_menu_item+0x3be>
    976a:	ed 89       	ldd	r30, Y+21	; 0x15
    976c:	fe 89       	ldd	r31, Y+22	; 0x16
    976e:	80 81       	ld	r24, Z
    9770:	82 30       	cpi	r24, 0x02	; 2
    9772:	91 f0       	breq	.+36     	; 0x9798 <do_menu_item+0x3be>
    9774:	8a 2d       	mov	r24, r10
    9776:	0e 94 b4 58 	call	0xb168	; 0xb168 <scale_percent>
    977a:	88 0f       	add	r24, r24
    977c:	99 1f       	adc	r25, r25
    977e:	88 0f       	add	r24, r24
    9780:	99 1f       	adc	r25, r25
    9782:	05 96       	adiw	r24, 0x05	; 5
    9784:	f8 94       	cli
    9786:	6a e0       	ldi	r22, 0x0A	; 10
    9788:	70 e0       	ldi	r23, 0x00	; 0
    978a:	0e 94 7d 6e 	call	0xdcfa	; 0xdcfa <__divmodhi4>
    978e:	8b a5       	ldd	r24, Y+43	; 0x2b
    9790:	9c a5       	ldd	r25, Y+44	; 0x2c
    9792:	0e 94 2a 17 	call	0x2e54	; 0x2e54 <output_servo_ppm_asm3>
    9796:	78 94       	sei
    9798:	90 e0       	ldi	r25, 0x00	; 0
    979a:	87 ce       	rjmp	.-754    	; 0x94aa <do_menu_item+0xd0>
    979c:	01 e0       	ldi	r16, 0x01	; 1
    979e:	d2 cf       	rjmp	.-92     	; 0x9744 <do_menu_item+0x36a>
    97a0:	00 e0       	ldi	r16, 0x00	; 0
    97a2:	f1 2c       	mov	r15, r1
    97a4:	c8 ce       	rjmp	.-624    	; 0x9536 <do_menu_item+0x15c>
    97a6:	00 e0       	ldi	r16, 0x00	; 0
    97a8:	f1 2c       	mov	r15, r1
    97aa:	bc ce       	rjmp	.-648    	; 0x9524 <do_menu_item+0x14a>

000097ac <edit_curve_item>:
    97ac:	2f 92       	push	r2
    97ae:	3f 92       	push	r3
    97b0:	4f 92       	push	r4
    97b2:	5f 92       	push	r5
    97b4:	6f 92       	push	r6
    97b6:	7f 92       	push	r7
    97b8:	8f 92       	push	r8
    97ba:	9f 92       	push	r9
    97bc:	af 92       	push	r10
    97be:	bf 92       	push	r11
    97c0:	cf 92       	push	r12
    97c2:	df 92       	push	r13
    97c4:	ef 92       	push	r14
    97c6:	ff 92       	push	r15
    97c8:	0f 93       	push	r16
    97ca:	1f 93       	push	r17
    97cc:	cf 93       	push	r28
    97ce:	df 93       	push	r29
    97d0:	cd b7       	in	r28, 0x3d	; 61
    97d2:	de b7       	in	r29, 0x3e	; 62
    97d4:	e2 97       	sbiw	r28, 0x32	; 50
    97d6:	0f b6       	in	r0, 0x3f	; 63
    97d8:	f8 94       	cli
    97da:	de bf       	out	0x3e, r29	; 62
    97dc:	0f be       	out	0x3f, r0	; 63
    97de:	cd bf       	out	0x3d, r28	; 61
    97e0:	88 a3       	std	Y+32, r24	; 0x20
    97e2:	16 2f       	mov	r17, r22
    97e4:	80 ef       	ldi	r24, 0xF0	; 240
    97e6:	80 93 ff 08 	sts	0x08FF, r24
    97ea:	80 91 b9 06 	lds	r24, 0x06B9
    97ee:	82 30       	cpi	r24, 0x02	; 2
    97f0:	29 f4       	brne	.+10     	; 0x97fc <edit_curve_item+0x50>
    97f2:	2a eb       	ldi	r18, 0xBA	; 186
    97f4:	31 e0       	ldi	r19, 0x01	; 1
    97f6:	3c a3       	std	Y+36, r19	; 0x24
    97f8:	2b a3       	std	Y+35, r18	; 0x23
    97fa:	04 c0       	rjmp	.+8      	; 0x9804 <edit_curve_item+0x58>
    97fc:	45 ea       	ldi	r20, 0xA5	; 165
    97fe:	51 e0       	ldi	r21, 0x01	; 1
    9800:	5c a3       	std	Y+36, r21	; 0x24
    9802:	4b a3       	std	Y+35, r20	; 0x23
    9804:	1f 8e       	std	Y+31, r1	; 0x1f
    9806:	f1 2c       	mov	r15, r1
    9808:	c1 2c       	mov	r12, r1
    980a:	d1 2c       	mov	r13, r1
    980c:	98 a1       	ldd	r25, Y+32	; 0x20
    980e:	89 2f       	mov	r24, r25
    9810:	90 e0       	ldi	r25, 0x00	; 0
    9812:	9a a3       	std	Y+34, r25	; 0x22
    9814:	89 a3       	std	Y+33, r24	; 0x21
    9816:	1c 01       	movw	r2, r24
    9818:	e3 e0       	ldi	r30, 0x03	; 3
    981a:	22 0c       	add	r2, r2
    981c:	33 1c       	adc	r3, r3
    981e:	ea 95       	dec	r30
    9820:	e1 f7       	brne	.-8      	; 0x981a <edit_curve_item+0x6e>
    9822:	8a 5b       	subi	r24, 0xBA	; 186
    9824:	9f 4f       	sbci	r25, 0xFF	; 255
    9826:	fc 01       	movw	r30, r24
    9828:	a3 e0       	ldi	r26, 0x03	; 3
    982a:	ee 0f       	add	r30, r30
    982c:	ff 1f       	adc	r31, r31
    982e:	aa 95       	dec	r26
    9830:	e1 f7       	brne	.-8      	; 0x982a <edit_curve_item+0x7e>
    9832:	fe a3       	std	Y+38, r31	; 0x26
    9834:	ed a3       	std	Y+37, r30	; 0x25
    9836:	91 01       	movw	r18, r2
    9838:	2f 57       	subi	r18, 0x7F	; 127
    983a:	37 4f       	sbci	r19, 0xF7	; 247
    983c:	39 a7       	std	Y+41, r19	; 0x29
    983e:	28 a7       	std	Y+40, r18	; 0x28
    9840:	a1 01       	movw	r20, r2
    9842:	47 5e       	subi	r20, 0xE7	; 231
    9844:	59 4f       	sbci	r21, 0xF9	; 249
    9846:	5a 01       	movw	r10, r20
    9848:	ca 01       	movw	r24, r20
    984a:	8d 59       	subi	r24, 0x9D	; 157
    984c:	9d 4f       	sbci	r25, 0xFD	; 253
    984e:	9e a7       	std	Y+46, r25	; 0x2e
    9850:	8d a7       	std	Y+45, r24	; 0x2d
    9852:	e7 5e       	subi	r30, 0xE7	; 231
    9854:	f9 4f       	sbci	r31, 0xF9	; 249
    9856:	f8 ab       	std	Y+48, r31	; 0x30
    9858:	ef a7       	std	Y+47, r30	; 0x2f
    985a:	80 91 ff 08 	lds	r24, 0x08FF
    985e:	8f 7b       	andi	r24, 0xBF	; 191
    9860:	80 3a       	cpi	r24, 0xA0	; 160
    9862:	09 f4       	brne	.+2      	; 0x9866 <edit_curve_item+0xba>
    9864:	74 c3       	rjmp	.+1768   	; 0x9f4e <edit_curve_item+0x7a2>
    9866:	28 e2       	ldi	r18, 0x28	; 40
    9868:	15 30       	cpi	r17, 0x05	; 5
    986a:	59 f4       	brne	.+22     	; 0x9882 <edit_curve_item+0xd6>
    986c:	e9 a1       	ldd	r30, Y+33	; 0x21
    986e:	fa a1       	ldd	r31, Y+34	; 0x22
    9870:	2e 9f       	mul	r18, r30
    9872:	c0 01       	movw	r24, r0
    9874:	2f 9f       	mul	r18, r31
    9876:	90 0d       	add	r25, r0
    9878:	11 24       	eor	r1, r1
    987a:	6f 2d       	mov	r22, r15
    987c:	84 5e       	subi	r24, 0xE4	; 228
    987e:	97 4d       	sbci	r25, 0xD7	; 215
    9880:	0a c0       	rjmp	.+20     	; 0x9896 <edit_curve_item+0xea>
    9882:	49 a1       	ldd	r20, Y+33	; 0x21
    9884:	5a a1       	ldd	r21, Y+34	; 0x22
    9886:	24 9f       	mul	r18, r20
    9888:	c0 01       	movw	r24, r0
    988a:	25 9f       	mul	r18, r21
    988c:	90 0d       	add	r25, r0
    988e:	11 24       	eor	r1, r1
    9890:	6f 2d       	mov	r22, r15
    9892:	8e 5e       	subi	r24, 0xEE	; 238
    9894:	9a 4d       	sbci	r25, 0xDA	; 218
    9896:	0e 94 5f 49 	call	0x92be	; 0x92be <get_menu_range>
    989a:	2e 8b       	std	Y+22, r18	; 0x16
    989c:	3f 8b       	std	Y+23, r19	; 0x17
    989e:	48 8f       	std	Y+24, r20	; 0x18
    98a0:	59 8f       	std	Y+25, r21	; 0x19
    98a2:	6a 8f       	std	Y+26, r22	; 0x1a
    98a4:	2b a7       	std	Y+43, r18	; 0x2b
    98a6:	3c a7       	std	Y+44, r19	; 0x2c
    98a8:	4f a3       	std	Y+39, r20	; 0x27
    98aa:	80 e0       	ldi	r24, 0x00	; 0
    98ac:	91 e0       	ldi	r25, 0x01	; 1
    98ae:	0e 94 52 36 	call	0x6ca4	; 0x6ca4 <clear_buffer>
    98b2:	15 30       	cpi	r17, 0x05	; 5
    98b4:	39 f4       	brne	.+14     	; 0x98c4 <edit_curve_item+0x118>
    98b6:	85 e0       	ldi	r24, 0x05	; 5
    98b8:	0e 94 c2 48 	call	0x9184	; 0x9184 <print_menu_frame>
    98bc:	ee 24       	eor	r14, r14
    98be:	e3 94       	inc	r14
    98c0:	04 e3       	ldi	r16, 0x34	; 52
    98c2:	06 c0       	rjmp	.+12     	; 0x98d0 <edit_curve_item+0x124>
    98c4:	84 e0       	ldi	r24, 0x04	; 4
    98c6:	0e 94 c2 48 	call	0x9184	; 0x9184 <print_menu_frame>
    98ca:	ee 24       	eor	r14, r14
    98cc:	e3 94       	inc	r14
    98ce:	09 e3       	ldi	r16, 0x39	; 57
    98d0:	20 e4       	ldi	r18, 0x40	; 64
    98d2:	40 e0       	ldi	r20, 0x00	; 0
    98d4:	60 e4       	ldi	r22, 0x40	; 64
    98d6:	80 e0       	ldi	r24, 0x00	; 0
    98d8:	91 e0       	ldi	r25, 0x01	; 1
    98da:	0e 94 b1 36 	call	0x6d62	; 0x6d62 <drawline>
    98de:	ee 24       	eor	r14, r14
    98e0:	e3 94       	inc	r14
    98e2:	0d e1       	ldi	r16, 0x1D	; 29
    98e4:	20 e8       	ldi	r18, 0x80	; 128
    98e6:	4d e1       	ldi	r20, 0x1D	; 29
    98e8:	60 e0       	ldi	r22, 0x00	; 0
    98ea:	80 e0       	ldi	r24, 0x00	; 0
    98ec:	91 e0       	ldi	r25, 0x01	; 1
    98ee:	0e 94 b1 36 	call	0x6d62	; 0x6d62 <drawline>
    98f2:	c1 01       	movw	r24, r2
    98f4:	87 5e       	subi	r24, 0xE7	; 231
    98f6:	99 4f       	sbci	r25, 0xF9	; 249
    98f8:	fc 01       	movw	r30, r24
    98fa:	15 30       	cpi	r17, 0x05	; 5
    98fc:	c9 f5       	brne	.+114    	; 0x9970 <edit_curve_item+0x1c4>
    98fe:	ed 59       	subi	r30, 0x9D	; 157
    9900:	fd 4f       	sbci	r31, 0xFD	; 253
    9902:	20 81       	ld	r18, Z
    9904:	02 2e       	mov	r0, r18
    9906:	00 0c       	add	r0, r0
    9908:	33 0b       	sbc	r19, r19
    990a:	3a 83       	std	Y+2, r19	; 0x02
    990c:	29 83       	std	Y+1, r18	; 0x01
    990e:	31 96       	adiw	r30, 0x01	; 1
    9910:	20 81       	ld	r18, Z
    9912:	02 2e       	mov	r0, r18
    9914:	00 0c       	add	r0, r0
    9916:	33 0b       	sbc	r19, r19
    9918:	3c 83       	std	Y+4, r19	; 0x04
    991a:	2b 83       	std	Y+3, r18	; 0x03
    991c:	31 96       	adiw	r30, 0x01	; 1
    991e:	20 81       	ld	r18, Z
    9920:	02 2e       	mov	r0, r18
    9922:	00 0c       	add	r0, r0
    9924:	33 0b       	sbc	r19, r19
    9926:	3e 83       	std	Y+6, r19	; 0x06
    9928:	2d 83       	std	Y+5, r18	; 0x05
    992a:	31 96       	adiw	r30, 0x01	; 1
    992c:	20 81       	ld	r18, Z
    992e:	02 2e       	mov	r0, r18
    9930:	00 0c       	add	r0, r0
    9932:	33 0b       	sbc	r19, r19
    9934:	38 87       	std	Y+8, r19	; 0x08
    9936:	2f 83       	std	Y+7, r18	; 0x07
    9938:	31 96       	adiw	r30, 0x01	; 1
    993a:	20 81       	ld	r18, Z
    993c:	02 2e       	mov	r0, r18
    993e:	00 0c       	add	r0, r0
    9940:	33 0b       	sbc	r19, r19
    9942:	3a 87       	std	Y+10, r19	; 0x0a
    9944:	29 87       	std	Y+9, r18	; 0x09
    9946:	e8 a5       	ldd	r30, Y+40	; 0x28
    9948:	f9 a5       	ldd	r31, Y+41	; 0x29
    994a:	20 81       	ld	r18, Z
    994c:	02 2e       	mov	r0, r18
    994e:	00 0c       	add	r0, r0
    9950:	33 0b       	sbc	r19, r19
    9952:	3c 87       	std	Y+12, r19	; 0x0c
    9954:	2b 87       	std	Y+11, r18	; 0x0b
    9956:	fc 01       	movw	r30, r24
    9958:	e7 59       	subi	r30, 0x97	; 151
    995a:	fd 4f       	sbci	r31, 0xFD	; 253
    995c:	20 81       	ld	r18, Z
    995e:	02 2e       	mov	r0, r18
    9960:	00 0c       	add	r0, r0
    9962:	33 0b       	sbc	r19, r19
    9964:	3e 87       	std	Y+14, r19	; 0x0e
    9966:	2d 87       	std	Y+13, r18	; 0x0d
    9968:	31 96       	adiw	r30, 0x01	; 1
    996a:	20 81       	ld	r18, Z
    996c:	2a a7       	std	Y+42, r18	; 0x2a
    996e:	3a c0       	rjmp	.+116    	; 0x99e4 <edit_curve_item+0x238>
    9970:	e5 5d       	subi	r30, 0xD5	; 213
    9972:	fd 4f       	sbci	r31, 0xFD	; 253
    9974:	20 81       	ld	r18, Z
    9976:	02 2e       	mov	r0, r18
    9978:	00 0c       	add	r0, r0
    997a:	33 0b       	sbc	r19, r19
    997c:	3a 83       	std	Y+2, r19	; 0x02
    997e:	29 83       	std	Y+1, r18	; 0x01
    9980:	31 96       	adiw	r30, 0x01	; 1
    9982:	20 81       	ld	r18, Z
    9984:	02 2e       	mov	r0, r18
    9986:	00 0c       	add	r0, r0
    9988:	33 0b       	sbc	r19, r19
    998a:	3c 83       	std	Y+4, r19	; 0x04
    998c:	2b 83       	std	Y+3, r18	; 0x03
    998e:	31 96       	adiw	r30, 0x01	; 1
    9990:	20 81       	ld	r18, Z
    9992:	02 2e       	mov	r0, r18
    9994:	00 0c       	add	r0, r0
    9996:	33 0b       	sbc	r19, r19
    9998:	3e 83       	std	Y+6, r19	; 0x06
    999a:	2d 83       	std	Y+5, r18	; 0x05
    999c:	31 96       	adiw	r30, 0x01	; 1
    999e:	20 81       	ld	r18, Z
    99a0:	02 2e       	mov	r0, r18
    99a2:	00 0c       	add	r0, r0
    99a4:	33 0b       	sbc	r19, r19
    99a6:	38 87       	std	Y+8, r19	; 0x08
    99a8:	2f 83       	std	Y+7, r18	; 0x07
    99aa:	31 96       	adiw	r30, 0x01	; 1
    99ac:	20 81       	ld	r18, Z
    99ae:	02 2e       	mov	r0, r18
    99b0:	00 0c       	add	r0, r0
    99b2:	33 0b       	sbc	r19, r19
    99b4:	3a 87       	std	Y+10, r19	; 0x0a
    99b6:	29 87       	std	Y+9, r18	; 0x09
    99b8:	ed a1       	ldd	r30, Y+37	; 0x25
    99ba:	fe a1       	ldd	r31, Y+38	; 0x26
    99bc:	e7 5e       	subi	r30, 0xE7	; 231
    99be:	f9 4f       	sbci	r31, 0xF9	; 249
    99c0:	20 81       	ld	r18, Z
    99c2:	02 2e       	mov	r0, r18
    99c4:	00 0c       	add	r0, r0
    99c6:	33 0b       	sbc	r19, r19
    99c8:	3c 87       	std	Y+12, r19	; 0x0c
    99ca:	2b 87       	std	Y+11, r18	; 0x0b
    99cc:	fc 01       	movw	r30, r24
    99ce:	ef 5c       	subi	r30, 0xCF	; 207
    99d0:	fd 4f       	sbci	r31, 0xFD	; 253
    99d2:	20 81       	ld	r18, Z
    99d4:	02 2e       	mov	r0, r18
    99d6:	00 0c       	add	r0, r0
    99d8:	33 0b       	sbc	r19, r19
    99da:	3e 87       	std	Y+14, r19	; 0x0e
    99dc:	2d 87       	std	Y+13, r18	; 0x0d
    99de:	31 96       	adiw	r30, 0x01	; 1
    99e0:	30 81       	ld	r19, Z
    99e2:	3a a7       	std	Y+42, r19	; 0x2a
    99e4:	4e 01       	movw	r8, r28
    99e6:	4f e0       	ldi	r20, 0x0F	; 15
    99e8:	84 0e       	add	r8, r20
    99ea:	91 1c       	adc	r9, r1
    99ec:	ce 01       	movw	r24, r28
    99ee:	01 96       	adiw	r24, 0x01	; 1
    99f0:	2c 01       	movw	r4, r24
    99f2:	30 e0       	ldi	r19, 0x00	; 0
    99f4:	6d e1       	ldi	r22, 0x1D	; 29
    99f6:	76 2e       	mov	r7, r22
    99f8:	76 e3       	ldi	r23, 0x36	; 54
    99fa:	67 2e       	mov	r6, r23
    99fc:	14 30       	cpi	r17, 0x04	; 4
    99fe:	c1 f4       	brne	.+48     	; 0x9a30 <edit_curve_item+0x284>
    9a00:	98 a1       	ldd	r25, Y+32	; 0x20
    9a02:	f2 01       	movw	r30, r4
    9a04:	92 30       	cpi	r25, 0x02	; 2
    9a06:	40 f4       	brcc	.+16     	; 0x9a18 <edit_curve_item+0x26c>
    9a08:	80 81       	ld	r24, Z
    9a0a:	91 81       	ldd	r25, Z+1	; 0x01
    9a0c:	97 fd       	sbrc	r25, 7
    9a0e:	01 96       	adiw	r24, 0x01	; 1
    9a10:	95 95       	asr	r25
    9a12:	87 95       	ror	r24
    9a14:	f6 2d       	mov	r31, r6
    9a16:	09 c0       	rjmp	.+18     	; 0x9a2a <edit_curve_item+0x27e>
    9a18:	80 81       	ld	r24, Z
    9a1a:	91 81       	ldd	r25, Z+1	; 0x01
    9a1c:	97 fd       	sbrc	r25, 7
    9a1e:	03 96       	adiw	r24, 0x03	; 3
    9a20:	95 95       	asr	r25
    9a22:	87 95       	ror	r24
    9a24:	95 95       	asr	r25
    9a26:	87 95       	ror	r24
    9a28:	f7 2d       	mov	r31, r7
    9a2a:	f8 1b       	sub	r31, r24
    9a2c:	8f 2f       	mov	r24, r31
    9a2e:	09 c0       	rjmp	.+18     	; 0x9a42 <edit_curve_item+0x296>
    9a30:	f2 01       	movw	r30, r4
    9a32:	80 81       	ld	r24, Z
    9a34:	91 81       	ldd	r25, Z+1	; 0x01
    9a36:	65 e0       	ldi	r22, 0x05	; 5
    9a38:	70 e0       	ldi	r23, 0x00	; 0
    9a3a:	0e 94 7d 6e 	call	0xdcfa	; 0xdcfa <__divmodhi4>
    9a3e:	87 2d       	mov	r24, r7
    9a40:	86 1b       	sub	r24, r22
    9a42:	f4 01       	movw	r30, r8
    9a44:	80 83       	st	Z, r24
    9a46:	33 30       	cpi	r19, 0x03	; 3
    9a48:	79 f0       	breq	.+30     	; 0x9a68 <edit_curve_item+0x2bc>
    9a4a:	2c f4       	brge	.+10     	; 0x9a56 <edit_curve_item+0x2aa>
    9a4c:	31 30       	cpi	r19, 0x01	; 1
    9a4e:	a1 f0       	breq	.+40     	; 0x9a78 <edit_curve_item+0x2cc>
    9a50:	32 30       	cpi	r19, 0x02	; 2
    9a52:	41 f0       	breq	.+16     	; 0x9a64 <edit_curve_item+0x2b8>
    9a54:	05 c0       	rjmp	.+10     	; 0x9a60 <edit_curve_item+0x2b4>
    9a56:	35 30       	cpi	r19, 0x05	; 5
    9a58:	59 f0       	breq	.+22     	; 0x9a70 <edit_curve_item+0x2c4>
    9a5a:	44 f0       	brlt	.+16     	; 0x9a6c <edit_curve_item+0x2c0>
    9a5c:	36 30       	cpi	r19, 0x06	; 6
    9a5e:	51 f0       	breq	.+20     	; 0x9a74 <edit_curve_item+0x2c8>
    9a60:	52 e0       	ldi	r21, 0x02	; 2
    9a62:	0b c0       	rjmp	.+22     	; 0x9a7a <edit_curve_item+0x2ce>
    9a64:	5a e2       	ldi	r21, 0x2A	; 42
    9a66:	09 c0       	rjmp	.+18     	; 0x9a7a <edit_curve_item+0x2ce>
    9a68:	5e e3       	ldi	r21, 0x3E	; 62
    9a6a:	07 c0       	rjmp	.+14     	; 0x9a7a <edit_curve_item+0x2ce>
    9a6c:	52 e5       	ldi	r21, 0x52	; 82
    9a6e:	05 c0       	rjmp	.+10     	; 0x9a7a <edit_curve_item+0x2ce>
    9a70:	56 e6       	ldi	r21, 0x66	; 102
    9a72:	03 c0       	rjmp	.+6      	; 0x9a7a <edit_curve_item+0x2ce>
    9a74:	59 e7       	ldi	r21, 0x79	; 121
    9a76:	01 c0       	rjmp	.+2      	; 0x9a7a <edit_curve_item+0x2ce>
    9a78:	56 e1       	ldi	r21, 0x16	; 22
    9a7a:	f4 01       	movw	r30, r8
    9a7c:	41 91       	ld	r20, Z+
    9a7e:	4f 01       	movw	r8, r30
    9a80:	42 50       	subi	r20, 0x02	; 2
    9a82:	ee 24       	eor	r14, r14
    9a84:	e3 94       	inc	r14
    9a86:	05 e0       	ldi	r16, 0x05	; 5
    9a88:	25 e0       	ldi	r18, 0x05	; 5
    9a8a:	65 2f       	mov	r22, r21
    9a8c:	80 e0       	ldi	r24, 0x00	; 0
    9a8e:	91 e0       	ldi	r25, 0x01	; 1
    9a90:	39 ab       	std	Y+49, r19	; 0x31
    9a92:	5a ab       	std	Y+50, r21	; 0x32
    9a94:	0e 94 1b 37 	call	0x6e36	; 0x6e36 <fillrect>
    9a98:	39 a9       	ldd	r19, Y+49	; 0x31
    9a9a:	3f 5f       	subi	r19, 0xFF	; 255
    9a9c:	f2 e0       	ldi	r31, 0x02	; 2
    9a9e:	4f 0e       	add	r4, r31
    9aa0:	51 1c       	adc	r5, r1
    9aa2:	37 30       	cpi	r19, 0x07	; 7
    9aa4:	09 f0       	breq	.+2      	; 0x9aa8 <edit_curve_item+0x2fc>
    9aa6:	aa cf       	rjmp	.-172    	; 0x99fc <edit_curve_item+0x250>
    9aa8:	98 88       	ldd	r9, Y+16	; 0x10
    9aaa:	09 2d       	mov	r16, r9
    9aac:	28 e1       	ldi	r18, 0x18	; 24
    9aae:	4f 85       	ldd	r20, Y+15	; 0x0f
    9ab0:	64 e0       	ldi	r22, 0x04	; 4
    9ab2:	80 e0       	ldi	r24, 0x00	; 0
    9ab4:	91 e0       	ldi	r25, 0x01	; 1
    9ab6:	0e 94 b1 36 	call	0x6d62	; 0x6d62 <drawline>
    9aba:	89 88       	ldd	r8, Y+17	; 0x11
    9abc:	08 2d       	mov	r16, r8
    9abe:	2c e2       	ldi	r18, 0x2C	; 44
    9ac0:	49 2d       	mov	r20, r9
    9ac2:	68 e1       	ldi	r22, 0x18	; 24
    9ac4:	80 e0       	ldi	r24, 0x00	; 0
    9ac6:	91 e0       	ldi	r25, 0x01	; 1
    9ac8:	0e 94 b1 36 	call	0x6d62	; 0x6d62 <drawline>
    9acc:	9a 88       	ldd	r9, Y+18	; 0x12
    9ace:	09 2d       	mov	r16, r9
    9ad0:	20 e4       	ldi	r18, 0x40	; 64
    9ad2:	48 2d       	mov	r20, r8
    9ad4:	6c e2       	ldi	r22, 0x2C	; 44
    9ad6:	80 e0       	ldi	r24, 0x00	; 0
    9ad8:	91 e0       	ldi	r25, 0x01	; 1
    9ada:	0e 94 b1 36 	call	0x6d62	; 0x6d62 <drawline>
    9ade:	8b 88       	ldd	r8, Y+19	; 0x13
    9ae0:	08 2d       	mov	r16, r8
    9ae2:	24 e5       	ldi	r18, 0x54	; 84
    9ae4:	49 2d       	mov	r20, r9
    9ae6:	60 e4       	ldi	r22, 0x40	; 64
    9ae8:	80 e0       	ldi	r24, 0x00	; 0
    9aea:	91 e0       	ldi	r25, 0x01	; 1
    9aec:	0e 94 b1 36 	call	0x6d62	; 0x6d62 <drawline>
    9af0:	9c 88       	ldd	r9, Y+20	; 0x14
    9af2:	09 2d       	mov	r16, r9
    9af4:	28 e6       	ldi	r18, 0x68	; 104
    9af6:	48 2d       	mov	r20, r8
    9af8:	64 e5       	ldi	r22, 0x54	; 84
    9afa:	80 e0       	ldi	r24, 0x00	; 0
    9afc:	91 e0       	ldi	r25, 0x01	; 1
    9afe:	0e 94 b1 36 	call	0x6d62	; 0x6d62 <drawline>
    9b02:	0d 89       	ldd	r16, Y+21	; 0x15
    9b04:	2b e7       	ldi	r18, 0x7B	; 123
    9b06:	49 2d       	mov	r20, r9
    9b08:	68 e6       	ldi	r22, 0x68	; 104
    9b0a:	80 e0       	ldi	r24, 0x00	; 0
    9b0c:	91 e0       	ldi	r25, 0x01	; 1
    9b0e:	0e 94 b1 36 	call	0x6d62	; 0x6d62 <drawline>
    9b12:	4f 2c       	mov	r4, r15
    9b14:	51 2c       	mov	r5, r1
    9b16:	5a a9       	ldd	r21, Y+50	; 0x32
    9b18:	28 e0       	ldi	r18, 0x08	; 8
    9b1a:	42 16       	cp	r4, r18
    9b1c:	51 04       	cpc	r5, r1
    9b1e:	90 f4       	brcc	.+36     	; 0x9b44 <edit_curve_item+0x398>
    9b20:	f2 01       	movw	r30, r4
    9b22:	e8 5a       	subi	r30, 0xA8	; 168
    9b24:	ff 4f       	sbci	r31, 0xFF	; 255
    9b26:	0c 94 b0 6e 	jmp	0xdd60	; 0xdd60 <__tablejump2__>
    9b2a:	54 e1       	ldi	r21, 0x14	; 20
    9b2c:	0b c0       	rjmp	.+22     	; 0x9b44 <edit_curve_item+0x398>
    9b2e:	58 e2       	ldi	r21, 0x28	; 40
    9b30:	09 c0       	rjmp	.+18     	; 0x9b44 <edit_curve_item+0x398>
    9b32:	5c e3       	ldi	r21, 0x3C	; 60
    9b34:	07 c0       	rjmp	.+14     	; 0x9b44 <edit_curve_item+0x398>
    9b36:	50 e5       	ldi	r21, 0x50	; 80
    9b38:	05 c0       	rjmp	.+10     	; 0x9b44 <edit_curve_item+0x398>
    9b3a:	54 e6       	ldi	r21, 0x64	; 100
    9b3c:	03 c0       	rjmp	.+6      	; 0x9b44 <edit_curve_item+0x398>
    9b3e:	57 e7       	ldi	r21, 0x77	; 119
    9b40:	01 c0       	rjmp	.+2      	; 0x9b44 <edit_curve_item+0x398>
    9b42:	50 e0       	ldi	r21, 0x00	; 0
    9b44:	ef e0       	ldi	r30, 0x0F	; 15
    9b46:	f0 e0       	ldi	r31, 0x00	; 0
    9b48:	ec 0f       	add	r30, r28
    9b4a:	fd 1f       	adc	r31, r29
    9b4c:	ef 0d       	add	r30, r15
    9b4e:	f1 1d       	adc	r31, r1
    9b50:	40 81       	ld	r20, Z
    9b52:	37 e0       	ldi	r19, 0x07	; 7
    9b54:	f3 12       	cpse	r15, r19
    9b56:	38 c0       	rjmp	.+112    	; 0x9bc8 <edit_curve_item+0x41c>
    9b58:	a1 01       	movw	r20, r2
    9b5a:	47 5e       	subi	r20, 0xE7	; 231
    9b5c:	59 4f       	sbci	r21, 0xF9	; 249
    9b5e:	6a 01       	movw	r12, r20
    9b60:	4a 01       	movw	r8, r20
    9b62:	5e ec       	ldi	r21, 0xCE	; 206
    9b64:	85 1a       	sub	r8, r21
    9b66:	5d ef       	ldi	r21, 0xFD	; 253
    9b68:	95 0a       	sbc	r9, r21
    9b6a:	f4 01       	movw	r30, r8
    9b6c:	80 81       	ld	r24, Z
    9b6e:	eb a1       	ldd	r30, Y+35	; 0x23
    9b70:	fc a1       	ldd	r31, Y+36	; 0x24
    9b72:	e8 0f       	add	r30, r24
    9b74:	f1 1d       	adc	r31, r1
    9b76:	87 fd       	sbrc	r24, 7
    9b78:	fa 95       	dec	r31
    9b7a:	ee 0f       	add	r30, r30
    9b7c:	ff 1f       	adc	r31, r31
    9b7e:	e1 5c       	subi	r30, 0xC1	; 193
    9b80:	fb 4e       	sbci	r31, 0xEB	; 235
    9b82:	85 91       	lpm	r24, Z+
    9b84:	94 91       	lpm	r25, Z
    9b86:	0e 94 43 61 	call	0xc286	; 0xc286 <pgm_mugui_scopy>
    9b8a:	ae 01       	movw	r20, r28
    9b8c:	45 5e       	subi	r20, 0xE5	; 229
    9b8e:	5f 4f       	sbci	r21, 0xFF	; 255
    9b90:	6d e7       	ldi	r22, 0x7D	; 125
    9b92:	7f e0       	ldi	r23, 0x0F	; 15
    9b94:	82 ea       	ldi	r24, 0xA2	; 162
    9b96:	95 e0       	ldi	r25, 0x05	; 5
    9b98:	0e 94 f1 60 	call	0xc1e2	; 0xc1e2 <mugui_text_sizestring>
    9b9c:	4d 8d       	ldd	r20, Y+29	; 0x1d
    9b9e:	8b 8d       	ldd	r24, Y+27	; 0x1b
    9ba0:	04 e0       	ldi	r16, 0x04	; 4
    9ba2:	04 0f       	add	r16, r20
    9ba4:	25 e0       	ldi	r18, 0x05	; 5
    9ba6:	28 0f       	add	r18, r24
    9ba8:	40 95       	com	r20
    9baa:	ff 8d       	ldd	r31, Y+31	; 0x1f
    9bac:	4f 0f       	add	r20, r31
    9bae:	6b e7       	ldi	r22, 0x7B	; 123
    9bb0:	68 1b       	sub	r22, r24
    9bb2:	ee 24       	eor	r14, r14
    9bb4:	e3 94       	inc	r14
    9bb6:	80 e0       	ldi	r24, 0x00	; 0
    9bb8:	91 e0       	ldi	r25, 0x01	; 1
    9bba:	0e 94 4f 37 	call	0x6e9e	; 0x6e9e <drawrect>
    9bbe:	14 30       	cpi	r17, 0x04	; 4
    9bc0:	09 f0       	breq	.+2      	; 0x9bc4 <edit_curve_item+0x418>
    9bc2:	59 c0       	rjmp	.+178    	; 0x9c76 <edit_curve_item+0x4ca>
    9bc4:	f4 01       	movw	r30, r8
    9bc6:	5a c0       	rjmp	.+180    	; 0x9c7c <edit_curve_item+0x4d0>
    9bc8:	44 50       	subi	r20, 0x04	; 4
    9bca:	ee 24       	eor	r14, r14
    9bcc:	e3 94       	inc	r14
    9bce:	09 e0       	ldi	r16, 0x09	; 9
    9bd0:	29 e0       	ldi	r18, 0x09	; 9
    9bd2:	65 2f       	mov	r22, r21
    9bd4:	80 e0       	ldi	r24, 0x00	; 0
    9bd6:	91 e0       	ldi	r25, 0x01	; 1
    9bd8:	0e 94 4f 37 	call	0x6e9e	; 0x6e9e <drawrect>
    9bdc:	14 30       	cpi	r17, 0x04	; 4
    9bde:	39 f5       	brne	.+78     	; 0x9c2e <edit_curve_item+0x482>
    9be0:	27 e0       	ldi	r18, 0x07	; 7
    9be2:	42 16       	cp	r4, r18
    9be4:	51 04       	cpc	r5, r1
    9be6:	08 f0       	brcs	.+2      	; 0x9bea <edit_curve_item+0x43e>
    9be8:	4d c0       	rjmp	.+154    	; 0x9c84 <edit_curve_item+0x4d8>
    9bea:	f2 01       	movw	r30, r4
    9bec:	e0 5a       	subi	r30, 0xA0	; 160
    9bee:	ff 4f       	sbci	r31, 0xFF	; 255
    9bf0:	0c 94 b0 6e 	jmp	0xdd60	; 0xdd60 <__tablejump2__>
    9bf4:	f1 01       	movw	r30, r2
    9bf6:	ec 5b       	subi	r30, 0xBC	; 188
    9bf8:	f7 4f       	sbci	r31, 0xF7	; 247
    9bfa:	40 c0       	rjmp	.+128    	; 0x9c7c <edit_curve_item+0x4d0>
    9bfc:	f1 01       	movw	r30, r2
    9bfe:	eb 5b       	subi	r30, 0xBB	; 187
    9c00:	f7 4f       	sbci	r31, 0xF7	; 247
    9c02:	3c c0       	rjmp	.+120    	; 0x9c7c <edit_curve_item+0x4d0>
    9c04:	f1 01       	movw	r30, r2
    9c06:	ea 5b       	subi	r30, 0xBA	; 186
    9c08:	f7 4f       	sbci	r31, 0xF7	; 247
    9c0a:	38 c0       	rjmp	.+112    	; 0x9c7c <edit_curve_item+0x4d0>
    9c0c:	f1 01       	movw	r30, r2
    9c0e:	e9 5b       	subi	r30, 0xB9	; 185
    9c10:	f7 4f       	sbci	r31, 0xF7	; 247
    9c12:	34 c0       	rjmp	.+104    	; 0x9c7c <edit_curve_item+0x4d0>
    9c14:	f1 01       	movw	r30, r2
    9c16:	e8 5b       	subi	r30, 0xB8	; 184
    9c18:	f7 4f       	sbci	r31, 0xF7	; 247
    9c1a:	30 c0       	rjmp	.+96     	; 0x9c7c <edit_curve_item+0x4d0>
    9c1c:	ed a1       	ldd	r30, Y+37	; 0x25
    9c1e:	fe a1       	ldd	r31, Y+38	; 0x26
    9c20:	e7 5e       	subi	r30, 0xE7	; 231
    9c22:	f9 4f       	sbci	r31, 0xF9	; 249
    9c24:	2b c0       	rjmp	.+86     	; 0x9c7c <edit_curve_item+0x4d0>
    9c26:	f1 01       	movw	r30, r2
    9c28:	e6 5b       	subi	r30, 0xB6	; 182
    9c2a:	f7 4f       	sbci	r31, 0xF7	; 247
    9c2c:	27 c0       	rjmp	.+78     	; 0x9c7c <edit_curve_item+0x4d0>
    9c2e:	f7 e0       	ldi	r31, 0x07	; 7
    9c30:	4f 16       	cp	r4, r31
    9c32:	51 04       	cpc	r5, r1
    9c34:	38 f5       	brcc	.+78     	; 0x9c84 <edit_curve_item+0x4d8>
    9c36:	f2 01       	movw	r30, r4
    9c38:	e9 59       	subi	r30, 0x99	; 153
    9c3a:	ff 4f       	sbci	r31, 0xFF	; 255
    9c3c:	0c 94 b0 6e 	jmp	0xdd60	; 0xdd60 <__tablejump2__>
    9c40:	f1 01       	movw	r30, r2
    9c42:	e4 58       	subi	r30, 0x84	; 132
    9c44:	f7 4f       	sbci	r31, 0xF7	; 247
    9c46:	1a c0       	rjmp	.+52     	; 0x9c7c <edit_curve_item+0x4d0>
    9c48:	f1 01       	movw	r30, r2
    9c4a:	e3 58       	subi	r30, 0x83	; 131
    9c4c:	f7 4f       	sbci	r31, 0xF7	; 247
    9c4e:	16 c0       	rjmp	.+44     	; 0x9c7c <edit_curve_item+0x4d0>
    9c50:	f1 01       	movw	r30, r2
    9c52:	e2 58       	subi	r30, 0x82	; 130
    9c54:	f7 4f       	sbci	r31, 0xF7	; 247
    9c56:	12 c0       	rjmp	.+36     	; 0x9c7c <edit_curve_item+0x4d0>
    9c58:	f1 01       	movw	r30, r2
    9c5a:	e1 58       	subi	r30, 0x81	; 129
    9c5c:	f7 4f       	sbci	r31, 0xF7	; 247
    9c5e:	0e c0       	rjmp	.+28     	; 0x9c7c <edit_curve_item+0x4d0>
    9c60:	f1 01       	movw	r30, r2
    9c62:	e0 58       	subi	r30, 0x80	; 128
    9c64:	f7 4f       	sbci	r31, 0xF7	; 247
    9c66:	0a c0       	rjmp	.+20     	; 0x9c7c <edit_curve_item+0x4d0>
    9c68:	e8 a5       	ldd	r30, Y+40	; 0x28
    9c6a:	f9 a5       	ldd	r31, Y+41	; 0x29
    9c6c:	07 c0       	rjmp	.+14     	; 0x9c7c <edit_curve_item+0x4d0>
    9c6e:	f1 01       	movw	r30, r2
    9c70:	ee 57       	subi	r30, 0x7E	; 126
    9c72:	f7 4f       	sbci	r31, 0xF7	; 247
    9c74:	03 c0       	rjmp	.+6      	; 0x9c7c <edit_curve_item+0x4d0>
    9c76:	f6 01       	movw	r30, r12
    9c78:	e6 59       	subi	r30, 0x96	; 150
    9c7a:	fd 4f       	sbci	r31, 0xFD	; 253
    9c7c:	c0 80       	ld	r12, Z
    9c7e:	0c 2c       	mov	r0, r12
    9c80:	00 0c       	add	r0, r0
    9c82:	dd 08       	sbc	r13, r13
    9c84:	f1 01       	movw	r30, r2
    9c86:	ec 5b       	subi	r30, 0xBC	; 188
    9c88:	f7 4f       	sbci	r31, 0xF7	; 247
    9c8a:	80 81       	ld	r24, Z
    9c8c:	82 33       	cpi	r24, 0x32	; 50
    9c8e:	14 f4       	brge	.+4      	; 0x9c94 <edit_curve_item+0x4e8>
    9c90:	14 30       	cpi	r17, 0x04	; 4
    9c92:	39 f0       	breq	.+14     	; 0x9ca2 <edit_curve_item+0x4f6>
    9c94:	ed a5       	ldd	r30, Y+45	; 0x2d
    9c96:	fe a5       	ldd	r31, Y+46	; 0x2e
    9c98:	80 81       	ld	r24, Z
    9c9a:	82 33       	cpi	r24, 0x32	; 50
    9c9c:	24 f4       	brge	.+8      	; 0x9ca6 <edit_curve_item+0x4fa>
    9c9e:	15 30       	cpi	r17, 0x05	; 5
    9ca0:	11 f4       	brne	.+4      	; 0x9ca6 <edit_curve_item+0x4fa>
    9ca2:	91 2c       	mov	r9, r1
    9ca4:	02 c0       	rjmp	.+4      	; 0x9caa <edit_curve_item+0x4fe>
    9ca6:	98 e2       	ldi	r25, 0x28	; 40
    9ca8:	99 2e       	mov	r9, r25
    9caa:	ed a1       	ldd	r30, Y+37	; 0x25
    9cac:	fe a1       	ldd	r31, Y+38	; 0x26
    9cae:	e7 5e       	subi	r30, 0xE7	; 231
    9cb0:	f9 4f       	sbci	r31, 0xF9	; 249
    9cb2:	20 81       	ld	r18, Z
    9cb4:	f5 01       	movw	r30, r10
    9cb6:	ef 5c       	subi	r30, 0xCF	; 207
    9cb8:	fd 4f       	sbci	r31, 0xFD	; 253
    9cba:	80 81       	ld	r24, Z
    9cbc:	08 2e       	mov	r0, r24
    9cbe:	00 0c       	add	r0, r0
    9cc0:	99 0b       	sbc	r25, r25
    9cc2:	82 0f       	add	r24, r18
    9cc4:	91 1d       	adc	r25, r1
    9cc6:	27 fd       	sbrc	r18, 7
    9cc8:	9a 95       	dec	r25
    9cca:	97 ff       	sbrs	r25, 7
    9ccc:	05 c0       	rjmp	.+10     	; 0x9cd8 <edit_curve_item+0x52c>
    9cce:	14 30       	cpi	r17, 0x04	; 4
    9cd0:	31 f4       	brne	.+12     	; 0x9cde <edit_curve_item+0x532>
    9cd2:	fc e0       	ldi	r31, 0x0C	; 12
    9cd4:	ff 8f       	std	Y+31, r31	; 0x1f
    9cd6:	05 c0       	rjmp	.+10     	; 0x9ce2 <edit_curve_item+0x536>
    9cd8:	23 e3       	ldi	r18, 0x33	; 51
    9cda:	2f 8f       	std	Y+31, r18	; 0x1f
    9cdc:	02 c0       	rjmp	.+4      	; 0x9ce2 <edit_curve_item+0x536>
    9cde:	33 e3       	ldi	r19, 0x33	; 51
    9ce0:	3f 8f       	std	Y+31, r19	; 0x1f
    9ce2:	46 e0       	ldi	r20, 0x06	; 6
    9ce4:	4f 15       	cp	r20, r15
    9ce6:	a8 f1       	brcs	.+106    	; 0x9d52 <edit_curve_item+0x5a6>
    9ce8:	4a e0       	ldi	r20, 0x0A	; 10
    9cea:	62 ea       	ldi	r22, 0xA2	; 162
    9cec:	75 e0       	ldi	r23, 0x05	; 5
    9cee:	c6 01       	movw	r24, r12
    9cf0:	0e 94 24 6f 	call	0xde48	; 0xde48 <__itoa_ncheck>
    9cf4:	ae 01       	movw	r20, r28
    9cf6:	45 5e       	subi	r20, 0xE5	; 229
    9cf8:	5f 4f       	sbci	r21, 0xFF	; 255
    9cfa:	6d e7       	ldi	r22, 0x7D	; 125
    9cfc:	7f e0       	ldi	r23, 0x0F	; 15
    9cfe:	0e 94 f1 60 	call	0xc1e2	; 0xc1e2 <mugui_text_sizestring>
    9d02:	0d 8d       	ldd	r16, Y+29	; 0x1d
    9d04:	0c 5f       	subi	r16, 0xFC	; 252
    9d06:	2b 8d       	ldd	r18, Y+27	; 0x1b
    9d08:	2b 5f       	subi	r18, 0xFB	; 251
    9d0a:	e1 2c       	mov	r14, r1
    9d0c:	49 2d       	mov	r20, r9
    9d0e:	60 e0       	ldi	r22, 0x00	; 0
    9d10:	80 e0       	ldi	r24, 0x00	; 0
    9d12:	91 e0       	ldi	r25, 0x01	; 1
    9d14:	0e 94 1b 37 	call	0x6e36	; 0x6e36 <fillrect>
    9d18:	0d 8d       	ldd	r16, Y+29	; 0x1d
    9d1a:	0c 5f       	subi	r16, 0xFC	; 252
    9d1c:	2b 8d       	ldd	r18, Y+27	; 0x1b
    9d1e:	2b 5f       	subi	r18, 0xFB	; 251
    9d20:	ee 24       	eor	r14, r14
    9d22:	e3 94       	inc	r14
    9d24:	49 2d       	mov	r20, r9
    9d26:	60 e0       	ldi	r22, 0x00	; 0
    9d28:	80 e0       	ldi	r24, 0x00	; 0
    9d2a:	91 e0       	ldi	r25, 0x01	; 1
    9d2c:	0e 94 4f 37 	call	0x6e9e	; 0x6e9e <drawrect>
    9d30:	4a e0       	ldi	r20, 0x0A	; 10
    9d32:	62 ea       	ldi	r22, 0xA2	; 162
    9d34:	75 e0       	ldi	r23, 0x05	; 5
    9d36:	c6 01       	movw	r24, r12
    9d38:	0e 94 24 6f 	call	0xde48	; 0xde48 <__itoa_ncheck>
    9d3c:	29 2d       	mov	r18, r9
    9d3e:	99 0c       	add	r9, r9
    9d40:	33 0b       	sbc	r19, r19
    9d42:	2d 5f       	subi	r18, 0xFD	; 253
    9d44:	3f 4f       	sbci	r19, 0xFF	; 255
    9d46:	43 e0       	ldi	r20, 0x03	; 3
    9d48:	50 e0       	ldi	r21, 0x00	; 0
    9d4a:	6d e7       	ldi	r22, 0x7D	; 125
    9d4c:	7f e0       	ldi	r23, 0x0F	; 15
    9d4e:	0e 94 44 62 	call	0xc488	; 0xc488 <mugui_lcd_puts>
    9d52:	58 a1       	ldd	r21, Y+32	; 0x20
    9d54:	54 30       	cpi	r21, 0x04	; 4
    9d56:	08 f4       	brcc	.+2      	; 0x9d5a <edit_curve_item+0x5ae>
    9d58:	41 c0       	rjmp	.+130    	; 0x9ddc <edit_curve_item+0x630>
    9d5a:	14 30       	cpi	r17, 0x04	; 4
    9d5c:	09 f0       	breq	.+2      	; 0x9d60 <edit_curve_item+0x5b4>
    9d5e:	3e c0       	rjmp	.+124    	; 0x9ddc <edit_curve_item+0x630>
    9d60:	f5 01       	movw	r30, r10
    9d62:	ee 5c       	subi	r30, 0xCE	; 206
    9d64:	fd 4f       	sbci	r31, 0xFD	; 253
    9d66:	80 81       	ld	r24, Z
    9d68:	eb a1       	ldd	r30, Y+35	; 0x23
    9d6a:	fc a1       	ldd	r31, Y+36	; 0x24
    9d6c:	e8 0f       	add	r30, r24
    9d6e:	f1 1d       	adc	r31, r1
    9d70:	87 fd       	sbrc	r24, 7
    9d72:	fa 95       	dec	r31
    9d74:	ee 0f       	add	r30, r30
    9d76:	ff 1f       	adc	r31, r31
    9d78:	e1 5c       	subi	r30, 0xC1	; 193
    9d7a:	fb 4e       	sbci	r31, 0xEB	; 235
    9d7c:	85 91       	lpm	r24, Z+
    9d7e:	94 91       	lpm	r25, Z
    9d80:	0e 94 43 61 	call	0xc286	; 0xc286 <pgm_mugui_scopy>
    9d84:	ae 01       	movw	r20, r28
    9d86:	45 5e       	subi	r20, 0xE5	; 229
    9d88:	5f 4f       	sbci	r21, 0xFF	; 255
    9d8a:	6d e7       	ldi	r22, 0x7D	; 125
    9d8c:	7f e0       	ldi	r23, 0x0F	; 15
    9d8e:	82 ea       	ldi	r24, 0xA2	; 162
    9d90:	95 e0       	ldi	r25, 0x05	; 5
    9d92:	0e 94 f1 60 	call	0xc1e2	; 0xc1e2 <mugui_text_sizestring>
    9d96:	9d 8d       	ldd	r25, Y+29	; 0x1d
    9d98:	8b 8d       	ldd	r24, Y+27	; 0x1b
    9d9a:	02 e0       	ldi	r16, 0x02	; 2
    9d9c:	09 0f       	add	r16, r25
    9d9e:	23 e0       	ldi	r18, 0x03	; 3
    9da0:	28 0f       	add	r18, r24
    9da2:	4f 8d       	ldd	r20, Y+31	; 0x1f
    9da4:	49 1b       	sub	r20, r25
    9da6:	6c e7       	ldi	r22, 0x7C	; 124
    9da8:	68 1b       	sub	r22, r24
    9daa:	e1 2c       	mov	r14, r1
    9dac:	80 e0       	ldi	r24, 0x00	; 0
    9dae:	91 e0       	ldi	r25, 0x01	; 1
    9db0:	0e 94 1b 37 	call	0x6e36	; 0x6e36 <fillrect>
    9db4:	8d 8d       	ldd	r24, Y+29	; 0x1d
    9db6:	2f 8d       	ldd	r18, Y+31	; 0x1f
    9db8:	28 1b       	sub	r18, r24
    9dba:	2e 5f       	subi	r18, 0xFE	; 254
    9dbc:	30 e0       	ldi	r19, 0x00	; 0
    9dbe:	8b 8d       	ldd	r24, Y+27	; 0x1b
    9dc0:	4e e7       	ldi	r20, 0x7E	; 126
    9dc2:	48 1b       	sub	r20, r24
    9dc4:	50 e0       	ldi	r21, 0x00	; 0
    9dc6:	6d e7       	ldi	r22, 0x7D	; 125
    9dc8:	7f e0       	ldi	r23, 0x0F	; 15
    9dca:	8b a1       	ldd	r24, Y+35	; 0x23
    9dcc:	9c a1       	ldd	r25, Y+36	; 0x24
    9dce:	ea a5       	ldd	r30, Y+42	; 0x2a
    9dd0:	8e 0f       	add	r24, r30
    9dd2:	91 1d       	adc	r25, r1
    9dd4:	e7 fd       	sbrc	r30, 7
    9dd6:	9a 95       	dec	r25
    9dd8:	0e 94 2e 38 	call	0x705c	; 0x705c <LCD_Display_Text>
    9ddc:	80 e0       	ldi	r24, 0x00	; 0
    9dde:	91 e0       	ldi	r25, 0x01	; 1
    9de0:	0e 94 1d 36 	call	0x6c3a	; 0x6c3a <write_buffer>
    9de4:	ff e7       	ldi	r31, 0x7F	; 127
    9de6:	2a e1       	ldi	r18, 0x1A	; 26
    9de8:	36 e0       	ldi	r19, 0x06	; 6
    9dea:	f1 50       	subi	r31, 0x01	; 1
    9dec:	20 40       	sbci	r18, 0x00	; 0
    9dee:	30 40       	sbci	r19, 0x00	; 0
    9df0:	e1 f7       	brne	.-8      	; 0x9dea <edit_curve_item+0x63e>
    9df2:	00 c0       	rjmp	.+0      	; 0x9df4 <edit_curve_item+0x648>
    9df4:	00 00       	nop
    9df6:	81 e0       	ldi	r24, 0x01	; 1
    9df8:	0e 94 b6 49 	call	0x936c	; 0x936c <poll_buttons>
    9dfc:	80 91 ff 08 	lds	r24, 0x08FF
    9e00:	80 3d       	cpi	r24, 0xD0	; 208
    9e02:	79 f4       	brne	.+30     	; 0x9e22 <edit_curve_item+0x676>
    9e04:	90 91 00 09 	lds	r25, 0x0900
    9e08:	4b a5       	ldd	r20, Y+43	; 0x2b
    9e0a:	24 2f       	mov	r18, r20
    9e0c:	44 0f       	add	r20, r20
    9e0e:	33 0b       	sbc	r19, r19
    9e10:	5f a1       	ldd	r21, Y+39	; 0x27
    9e12:	59 9f       	mul	r21, r25
    9e14:	c0 18       	sub	r12, r0
    9e16:	d1 08       	sbc	r13, r1
    9e18:	11 24       	eor	r1, r1
    9e1a:	c2 16       	cp	r12, r18
    9e1c:	d3 06       	cpc	r13, r19
    9e1e:	94 f4       	brge	.+36     	; 0x9e44 <edit_curve_item+0x698>
    9e20:	10 c0       	rjmp	.+32     	; 0x9e42 <edit_curve_item+0x696>
    9e22:	80 3b       	cpi	r24, 0xB0	; 176
    9e24:	79 f4       	brne	.+30     	; 0x9e44 <edit_curve_item+0x698>
    9e26:	90 91 00 09 	lds	r25, 0x0900
    9e2a:	ec a5       	ldd	r30, Y+44	; 0x2c
    9e2c:	2e 2f       	mov	r18, r30
    9e2e:	ee 0f       	add	r30, r30
    9e30:	33 0b       	sbc	r19, r19
    9e32:	ff a1       	ldd	r31, Y+39	; 0x27
    9e34:	f9 9f       	mul	r31, r25
    9e36:	c0 0c       	add	r12, r0
    9e38:	d1 1c       	adc	r13, r1
    9e3a:	11 24       	eor	r1, r1
    9e3c:	2c 15       	cp	r18, r12
    9e3e:	3d 05       	cpc	r19, r13
    9e40:	0c f4       	brge	.+2      	; 0x9e44 <edit_curve_item+0x698>
    9e42:	69 01       	movw	r12, r18
    9e44:	14 30       	cpi	r17, 0x04	; 4
    9e46:	49 f5       	brne	.+82     	; 0x9e9a <edit_curve_item+0x6ee>
    9e48:	28 e0       	ldi	r18, 0x08	; 8
    9e4a:	42 16       	cp	r4, r18
    9e4c:	51 04       	cpc	r5, r1
    9e4e:	08 f0       	brcs	.+2      	; 0x9e52 <edit_curve_item+0x6a6>
    9e50:	54 c0       	rjmp	.+168    	; 0x9efa <edit_curve_item+0x74e>
    9e52:	f2 01       	movw	r30, r4
    9e54:	e2 59       	subi	r30, 0x92	; 146
    9e56:	ff 4f       	sbci	r31, 0xFF	; 255
    9e58:	0c 94 b0 6e 	jmp	0xdd60	; 0xdd60 <__tablejump2__>
    9e5c:	f5 01       	movw	r30, r10
    9e5e:	e5 5d       	subi	r30, 0xD5	; 213
    9e60:	fd 4f       	sbci	r31, 0xFD	; 253
    9e62:	36 c0       	rjmp	.+108    	; 0x9ed0 <edit_curve_item+0x724>
    9e64:	f5 01       	movw	r30, r10
    9e66:	e4 5d       	subi	r30, 0xD4	; 212
    9e68:	fd 4f       	sbci	r31, 0xFD	; 253
    9e6a:	32 c0       	rjmp	.+100    	; 0x9ed0 <edit_curve_item+0x724>
    9e6c:	f5 01       	movw	r30, r10
    9e6e:	e3 5d       	subi	r30, 0xD3	; 211
    9e70:	fd 4f       	sbci	r31, 0xFD	; 253
    9e72:	2e c0       	rjmp	.+92     	; 0x9ed0 <edit_curve_item+0x724>
    9e74:	f5 01       	movw	r30, r10
    9e76:	e2 5d       	subi	r30, 0xD2	; 210
    9e78:	fd 4f       	sbci	r31, 0xFD	; 253
    9e7a:	2a c0       	rjmp	.+84     	; 0x9ed0 <edit_curve_item+0x724>
    9e7c:	f5 01       	movw	r30, r10
    9e7e:	e1 5d       	subi	r30, 0xD1	; 209
    9e80:	fd 4f       	sbci	r31, 0xFD	; 253
    9e82:	26 c0       	rjmp	.+76     	; 0x9ed0 <edit_curve_item+0x724>
    9e84:	ef a5       	ldd	r30, Y+47	; 0x2f
    9e86:	f8 a9       	ldd	r31, Y+48	; 0x30
    9e88:	23 c0       	rjmp	.+70     	; 0x9ed0 <edit_curve_item+0x724>
    9e8a:	f5 01       	movw	r30, r10
    9e8c:	ef 5c       	subi	r30, 0xCF	; 207
    9e8e:	fd 4f       	sbci	r31, 0xFD	; 253
    9e90:	29 c0       	rjmp	.+82     	; 0x9ee4 <edit_curve_item+0x738>
    9e92:	f5 01       	movw	r30, r10
    9e94:	ee 5c       	subi	r30, 0xCE	; 206
    9e96:	fd 4f       	sbci	r31, 0xFD	; 253
    9e98:	2c c0       	rjmp	.+88     	; 0x9ef2 <edit_curve_item+0x746>
    9e9a:	f8 e0       	ldi	r31, 0x08	; 8
    9e9c:	4f 16       	cp	r4, r31
    9e9e:	51 04       	cpc	r5, r1
    9ea0:	60 f5       	brcc	.+88     	; 0x9efa <edit_curve_item+0x74e>
    9ea2:	f2 01       	movw	r30, r4
    9ea4:	ea 58       	subi	r30, 0x8A	; 138
    9ea6:	ff 4f       	sbci	r31, 0xFF	; 255
    9ea8:	0c 94 b0 6e 	jmp	0xdd60	; 0xdd60 <__tablejump2__>
    9eac:	ed a5       	ldd	r30, Y+45	; 0x2d
    9eae:	fe a5       	ldd	r31, Y+46	; 0x2e
    9eb0:	0f c0       	rjmp	.+30     	; 0x9ed0 <edit_curve_item+0x724>
    9eb2:	f5 01       	movw	r30, r10
    9eb4:	ec 59       	subi	r30, 0x9C	; 156
    9eb6:	fd 4f       	sbci	r31, 0xFD	; 253
    9eb8:	0b c0       	rjmp	.+22     	; 0x9ed0 <edit_curve_item+0x724>
    9eba:	f5 01       	movw	r30, r10
    9ebc:	eb 59       	subi	r30, 0x9B	; 155
    9ebe:	fd 4f       	sbci	r31, 0xFD	; 253
    9ec0:	07 c0       	rjmp	.+14     	; 0x9ed0 <edit_curve_item+0x724>
    9ec2:	f5 01       	movw	r30, r10
    9ec4:	ea 59       	subi	r30, 0x9A	; 154
    9ec6:	fd 4f       	sbci	r31, 0xFD	; 253
    9ec8:	03 c0       	rjmp	.+6      	; 0x9ed0 <edit_curve_item+0x724>
    9eca:	f5 01       	movw	r30, r10
    9ecc:	e9 59       	subi	r30, 0x99	; 153
    9ece:	fd 4f       	sbci	r31, 0xFD	; 253
    9ed0:	c0 82       	st	Z, r12
    9ed2:	80 3e       	cpi	r24, 0xE0	; 224
    9ed4:	71 f5       	brne	.+92     	; 0x9f32 <edit_curve_item+0x786>
    9ed6:	29 c0       	rjmp	.+82     	; 0x9f2a <edit_curve_item+0x77e>
    9ed8:	e8 a5       	ldd	r30, Y+40	; 0x28
    9eda:	f9 a5       	ldd	r31, Y+41	; 0x29
    9edc:	f9 cf       	rjmp	.-14     	; 0x9ed0 <edit_curve_item+0x724>
    9ede:	f5 01       	movw	r30, r10
    9ee0:	e7 59       	subi	r30, 0x97	; 151
    9ee2:	fd 4f       	sbci	r31, 0xFD	; 253
    9ee4:	c0 82       	st	Z, r12
    9ee6:	80 3e       	cpi	r24, 0xE0	; 224
    9ee8:	21 f5       	brne	.+72     	; 0x9f32 <edit_curve_item+0x786>
    9eea:	0c c0       	rjmp	.+24     	; 0x9f04 <edit_curve_item+0x758>
    9eec:	f5 01       	movw	r30, r10
    9eee:	e6 59       	subi	r30, 0x96	; 150
    9ef0:	fd 4f       	sbci	r31, 0xFD	; 253
    9ef2:	c0 82       	st	Z, r12
    9ef4:	80 3e       	cpi	r24, 0xE0	; 224
    9ef6:	e9 f4       	brne	.+58     	; 0x9f32 <edit_curve_item+0x786>
    9ef8:	0c c0       	rjmp	.+24     	; 0x9f12 <edit_curve_item+0x766>
    9efa:	80 3e       	cpi	r24, 0xE0	; 224
    9efc:	d1 f4       	brne	.+52     	; 0x9f32 <edit_curve_item+0x786>
    9efe:	f6 e0       	ldi	r31, 0x06	; 6
    9f00:	ff 12       	cpse	r15, r31
    9f02:	04 c0       	rjmp	.+8      	; 0x9f0c <edit_curve_item+0x760>
    9f04:	28 a1       	ldd	r18, Y+32	; 0x20
    9f06:	24 30       	cpi	r18, 0x04	; 4
    9f08:	40 f0       	brcs	.+16     	; 0x9f1a <edit_curve_item+0x76e>
    9f0a:	09 c0       	rjmp	.+18     	; 0x9f1e <edit_curve_item+0x772>
    9f0c:	37 e0       	ldi	r19, 0x07	; 7
    9f0e:	f3 12       	cpse	r15, r19
    9f10:	0c c0       	rjmp	.+24     	; 0x9f2a <edit_curve_item+0x77e>
    9f12:	48 a1       	ldd	r20, Y+32	; 0x20
    9f14:	44 30       	cpi	r20, 0x04	; 4
    9f16:	38 f4       	brcc	.+14     	; 0x9f26 <edit_curve_item+0x77a>
    9f18:	08 c0       	rjmp	.+16     	; 0x9f2a <edit_curve_item+0x77e>
    9f1a:	14 30       	cpi	r17, 0x04	; 4
    9f1c:	11 f0       	breq	.+4      	; 0x9f22 <edit_curve_item+0x776>
    9f1e:	15 30       	cpi	r17, 0x05	; 5
    9f20:	21 f4       	brne	.+8      	; 0x9f2a <edit_curve_item+0x77e>
    9f22:	80 ee       	ldi	r24, 0xE0	; 224
    9f24:	04 c0       	rjmp	.+8      	; 0x9f2e <edit_curve_item+0x782>
    9f26:	14 30       	cpi	r17, 0x04	; 4
    9f28:	e1 f3       	breq	.-8      	; 0x9f22 <edit_curve_item+0x776>
    9f2a:	f3 94       	inc	r15
    9f2c:	80 ef       	ldi	r24, 0xF0	; 240
    9f2e:	80 93 ff 08 	sts	0x08FF, r24
    9f32:	80 91 ff 08 	lds	r24, 0x08FF
    9f36:	80 37       	cpi	r24, 0x70	; 112
    9f38:	09 f0       	breq	.+2      	; 0x9f3c <edit_curve_item+0x790>
    9f3a:	8f cc       	rjmp	.-1762   	; 0x985a <edit_curve_item+0xae>
    9f3c:	f1 10       	cpse	r15, r1
    9f3e:	02 c0       	rjmp	.+4      	; 0x9f44 <edit_curve_item+0x798>
    9f40:	80 ee       	ldi	r24, 0xE0	; 224
    9f42:	02 c0       	rjmp	.+4      	; 0x9f48 <edit_curve_item+0x79c>
    9f44:	fa 94       	dec	r15
    9f46:	80 ef       	ldi	r24, 0xF0	; 240
    9f48:	80 93 ff 08 	sts	0x08FF, r24
    9f4c:	86 cc       	rjmp	.-1780   	; 0x985a <edit_curve_item+0xae>
    9f4e:	e2 96       	adiw	r28, 0x32	; 50
    9f50:	0f b6       	in	r0, 0x3f	; 63
    9f52:	f8 94       	cli
    9f54:	de bf       	out	0x3e, r29	; 62
    9f56:	0f be       	out	0x3f, r0	; 63
    9f58:	cd bf       	out	0x3d, r28	; 61
    9f5a:	df 91       	pop	r29
    9f5c:	cf 91       	pop	r28
    9f5e:	1f 91       	pop	r17
    9f60:	0f 91       	pop	r16
    9f62:	ff 90       	pop	r15
    9f64:	ef 90       	pop	r14
    9f66:	df 90       	pop	r13
    9f68:	cf 90       	pop	r12
    9f6a:	bf 90       	pop	r11
    9f6c:	af 90       	pop	r10
    9f6e:	9f 90       	pop	r9
    9f70:	8f 90       	pop	r8
    9f72:	7f 90       	pop	r7
    9f74:	6f 90       	pop	r6
    9f76:	5f 90       	pop	r5
    9f78:	4f 90       	pop	r4
    9f7a:	3f 90       	pop	r3
    9f7c:	2f 90       	pop	r2
    9f7e:	08 95       	ret

00009f80 <menu_beep>:
    9f80:	90 91 c3 06 	lds	r25, 0x06C3
    9f84:	91 30       	cpi	r25, 0x01	; 1
    9f86:	99 f4       	brne	.+38     	; 0x9fae <menu_beep+0x2e>
    9f88:	90 e0       	ldi	r25, 0x00	; 0
    9f8a:	98 17       	cp	r25, r24
    9f8c:	81 f0       	breq	.+32     	; 0x9fae <menu_beep+0x2e>
    9f8e:	29 9a       	sbi	0x05, 1	; 5
    9f90:	e7 e8       	ldi	r30, 0x87	; 135
    9f92:	f3 e1       	ldi	r31, 0x13	; 19
    9f94:	31 97       	sbiw	r30, 0x01	; 1
    9f96:	f1 f7       	brne	.-4      	; 0x9f94 <menu_beep+0x14>
    9f98:	00 c0       	rjmp	.+0      	; 0x9f9a <menu_beep+0x1a>
    9f9a:	00 00       	nop
    9f9c:	29 98       	cbi	0x05, 1	; 5
    9f9e:	e7 e9       	ldi	r30, 0x97	; 151
    9fa0:	fa e3       	ldi	r31, 0x3A	; 58
    9fa2:	31 97       	sbiw	r30, 0x01	; 1
    9fa4:	f1 f7       	brne	.-4      	; 0x9fa2 <menu_beep+0x22>
    9fa6:	00 c0       	rjmp	.+0      	; 0x9fa8 <menu_beep+0x28>
    9fa8:	00 00       	nop
    9faa:	9f 5f       	subi	r25, 0xFF	; 255
    9fac:	ee cf       	rjmp	.-36     	; 0x9f8a <menu_beep+0xa>
    9fae:	08 95       	ret

00009fb0 <update_menu>:
    9fb0:	8f 92       	push	r8
    9fb2:	9f 92       	push	r9
    9fb4:	af 92       	push	r10
    9fb6:	bf 92       	push	r11
    9fb8:	cf 92       	push	r12
    9fba:	df 92       	push	r13
    9fbc:	ef 92       	push	r14
    9fbe:	ff 92       	push	r15
    9fc0:	0f 93       	push	r16
    9fc2:	1f 93       	push	r17
    9fc4:	cf 93       	push	r28
    9fc6:	df 93       	push	r29
    9fc8:	5c 01       	movw	r10, r24
    9fca:	4a 01       	movw	r8, r20
    9fcc:	e8 01       	movw	r28, r16
    9fce:	d7 01       	movw	r26, r14
    9fd0:	8d 91       	ld	r24, X+
    9fd2:	9c 91       	ld	r25, X
    9fd4:	11 97       	sbiw	r26, 0x01	; 1
    9fd6:	fc 01       	movw	r30, r24
    9fd8:	e4 0f       	add	r30, r20
    9fda:	f5 1f       	adc	r31, r21
    9fdc:	ed 93       	st	X+, r30
    9fde:	fc 93       	st	X, r31
    9fe0:	8a 01       	movw	r16, r20
    9fe2:	06 0f       	add	r16, r22
    9fe4:	17 1f       	adc	r17, r23
    9fe6:	20 3e       	cpi	r18, 0xE0	; 224
    9fe8:	c1 f4       	brne	.+48     	; 0xa01a <update_menu+0x6a>
    9fea:	88 81       	ld	r24, Y
    9fec:	99 81       	ldd	r25, Y+1	; 0x01
    9fee:	8f 30       	cpi	r24, 0x0F	; 15
    9ff0:	91 05       	cpc	r25, r1
    9ff2:	61 f0       	breq	.+24     	; 0xa00c <update_menu+0x5c>
    9ff4:	18 f4       	brcc	.+6      	; 0x9ffc <update_menu+0x4c>
    9ff6:	03 97       	sbiw	r24, 0x03	; 3
    9ff8:	51 f0       	breq	.+20     	; 0xa00e <update_menu+0x5e>
    9ffa:	55 c0       	rjmp	.+170    	; 0xa0a6 <update_menu+0xf6>
    9ffc:	8b 31       	cpi	r24, 0x1B	; 27
    9ffe:	91 05       	cpc	r25, r1
    a000:	51 f0       	breq	.+20     	; 0xa016 <update_menu+0x66>
    a002:	87 97       	sbiw	r24, 0x27	; 39
    a004:	09 f0       	breq	.+2      	; 0xa008 <update_menu+0x58>
    a006:	4f c0       	rjmp	.+158    	; 0xa0a6 <update_menu+0xf6>
    a008:	33 96       	adiw	r30, 0x03	; 3
    a00a:	01 c0       	rjmp	.+2      	; 0xa00e <update_menu+0x5e>
    a00c:	31 96       	adiw	r30, 0x01	; 1
    a00e:	d6 01       	movw	r26, r12
    a010:	ed 93       	st	X+, r30
    a012:	fc 93       	st	X, r31
    a014:	48 c0       	rjmp	.+144    	; 0xa0a6 <update_menu+0xf6>
    a016:	32 96       	adiw	r30, 0x02	; 2
    a018:	fa cf       	rjmp	.-12     	; 0xa00e <update_menu+0x5e>
    a01a:	20 3d       	cpi	r18, 0xD0	; 208
    a01c:	39 f5       	brne	.+78     	; 0xa06c <update_menu+0xbc>
    a01e:	88 81       	ld	r24, Y
    a020:	99 81       	ldd	r25, Y+1	; 0x01
    a022:	8f 30       	cpi	r24, 0x0F	; 15
    a024:	91 05       	cpc	r25, r1
    a026:	79 f0       	breq	.+30     	; 0xa046 <update_menu+0x96>
    a028:	18 f4       	brcc	.+6      	; 0xa030 <update_menu+0x80>
    a02a:	03 97       	sbiw	r24, 0x03	; 3
    a02c:	39 f0       	breq	.+14     	; 0xa03c <update_menu+0x8c>
    a02e:	1b c0       	rjmp	.+54     	; 0xa066 <update_menu+0xb6>
    a030:	8b 31       	cpi	r24, 0x1B	; 27
    a032:	91 05       	cpc	r25, r1
    a034:	69 f0       	breq	.+26     	; 0xa050 <update_menu+0xa0>
    a036:	87 97       	sbiw	r24, 0x27	; 39
    a038:	91 f0       	breq	.+36     	; 0xa05e <update_menu+0xae>
    a03a:	15 c0       	rjmp	.+42     	; 0xa066 <update_menu+0xb6>
    a03c:	b2 e0       	ldi	r27, 0x02	; 2
    a03e:	ab 16       	cp	r10, r27
    a040:	b1 04       	cpc	r11, r1
    a042:	20 f5       	brcc	.+72     	; 0xa08c <update_menu+0xdc>
    a044:	30 c0       	rjmp	.+96     	; 0xa0a6 <update_menu+0xf6>
    a046:	e3 e0       	ldi	r30, 0x03	; 3
    a048:	ae 16       	cp	r10, r30
    a04a:	b1 04       	cpc	r11, r1
    a04c:	60 f1       	brcs	.+88     	; 0xa0a6 <update_menu+0xf6>
    a04e:	1b c0       	rjmp	.+54     	; 0xa086 <update_menu+0xd6>
    a050:	f4 e0       	ldi	r31, 0x04	; 4
    a052:	af 16       	cp	r10, r31
    a054:	b1 04       	cpc	r11, r1
    a056:	38 f1       	brcs	.+78     	; 0xa0a6 <update_menu+0xf6>
    a058:	87 e2       	ldi	r24, 0x27	; 39
    a05a:	90 e0       	ldi	r25, 0x00	; 0
    a05c:	1f c0       	rjmp	.+62     	; 0xa09c <update_menu+0xec>
    a05e:	25 e0       	ldi	r18, 0x05	; 5
    a060:	a2 16       	cp	r10, r18
    a062:	b1 04       	cpc	r11, r1
    a064:	00 f1       	brcs	.+64     	; 0xa0a6 <update_menu+0xf6>
    a066:	88 e2       	ldi	r24, 0x28	; 40
    a068:	90 e0       	ldi	r25, 0x00	; 0
    a06a:	18 c0       	rjmp	.+48     	; 0xa09c <update_menu+0xec>
    a06c:	20 3b       	cpi	r18, 0xB0	; 176
    a06e:	c9 f4       	brne	.+50     	; 0xa0a2 <update_menu+0xf2>
    a070:	88 81       	ld	r24, Y
    a072:	99 81       	ldd	r25, Y+1	; 0x01
    a074:	8f 30       	cpi	r24, 0x0F	; 15
    a076:	91 05       	cpc	r25, r1
    a078:	61 f0       	breq	.+24     	; 0xa092 <update_menu+0xe2>
    a07a:	70 f0       	brcs	.+28     	; 0xa098 <update_menu+0xe8>
    a07c:	8b 31       	cpi	r24, 0x1B	; 27
    a07e:	91 05       	cpc	r25, r1
    a080:	29 f0       	breq	.+10     	; 0xa08c <update_menu+0xdc>
    a082:	87 97       	sbiw	r24, 0x27	; 39
    a084:	49 f4       	brne	.+18     	; 0xa098 <update_menu+0xe8>
    a086:	8b e1       	ldi	r24, 0x1B	; 27
    a088:	90 e0       	ldi	r25, 0x00	; 0
    a08a:	08 c0       	rjmp	.+16     	; 0xa09c <update_menu+0xec>
    a08c:	8f e0       	ldi	r24, 0x0F	; 15
    a08e:	90 e0       	ldi	r25, 0x00	; 0
    a090:	05 c0       	rjmp	.+10     	; 0xa09c <update_menu+0xec>
    a092:	83 e0       	ldi	r24, 0x03	; 3
    a094:	90 e0       	ldi	r25, 0x00	; 0
    a096:	02 c0       	rjmp	.+4      	; 0xa09c <update_menu+0xec>
    a098:	82 e0       	ldi	r24, 0x02	; 2
    a09a:	90 e0       	ldi	r25, 0x00	; 0
    a09c:	99 83       	std	Y+1, r25	; 0x01
    a09e:	88 83       	st	Y, r24
    a0a0:	02 c0       	rjmp	.+4      	; 0xa0a6 <update_menu+0xf6>
    a0a2:	20 3f       	cpi	r18, 0xF0	; 240
    a0a4:	61 f0       	breq	.+24     	; 0xa0be <update_menu+0x10e>
    a0a6:	81 e0       	ldi	r24, 0x01	; 1
    a0a8:	0e 94 c0 4f 	call	0x9f80	; 0x9f80 <menu_beep>
    a0ac:	4f ef       	ldi	r20, 0xFF	; 255
    a0ae:	84 e3       	ldi	r24, 0x34	; 52
    a0b0:	9c e0       	ldi	r25, 0x0C	; 12
    a0b2:	41 50       	subi	r20, 0x01	; 1
    a0b4:	80 40       	sbci	r24, 0x00	; 0
    a0b6:	90 40       	sbci	r25, 0x00	; 0
    a0b8:	e1 f7       	brne	.-8      	; 0xa0b2 <update_menu+0x102>
    a0ba:	00 c0       	rjmp	.+0      	; 0xa0bc <update_menu+0x10c>
    a0bc:	00 00       	nop
    a0be:	88 81       	ld	r24, Y
    a0c0:	99 81       	ldd	r25, Y+1	; 0x01
    a0c2:	02 97       	sbiw	r24, 0x02	; 2
    a0c4:	71 f4       	brne	.+28     	; 0xa0e2 <update_menu+0x132>
    a0c6:	83 e0       	ldi	r24, 0x03	; 3
    a0c8:	90 e0       	ldi	r25, 0x00	; 0
    a0ca:	99 83       	std	Y+1, r25	; 0x01
    a0cc:	88 83       	st	Y, r24
    a0ce:	d7 01       	movw	r26, r14
    a0d0:	8d 91       	ld	r24, X+
    a0d2:	9c 91       	ld	r25, X
    a0d4:	11 97       	sbiw	r26, 0x01	; 1
    a0d6:	08 17       	cp	r16, r24
    a0d8:	19 07       	cpc	r17, r25
    a0da:	18 f4       	brcc	.+6      	; 0xa0e2 <update_menu+0x132>
    a0dc:	01 97       	sbiw	r24, 0x01	; 1
    a0de:	8d 93       	st	X+, r24
    a0e0:	9c 93       	st	X, r25
    a0e2:	88 81       	ld	r24, Y
    a0e4:	99 81       	ldd	r25, Y+1	; 0x01
    a0e6:	88 97       	sbiw	r24, 0x28	; 40
    a0e8:	b1 f4       	brne	.+44     	; 0xa116 <update_menu+0x166>
    a0ea:	87 e2       	ldi	r24, 0x27	; 39
    a0ec:	90 e0       	ldi	r25, 0x00	; 0
    a0ee:	99 83       	std	Y+1, r25	; 0x01
    a0f0:	88 83       	st	Y, r24
    a0f2:	f7 01       	movw	r30, r14
    a0f4:	80 81       	ld	r24, Z
    a0f6:	91 81       	ldd	r25, Z+1	; 0x01
    a0f8:	9c 01       	movw	r18, r24
    a0fa:	2d 5f       	subi	r18, 0xFD	; 253
    a0fc:	3f 4f       	sbci	r19, 0xFF	; 255
    a0fe:	f1 e0       	ldi	r31, 0x01	; 1
    a100:	af 1a       	sub	r10, r31
    a102:	b1 08       	sbc	r11, r1
    a104:	a0 0e       	add	r10, r16
    a106:	b1 1e       	adc	r11, r17
    a108:	2a 15       	cp	r18, r10
    a10a:	3b 05       	cpc	r19, r11
    a10c:	20 f4       	brcc	.+8      	; 0xa116 <update_menu+0x166>
    a10e:	01 96       	adiw	r24, 0x01	; 1
    a110:	d7 01       	movw	r26, r14
    a112:	8d 93       	st	X+, r24
    a114:	9c 93       	st	X, r25
    a116:	f7 01       	movw	r30, r14
    a118:	80 81       	ld	r24, Z
    a11a:	91 81       	ldd	r25, Z+1	; 0x01
    a11c:	88 19       	sub	r24, r8
    a11e:	99 09       	sbc	r25, r9
    a120:	91 83       	std	Z+1, r25	; 0x01
    a122:	80 83       	st	Z, r24
    a124:	df 91       	pop	r29
    a126:	cf 91       	pop	r28
    a128:	1f 91       	pop	r17
    a12a:	0f 91       	pop	r16
    a12c:	ff 90       	pop	r15
    a12e:	ef 90       	pop	r14
    a130:	df 90       	pop	r13
    a132:	cf 90       	pop	r12
    a134:	bf 90       	pop	r11
    a136:	af 90       	pop	r10
    a138:	9f 90       	pop	r9
    a13a:	8f 90       	pop	r8
    a13c:	08 95       	ret

0000a13e <print_cursor>:
    a13e:	28 2f       	mov	r18, r24
    a140:	30 e0       	ldi	r19, 0x00	; 0
    a142:	43 e0       	ldi	r20, 0x03	; 3
    a144:	50 e0       	ldi	r21, 0x00	; 0
    a146:	6f ee       	ldi	r22, 0xEF	; 239
    a148:	71 e0       	ldi	r23, 0x01	; 1
    a14a:	8d e0       	ldi	r24, 0x0D	; 13
    a14c:	90 e0       	ldi	r25, 0x00	; 0
    a14e:	0c 94 2e 38 	jmp	0x705c	; 0x705c <LCD_Display_Text>

0000a152 <print_menu_items>:
    a152:	2f 92       	push	r2
    a154:	3f 92       	push	r3
    a156:	4f 92       	push	r4
    a158:	5f 92       	push	r5
    a15a:	6f 92       	push	r6
    a15c:	7f 92       	push	r7
    a15e:	8f 92       	push	r8
    a160:	9f 92       	push	r9
    a162:	af 92       	push	r10
    a164:	cf 92       	push	r12
    a166:	df 92       	push	r13
    a168:	ef 92       	push	r14
    a16a:	ff 92       	push	r15
    a16c:	0f 93       	push	r16
    a16e:	1f 93       	push	r17
    a170:	cf 93       	push	r28
    a172:	df 93       	push	r29
    a174:	cd b7       	in	r28, 0x3d	; 61
    a176:	de b7       	in	r29, 0x3e	; 62
    a178:	2f 97       	sbiw	r28, 0x0f	; 15
    a17a:	0f b6       	in	r0, 0x3f	; 63
    a17c:	f8 94       	cli
    a17e:	de bf       	out	0x3e, r29	; 62
    a180:	0f be       	out	0x3f, r0	; 63
    a182:	cd bf       	out	0x3d, r28	; 61
    a184:	2c 01       	movw	r4, r24
    a186:	4b 01       	movw	r8, r22
    a188:	5b 87       	std	Y+11, r21	; 0x0b
    a18a:	4a 87       	std	Y+10, r20	; 0x0a
    a18c:	39 01       	movw	r6, r18
    a18e:	10 2f       	mov	r17, r16
    a190:	fd 86       	std	Y+13, r15	; 0x0d
    a192:	ec 86       	std	Y+12, r14	; 0x0c
    a194:	df 86       	std	Y+15, r13	; 0x0f
    a196:	ce 86       	std	Y+14, r12	; 0x0e
    a198:	80 e0       	ldi	r24, 0x00	; 0
    a19a:	91 e0       	ldi	r25, 0x01	; 1
    a19c:	0e 94 52 36 	call	0x6ca4	; 0x6ca4 <clear_buffer>
    a1a0:	80 e0       	ldi	r24, 0x00	; 0
    a1a2:	0e 94 c2 48 	call	0x9184	; 0x9184 <print_menu_frame>
    a1a6:	8a e1       	ldi	r24, 0x1A	; 26
    a1a8:	28 2e       	mov	r2, r24
    a1aa:	86 e2       	ldi	r24, 0x26	; 38
    a1ac:	38 2e       	mov	r3, r24
    a1ae:	c2 01       	movw	r24, r4
    a1b0:	88 19       	sub	r24, r8
    a1b2:	99 09       	sbc	r25, r9
    a1b4:	25 e0       	ldi	r18, 0x05	; 5
    a1b6:	28 9f       	mul	r18, r24
    a1b8:	a0 01       	movw	r20, r0
    a1ba:	29 9f       	mul	r18, r25
    a1bc:	50 0d       	add	r21, r0
    a1be:	11 24       	eor	r1, r1
    a1c0:	59 87       	std	Y+9, r21	; 0x09
    a1c2:	48 87       	std	Y+8, r20	; 0x08
    a1c4:	fc 01       	movw	r30, r24
    a1c6:	ee 0f       	add	r30, r30
    a1c8:	ff 1f       	adc	r31, r31
    a1ca:	ff 83       	std	Y+7, r31	; 0x07
    a1cc:	ee 83       	std	Y+6, r30	; 0x06
    a1ce:	72 01       	movw	r14, r4
    a1d0:	c1 2c       	mov	r12, r1
    a1d2:	d1 2c       	mov	r13, r1
    a1d4:	41 2c       	mov	r4, r1
    a1d6:	51 2c       	mov	r5, r1
    a1d8:	f1 01       	movw	r30, r2
    a1da:	24 91       	lpm	r18, Z
    a1dc:	30 e0       	ldi	r19, 0x00	; 0
    a1de:	4a e0       	ldi	r20, 0x0A	; 10
    a1e0:	50 e0       	ldi	r21, 0x00	; 0
    a1e2:	6d e7       	ldi	r22, 0x7D	; 125
    a1e4:	7f e0       	ldi	r23, 0x0F	; 15
    a1e6:	c7 01       	movw	r24, r14
    a1e8:	0e 94 2e 38 	call	0x705c	; 0x705c <LCD_Display_Text>
    a1ec:	11 11       	cpse	r17, r1
    a1ee:	09 c0       	rjmp	.+18     	; 0xa202 <print_menu_items+0xb0>
    a1f0:	68 85       	ldd	r22, Y+8	; 0x08
    a1f2:	79 85       	ldd	r23, Y+9	; 0x09
    a1f4:	6c 0d       	add	r22, r12
    a1f6:	7d 1d       	adc	r23, r13
    a1f8:	66 0d       	add	r22, r6
    a1fa:	77 1d       	adc	r23, r7
    a1fc:	45 e0       	ldi	r20, 0x05	; 5
    a1fe:	50 e0       	ldi	r21, 0x00	; 0
    a200:	03 c0       	rjmp	.+6      	; 0xa208 <print_menu_items+0xb6>
    a202:	45 e0       	ldi	r20, 0x05	; 5
    a204:	50 e0       	ldi	r21, 0x00	; 0
    a206:	b3 01       	movw	r22, r6
    a208:	ce 01       	movw	r24, r28
    a20a:	01 96       	adiw	r24, 0x01	; 1
    a20c:	0e 94 09 6f 	call	0xde12	; 0xde12 <memcpy_P>
    a210:	2e 81       	ldd	r18, Y+6	; 0x06
    a212:	3f 81       	ldd	r19, Y+7	; 0x07
    a214:	24 0d       	add	r18, r4
    a216:	35 1d       	adc	r19, r5
    a218:	ee 85       	ldd	r30, Y+14	; 0x0e
    a21a:	ff 85       	ldd	r31, Y+15	; 0x0f
    a21c:	e2 0f       	add	r30, r18
    a21e:	f3 1f       	adc	r31, r19
    a220:	45 91       	lpm	r20, Z+
    a222:	54 91       	lpm	r21, Z
    a224:	f7 01       	movw	r30, r14
    a226:	e8 19       	sub	r30, r8
    a228:	f9 09       	sbc	r31, r9
    a22a:	8a 85       	ldd	r24, Y+10	; 0x0a
    a22c:	9b 85       	ldd	r25, Y+11	; 0x0b
    a22e:	e8 0f       	add	r30, r24
    a230:	f9 1f       	adc	r31, r25
    a232:	80 81       	ld	r24, Z
    a234:	ec 85       	ldd	r30, Y+12	; 0x0c
    a236:	fd 85       	ldd	r31, Y+13	; 0x0d
    a238:	e2 0f       	add	r30, r18
    a23a:	f3 1f       	adc	r31, r19
    a23c:	25 91       	lpm	r18, Z+
    a23e:	34 91       	lpm	r19, Z
    a240:	f1 01       	movw	r30, r2
    a242:	04 91       	lpm	r16, Z
    a244:	08 2e       	mov	r0, r24
    a246:	00 0c       	add	r0, r0
    a248:	99 0b       	sbc	r25, r25
    a24a:	48 0f       	add	r20, r24
    a24c:	59 1f       	adc	r21, r25
    a24e:	6c 81       	ldd	r22, Y+4	; 0x04
    a250:	0e 94 8f 49 	call	0x931e	; 0x931e <print_menu_text>
    a254:	ff ef       	ldi	r31, 0xFF	; 255
    a256:	2f 1a       	sub	r2, r31
    a258:	3f 0a       	sbc	r3, r31
    a25a:	2f ef       	ldi	r18, 0xFF	; 255
    a25c:	e2 1a       	sub	r14, r18
    a25e:	f2 0a       	sbc	r15, r18
    a260:	32 e0       	ldi	r19, 0x02	; 2
    a262:	43 0e       	add	r4, r19
    a264:	51 1c       	adc	r5, r1
    a266:	45 e0       	ldi	r20, 0x05	; 5
    a268:	c4 0e       	add	r12, r20
    a26a:	d1 1c       	adc	r13, r1
    a26c:	54 e1       	ldi	r21, 0x14	; 20
    a26e:	c5 16       	cp	r12, r21
    a270:	d1 04       	cpc	r13, r1
    a272:	09 f0       	breq	.+2      	; 0xa276 <print_menu_items+0x124>
    a274:	b1 cf       	rjmp	.-158    	; 0xa1d8 <print_menu_items+0x86>
    a276:	8a 2d       	mov	r24, r10
    a278:	0e 94 9f 50 	call	0xa13e	; 0xa13e <print_cursor>
    a27c:	80 e0       	ldi	r24, 0x00	; 0
    a27e:	91 e0       	ldi	r25, 0x01	; 1
    a280:	0e 94 1d 36 	call	0x6c3a	; 0x6c3a <write_buffer>
    a284:	81 e0       	ldi	r24, 0x01	; 1
    a286:	0e 94 b6 49 	call	0x936c	; 0x936c <poll_buttons>
    a28a:	2f 96       	adiw	r28, 0x0f	; 15
    a28c:	0f b6       	in	r0, 0x3f	; 63
    a28e:	f8 94       	cli
    a290:	de bf       	out	0x3e, r29	; 62
    a292:	0f be       	out	0x3f, r0	; 63
    a294:	cd bf       	out	0x3d, r28	; 61
    a296:	df 91       	pop	r29
    a298:	cf 91       	pop	r28
    a29a:	1f 91       	pop	r17
    a29c:	0f 91       	pop	r16
    a29e:	ff 90       	pop	r15
    a2a0:	ef 90       	pop	r14
    a2a2:	df 90       	pop	r13
    a2a4:	cf 90       	pop	r12
    a2a6:	af 90       	pop	r10
    a2a8:	9f 90       	pop	r9
    a2aa:	8f 90       	pop	r8
    a2ac:	7f 90       	pop	r7
    a2ae:	6f 90       	pop	r6
    a2b0:	5f 90       	pop	r5
    a2b2:	4f 90       	pop	r4
    a2b4:	3f 90       	pop	r3
    a2b6:	2f 90       	pop	r2
    a2b8:	08 95       	ret

0000a2ba <menu_flight>:
    a2ba:	4f 92       	push	r4
    a2bc:	5f 92       	push	r5
    a2be:	6f 92       	push	r6
    a2c0:	7f 92       	push	r7
    a2c2:	8f 92       	push	r8
    a2c4:	af 92       	push	r10
    a2c6:	bf 92       	push	r11
    a2c8:	cf 92       	push	r12
    a2ca:	df 92       	push	r13
    a2cc:	ef 92       	push	r14
    a2ce:	ff 92       	push	r15
    a2d0:	0f 93       	push	r16
    a2d2:	1f 93       	push	r17
    a2d4:	cf 93       	push	r28
    a2d6:	df 93       	push	r29
    a2d8:	00 d0       	rcall	.+0      	; 0xa2da <menu_flight+0x20>
    a2da:	00 d0       	rcall	.+0      	; 0xa2dc <menu_flight+0x22>
    a2dc:	1f 92       	push	r1
    a2de:	cd b7       	in	r28, 0x3d	; 61
    a2e0:	de b7       	in	r29, 0x3e	; 62
    a2e2:	90 91 b9 06 	lds	r25, 0x06B9
    a2e6:	92 30       	cpi	r25, 0x02	; 2
    a2e8:	39 f4       	brne	.+14     	; 0xa2f8 <menu_flight+0x3e>
    a2ea:	81 11       	cpse	r24, r1
    a2ec:	05 c0       	rjmp	.+10     	; 0xa2f8 <menu_flight+0x3e>
    a2ee:	e8 e4       	ldi	r30, 0x48	; 72
    a2f0:	4e 2e       	mov	r4, r30
    a2f2:	55 24       	eor	r5, r5
    a2f4:	53 94       	inc	r5
    a2f6:	03 c0       	rjmp	.+6      	; 0xa2fe <menu_flight+0x44>
    a2f8:	7c ea       	ldi	r23, 0xAC	; 172
    a2fa:	47 2e       	mov	r4, r23
    a2fc:	51 2c       	mov	r5, r1
    a2fe:	20 91 08 05 	lds	r18, 0x0508
    a302:	22 23       	and	r18, r18
    a304:	79 f0       	breq	.+30     	; 0xa324 <menu_flight+0x6a>
    a306:	92 30       	cpi	r25, 0x02	; 2
    a308:	29 f4       	brne	.+10     	; 0xa314 <menu_flight+0x5a>
    a30a:	81 11       	cpse	r24, r1
    a30c:	03 c0       	rjmp	.+6      	; 0xa314 <menu_flight+0x5a>
    a30e:	28 e4       	ldi	r18, 0x48	; 72
    a310:	31 e0       	ldi	r19, 0x01	; 1
    a312:	02 c0       	rjmp	.+4      	; 0xa318 <menu_flight+0x5e>
    a314:	2c ea       	ldi	r18, 0xAC	; 172
    a316:	30 e0       	ldi	r19, 0x00	; 0
    a318:	30 93 4f 05 	sts	0x054F, r19
    a31c:	20 93 4e 05 	sts	0x054E, r18
    a320:	10 92 08 05 	sts	0x0508, r1
    a324:	24 e1       	ldi	r18, 0x14	; 20
    a326:	82 9f       	mul	r24, r18
    a328:	c0 01       	movw	r24, r0
    a32a:	11 24       	eor	r1, r1
    a32c:	9c 01       	movw	r18, r24
    a32e:	22 5b       	subi	r18, 0xB2	; 178
    a330:	39 4f       	sbci	r19, 0xF9	; 249
    a332:	39 01       	movw	r6, r18
    a334:	80 91 ff 08 	lds	r24, 0x08FF
    a338:	80 37       	cpi	r24, 0x70	; 112
    a33a:	09 f4       	brne	.+2      	; 0xa33e <menu_flight+0x84>
    a33c:	65 c0       	rjmp	.+202    	; 0xa408 <menu_flight+0x14e>
    a33e:	a0 90 04 05 	lds	r10, 0x0504
    a342:	b0 90 05 05 	lds	r11, 0x0505
    a346:	3a ea       	ldi	r19, 0xAA	; 170
    a348:	c3 2e       	mov	r12, r19
    a34a:	36 e2       	ldi	r19, 0x26	; 38
    a34c:	d3 2e       	mov	r13, r19
    a34e:	42 e8       	ldi	r20, 0x82	; 130
    a350:	e4 2e       	mov	r14, r20
    a352:	46 e2       	ldi	r20, 0x26	; 38
    a354:	f4 2e       	mov	r15, r20
    a356:	00 e0       	ldi	r16, 0x00	; 0
    a358:	2e e1       	ldi	r18, 0x1E	; 30
    a35a:	36 e2       	ldi	r19, 0x26	; 38
    a35c:	a3 01       	movw	r20, r6
    a35e:	b2 01       	movw	r22, r4
    a360:	80 91 4e 05 	lds	r24, 0x054E
    a364:	90 91 4f 05 	lds	r25, 0x054F
    a368:	0e 94 a9 50 	call	0xa152	; 0xa152 <print_menu_items>
    a36c:	59 e4       	ldi	r21, 0x49	; 73
    a36e:	c5 2e       	mov	r12, r21
    a370:	55 e0       	ldi	r21, 0x05	; 5
    a372:	d5 2e       	mov	r13, r21
    a374:	6e e4       	ldi	r22, 0x4E	; 78
    a376:	e6 2e       	mov	r14, r22
    a378:	65 e0       	ldi	r22, 0x05	; 5
    a37a:	f6 2e       	mov	r15, r22
    a37c:	04 e0       	ldi	r16, 0x04	; 4
    a37e:	15 e0       	ldi	r17, 0x05	; 5
    a380:	20 91 ff 08 	lds	r18, 0x08FF
    a384:	40 e0       	ldi	r20, 0x00	; 0
    a386:	50 e0       	ldi	r21, 0x00	; 0
    a388:	b2 01       	movw	r22, r4
    a38a:	84 e1       	ldi	r24, 0x14	; 20
    a38c:	90 e0       	ldi	r25, 0x00	; 0
    a38e:	0e 94 d8 4f 	call	0x9fb0	; 0x9fb0 <update_menu>
    a392:	60 91 49 05 	lds	r22, 0x0549
    a396:	64 19       	sub	r22, r4
    a398:	8e e1       	ldi	r24, 0x1E	; 30
    a39a:	96 e2       	ldi	r25, 0x26	; 38
    a39c:	0e 94 5f 49 	call	0x92be	; 0x92be <get_menu_range>
    a3a0:	29 83       	std	Y+1, r18	; 0x01
    a3a2:	3a 83       	std	Y+2, r19	; 0x02
    a3a4:	4b 83       	std	Y+3, r20	; 0x03
    a3a6:	5c 83       	std	Y+4, r21	; 0x04
    a3a8:	6d 83       	std	Y+5, r22	; 0x05
    a3aa:	80 91 ff 08 	lds	r24, 0x08FF
    a3ae:	80 3e       	cpi	r24, 0xE0	; 224
    a3b0:	f9 f4       	brne	.+62     	; 0xa3f0 <menu_flight+0x136>
    a3b2:	80 91 49 05 	lds	r24, 0x0549
    a3b6:	90 91 4a 05 	lds	r25, 0x054A
    a3ba:	bc 01       	movw	r22, r24
    a3bc:	64 19       	sub	r22, r4
    a3be:	75 09       	sbc	r23, r5
    a3c0:	fb 01       	movw	r30, r22
    a3c2:	ee 0f       	add	r30, r30
    a3c4:	ff 1f       	adc	r31, r31
    a3c6:	e6 55       	subi	r30, 0x56	; 86
    a3c8:	f9 4d       	sbci	r31, 0xD9	; 217
    a3ca:	a5 90       	lpm	r10, Z+
    a3cc:	b4 90       	lpm	r11, Z
    a3ce:	bb 24       	eor	r11, r11
    a3d0:	66 0d       	add	r22, r6
    a3d2:	77 1d       	adc	r23, r7
    a3d4:	1f 92       	push	r1
    a3d6:	1f 92       	push	r1
    a3d8:	81 2c       	mov	r8, r1
    a3da:	c1 2c       	mov	r12, r1
    a3dc:	e9 80       	ldd	r14, Y+1	; 0x01
    a3de:	fa 80       	ldd	r15, Y+2	; 0x02
    a3e0:	0b 81       	ldd	r16, Y+3	; 0x03
    a3e2:	1c 81       	ldd	r17, Y+4	; 0x04
    a3e4:	2d 81       	ldd	r18, Y+5	; 0x05
    a3e6:	41 e0       	ldi	r20, 0x01	; 1
    a3e8:	0e 94 ed 49 	call	0x93da	; 0x93da <do_menu_item>
    a3ec:	0f 90       	pop	r0
    a3ee:	0f 90       	pop	r0
    a3f0:	80 91 ff 08 	lds	r24, 0x08FF
    a3f4:	80 3e       	cpi	r24, 0xE0	; 224
    a3f6:	09 f0       	breq	.+2      	; 0xa3fa <menu_flight+0x140>
    a3f8:	9d cf       	rjmp	.-198    	; 0xa334 <menu_flight+0x7a>
    a3fa:	0e 94 87 56 	call	0xad0e	; 0xad0e <UpdateLimits>
    a3fe:	0e 94 4e 26 	call	0x4c9c	; 0x4c9c <Save_Config_to_EEPROM>
    a402:	0e 94 ef 52 	call	0xa5de	; 0xa5de <Wait_BUTTON4>
    a406:	96 cf       	rjmp	.-212    	; 0xa334 <menu_flight+0x7a>
    a408:	0f 90       	pop	r0
    a40a:	0f 90       	pop	r0
    a40c:	0f 90       	pop	r0
    a40e:	0f 90       	pop	r0
    a410:	0f 90       	pop	r0
    a412:	df 91       	pop	r29
    a414:	cf 91       	pop	r28
    a416:	1f 91       	pop	r17
    a418:	0f 91       	pop	r16
    a41a:	ff 90       	pop	r15
    a41c:	ef 90       	pop	r14
    a41e:	df 90       	pop	r13
    a420:	cf 90       	pop	r12
    a422:	bf 90       	pop	r11
    a424:	af 90       	pop	r10
    a426:	8f 90       	pop	r8
    a428:	7f 90       	pop	r7
    a42a:	6f 90       	pop	r6
    a42c:	5f 90       	pop	r5
    a42e:	4f 90       	pop	r4
    a430:	08 95       	ret

0000a432 <do_main_menu_item>:
    a432:	90 e0       	ldi	r25, 0x00	; 0
    a434:	fc 01       	movw	r30, r24
    a436:	ed 54       	subi	r30, 0x4D	; 77
    a438:	f1 09       	sbc	r31, r1
    a43a:	e8 31       	cpi	r30, 0x18	; 24
    a43c:	f1 05       	cpc	r31, r1
    a43e:	c0 f5       	brcc	.+112    	; 0xa4b0 <do_main_menu_item+0x7e>
    a440:	e2 58       	subi	r30, 0x82	; 130
    a442:	ff 4f       	sbci	r31, 0xFF	; 255
    a444:	0c 94 b0 6e 	jmp	0xdd60	; 0xdd60 <__tablejump2__>
    a448:	82 e0       	ldi	r24, 0x02	; 2
    a44a:	01 c0       	rjmp	.+2      	; 0xa44e <do_main_menu_item+0x1c>
    a44c:	81 e0       	ldi	r24, 0x01	; 1
    a44e:	0c 94 32 55 	jmp	0xaa64	; 0xaa64 <menu_rc_setup>
    a452:	0c 94 4c 20 	jmp	0x4098	; 0x4098 <Display_rcinput>
    a456:	0c 94 e1 24 	jmp	0x49c2	; 0x49c2 <Display_sticks>
    a45a:	0c 94 4b 21 	jmp	0x4296	; 0x4296 <Display_sensors>
    a45e:	0c 94 e6 1b 	jmp	0x37cc	; 0x37cc <Display_balance>
    a462:	80 e0       	ldi	r24, 0x00	; 0
    a464:	01 c0       	rjmp	.+2      	; 0xa468 <do_main_menu_item+0x36>
    a466:	81 e0       	ldi	r24, 0x01	; 1
    a468:	0c 94 5d 51 	jmp	0xa2ba	; 0xa2ba <menu_flight>
    a46c:	0c 94 52 48 	jmp	0x90a4	; 0x90a4 <menu_curves>
    a470:	0c 94 c5 53 	jmp	0xa78a	; 0xa78a <menu_offsets>
    a474:	80 e0       	ldi	r24, 0x00	; 0
    a476:	01 c0       	rjmp	.+2      	; 0xa47a <do_main_menu_item+0x48>
    a478:	81 e0       	ldi	r24, 0x01	; 1
    a47a:	0c 94 fc 52 	jmp	0xa5f8	; 0xa5f8 <menu_mixer>
    a47e:	82 e0       	ldi	r24, 0x02	; 2
    a480:	fc cf       	rjmp	.-8      	; 0xa47a <do_main_menu_item+0x48>
    a482:	83 e0       	ldi	r24, 0x03	; 3
    a484:	fa cf       	rjmp	.-12     	; 0xa47a <do_main_menu_item+0x48>
    a486:	84 e0       	ldi	r24, 0x04	; 4
    a488:	f8 cf       	rjmp	.-16     	; 0xa47a <do_main_menu_item+0x48>
    a48a:	85 e0       	ldi	r24, 0x05	; 5
    a48c:	f6 cf       	rjmp	.-20     	; 0xa47a <do_main_menu_item+0x48>
    a48e:	86 e0       	ldi	r24, 0x06	; 6
    a490:	f4 cf       	rjmp	.-24     	; 0xa47a <do_main_menu_item+0x48>
    a492:	87 e0       	ldi	r24, 0x07	; 7
    a494:	f2 cf       	rjmp	.-28     	; 0xa47a <do_main_menu_item+0x48>
    a496:	81 e0       	ldi	r24, 0x01	; 1
    a498:	03 c0       	rjmp	.+6      	; 0xa4a0 <do_main_menu_item+0x6e>
    a49a:	82 e0       	ldi	r24, 0x02	; 2
    a49c:	01 c0       	rjmp	.+2      	; 0xa4a0 <do_main_menu_item+0x6e>
    a49e:	83 e0       	ldi	r24, 0x03	; 3
    a4a0:	0c 94 35 54 	jmp	0xa86a	; 0xa86a <menu_servo_setup>
    a4a4:	0c 94 a6 47 	jmp	0x8f4c	; 0x8f4c <menu_channel>
    a4a8:	0c 94 79 1c 	jmp	0x38f2	; 0x38f2 <Display_in_out>
    a4ac:	0c 94 ee 1f 	jmp	0x3fdc	; 0x3fdc <menu_log>
    a4b0:	08 95       	ret

0000a4b2 <Wait_BUTTON1>:
    a4b2:	1f 99       	sbic	0x03, 7	; 3
    a4b4:	0a c0       	rjmp	.+20     	; 0xa4ca <Wait_BUTTON1+0x18>
    a4b6:	2f e3       	ldi	r18, 0x3F	; 63
    a4b8:	8d e0       	ldi	r24, 0x0D	; 13
    a4ba:	93 e0       	ldi	r25, 0x03	; 3
    a4bc:	21 50       	subi	r18, 0x01	; 1
    a4be:	80 40       	sbci	r24, 0x00	; 0
    a4c0:	90 40       	sbci	r25, 0x00	; 0
    a4c2:	e1 f7       	brne	.-8      	; 0xa4bc <Wait_BUTTON1+0xa>
    a4c4:	00 c0       	rjmp	.+0      	; 0xa4c6 <Wait_BUTTON1+0x14>
    a4c6:	00 00       	nop
    a4c8:	f4 cf       	rjmp	.-24     	; 0xa4b2 <Wait_BUTTON1>
    a4ca:	08 95       	ret

0000a4cc <menu_main>:
    a4cc:	9f 92       	push	r9
    a4ce:	af 92       	push	r10
    a4d0:	bf 92       	push	r11
    a4d2:	cf 92       	push	r12
    a4d4:	df 92       	push	r13
    a4d6:	ef 92       	push	r14
    a4d8:	ff 92       	push	r15
    a4da:	0f 93       	push	r16
    a4dc:	1f 93       	push	r17
    a4de:	cf 93       	push	r28
    a4e0:	df 93       	push	r29
    a4e2:	80 ef       	ldi	r24, 0xF0	; 240
    a4e4:	80 93 ff 08 	sts	0x08FF, r24
    a4e8:	81 e0       	ldi	r24, 0x01	; 1
    a4ea:	0e 94 c0 4f 	call	0x9f80	; 0x9f80 <menu_beep>
    a4ee:	0e 94 59 52 	call	0xa4b2	; 0xa4b2 <Wait_BUTTON1>
    a4f2:	23 e0       	ldi	r18, 0x03	; 3
    a4f4:	a2 2e       	mov	r10, r18
    a4f6:	b1 2c       	mov	r11, r1
    a4f8:	30 ef       	ldi	r19, 0xF0	; 240
    a4fa:	93 2e       	mov	r9, r19
    a4fc:	80 91 ff 08 	lds	r24, 0x08FF
    a500:	80 37       	cpi	r24, 0x70	; 112
    a502:	09 f4       	brne	.+2      	; 0xa506 <menu_main+0x3a>
    a504:	60 c0       	rjmp	.+192    	; 0xa5c6 <menu_main+0xfa>
    a506:	80 e0       	ldi	r24, 0x00	; 0
    a508:	91 e0       	ldi	r25, 0x01	; 1
    a50a:	0e 94 52 36 	call	0x6ca4	; 0x6ca4 <clear_buffer>
    a50e:	80 e0       	ldi	r24, 0x00	; 0
    a510:	0e 94 c2 48 	call	0x9184	; 0x9184 <print_menu_frame>
    a514:	c0 e0       	ldi	r28, 0x00	; 0
    a516:	d0 e0       	ldi	r29, 0x00	; 0
    a518:	fe 01       	movw	r30, r28
    a51a:	e6 5e       	subi	r30, 0xE6	; 230
    a51c:	f9 4d       	sbci	r31, 0xD9	; 217
    a51e:	24 91       	lpm	r18, Z
    a520:	30 e0       	ldi	r19, 0x00	; 0
    a522:	80 91 09 05 	lds	r24, 0x0509
    a526:	90 91 0a 05 	lds	r25, 0x050A
    a52a:	4a e0       	ldi	r20, 0x0A	; 10
    a52c:	50 e0       	ldi	r21, 0x00	; 0
    a52e:	6d e7       	ldi	r22, 0x7D	; 125
    a530:	7f e0       	ldi	r23, 0x0F	; 15
    a532:	8c 0f       	add	r24, r28
    a534:	9d 1f       	adc	r25, r29
    a536:	0e 94 2e 38 	call	0x705c	; 0x705c <LCD_Display_Text>
    a53a:	21 96       	adiw	r28, 0x01	; 1
    a53c:	c4 30       	cpi	r28, 0x04	; 4
    a53e:	d1 05       	cpc	r29, r1
    a540:	59 f7       	brne	.-42     	; 0xa518 <menu_main+0x4c>
    a542:	80 91 06 05 	lds	r24, 0x0506
    a546:	0e 94 9f 50 	call	0xa13e	; 0xa13e <print_cursor>
    a54a:	80 e0       	ldi	r24, 0x00	; 0
    a54c:	91 e0       	ldi	r25, 0x01	; 1
    a54e:	0e 94 1d 36 	call	0x6c3a	; 0x6c3a <write_buffer>
    a552:	81 e0       	ldi	r24, 0x01	; 1
    a554:	0e 94 b6 49 	call	0x936c	; 0x936c <poll_buttons>
    a558:	8c e4       	ldi	r24, 0x4C	; 76
    a55a:	c8 2e       	mov	r12, r24
    a55c:	85 e0       	ldi	r24, 0x05	; 5
    a55e:	d8 2e       	mov	r13, r24
    a560:	99 e0       	ldi	r25, 0x09	; 9
    a562:	e9 2e       	mov	r14, r25
    a564:	95 e0       	ldi	r25, 0x05	; 5
    a566:	f9 2e       	mov	r15, r25
    a568:	06 e0       	ldi	r16, 0x06	; 6
    a56a:	15 e0       	ldi	r17, 0x05	; 5
    a56c:	20 91 ff 08 	lds	r18, 0x08FF
    a570:	40 e0       	ldi	r20, 0x00	; 0
    a572:	50 e0       	ldi	r21, 0x00	; 0
    a574:	6d e4       	ldi	r22, 0x4D	; 77
    a576:	70 e0       	ldi	r23, 0x00	; 0
    a578:	87 e1       	ldi	r24, 0x17	; 23
    a57a:	90 e0       	ldi	r25, 0x00	; 0
    a57c:	0e 94 d8 4f 	call	0x9fb0	; 0x9fb0 <update_menu>
    a580:	80 91 4c 05 	lds	r24, 0x054C
    a584:	90 91 4d 05 	lds	r25, 0x054D
    a588:	20 91 4b 05 	lds	r18, 0x054B
    a58c:	30 e0       	ldi	r19, 0x00	; 0
    a58e:	82 17       	cp	r24, r18
    a590:	93 07       	cpc	r25, r19
    a592:	69 f0       	breq	.+26     	; 0xa5ae <menu_main+0xe2>
    a594:	b0 92 05 05 	sts	0x0505, r11
    a598:	a0 92 04 05 	sts	0x0504, r10
    a59c:	10 92 4a 05 	sts	0x054A, r1
    a5a0:	10 92 49 05 	sts	0x0549, r1
    a5a4:	80 93 4b 05 	sts	0x054B, r24
    a5a8:	21 e0       	ldi	r18, 0x01	; 1
    a5aa:	20 93 08 05 	sts	0x0508, r18
    a5ae:	20 91 ff 08 	lds	r18, 0x08FF
    a5b2:	20 3e       	cpi	r18, 0xE0	; 224
    a5b4:	09 f0       	breq	.+2      	; 0xa5b8 <menu_main+0xec>
    a5b6:	a2 cf       	rjmp	.-188    	; 0xa4fc <menu_main+0x30>
    a5b8:	0e 94 19 52 	call	0xa432	; 0xa432 <do_main_menu_item>
    a5bc:	90 92 ff 08 	sts	0x08FF, r9
    a5c0:	0e 94 59 52 	call	0xa4b2	; 0xa4b2 <Wait_BUTTON1>
    a5c4:	9b cf       	rjmp	.-202    	; 0xa4fc <menu_main+0x30>
    a5c6:	df 91       	pop	r29
    a5c8:	cf 91       	pop	r28
    a5ca:	1f 91       	pop	r17
    a5cc:	0f 91       	pop	r16
    a5ce:	ff 90       	pop	r15
    a5d0:	ef 90       	pop	r14
    a5d2:	df 90       	pop	r13
    a5d4:	cf 90       	pop	r12
    a5d6:	bf 90       	pop	r11
    a5d8:	af 90       	pop	r10
    a5da:	9f 90       	pop	r9
    a5dc:	08 95       	ret

0000a5de <Wait_BUTTON4>:
    a5de:	1c 99       	sbic	0x03, 4	; 3
    a5e0:	0a c0       	rjmp	.+20     	; 0xa5f6 <Wait_BUTTON4+0x18>
    a5e2:	2f e3       	ldi	r18, 0x3F	; 63
    a5e4:	8d e0       	ldi	r24, 0x0D	; 13
    a5e6:	93 e0       	ldi	r25, 0x03	; 3
    a5e8:	21 50       	subi	r18, 0x01	; 1
    a5ea:	80 40       	sbci	r24, 0x00	; 0
    a5ec:	90 40       	sbci	r25, 0x00	; 0
    a5ee:	e1 f7       	brne	.-8      	; 0xa5e8 <Wait_BUTTON4+0xa>
    a5f0:	00 c0       	rjmp	.+0      	; 0xa5f2 <Wait_BUTTON4+0x14>
    a5f2:	00 00       	nop
    a5f4:	f4 cf       	rjmp	.-24     	; 0xa5de <Wait_BUTTON4>
    a5f6:	08 95       	ret

0000a5f8 <menu_mixer>:
    a5f8:	4f 92       	push	r4
    a5fa:	5f 92       	push	r5
    a5fc:	6f 92       	push	r6
    a5fe:	7f 92       	push	r7
    a600:	8f 92       	push	r8
    a602:	af 92       	push	r10
    a604:	bf 92       	push	r11
    a606:	cf 92       	push	r12
    a608:	df 92       	push	r13
    a60a:	ef 92       	push	r14
    a60c:	ff 92       	push	r15
    a60e:	0f 93       	push	r16
    a610:	1f 93       	push	r17
    a612:	cf 93       	push	r28
    a614:	df 93       	push	r29
    a616:	00 d0       	rcall	.+0      	; 0xa618 <menu_mixer+0x20>
    a618:	00 d0       	rcall	.+0      	; 0xa61a <menu_mixer+0x22>
    a61a:	1f 92       	push	r1
    a61c:	cd b7       	in	r28, 0x3d	; 61
    a61e:	de b7       	in	r29, 0x3e	; 62
    a620:	90 91 b9 06 	lds	r25, 0x06B9
    a624:	92 30       	cpi	r25, 0x02	; 2
    a626:	29 f4       	brne	.+10     	; 0xa632 <menu_mixer+0x3a>
    a628:	ac e5       	ldi	r26, 0x5C	; 92
    a62a:	6a 2e       	mov	r6, r26
    a62c:	77 24       	eor	r7, r7
    a62e:	73 94       	inc	r7
    a630:	03 c0       	rjmp	.+6      	; 0xa638 <menu_mixer+0x40>
    a632:	f0 ec       	ldi	r31, 0xC0	; 192
    a634:	6f 2e       	mov	r6, r31
    a636:	71 2c       	mov	r7, r1
    a638:	20 91 08 05 	lds	r18, 0x0508
    a63c:	22 23       	and	r18, r18
    a63e:	69 f0       	breq	.+26     	; 0xa65a <menu_mixer+0x62>
    a640:	92 30       	cpi	r25, 0x02	; 2
    a642:	19 f0       	breq	.+6      	; 0xa64a <menu_mixer+0x52>
    a644:	20 ec       	ldi	r18, 0xC0	; 192
    a646:	30 e0       	ldi	r19, 0x00	; 0
    a648:	02 c0       	rjmp	.+4      	; 0xa64e <menu_mixer+0x56>
    a64a:	2c e5       	ldi	r18, 0x5C	; 92
    a64c:	31 e0       	ldi	r19, 0x01	; 1
    a64e:	30 93 4f 05 	sts	0x054F, r19
    a652:	20 93 4e 05 	sts	0x054E, r18
    a656:	10 92 08 05 	sts	0x0508, r1
    a65a:	22 e2       	ldi	r18, 0x22	; 34
    a65c:	82 9f       	mul	r24, r18
    a65e:	c0 01       	movw	r24, r0
    a660:	11 24       	eor	r1, r1
    a662:	9c 01       	movw	r18, r24
    a664:	28 53       	subi	r18, 0x38	; 56
    a666:	39 4f       	sbci	r19, 0xF9	; 249
    a668:	29 01       	movw	r4, r18
    a66a:	80 91 ff 08 	lds	r24, 0x08FF
    a66e:	80 37       	cpi	r24, 0x70	; 112
    a670:	09 f4       	brne	.+2      	; 0xa674 <menu_mixer+0x7c>
    a672:	76 c0       	rjmp	.+236    	; 0xa760 <menu_mixer+0x168>
    a674:	20 91 b9 06 	lds	r18, 0x06B9
    a678:	a0 90 04 05 	lds	r10, 0x0504
    a67c:	b0 90 05 05 	lds	r11, 0x0505
    a680:	80 91 4e 05 	lds	r24, 0x054E
    a684:	90 91 4f 05 	lds	r25, 0x054F
    a688:	22 30       	cpi	r18, 0x02	; 2
    a68a:	29 f0       	breq	.+10     	; 0xa696 <menu_mixer+0x9e>
    a68c:	e0 ee       	ldi	r30, 0xE0	; 224
    a68e:	ce 2e       	mov	r12, r30
    a690:	e7 e2       	ldi	r30, 0x27	; 39
    a692:	de 2e       	mov	r13, r30
    a694:	04 c0       	rjmp	.+8      	; 0xa69e <menu_mixer+0xa6>
    a696:	74 ea       	ldi	r23, 0xA4	; 164
    a698:	c7 2e       	mov	r12, r23
    a69a:	77 e2       	ldi	r23, 0x27	; 39
    a69c:	d7 2e       	mov	r13, r23
    a69e:	48 e6       	ldi	r20, 0x68	; 104
    a6a0:	e4 2e       	mov	r14, r20
    a6a2:	47 e2       	ldi	r20, 0x27	; 39
    a6a4:	f4 2e       	mov	r15, r20
    a6a6:	00 e0       	ldi	r16, 0x00	; 0
    a6a8:	22 ed       	ldi	r18, 0xD2	; 210
    a6aa:	36 e2       	ldi	r19, 0x26	; 38
    a6ac:	a2 01       	movw	r20, r4
    a6ae:	b3 01       	movw	r22, r6
    a6b0:	0e 94 a9 50 	call	0xa152	; 0xa152 <print_menu_items>
    a6b4:	59 e4       	ldi	r21, 0x49	; 73
    a6b6:	c5 2e       	mov	r12, r21
    a6b8:	55 e0       	ldi	r21, 0x05	; 5
    a6ba:	d5 2e       	mov	r13, r21
    a6bc:	6e e4       	ldi	r22, 0x4E	; 78
    a6be:	e6 2e       	mov	r14, r22
    a6c0:	65 e0       	ldi	r22, 0x05	; 5
    a6c2:	f6 2e       	mov	r15, r22
    a6c4:	04 e0       	ldi	r16, 0x04	; 4
    a6c6:	15 e0       	ldi	r17, 0x05	; 5
    a6c8:	20 91 ff 08 	lds	r18, 0x08FF
    a6cc:	40 e0       	ldi	r20, 0x00	; 0
    a6ce:	50 e0       	ldi	r21, 0x00	; 0
    a6d0:	b3 01       	movw	r22, r6
    a6d2:	8e e1       	ldi	r24, 0x1E	; 30
    a6d4:	90 e0       	ldi	r25, 0x00	; 0
    a6d6:	0e 94 d8 4f 	call	0x9fb0	; 0x9fb0 <update_menu>
    a6da:	60 91 49 05 	lds	r22, 0x0549
    a6de:	66 19       	sub	r22, r6
    a6e0:	82 ed       	ldi	r24, 0xD2	; 210
    a6e2:	96 e2       	ldi	r25, 0x26	; 38
    a6e4:	0e 94 5f 49 	call	0x92be	; 0x92be <get_menu_range>
    a6e8:	29 83       	std	Y+1, r18	; 0x01
    a6ea:	3a 83       	std	Y+2, r19	; 0x02
    a6ec:	4b 83       	std	Y+3, r20	; 0x03
    a6ee:	5c 83       	std	Y+4, r21	; 0x04
    a6f0:	6d 83       	std	Y+5, r22	; 0x05
    a6f2:	80 91 ff 08 	lds	r24, 0x08FF
    a6f6:	80 3e       	cpi	r24, 0xE0	; 224
    a6f8:	39 f5       	brne	.+78     	; 0xa748 <menu_mixer+0x150>
    a6fa:	20 91 b9 06 	lds	r18, 0x06B9
    a6fe:	80 91 49 05 	lds	r24, 0x0549
    a702:	90 91 4a 05 	lds	r25, 0x054A
    a706:	fc 01       	movw	r30, r24
    a708:	e6 19       	sub	r30, r6
    a70a:	f7 09       	sbc	r31, r7
    a70c:	ee 0f       	add	r30, r30
    a70e:	ff 1f       	adc	r31, r31
    a710:	22 30       	cpi	r18, 0x02	; 2
    a712:	19 f0       	breq	.+6      	; 0xa71a <menu_mixer+0x122>
    a714:	e0 52       	subi	r30, 0x20	; 32
    a716:	f8 4d       	sbci	r31, 0xD8	; 216
    a718:	02 c0       	rjmp	.+4      	; 0xa71e <menu_mixer+0x126>
    a71a:	ec 55       	subi	r30, 0x5C	; 92
    a71c:	f8 4d       	sbci	r31, 0xD8	; 216
    a71e:	a5 90       	lpm	r10, Z+
    a720:	b4 90       	lpm	r11, Z
    a722:	bc 01       	movw	r22, r24
    a724:	66 19       	sub	r22, r6
    a726:	77 09       	sbc	r23, r7
    a728:	64 0d       	add	r22, r4
    a72a:	75 1d       	adc	r23, r5
    a72c:	1f 92       	push	r1
    a72e:	1f 92       	push	r1
    a730:	81 2c       	mov	r8, r1
    a732:	c1 2c       	mov	r12, r1
    a734:	e9 80       	ldd	r14, Y+1	; 0x01
    a736:	fa 80       	ldd	r15, Y+2	; 0x02
    a738:	0b 81       	ldd	r16, Y+3	; 0x03
    a73a:	1c 81       	ldd	r17, Y+4	; 0x04
    a73c:	2d 81       	ldd	r18, Y+5	; 0x05
    a73e:	41 e0       	ldi	r20, 0x01	; 1
    a740:	0e 94 ed 49 	call	0x93da	; 0x93da <do_menu_item>
    a744:	0f 90       	pop	r0
    a746:	0f 90       	pop	r0
    a748:	80 91 ff 08 	lds	r24, 0x08FF
    a74c:	80 3e       	cpi	r24, 0xE0	; 224
    a74e:	09 f0       	breq	.+2      	; 0xa752 <menu_mixer+0x15a>
    a750:	8c cf       	rjmp	.-232    	; 0xa66a <menu_mixer+0x72>
    a752:	0e 94 87 56 	call	0xad0e	; 0xad0e <UpdateLimits>
    a756:	0e 94 4e 26 	call	0x4c9c	; 0x4c9c <Save_Config_to_EEPROM>
    a75a:	0e 94 ef 52 	call	0xa5de	; 0xa5de <Wait_BUTTON4>
    a75e:	85 cf       	rjmp	.-246    	; 0xa66a <menu_mixer+0x72>
    a760:	0f 90       	pop	r0
    a762:	0f 90       	pop	r0
    a764:	0f 90       	pop	r0
    a766:	0f 90       	pop	r0
    a768:	0f 90       	pop	r0
    a76a:	df 91       	pop	r29
    a76c:	cf 91       	pop	r28
    a76e:	1f 91       	pop	r17
    a770:	0f 91       	pop	r16
    a772:	ff 90       	pop	r15
    a774:	ef 90       	pop	r14
    a776:	df 90       	pop	r13
    a778:	cf 90       	pop	r12
    a77a:	bf 90       	pop	r11
    a77c:	af 90       	pop	r10
    a77e:	8f 90       	pop	r8
    a780:	7f 90       	pop	r7
    a782:	6f 90       	pop	r6
    a784:	5f 90       	pop	r5
    a786:	4f 90       	pop	r4
    a788:	08 95       	ret

0000a78a <menu_offsets>:
    a78a:	af 92       	push	r10
    a78c:	bf 92       	push	r11
    a78e:	cf 92       	push	r12
    a790:	df 92       	push	r13
    a792:	ef 92       	push	r14
    a794:	ff 92       	push	r15
    a796:	0f 93       	push	r16
    a798:	1f 93       	push	r17
    a79a:	cf 93       	push	r28
    a79c:	80 91 08 05 	lds	r24, 0x0508
    a7a0:	88 23       	and	r24, r24
    a7a2:	41 f0       	breq	.+16     	; 0xa7b4 <menu_offsets+0x2a>
    a7a4:	86 ee       	ldi	r24, 0xE6	; 230
    a7a6:	90 e0       	ldi	r25, 0x00	; 0
    a7a8:	90 93 4f 05 	sts	0x054F, r25
    a7ac:	80 93 4e 05 	sts	0x054E, r24
    a7b0:	10 92 08 05 	sts	0x0508, r1
    a7b4:	c0 ef       	ldi	r28, 0xF0	; 240
    a7b6:	80 91 ff 08 	lds	r24, 0x08FF
    a7ba:	80 37       	cpi	r24, 0x70	; 112
    a7bc:	09 f4       	brne	.+2      	; 0xa7c0 <menu_offsets+0x36>
    a7be:	4b c0       	rjmp	.+150    	; 0xa856 <menu_offsets+0xcc>
    a7c0:	a0 90 04 05 	lds	r10, 0x0504
    a7c4:	b0 90 05 05 	lds	r11, 0x0505
    a7c8:	8c e6       	ldi	r24, 0x6C	; 108
    a7ca:	c8 2e       	mov	r12, r24
    a7cc:	89 e2       	ldi	r24, 0x29	; 41
    a7ce:	d8 2e       	mov	r13, r24
    a7d0:	9c e5       	ldi	r25, 0x5C	; 92
    a7d2:	e9 2e       	mov	r14, r25
    a7d4:	99 e2       	ldi	r25, 0x29	; 41
    a7d6:	f9 2e       	mov	r15, r25
    a7d8:	00 e0       	ldi	r16, 0x00	; 0
    a7da:	2c e1       	ldi	r18, 0x1C	; 28
    a7dc:	38 e2       	ldi	r19, 0x28	; 40
    a7de:	4c e7       	ldi	r20, 0x7C	; 124
    a7e0:	58 e0       	ldi	r21, 0x08	; 8
    a7e2:	66 ee       	ldi	r22, 0xE6	; 230
    a7e4:	70 e0       	ldi	r23, 0x00	; 0
    a7e6:	80 91 4e 05 	lds	r24, 0x054E
    a7ea:	90 91 4f 05 	lds	r25, 0x054F
    a7ee:	0e 94 a9 50 	call	0xa152	; 0xa152 <print_menu_items>
    a7f2:	29 e4       	ldi	r18, 0x49	; 73
    a7f4:	c2 2e       	mov	r12, r18
    a7f6:	25 e0       	ldi	r18, 0x05	; 5
    a7f8:	d2 2e       	mov	r13, r18
    a7fa:	3e e4       	ldi	r19, 0x4E	; 78
    a7fc:	e3 2e       	mov	r14, r19
    a7fe:	35 e0       	ldi	r19, 0x05	; 5
    a800:	f3 2e       	mov	r15, r19
    a802:	04 e0       	ldi	r16, 0x04	; 4
    a804:	15 e0       	ldi	r17, 0x05	; 5
    a806:	20 91 ff 08 	lds	r18, 0x08FF
    a80a:	40 e0       	ldi	r20, 0x00	; 0
    a80c:	50 e0       	ldi	r21, 0x00	; 0
    a80e:	66 ee       	ldi	r22, 0xE6	; 230
    a810:	70 e0       	ldi	r23, 0x00	; 0
    a812:	88 e0       	ldi	r24, 0x08	; 8
    a814:	90 e0       	ldi	r25, 0x00	; 0
    a816:	0e 94 d8 4f 	call	0x9fb0	; 0x9fb0 <update_menu>
    a81a:	80 91 ff 08 	lds	r24, 0x08FF
    a81e:	80 3e       	cpi	r24, 0xE0	; 224
    a820:	31 f4       	brne	.+12     	; 0xa82e <menu_offsets+0xa4>
    a822:	80 91 49 05 	lds	r24, 0x0549
    a826:	65 e0       	ldi	r22, 0x05	; 5
    a828:	86 5e       	subi	r24, 0xE6	; 230
    a82a:	0e 94 d6 4b 	call	0x97ac	; 0x97ac <edit_curve_item>
    a82e:	80 91 ff 08 	lds	r24, 0x08FF
    a832:	80 3a       	cpi	r24, 0xA0	; 160
    a834:	21 f4       	brne	.+8      	; 0xa83e <menu_offsets+0xb4>
    a836:	0e 94 59 52 	call	0xa4b2	; 0xa4b2 <Wait_BUTTON1>
    a83a:	c0 93 ff 08 	sts	0x08FF, r28
    a83e:	80 91 ff 08 	lds	r24, 0x08FF
    a842:	80 3e       	cpi	r24, 0xE0	; 224
    a844:	09 f0       	breq	.+2      	; 0xa848 <menu_offsets+0xbe>
    a846:	b7 cf       	rjmp	.-146    	; 0xa7b6 <menu_offsets+0x2c>
    a848:	0e 94 4e 26 	call	0x4c9c	; 0x4c9c <Save_Config_to_EEPROM>
    a84c:	0e 94 ef 52 	call	0xa5de	; 0xa5de <Wait_BUTTON4>
    a850:	0e 94 59 52 	call	0xa4b2	; 0xa4b2 <Wait_BUTTON1>
    a854:	b0 cf       	rjmp	.-160    	; 0xa7b6 <menu_offsets+0x2c>
    a856:	cf 91       	pop	r28
    a858:	1f 91       	pop	r17
    a85a:	0f 91       	pop	r16
    a85c:	ff 90       	pop	r15
    a85e:	ef 90       	pop	r14
    a860:	df 90       	pop	r13
    a862:	cf 90       	pop	r12
    a864:	bf 90       	pop	r11
    a866:	af 90       	pop	r10
    a868:	08 95       	ret

0000a86a <menu_servo_setup>:
    a86a:	2f 92       	push	r2
    a86c:	3f 92       	push	r3
    a86e:	4f 92       	push	r4
    a870:	5f 92       	push	r5
    a872:	6f 92       	push	r6
    a874:	7f 92       	push	r7
    a876:	8f 92       	push	r8
    a878:	9f 92       	push	r9
    a87a:	af 92       	push	r10
    a87c:	bf 92       	push	r11
    a87e:	cf 92       	push	r12
    a880:	df 92       	push	r13
    a882:	ef 92       	push	r14
    a884:	ff 92       	push	r15
    a886:	0f 93       	push	r16
    a888:	1f 93       	push	r17
    a88a:	cf 93       	push	r28
    a88c:	df 93       	push	r29
    a88e:	cd b7       	in	r28, 0x3d	; 61
    a890:	de b7       	in	r29, 0x3e	; 62
    a892:	2a 97       	sbiw	r28, 0x0a	; 10
    a894:	0f b6       	in	r0, 0x3f	; 63
    a896:	f8 94       	cli
    a898:	de bf       	out	0x3e, r29	; 62
    a89a:	0f be       	out	0x3f, r0	; 63
    a89c:	cd bf       	out	0x3d, r28	; 61
    a89e:	98 2e       	mov	r9, r24
    a8a0:	80 91 08 05 	lds	r24, 0x0508
    a8a4:	88 23       	and	r24, r24
    a8a6:	41 f0       	breq	.+16     	; 0xa8b8 <menu_servo_setup+0x4e>
    a8a8:	86 ee       	ldi	r24, 0xE6	; 230
    a8aa:	90 e0       	ldi	r25, 0x00	; 0
    a8ac:	90 93 4f 05 	sts	0x054F, r25
    a8b0:	80 93 4e 05 	sts	0x054E, r24
    a8b4:	10 92 08 05 	sts	0x0508, r1
    a8b8:	1e 82       	std	Y+6, r1	; 0x06
    a8ba:	74 ed       	ldi	r23, 0xD4	; 212
    a8bc:	67 2e       	mov	r6, r23
    a8be:	77 e0       	ldi	r23, 0x07	; 7
    a8c0:	77 2e       	mov	r7, r23
    a8c2:	29 2c       	mov	r2, r9
    a8c4:	31 2c       	mov	r3, r1
    a8c6:	21 e0       	ldi	r18, 0x01	; 1
    a8c8:	22 1a       	sub	r2, r18
    a8ca:	31 08       	sbc	r3, r1
    a8cc:	25 e0       	ldi	r18, 0x05	; 5
    a8ce:	22 9d       	mul	r18, r2
    a8d0:	c0 01       	movw	r24, r0
    a8d2:	23 9d       	mul	r18, r3
    a8d4:	90 0d       	add	r25, r0
    a8d6:	11 24       	eor	r1, r1
    a8d8:	fc 01       	movw	r30, r24
    a8da:	e4 58       	subi	r30, 0x84	; 132
    a8dc:	f6 4d       	sbci	r31, 0xD6	; 214
    a8de:	2f 01       	movw	r4, r30
    a8e0:	c1 01       	movw	r24, r2
    a8e2:	e4 e0       	ldi	r30, 0x04	; 4
    a8e4:	88 0f       	add	r24, r24
    a8e6:	99 1f       	adc	r25, r25
    a8e8:	ea 95       	dec	r30
    a8ea:	e1 f7       	brne	.-8      	; 0xa8e4 <menu_servo_setup+0x7a>
    a8ec:	9c 01       	movw	r18, r24
    a8ee:	25 54       	subi	r18, 0x45	; 69
    a8f0:	36 4d       	sbci	r19, 0xD6	; 214
    a8f2:	38 87       	std	Y+8, r19	; 0x08
    a8f4:	2f 83       	std	Y+7, r18	; 0x07
    a8f6:	fc 01       	movw	r30, r24
    a8f8:	e5 57       	subi	r30, 0x75	; 117
    a8fa:	f6 4d       	sbci	r31, 0xD6	; 214
    a8fc:	fa 87       	std	Y+10, r31	; 0x0a
    a8fe:	e9 87       	std	Y+9, r30	; 0x09
    a900:	f3 e0       	ldi	r31, 0x03	; 3
    a902:	22 0c       	add	r2, r2
    a904:	33 1c       	adc	r3, r3
    a906:	fa 95       	dec	r31
    a908:	e1 f7       	brne	.-8      	; 0xa902 <menu_servo_setup+0x98>
    a90a:	80 91 ff 08 	lds	r24, 0x08FF
    a90e:	80 37       	cpi	r24, 0x70	; 112
    a910:	09 f4       	brne	.+2      	; 0xa914 <menu_servo_setup+0xaa>
    a912:	8f c0       	rjmp	.+286    	; 0xaa32 <menu_servo_setup+0x1c8>
    a914:	c3 01       	movw	r24, r6
    a916:	28 e0       	ldi	r18, 0x08	; 8
    a918:	81 2c       	mov	r8, r1
    a91a:	f2 e0       	ldi	r31, 0x02	; 2
    a91c:	9f 16       	cp	r9, r31
    a91e:	51 f0       	breq	.+20     	; 0xa934 <menu_servo_setup+0xca>
    a920:	33 e0       	ldi	r19, 0x03	; 3
    a922:	93 12       	cpse	r9, r19
    a924:	0d c0       	rjmp	.+26     	; 0xa940 <menu_servo_setup+0xd6>
    a926:	41 e0       	ldi	r20, 0x01	; 1
    a928:	4e 83       	std	Y+6, r20	; 0x06
    a92a:	88 24       	eor	r8, r8
    a92c:	83 94       	inc	r8
    a92e:	84 ee       	ldi	r24, 0xE4	; 228
    a930:	97 e0       	ldi	r25, 0x07	; 7
    a932:	06 c0       	rjmp	.+12     	; 0xa940 <menu_servo_setup+0xd6>
    a934:	81 e0       	ldi	r24, 0x01	; 1
    a936:	8e 83       	std	Y+6, r24	; 0x06
    a938:	88 24       	eor	r8, r8
    a93a:	83 94       	inc	r8
    a93c:	8c ed       	ldi	r24, 0xDC	; 220
    a93e:	97 e0       	ldi	r25, 0x07	; 7
    a940:	21 50       	subi	r18, 0x01	; 1
    a942:	59 f7       	brne	.-42     	; 0xa91a <menu_servo_setup+0xb0>
    a944:	3c 01       	movw	r6, r24
    a946:	a0 90 04 05 	lds	r10, 0x0504
    a94a:	b0 90 05 05 	lds	r11, 0x0505
    a94e:	cf 80       	ldd	r12, Y+7	; 0x07
    a950:	d8 84       	ldd	r13, Y+8	; 0x08
    a952:	e9 84       	ldd	r14, Y+9	; 0x09
    a954:	fa 84       	ldd	r15, Y+10	; 0x0a
    a956:	01 e0       	ldi	r16, 0x01	; 1
    a958:	92 01       	movw	r18, r4
    a95a:	ac 01       	movw	r20, r24
    a95c:	66 ee       	ldi	r22, 0xE6	; 230
    a95e:	70 e0       	ldi	r23, 0x00	; 0
    a960:	80 91 4e 05 	lds	r24, 0x054E
    a964:	90 91 4f 05 	lds	r25, 0x054F
    a968:	0e 94 a9 50 	call	0xa152	; 0xa152 <print_menu_items>
    a96c:	59 e4       	ldi	r21, 0x49	; 73
    a96e:	c5 2e       	mov	r12, r21
    a970:	55 e0       	ldi	r21, 0x05	; 5
    a972:	d5 2e       	mov	r13, r21
    a974:	6e e4       	ldi	r22, 0x4E	; 78
    a976:	e6 2e       	mov	r14, r22
    a978:	65 e0       	ldi	r22, 0x05	; 5
    a97a:	f6 2e       	mov	r15, r22
    a97c:	04 e0       	ldi	r16, 0x04	; 4
    a97e:	15 e0       	ldi	r17, 0x05	; 5
    a980:	20 91 ff 08 	lds	r18, 0x08FF
    a984:	40 e0       	ldi	r20, 0x00	; 0
    a986:	50 e0       	ldi	r21, 0x00	; 0
    a988:	66 ee       	ldi	r22, 0xE6	; 230
    a98a:	70 e0       	ldi	r23, 0x00	; 0
    a98c:	88 e0       	ldi	r24, 0x08	; 8
    a98e:	90 e0       	ldi	r25, 0x00	; 0
    a990:	0e 94 d8 4f 	call	0x9fb0	; 0x9fb0 <update_menu>
    a994:	60 e0       	ldi	r22, 0x00	; 0
    a996:	c2 01       	movw	r24, r4
    a998:	0e 94 5f 49 	call	0x92be	; 0x92be <get_menu_range>
    a99c:	29 83       	std	Y+1, r18	; 0x01
    a99e:	3a 83       	std	Y+2, r19	; 0x02
    a9a0:	4b 83       	std	Y+3, r20	; 0x03
    a9a2:	5c 83       	std	Y+4, r21	; 0x04
    a9a4:	6d 83       	std	Y+5, r22	; 0x05
    a9a6:	80 91 ff 08 	lds	r24, 0x08FF
    a9aa:	80 3e       	cpi	r24, 0xE0	; 224
    a9ac:	b1 f5       	brne	.+108    	; 0xaa1a <menu_servo_setup+0x1b0>
    a9ae:	80 91 49 05 	lds	r24, 0x0549
    a9b2:	90 91 4a 05 	lds	r25, 0x054A
    a9b6:	9c 01       	movw	r18, r24
    a9b8:	26 5e       	subi	r18, 0xE6	; 230
    a9ba:	31 09       	sbc	r19, r1
    a9bc:	f9 01       	movw	r30, r18
    a9be:	e2 0d       	add	r30, r2
    a9c0:	f3 1d       	adc	r31, r3
    a9c2:	ee 0f       	add	r30, r30
    a9c4:	ff 1f       	adc	r31, r31
    a9c6:	e5 54       	subi	r30, 0x45	; 69
    a9c8:	f6 4d       	sbci	r31, 0xD6	; 214
    a9ca:	a5 90       	lpm	r10, Z+
    a9cc:	b4 90       	lpm	r11, Z
    a9ce:	b3 01       	movw	r22, r6
    a9d0:	62 0f       	add	r22, r18
    a9d2:	73 1f       	adc	r23, r19
    a9d4:	ee 81       	ldd	r30, Y+6	; 0x06
    a9d6:	ee 23       	and	r30, r30
    a9d8:	11 f0       	breq	.+4      	; 0xa9de <menu_servo_setup+0x174>
    a9da:	fb 01       	movw	r30, r22
    a9dc:	10 82       	st	Z, r1
    a9de:	42 e2       	ldi	r20, 0x22	; 34
    a9e0:	42 9f       	mul	r20, r18
    a9e2:	f0 01       	movw	r30, r0
    a9e4:	43 9f       	mul	r20, r19
    a9e6:	f0 0d       	add	r31, r0
    a9e8:	11 24       	eor	r1, r1
    a9ea:	e2 52       	subi	r30, 0x22	; 34
    a9ec:	f9 4f       	sbci	r31, 0xF9	; 249
    a9ee:	40 81       	ld	r20, Z
    a9f0:	41 11       	cpse	r20, r1
    a9f2:	05 c0       	rjmp	.+10     	; 0xa9fe <menu_servo_setup+0x194>
    a9f4:	40 91 42 06 	lds	r20, 0x0642
    a9f8:	41 11       	cpse	r20, r1
    a9fa:	01 c0       	rjmp	.+2      	; 0xa9fe <menu_servo_setup+0x194>
    a9fc:	81 2c       	mov	r8, r1
    a9fe:	bb 24       	eor	r11, r11
    aa00:	3f 93       	push	r19
    aa02:	2f 93       	push	r18
    aa04:	c1 2c       	mov	r12, r1
    aa06:	e9 80       	ldd	r14, Y+1	; 0x01
    aa08:	fa 80       	ldd	r15, Y+2	; 0x02
    aa0a:	0b 81       	ldd	r16, Y+3	; 0x03
    aa0c:	1c 81       	ldd	r17, Y+4	; 0x04
    aa0e:	2d 81       	ldd	r18, Y+5	; 0x05
    aa10:	41 e0       	ldi	r20, 0x01	; 1
    aa12:	0e 94 ed 49 	call	0x93da	; 0x93da <do_menu_item>
    aa16:	0f 90       	pop	r0
    aa18:	0f 90       	pop	r0
    aa1a:	80 91 ff 08 	lds	r24, 0x08FF
    aa1e:	80 3e       	cpi	r24, 0xE0	; 224
    aa20:	09 f0       	breq	.+2      	; 0xaa24 <menu_servo_setup+0x1ba>
    aa22:	73 cf       	rjmp	.-282    	; 0xa90a <menu_servo_setup+0xa0>
    aa24:	0e 94 87 56 	call	0xad0e	; 0xad0e <UpdateLimits>
    aa28:	0e 94 4e 26 	call	0x4c9c	; 0x4c9c <Save_Config_to_EEPROM>
    aa2c:	0e 94 ef 52 	call	0xa5de	; 0xa5de <Wait_BUTTON4>
    aa30:	6c cf       	rjmp	.-296    	; 0xa90a <menu_servo_setup+0xa0>
    aa32:	2a 96       	adiw	r28, 0x0a	; 10
    aa34:	0f b6       	in	r0, 0x3f	; 63
    aa36:	f8 94       	cli
    aa38:	de bf       	out	0x3e, r29	; 62
    aa3a:	0f be       	out	0x3f, r0	; 63
    aa3c:	cd bf       	out	0x3d, r28	; 61
    aa3e:	df 91       	pop	r29
    aa40:	cf 91       	pop	r28
    aa42:	1f 91       	pop	r17
    aa44:	0f 91       	pop	r16
    aa46:	ff 90       	pop	r15
    aa48:	ef 90       	pop	r14
    aa4a:	df 90       	pop	r13
    aa4c:	cf 90       	pop	r12
    aa4e:	bf 90       	pop	r11
    aa50:	af 90       	pop	r10
    aa52:	9f 90       	pop	r9
    aa54:	8f 90       	pop	r8
    aa56:	7f 90       	pop	r7
    aa58:	6f 90       	pop	r6
    aa5a:	5f 90       	pop	r5
    aa5c:	4f 90       	pop	r4
    aa5e:	3f 90       	pop	r3
    aa60:	2f 90       	pop	r2
    aa62:	08 95       	ret

0000aa64 <menu_rc_setup>:
    aa64:	2f 92       	push	r2
    aa66:	3f 92       	push	r3
    aa68:	4f 92       	push	r4
    aa6a:	5f 92       	push	r5
    aa6c:	6f 92       	push	r6
    aa6e:	7f 92       	push	r7
    aa70:	8f 92       	push	r8
    aa72:	9f 92       	push	r9
    aa74:	af 92       	push	r10
    aa76:	bf 92       	push	r11
    aa78:	cf 92       	push	r12
    aa7a:	df 92       	push	r13
    aa7c:	ef 92       	push	r14
    aa7e:	ff 92       	push	r15
    aa80:	0f 93       	push	r16
    aa82:	1f 93       	push	r17
    aa84:	cf 93       	push	r28
    aa86:	df 93       	push	r29
    aa88:	cd b7       	in	r28, 0x3d	; 61
    aa8a:	de b7       	in	r29, 0x3e	; 62
    aa8c:	2b 97       	sbiw	r28, 0x0b	; 11
    aa8e:	0f b6       	in	r0, 0x3f	; 63
    aa90:	f8 94       	cli
    aa92:	de bf       	out	0x3e, r29	; 62
    aa94:	0f be       	out	0x3f, r0	; 63
    aa96:	cd bf       	out	0x3d, r28	; 61
    aa98:	98 2e       	mov	r9, r24
    aa9a:	80 91 08 05 	lds	r24, 0x0508
    aa9e:	88 23       	and	r24, r24
    aaa0:	41 f0       	breq	.+16     	; 0xaab2 <menu_rc_setup+0x4e>
    aaa2:	82 e9       	ldi	r24, 0x92	; 146
    aaa4:	90 e0       	ldi	r25, 0x00	; 0
    aaa6:	90 93 4f 05 	sts	0x054F, r25
    aaaa:	80 93 4e 05 	sts	0x054E, r24
    aaae:	10 92 08 05 	sts	0x0508, r1
    aab2:	61 2c       	mov	r6, r1
    aab4:	71 2c       	mov	r7, r1
    aab6:	72 e4       	ldi	r23, 0x42	; 66
    aab8:	47 2e       	mov	r4, r23
    aaba:	76 e0       	ldi	r23, 0x06	; 6
    aabc:	57 2e       	mov	r5, r23
    aabe:	89 2d       	mov	r24, r9
    aac0:	90 e0       	ldi	r25, 0x00	; 0
    aac2:	01 97       	sbiw	r24, 0x01	; 1
    aac4:	4c e3       	ldi	r20, 0x3C	; 60
    aac6:	48 9f       	mul	r20, r24
    aac8:	90 01       	movw	r18, r0
    aaca:	49 9f       	mul	r20, r25
    aacc:	30 0d       	add	r19, r0
    aace:	11 24       	eor	r1, r1
    aad0:	a9 01       	movw	r20, r18
    aad2:	4d 5f       	subi	r20, 0xFD	; 253
    aad4:	55 4d       	sbci	r21, 0xD5	; 213
    aad6:	1a 01       	movw	r2, r20
    aad8:	48 e1       	ldi	r20, 0x18	; 24
    aada:	48 9f       	mul	r20, r24
    aadc:	90 01       	movw	r18, r0
    aade:	49 9f       	mul	r20, r25
    aae0:	30 0d       	add	r19, r0
    aae2:	11 24       	eor	r1, r1
    aae4:	a9 01       	movw	r20, r18
    aae6:	45 55       	subi	r20, 0x55	; 85
    aae8:	55 4d       	sbci	r21, 0xD5	; 213
    aaea:	5f 83       	std	Y+7, r21	; 0x07
    aaec:	4e 83       	std	Y+6, r20	; 0x06
    aaee:	a9 01       	movw	r20, r18
    aaf0:	45 58       	subi	r20, 0x85	; 133
    aaf2:	55 4d       	sbci	r21, 0xD5	; 213
    aaf4:	59 87       	std	Y+9, r21	; 0x09
    aaf6:	48 87       	std	Y+8, r20	; 0x08
    aaf8:	2c e0       	ldi	r18, 0x0C	; 12
    aafa:	28 9f       	mul	r18, r24
    aafc:	a0 01       	movw	r20, r0
    aafe:	29 9f       	mul	r18, r25
    ab00:	50 0d       	add	r21, r0
    ab02:	11 24       	eor	r1, r1
    ab04:	5b 87       	std	Y+11, r21	; 0x0b
    ab06:	4a 87       	std	Y+10, r20	; 0x0a
    ab08:	80 91 ff 08 	lds	r24, 0x08FF
    ab0c:	80 37       	cpi	r24, 0x70	; 112
    ab0e:	09 f4       	brne	.+2      	; 0xab12 <menu_rc_setup+0xae>
    ab10:	e5 c0       	rjmp	.+458    	; 0xacdc <menu_rc_setup+0x278>
    ab12:	52 e0       	ldi	r21, 0x02	; 2
    ab14:	95 12       	cpse	r9, r21
    ab16:	07 c0       	rjmp	.+14     	; 0xab26 <menu_rc_setup+0xc2>
    ab18:	5c e0       	ldi	r21, 0x0C	; 12
    ab1a:	65 2e       	mov	r6, r21
    ab1c:	71 2c       	mov	r7, r1
    ab1e:	68 eb       	ldi	r22, 0xB8	; 184
    ab20:	46 2e       	mov	r4, r22
    ab22:	66 e0       	ldi	r22, 0x06	; 6
    ab24:	56 2e       	mov	r5, r22
    ab26:	84 e0       	ldi	r24, 0x04	; 4
    ab28:	80 93 c2 06 	sts	0x06C2, r24
    ab2c:	a0 90 04 05 	lds	r10, 0x0504
    ab30:	b0 90 05 05 	lds	r11, 0x0505
    ab34:	80 91 4e 05 	lds	r24, 0x054E
    ab38:	90 91 4f 05 	lds	r25, 0x054F
    ab3c:	ce 80       	ldd	r12, Y+6	; 0x06
    ab3e:	df 80       	ldd	r13, Y+7	; 0x07
    ab40:	e8 84       	ldd	r14, Y+8	; 0x08
    ab42:	f9 84       	ldd	r15, Y+9	; 0x09
    ab44:	00 e0       	ldi	r16, 0x00	; 0
    ab46:	91 01       	movw	r18, r2
    ab48:	a2 01       	movw	r20, r4
    ab4a:	b3 01       	movw	r22, r6
    ab4c:	6e 56       	subi	r22, 0x6E	; 110
    ab4e:	7f 4f       	sbci	r23, 0xFF	; 255
    ab50:	86 0d       	add	r24, r6
    ab52:	97 1d       	adc	r25, r7
    ab54:	0e 94 a9 50 	call	0xa152	; 0xa152 <print_menu_items>
    ab58:	39 e4       	ldi	r19, 0x49	; 73
    ab5a:	c3 2e       	mov	r12, r19
    ab5c:	35 e0       	ldi	r19, 0x05	; 5
    ab5e:	d3 2e       	mov	r13, r19
    ab60:	4e e4       	ldi	r20, 0x4E	; 78
    ab62:	e4 2e       	mov	r14, r20
    ab64:	45 e0       	ldi	r20, 0x05	; 5
    ab66:	f4 2e       	mov	r15, r20
    ab68:	04 e0       	ldi	r16, 0x04	; 4
    ab6a:	15 e0       	ldi	r17, 0x05	; 5
    ab6c:	20 91 ff 08 	lds	r18, 0x08FF
    ab70:	a3 01       	movw	r20, r6
    ab72:	62 e9       	ldi	r22, 0x92	; 146
    ab74:	70 e0       	ldi	r23, 0x00	; 0
    ab76:	8c e0       	ldi	r24, 0x0C	; 12
    ab78:	90 e0       	ldi	r25, 0x00	; 0
    ab7a:	0e 94 d8 4f 	call	0x9fb0	; 0x9fb0 <update_menu>
    ab7e:	60 91 49 05 	lds	r22, 0x0549
    ab82:	62 59       	subi	r22, 0x92	; 146
    ab84:	66 19       	sub	r22, r6
    ab86:	c1 01       	movw	r24, r2
    ab88:	0e 94 5f 49 	call	0x92be	; 0x92be <get_menu_range>
    ab8c:	29 83       	std	Y+1, r18	; 0x01
    ab8e:	3a 83       	std	Y+2, r19	; 0x02
    ab90:	4b 83       	std	Y+3, r20	; 0x03
    ab92:	5c 83       	std	Y+4, r21	; 0x04
    ab94:	6d 83       	std	Y+5, r22	; 0x05
    ab96:	80 91 49 05 	lds	r24, 0x0549
    ab9a:	90 91 4a 05 	lds	r25, 0x054A
    ab9e:	8b 3a       	cpi	r24, 0xAB	; 171
    aba0:	91 05       	cpc	r25, r1
    aba2:	11 f4       	brne	.+4      	; 0xaba8 <menu_rc_setup+0x144>
    aba4:	10 92 c2 06 	sts	0x06C2, r1
    aba8:	20 91 ff 08 	lds	r18, 0x08FF
    abac:	20 3e       	cpi	r18, 0xE0	; 224
    abae:	f9 f4       	brne	.+62     	; 0xabee <menu_rc_setup+0x18a>
    abb0:	bc 01       	movw	r22, r24
    abb2:	62 59       	subi	r22, 0x92	; 146
    abb4:	71 09       	sbc	r23, r1
    abb6:	66 19       	sub	r22, r6
    abb8:	77 09       	sbc	r23, r7
    abba:	ea 85       	ldd	r30, Y+10	; 0x0a
    abbc:	fb 85       	ldd	r31, Y+11	; 0x0b
    abbe:	e6 0f       	add	r30, r22
    abc0:	f7 1f       	adc	r31, r23
    abc2:	ee 0f       	add	r30, r30
    abc4:	ff 1f       	adc	r31, r31
    abc6:	e5 55       	subi	r30, 0x55	; 85
    abc8:	f5 4d       	sbci	r31, 0xD5	; 213
    abca:	a5 90       	lpm	r10, Z+
    abcc:	b4 90       	lpm	r11, Z
    abce:	64 0d       	add	r22, r4
    abd0:	75 1d       	adc	r23, r5
    abd2:	1f 92       	push	r1
    abd4:	1f 92       	push	r1
    abd6:	81 2c       	mov	r8, r1
    abd8:	c1 2c       	mov	r12, r1
    abda:	e9 80       	ldd	r14, Y+1	; 0x01
    abdc:	fa 80       	ldd	r15, Y+2	; 0x02
    abde:	0b 81       	ldd	r16, Y+3	; 0x03
    abe0:	1c 81       	ldd	r17, Y+4	; 0x04
    abe2:	2d 81       	ldd	r18, Y+5	; 0x05
    abe4:	41 e0       	ldi	r20, 0x01	; 1
    abe6:	0e 94 ed 49 	call	0x93da	; 0x93da <do_menu_item>
    abea:	0f 90       	pop	r0
    abec:	0f 90       	pop	r0
    abee:	80 91 ff 08 	lds	r24, 0x08FF
    abf2:	80 3a       	cpi	r24, 0xA0	; 160
    abf4:	41 f4       	brne	.+16     	; 0xac06 <menu_rc_setup+0x1a2>
    abf6:	0e 94 59 52 	call	0xa4b2	; 0xa4b2 <Wait_BUTTON1>
    abfa:	80 ef       	ldi	r24, 0xF0	; 240
    abfc:	80 93 ff 08 	sts	0x08FF, r24
    ac00:	84 e0       	ldi	r24, 0x04	; 4
    ac02:	80 93 c2 06 	sts	0x06C2, r24
    ac06:	80 91 ff 08 	lds	r24, 0x08FF
    ac0a:	80 3e       	cpi	r24, 0xE0	; 224
    ac0c:	09 f0       	breq	.+2      	; 0xac10 <menu_rc_setup+0x1ac>
    ac0e:	7c cf       	rjmp	.-264    	; 0xab08 <menu_rc_setup+0xa4>
    ac10:	0e 94 6d 47 	call	0x8eda	; 0x8eda <init_int>
    ac14:	0e 94 8f 6b 	call	0xd71e	; 0xd71e <init_uart>
    ac18:	0e 94 87 56 	call	0xad0e	; 0xad0e <UpdateLimits>
    ac1c:	80 91 c2 06 	lds	r24, 0x06C2
    ac20:	84 30       	cpi	r24, 0x04	; 4
    ac22:	49 f0       	breq	.+18     	; 0xac36 <menu_rc_setup+0x1d2>
    ac24:	20 91 49 05 	lds	r18, 0x0549
    ac28:	30 91 4a 05 	lds	r19, 0x054A
    ac2c:	2b 3a       	cpi	r18, 0xAB	; 171
    ac2e:	31 05       	cpc	r19, r1
    ac30:	11 f4       	brne	.+4      	; 0xac36 <menu_rc_setup+0x1d2>
    ac32:	0e 94 d9 2a 	call	0x55b2	; 0x55b2 <Load_eeprom_preset>
    ac36:	80 91 be 06 	lds	r24, 0x06BE
    ac3a:	46 e0       	ldi	r20, 0x06	; 6
    ac3c:	48 1b       	sub	r20, r24
    ac3e:	6a e1       	ldi	r22, 0x1A	; 26
    ac40:	80 ed       	ldi	r24, 0xD0	; 208
    ac42:	0e 94 a4 3b 	call	0x7748	; 0x7748 <writeI2Cbyte>
    ac46:	20 91 45 06 	lds	r18, 0x0645
    ac4a:	aa e1       	ldi	r26, 0x1A	; 26
    ac4c:	b6 e0       	ldi	r27, 0x06	; 6
    ac4e:	80 e0       	ldi	r24, 0x00	; 0
    ac50:	90 e0       	ldi	r25, 0x00	; 0
    ac52:	21 30       	cpi	r18, 0x01	; 1
    ac54:	21 f4       	brne	.+8      	; 0xac5e <menu_rc_setup+0x1fa>
    ac56:	fc 01       	movw	r30, r24
    ac58:	ea 52       	subi	r30, 0x2A	; 42
    ac5a:	fe 4f       	sbci	r31, 0xFE	; 254
    ac5c:	05 c0       	rjmp	.+10     	; 0xac68 <menu_rc_setup+0x204>
    ac5e:	21 11       	cpse	r18, r1
    ac60:	06 c0       	rjmp	.+12     	; 0xac6e <menu_rc_setup+0x20a>
    ac62:	fc 01       	movw	r30, r24
    ac64:	e2 52       	subi	r30, 0x22	; 34
    ac66:	fe 4f       	sbci	r31, 0xFE	; 254
    ac68:	e4 91       	lpm	r30, Z
    ac6a:	ec 93       	st	X, r30
    ac6c:	0b c0       	rjmp	.+22     	; 0xac84 <menu_rc_setup+0x220>
    ac6e:	22 30       	cpi	r18, 0x02	; 2
    ac70:	21 f4       	brne	.+8      	; 0xac7a <menu_rc_setup+0x216>
    ac72:	fc 01       	movw	r30, r24
    ac74:	e2 53       	subi	r30, 0x32	; 50
    ac76:	fe 4f       	sbci	r31, 0xFE	; 254
    ac78:	f7 cf       	rjmp	.-18     	; 0xac68 <menu_rc_setup+0x204>
    ac7a:	fd 01       	movw	r30, r26
    ac7c:	e6 5a       	subi	r30, 0xA6	; 166
    ac7e:	fd 4f       	sbci	r31, 0xFD	; 253
    ac80:	30 81       	ld	r19, Z
    ac82:	3c 93       	st	X, r19
    ac84:	01 96       	adiw	r24, 0x01	; 1
    ac86:	11 96       	adiw	r26, 0x01	; 1
    ac88:	88 30       	cpi	r24, 0x08	; 8
    ac8a:	91 05       	cpc	r25, r1
    ac8c:	11 f7       	brne	.-60     	; 0xac52 <menu_rc_setup+0x1ee>
    ac8e:	80 91 42 06 	lds	r24, 0x0642
    ac92:	82 30       	cpi	r24, 0x02	; 2
    ac94:	3c f4       	brge	.+14     	; 0xaca4 <menu_rc_setup+0x240>
    ac96:	80 91 43 06 	lds	r24, 0x0643
    ac9a:	82 30       	cpi	r24, 0x02	; 2
    ac9c:	19 f4       	brne	.+6      	; 0xaca4 <menu_rc_setup+0x240>
    ac9e:	81 e0       	ldi	r24, 0x01	; 1
    aca0:	80 93 43 06 	sts	0x0643, r24
    aca4:	80 91 bb 06 	lds	r24, 0x06BB
    aca8:	81 30       	cpi	r24, 0x01	; 1
    acaa:	31 f4       	brne	.+12     	; 0xacb8 <menu_rc_setup+0x254>
    acac:	80 91 35 05 	lds	r24, 0x0535
    acb0:	84 60       	ori	r24, 0x04	; 4
    acb2:	80 93 35 05 	sts	0x0535, r24
    acb6:	2b 98       	cbi	0x05, 3	; 5
    acb8:	e0 91 b8 06 	lds	r30, 0x06B8
    acbc:	0e 2e       	mov	r0, r30
    acbe:	00 0c       	add	r0, r0
    acc0:	ff 0b       	sbc	r31, r31
    acc2:	e5 51       	subi	r30, 0x15	; 21
    acc4:	f6 4d       	sbci	r31, 0xD6	; 214
    acc6:	e4 91       	lpm	r30, Z
    acc8:	e0 93 43 08 	sts	0x0843, r30
    accc:	84 e0       	ldi	r24, 0x04	; 4
    acce:	80 93 c2 06 	sts	0x06C2, r24
    acd2:	0e 94 4e 26 	call	0x4c9c	; 0x4c9c <Save_Config_to_EEPROM>
    acd6:	0e 94 ef 52 	call	0xa5de	; 0xa5de <Wait_BUTTON4>
    acda:	16 cf       	rjmp	.-468    	; 0xab08 <menu_rc_setup+0xa4>
    acdc:	2b 96       	adiw	r28, 0x0b	; 11
    acde:	0f b6       	in	r0, 0x3f	; 63
    ace0:	f8 94       	cli
    ace2:	de bf       	out	0x3e, r29	; 62
    ace4:	0f be       	out	0x3f, r0	; 63
    ace6:	cd bf       	out	0x3d, r28	; 61
    ace8:	df 91       	pop	r29
    acea:	cf 91       	pop	r28
    acec:	1f 91       	pop	r17
    acee:	0f 91       	pop	r16
    acf0:	ff 90       	pop	r15
    acf2:	ef 90       	pop	r14
    acf4:	df 90       	pop	r13
    acf6:	cf 90       	pop	r12
    acf8:	bf 90       	pop	r11
    acfa:	af 90       	pop	r10
    acfc:	9f 90       	pop	r9
    acfe:	8f 90       	pop	r8
    ad00:	7f 90       	pop	r7
    ad02:	6f 90       	pop	r6
    ad04:	5f 90       	pop	r5
    ad06:	4f 90       	pop	r4
    ad08:	3f 90       	pop	r3
    ad0a:	2f 90       	pop	r2
    ad0c:	08 95       	ret

0000ad0e <UpdateLimits>:
    ad0e:	6f 92       	push	r6
    ad10:	7f 92       	push	r7
    ad12:	8f 92       	push	r8
    ad14:	9f 92       	push	r9
    ad16:	af 92       	push	r10
    ad18:	bf 92       	push	r11
    ad1a:	cf 92       	push	r12
    ad1c:	df 92       	push	r13
    ad1e:	ef 92       	push	r14
    ad20:	ff 92       	push	r15
    ad22:	0f 93       	push	r16
    ad24:	1f 93       	push	r17
    ad26:	cf 93       	push	r28
    ad28:	df 93       	push	r29
    ad2a:	cd b7       	in	r28, 0x3d	; 61
    ad2c:	de b7       	in	r29, 0x3e	; 62
    ad2e:	60 97       	sbiw	r28, 0x10	; 16
    ad30:	0f b6       	in	r0, 0x3f	; 63
    ad32:	f8 94       	cli
    ad34:	de bf       	out	0x3e, r29	; 62
    ad36:	0f be       	out	0x3f, r0	; 63
    ad38:	cd bf       	out	0x3d, r28	; 61
    ad3a:	80 91 50 06 	lds	r24, 0x0650
    ad3e:	89 87       	std	Y+9, r24	; 0x09
    ad40:	80 91 56 06 	lds	r24, 0x0656
    ad44:	8a 87       	std	Y+10, r24	; 0x0a
    ad46:	80 91 5c 06 	lds	r24, 0x065C
    ad4a:	8b 87       	std	Y+11, r24	; 0x0b
    ad4c:	80 91 61 06 	lds	r24, 0x0661
    ad50:	8c 87       	std	Y+12, r24	; 0x0c
    ad52:	80 91 64 06 	lds	r24, 0x0664
    ad56:	8d 87       	std	Y+13, r24	; 0x0d
    ad58:	80 91 6a 06 	lds	r24, 0x066A
    ad5c:	8e 87       	std	Y+14, r24	; 0x0e
    ad5e:	80 91 70 06 	lds	r24, 0x0670
    ad62:	8f 87       	std	Y+15, r24	; 0x0f
    ad64:	80 91 75 06 	lds	r24, 0x0675
    ad68:	88 8b       	std	Y+16, r24	; 0x10
    ad6a:	80 91 4f 06 	lds	r24, 0x064F
    ad6e:	89 83       	std	Y+1, r24	; 0x01
    ad70:	80 91 55 06 	lds	r24, 0x0655
    ad74:	8a 83       	std	Y+2, r24	; 0x02
    ad76:	80 91 5b 06 	lds	r24, 0x065B
    ad7a:	8b 83       	std	Y+3, r24	; 0x03
    ad7c:	80 91 60 06 	lds	r24, 0x0660
    ad80:	8c 83       	std	Y+4, r24	; 0x04
    ad82:	80 91 63 06 	lds	r24, 0x0663
    ad86:	8d 83       	std	Y+5, r24	; 0x05
    ad88:	80 91 69 06 	lds	r24, 0x0669
    ad8c:	8e 83       	std	Y+6, r24	; 0x06
    ad8e:	80 91 6f 06 	lds	r24, 0x066F
    ad92:	8f 83       	std	Y+7, r24	; 0x07
    ad94:	80 91 74 06 	lds	r24, 0x0674
    ad98:	88 87       	std	Y+8, r24	; 0x08
    ad9a:	e0 91 bd 06 	lds	r30, 0x06BD
    ad9e:	8e 2f       	mov	r24, r30
    ada0:	ee 0f       	add	r30, r30
    ada2:	99 0b       	sbc	r25, r25
    ada4:	aa 0b       	sbc	r26, r26
    ada6:	bb 0b       	sbc	r27, r27
    ada8:	89 30       	cpi	r24, 0x09	; 9
    adaa:	91 05       	cpc	r25, r1
    adac:	08 f5       	brcc	.+66     	; 0xadf0 <UpdateLimits+0xe2>
    adae:	fc 01       	movw	r30, r24
    adb0:	ea 56       	subi	r30, 0x6A	; 106
    adb2:	ff 4f       	sbci	r31, 0xFF	; 255
    adb4:	0c 94 b0 6e 	jmp	0xdd60	; 0xdd60 <__tablejump2__>
    adb8:	80 e4       	ldi	r24, 0x40	; 64
    adba:	91 e0       	ldi	r25, 0x01	; 1
    adbc:	14 c0       	rjmp	.+40     	; 0xade6 <UpdateLimits+0xd8>
    adbe:	8a e4       	ldi	r24, 0x4A	; 74
    adc0:	91 e0       	ldi	r25, 0x01	; 1
    adc2:	11 c0       	rjmp	.+34     	; 0xade6 <UpdateLimits+0xd8>
    adc4:	84 e5       	ldi	r24, 0x54	; 84
    adc6:	91 e0       	ldi	r25, 0x01	; 1
    adc8:	0e c0       	rjmp	.+28     	; 0xade6 <UpdateLimits+0xd8>
    adca:	8e e5       	ldi	r24, 0x5E	; 94
    adcc:	91 e0       	ldi	r25, 0x01	; 1
    adce:	0b c0       	rjmp	.+22     	; 0xade6 <UpdateLimits+0xd8>
    add0:	88 e6       	ldi	r24, 0x68	; 104
    add2:	91 e0       	ldi	r25, 0x01	; 1
    add4:	08 c0       	rjmp	.+16     	; 0xade6 <UpdateLimits+0xd8>
    add6:	82 e7       	ldi	r24, 0x72	; 114
    add8:	91 e0       	ldi	r25, 0x01	; 1
    adda:	05 c0       	rjmp	.+10     	; 0xade6 <UpdateLimits+0xd8>
    addc:	8c e7       	ldi	r24, 0x7C	; 124
    adde:	91 e0       	ldi	r25, 0x01	; 1
    ade0:	02 c0       	rjmp	.+4      	; 0xade6 <UpdateLimits+0xd8>
    ade2:	86 e8       	ldi	r24, 0x86	; 134
    ade4:	91 e0       	ldi	r25, 0x01	; 1
    ade6:	90 93 b7 06 	sts	0x06B7, r25
    adea:	80 93 b6 06 	sts	0x06B6, r24
    adee:	04 c0       	rjmp	.+8      	; 0xadf8 <UpdateLimits+0xea>
    adf0:	10 92 b7 06 	sts	0x06B7, r1
    adf4:	10 92 b6 06 	sts	0x06B6, r1
    adf8:	20 91 46 05 	lds	r18, 0x0546
    adfc:	30 91 47 05 	lds	r19, 0x0547
    ae00:	80 91 b6 06 	lds	r24, 0x06B6
    ae04:	90 91 b7 06 	lds	r25, 0x06B7
    ae08:	26 36       	cpi	r18, 0x66	; 102
    ae0a:	48 e0       	ldi	r20, 0x08	; 8
    ae0c:	34 07       	cpc	r19, r20
    ae0e:	78 f0       	brcs	.+30     	; 0xae2e <UpdateLimits+0x120>
    ae10:	46 e0       	ldi	r20, 0x06	; 6
    ae12:	48 9f       	mul	r20, r24
    ae14:	90 01       	movw	r18, r0
    ae16:	49 9f       	mul	r20, r25
    ae18:	30 0d       	add	r19, r0
    ae1a:	11 24       	eor	r1, r1
    ae1c:	30 93 b7 06 	sts	0x06B7, r19
    ae20:	20 93 b6 06 	sts	0x06B6, r18
    ae24:	02 ea       	ldi	r16, 0xA2	; 162
    ae26:	16 e0       	ldi	r17, 0x06	; 6
    ae28:	e1 2c       	mov	r14, r1
    ae2a:	f1 2c       	mov	r15, r1
    ae2c:	25 c0       	rjmp	.+74     	; 0xae78 <UpdateLimits+0x16a>
    ae2e:	a9 01       	movw	r20, r18
    ae30:	42 5c       	subi	r20, 0xC2	; 194
    ae32:	56 40       	sbci	r21, 0x06	; 6
    ae34:	44 3a       	cpi	r20, 0xA4	; 164
    ae36:	51 40       	sbci	r21, 0x01	; 1
    ae38:	10 f4       	brcc	.+4      	; 0xae3e <UpdateLimits+0x130>
    ae3a:	45 e0       	ldi	r20, 0x05	; 5
    ae3c:	ea cf       	rjmp	.-44     	; 0xae12 <UpdateLimits+0x104>
    ae3e:	a9 01       	movw	r20, r18
    ae40:	44 51       	subi	r20, 0x14	; 20
    ae42:	55 40       	sbci	r21, 0x05	; 5
    ae44:	4e 3a       	cpi	r20, 0xAE	; 174
    ae46:	51 40       	sbci	r21, 0x01	; 1
    ae48:	28 f4       	brcc	.+10     	; 0xae54 <UpdateLimits+0x146>
    ae4a:	88 0f       	add	r24, r24
    ae4c:	99 1f       	adc	r25, r25
    ae4e:	88 0f       	add	r24, r24
    ae50:	99 1f       	adc	r25, r25
    ae52:	0d c0       	rjmp	.+26     	; 0xae6e <UpdateLimits+0x160>
    ae54:	24 58       	subi	r18, 0x84	; 132
    ae56:	33 40       	sbci	r19, 0x03	; 3
    ae58:	20 39       	cpi	r18, 0x90	; 144
    ae5a:	31 40       	sbci	r19, 0x01	; 1
    ae5c:	30 f4       	brcc	.+12     	; 0xae6a <UpdateLimits+0x15c>
    ae5e:	9c 01       	movw	r18, r24
    ae60:	22 0f       	add	r18, r18
    ae62:	33 1f       	adc	r19, r19
    ae64:	82 0f       	add	r24, r18
    ae66:	93 1f       	adc	r25, r19
    ae68:	02 c0       	rjmp	.+4      	; 0xae6e <UpdateLimits+0x160>
    ae6a:	88 0f       	add	r24, r24
    ae6c:	99 1f       	adc	r25, r25
    ae6e:	90 93 b7 06 	sts	0x06B7, r25
    ae72:	80 93 b6 06 	sts	0x06B6, r24
    ae76:	d6 cf       	rjmp	.-84     	; 0xae24 <UpdateLimits+0x116>
    ae78:	58 01       	movw	r10, r16
    ae7a:	fc e2       	ldi	r31, 0x2C	; 44
    ae7c:	af 1a       	sub	r10, r31
    ae7e:	b1 08       	sbc	r11, r1
    ae80:	c1 2c       	mov	r12, r1
    ae82:	d1 2c       	mov	r13, r1
    ae84:	89 e0       	ldi	r24, 0x09	; 9
    ae86:	88 2e       	mov	r8, r24
    ae88:	91 2c       	mov	r9, r1
    ae8a:	8c 0e       	add	r8, r28
    ae8c:	9d 1e       	adc	r9, r29
    ae8e:	8e 0c       	add	r8, r14
    ae90:	9f 1c       	adc	r9, r15
    ae92:	66 24       	eor	r6, r6
    ae94:	63 94       	inc	r6
    ae96:	71 2c       	mov	r7, r1
    ae98:	6c 0e       	add	r6, r28
    ae9a:	7d 1e       	adc	r7, r29
    ae9c:	6e 0c       	add	r6, r14
    ae9e:	7f 1c       	adc	r7, r15
    aea0:	f4 01       	movw	r30, r8
    aea2:	ec 0d       	add	r30, r12
    aea4:	fd 1d       	adc	r31, r13
    aea6:	a0 81       	ld	r26, Z
    aea8:	0a 2e       	mov	r0, r26
    aeaa:	00 0c       	add	r0, r0
    aeac:	bb 0b       	sbc	r27, r27
    aeae:	20 e8       	ldi	r18, 0x80	; 128
    aeb0:	32 e0       	ldi	r19, 0x02	; 2
    aeb2:	0e 94 cd 6e 	call	0xdd9a	; 0xdd9a <__usmulhisi3>
    aeb6:	f5 01       	movw	r30, r10
    aeb8:	61 93       	st	Z+, r22
    aeba:	71 93       	st	Z+, r23
    aebc:	81 93       	st	Z+, r24
    aebe:	91 93       	st	Z+, r25
    aec0:	5f 01       	movw	r10, r30
    aec2:	f3 01       	movw	r30, r6
    aec4:	ec 0d       	add	r30, r12
    aec6:	fd 1d       	adc	r31, r13
    aec8:	20 81       	ld	r18, Z
    aeca:	22 23       	and	r18, r18
    aecc:	b1 f0       	breq	.+44     	; 0xaefa <UpdateLimits+0x1ec>
    aece:	45 e0       	ldi	r20, 0x05	; 5
    aed0:	66 0f       	add	r22, r22
    aed2:	77 1f       	adc	r23, r23
    aed4:	88 1f       	adc	r24, r24
    aed6:	99 1f       	adc	r25, r25
    aed8:	4a 95       	dec	r20
    aeda:	d1 f7       	brne	.-12     	; 0xaed0 <UpdateLimits+0x1c2>
    aedc:	02 2e       	mov	r0, r18
    aede:	00 0c       	add	r0, r0
    aee0:	33 0b       	sbc	r19, r19
    aee2:	44 0b       	sbc	r20, r20
    aee4:	55 0b       	sbc	r21, r21
    aee6:	0e 94 91 6e 	call	0xdd22	; 0xdd22 <__divmodsi4>
    aeea:	d5 01       	movw	r26, r10
    aeec:	5c 96       	adiw	r26, 0x1c	; 28
    aeee:	2d 93       	st	X+, r18
    aef0:	3d 93       	st	X+, r19
    aef2:	4d 93       	st	X+, r20
    aef4:	5c 93       	st	X, r21
    aef6:	5f 97       	sbiw	r26, 0x1f	; 31
    aef8:	05 c0       	rjmp	.+10     	; 0xaf04 <UpdateLimits+0x1f6>
    aefa:	f5 01       	movw	r30, r10
    aefc:	14 8e       	std	Z+28, r1	; 0x1c
    aefe:	15 8e       	std	Z+29, r1	; 0x1d
    af00:	16 8e       	std	Z+30, r1	; 0x1e
    af02:	17 8e       	std	Z+31, r1	; 0x1f
    af04:	ff ef       	ldi	r31, 0xFF	; 255
    af06:	cf 1a       	sub	r12, r31
    af08:	df 0a       	sbc	r13, r31
    af0a:	23 e0       	ldi	r18, 0x03	; 3
    af0c:	c2 16       	cp	r12, r18
    af0e:	d1 04       	cpc	r13, r1
    af10:	39 f6       	brne	.-114    	; 0xaea0 <UpdateLimits+0x192>
    af12:	f4 01       	movw	r30, r8
    af14:	a3 81       	ldd	r26, Z+3	; 0x03
    af16:	0a 2e       	mov	r0, r26
    af18:	00 0c       	add	r0, r0
    af1a:	bb 0b       	sbc	r27, r27
    af1c:	20 e8       	ldi	r18, 0x80	; 128
    af1e:	32 e0       	ldi	r19, 0x02	; 2
    af20:	0e 94 cd 6e 	call	0xdd9a	; 0xdd9a <__usmulhisi3>
    af24:	f8 01       	movw	r30, r16
    af26:	b0 97       	sbiw	r30, 0x20	; 32
    af28:	60 83       	st	Z, r22
    af2a:	71 83       	std	Z+1, r23	; 0x01
    af2c:	82 83       	std	Z+2, r24	; 0x02
    af2e:	93 83       	std	Z+3, r25	; 0x03
    af30:	d3 01       	movw	r26, r6
    af32:	13 96       	adiw	r26, 0x03	; 3
    af34:	2c 91       	ld	r18, X
    af36:	22 23       	and	r18, r18
    af38:	a1 f0       	breq	.+40     	; 0xaf62 <UpdateLimits+0x254>
    af3a:	32 e0       	ldi	r19, 0x02	; 2
    af3c:	66 0f       	add	r22, r22
    af3e:	77 1f       	adc	r23, r23
    af40:	88 1f       	adc	r24, r24
    af42:	99 1f       	adc	r25, r25
    af44:	3a 95       	dec	r19
    af46:	d1 f7       	brne	.-12     	; 0xaf3c <UpdateLimits+0x22e>
    af48:	02 2e       	mov	r0, r18
    af4a:	00 0c       	add	r0, r0
    af4c:	33 0b       	sbc	r19, r19
    af4e:	44 0b       	sbc	r20, r20
    af50:	55 0b       	sbc	r21, r21
    af52:	0e 94 91 6e 	call	0xdd22	; 0xdd22 <__divmodsi4>
    af56:	f8 01       	movw	r30, r16
    af58:	20 83       	st	Z, r18
    af5a:	31 83       	std	Z+1, r19	; 0x01
    af5c:	42 83       	std	Z+2, r20	; 0x02
    af5e:	53 83       	std	Z+3, r21	; 0x03
    af60:	06 c0       	rjmp	.+12     	; 0xaf6e <UpdateLimits+0x260>
    af62:	d8 01       	movw	r26, r16
    af64:	1d 92       	st	X+, r1
    af66:	1d 92       	st	X+, r1
    af68:	1d 92       	st	X+, r1
    af6a:	1c 92       	st	X, r1
    af6c:	13 97       	sbiw	r26, 0x03	; 3
    af6e:	00 5f       	subi	r16, 0xF0	; 240
    af70:	1f 4f       	sbci	r17, 0xFF	; 255
    af72:	b4 e0       	ldi	r27, 0x04	; 4
    af74:	eb 0e       	add	r14, r27
    af76:	f1 1c       	adc	r15, r1
    af78:	e8 e0       	ldi	r30, 0x08	; 8
    af7a:	ee 16       	cp	r14, r30
    af7c:	f1 04       	cpc	r15, r1
    af7e:	09 f0       	breq	.+2      	; 0xaf82 <UpdateLimits+0x274>
    af80:	7b cf       	rjmp	.-266    	; 0xae78 <UpdateLimits+0x16a>
    af82:	e9 e1       	ldi	r30, 0x19	; 25
    af84:	f6 e0       	ldi	r31, 0x06	; 6
    af86:	44 ee       	ldi	r20, 0xE4	; 228
    af88:	57 e0       	ldi	r21, 0x07	; 7
    af8a:	ca 01       	movw	r24, r20
    af8c:	08 97       	sbiw	r24, 0x08	; 8
    af8e:	dc 01       	movw	r26, r24
    af90:	8c 91       	ld	r24, X
    af92:	b5 e0       	ldi	r27, 0x05	; 5
    af94:	8b 02       	muls	r24, r27
    af96:	c0 01       	movw	r24, r0
    af98:	11 24       	eor	r1, r1
    af9a:	84 52       	subi	r24, 0x24	; 36
    af9c:	9a 4f       	sbci	r25, 0xFA	; 250
    af9e:	92 87       	std	Z+10, r25	; 0x0a
    afa0:	81 87       	std	Z+9, r24	; 0x09
    afa2:	da 01       	movw	r26, r20
    afa4:	8d 91       	ld	r24, X+
    afa6:	ad 01       	movw	r20, r26
    afa8:	b5 e0       	ldi	r27, 0x05	; 5
    afaa:	8b 02       	muls	r24, r27
    afac:	c0 01       	movw	r24, r0
    afae:	11 24       	eor	r1, r1
    afb0:	84 52       	subi	r24, 0x24	; 36
    afb2:	9a 4f       	sbci	r25, 0xFA	; 250
    afb4:	94 87       	std	Z+12, r25	; 0x0c
    afb6:	83 87       	std	Z+11, r24	; 0x0b
    afb8:	34 96       	adiw	r30, 0x04	; 4
    afba:	26 e0       	ldi	r18, 0x06	; 6
    afbc:	e9 33       	cpi	r30, 0x39	; 57
    afbe:	f2 07       	cpc	r31, r18
    afc0:	21 f7       	brne	.-56     	; 0xaf8a <UpdateLimits+0x27c>
    afc2:	80 91 53 06 	lds	r24, 0x0653
    afc6:	44 e6       	ldi	r20, 0x64	; 100
    afc8:	84 02       	muls	r24, r20
    afca:	c0 01       	movw	r24, r0
    afcc:	11 24       	eor	r1, r1
    afce:	90 93 12 08 	sts	0x0812, r25
    afd2:	80 93 11 08 	sts	0x0811, r24
    afd6:	80 91 59 06 	lds	r24, 0x0659
    afda:	64 e6       	ldi	r22, 0x64	; 100
    afdc:	86 02       	muls	r24, r22
    afde:	c0 01       	movw	r24, r0
    afe0:	11 24       	eor	r1, r1
    afe2:	90 93 16 08 	sts	0x0816, r25
    afe6:	80 93 15 08 	sts	0x0815, r24
    afea:	80 91 67 06 	lds	r24, 0x0667
    afee:	a4 e6       	ldi	r26, 0x64	; 100
    aff0:	8a 02       	muls	r24, r26
    aff2:	c0 01       	movw	r24, r0
    aff4:	11 24       	eor	r1, r1
    aff6:	90 93 14 08 	sts	0x0814, r25
    affa:	80 93 13 08 	sts	0x0813, r24
    affe:	80 91 6d 06 	lds	r24, 0x066D
    b002:	b4 e6       	ldi	r27, 0x64	; 100
    b004:	8b 02       	muls	r24, r27
    b006:	c0 01       	movw	r24, r0
    b008:	11 24       	eor	r1, r1
    b00a:	90 93 18 08 	sts	0x0818, r25
    b00e:	80 93 17 08 	sts	0x0817, r24
    b012:	20 91 45 06 	lds	r18, 0x0645
    b016:	aa e1       	ldi	r26, 0x1A	; 26
    b018:	b6 e0       	ldi	r27, 0x06	; 6
    b01a:	80 e0       	ldi	r24, 0x00	; 0
    b01c:	90 e0       	ldi	r25, 0x00	; 0
    b01e:	21 30       	cpi	r18, 0x01	; 1
    b020:	21 f4       	brne	.+8      	; 0xb02a <UpdateLimits+0x31c>
    b022:	fc 01       	movw	r30, r24
    b024:	ea 52       	subi	r30, 0x2A	; 42
    b026:	fe 4f       	sbci	r31, 0xFE	; 254
    b028:	05 c0       	rjmp	.+10     	; 0xb034 <UpdateLimits+0x326>
    b02a:	21 11       	cpse	r18, r1
    b02c:	06 c0       	rjmp	.+12     	; 0xb03a <UpdateLimits+0x32c>
    b02e:	fc 01       	movw	r30, r24
    b030:	e2 52       	subi	r30, 0x22	; 34
    b032:	fe 4f       	sbci	r31, 0xFE	; 254
    b034:	e4 91       	lpm	r30, Z
    b036:	ec 93       	st	X, r30
    b038:	0b c0       	rjmp	.+22     	; 0xb050 <UpdateLimits+0x342>
    b03a:	22 30       	cpi	r18, 0x02	; 2
    b03c:	21 f4       	brne	.+8      	; 0xb046 <UpdateLimits+0x338>
    b03e:	fc 01       	movw	r30, r24
    b040:	e2 53       	subi	r30, 0x32	; 50
    b042:	fe 4f       	sbci	r31, 0xFE	; 254
    b044:	f7 cf       	rjmp	.-18     	; 0xb034 <UpdateLimits+0x326>
    b046:	fd 01       	movw	r30, r26
    b048:	e6 5a       	subi	r30, 0xA6	; 166
    b04a:	fd 4f       	sbci	r31, 0xFD	; 253
    b04c:	30 81       	ld	r19, Z
    b04e:	3c 93       	st	X, r19
    b050:	01 96       	adiw	r24, 0x01	; 1
    b052:	11 96       	adiw	r26, 0x01	; 1
    b054:	88 30       	cpi	r24, 0x08	; 8
    b056:	91 05       	cpc	r25, r1
    b058:	11 f7       	brne	.-60     	; 0xb01e <UpdateLimits+0x310>
    b05a:	80 91 c2 06 	lds	r24, 0x06C2
    b05e:	84 30       	cpi	r24, 0x04	; 4
    b060:	29 f0       	breq	.+10     	; 0xb06c <UpdateLimits+0x35e>
    b062:	0e 94 d9 2a 	call	0x55b2	; 0x55b2 <Load_eeprom_preset>
    b066:	84 e0       	ldi	r24, 0x04	; 4
    b068:	80 93 c2 06 	sts	0x06C2, r24
    b06c:	80 91 be 06 	lds	r24, 0x06BE
    b070:	46 e0       	ldi	r20, 0x06	; 6
    b072:	48 1b       	sub	r20, r24
    b074:	6a e1       	ldi	r22, 0x1A	; 26
    b076:	80 ed       	ldi	r24, 0xD0	; 208
    b078:	0e 94 a4 3b 	call	0x7748	; 0x7748 <writeI2Cbyte>
    b07c:	80 91 42 06 	lds	r24, 0x0642
    b080:	82 30       	cpi	r24, 0x02	; 2
    b082:	3c f4       	brge	.+14     	; 0xb092 <UpdateLimits+0x384>
    b084:	80 91 43 06 	lds	r24, 0x0643
    b088:	82 30       	cpi	r24, 0x02	; 2
    b08a:	19 f4       	brne	.+6      	; 0xb092 <UpdateLimits+0x384>
    b08c:	81 e0       	ldi	r24, 0x01	; 1
    b08e:	80 93 43 06 	sts	0x0643, r24
    b092:	80 91 bb 06 	lds	r24, 0x06BB
    b096:	81 30       	cpi	r24, 0x01	; 1
    b098:	31 f4       	brne	.+12     	; 0xb0a6 <UpdateLimits+0x398>
    b09a:	80 91 35 05 	lds	r24, 0x0535
    b09e:	84 60       	ori	r24, 0x04	; 4
    b0a0:	80 93 35 05 	sts	0x0535, r24
    b0a4:	2b 98       	cbi	0x05, 3	; 5
    b0a6:	e0 91 b8 06 	lds	r30, 0x06B8
    b0aa:	0e 2e       	mov	r0, r30
    b0ac:	00 0c       	add	r0, r0
    b0ae:	ff 0b       	sbc	r31, r31
    b0b0:	e5 51       	subi	r30, 0x15	; 21
    b0b2:	f6 4d       	sbci	r31, 0xD6	; 214
    b0b4:	e4 91       	lpm	r30, Z
    b0b6:	e0 93 43 08 	sts	0x0843, r30
    b0ba:	60 96       	adiw	r28, 0x10	; 16
    b0bc:	0f b6       	in	r0, 0x3f	; 63
    b0be:	f8 94       	cli
    b0c0:	de bf       	out	0x3e, r29	; 62
    b0c2:	0f be       	out	0x3f, r0	; 63
    b0c4:	cd bf       	out	0x3d, r28	; 61
    b0c6:	df 91       	pop	r29
    b0c8:	cf 91       	pop	r28
    b0ca:	1f 91       	pop	r17
    b0cc:	0f 91       	pop	r16
    b0ce:	ff 90       	pop	r15
    b0d0:	ef 90       	pop	r14
    b0d2:	df 90       	pop	r13
    b0d4:	cf 90       	pop	r12
    b0d6:	bf 90       	pop	r11
    b0d8:	af 90       	pop	r10
    b0da:	9f 90       	pop	r9
    b0dc:	8f 90       	pop	r8
    b0de:	7f 90       	pop	r7
    b0e0:	6f 90       	pop	r6
    b0e2:	0c 94 4e 26 	jmp	0x4c9c	; 0x4c9c <Save_Config_to_EEPROM>

0000b0e6 <UpdateServos>:
    b0e6:	e4 ec       	ldi	r30, 0xC4	; 196
    b0e8:	f6 e0       	ldi	r31, 0x06	; 6
    b0ea:	80 e0       	ldi	r24, 0x00	; 0
    b0ec:	90 e0       	ldi	r25, 0x00	; 0
    b0ee:	20 81       	ld	r18, Z
    b0f0:	31 81       	ldd	r19, Z+1	; 0x01
    b0f2:	dc 01       	movw	r26, r24
    b0f4:	ac 52       	subi	r26, 0x2C	; 44
    b0f6:	b8 4f       	sbci	r27, 0xF8	; 248
    b0f8:	4c 91       	ld	r20, X
    b0fa:	41 30       	cpi	r20, 0x01	; 1
    b0fc:	19 f4       	brne	.+6      	; 0xb104 <UpdateServos+0x1e>
    b0fe:	31 95       	neg	r19
    b100:	21 95       	neg	r18
    b102:	31 09       	sbc	r19, r1
    b104:	2a 55       	subi	r18, 0x5A	; 90
    b106:	31 4f       	sbci	r19, 0xF1	; 241
    b108:	dc 01       	movw	r26, r24
    b10a:	aa 0f       	add	r26, r26
    b10c:	bb 1f       	adc	r27, r27
    b10e:	ab 58       	subi	r26, 0x8B	; 139
    b110:	b6 4f       	sbci	r27, 0xF6	; 246
    b112:	11 96       	adiw	r26, 0x01	; 1
    b114:	3c 93       	st	X, r19
    b116:	2e 93       	st	-X, r18
    b118:	01 96       	adiw	r24, 0x01	; 1
    b11a:	b2 96       	adiw	r30, 0x22	; 34
    b11c:	88 30       	cpi	r24, 0x08	; 8
    b11e:	91 05       	cpc	r25, r1
    b120:	31 f7       	brne	.-52     	; 0xb0ee <UpdateServos+0x8>
    b122:	08 95       	ret

0000b124 <scale32>:
    b124:	9c 01       	movw	r18, r24
    b126:	64 36       	cpi	r22, 0x64	; 100
    b128:	71 05       	cpc	r23, r1
    b12a:	c9 f0       	breq	.+50     	; 0xb15e <scale32+0x3a>
    b12c:	6c 39       	cpi	r22, 0x9C	; 156
    b12e:	8f ef       	ldi	r24, 0xFF	; 255
    b130:	78 07       	cpc	r23, r24
    b132:	29 f4       	brne	.+10     	; 0xb13e <scale32+0x1a>
    b134:	88 27       	eor	r24, r24
    b136:	99 27       	eor	r25, r25
    b138:	82 1b       	sub	r24, r18
    b13a:	93 0b       	sbc	r25, r19
    b13c:	08 95       	ret
    b13e:	61 15       	cp	r22, r1
    b140:	71 05       	cpc	r23, r1
    b142:	79 f0       	breq	.+30     	; 0xb162 <scale32+0x3e>
    b144:	db 01       	movw	r26, r22
    b146:	0e 94 b6 6e 	call	0xdd6c	; 0xdd6c <__mulhisi3>
    b14a:	6e 5c       	subi	r22, 0xCE	; 206
    b14c:	7f 4f       	sbci	r23, 0xFF	; 255
    b14e:	8f 4f       	sbci	r24, 0xFF	; 255
    b150:	9f 4f       	sbci	r25, 0xFF	; 255
    b152:	24 e6       	ldi	r18, 0x64	; 100
    b154:	30 e0       	ldi	r19, 0x00	; 0
    b156:	40 e0       	ldi	r20, 0x00	; 0
    b158:	50 e0       	ldi	r21, 0x00	; 0
    b15a:	0e 94 91 6e 	call	0xdd22	; 0xdd22 <__divmodsi4>
    b15e:	c9 01       	movw	r24, r18
    b160:	08 95       	ret
    b162:	80 e0       	ldi	r24, 0x00	; 0
    b164:	90 e0       	ldi	r25, 0x00	; 0
    b166:	08 95       	ret

0000b168 <scale_percent>:
    b168:	68 2f       	mov	r22, r24
    b16a:	88 0f       	add	r24, r24
    b16c:	77 0b       	sbc	r23, r23
    b16e:	88 0b       	sbc	r24, r24
    b170:	99 0b       	sbc	r25, r25
    b172:	0e 94 47 6d 	call	0xda8e	; 0xda8e <__floatsisf>
    b176:	20 e0       	ldi	r18, 0x00	; 0
    b178:	30 e0       	ldi	r19, 0x00	; 0
    b17a:	48 e4       	ldi	r20, 0x48	; 72
    b17c:	51 e4       	ldi	r21, 0x41	; 65
    b17e:	0e 94 fc 6d 	call	0xdbf8	; 0xdbf8 <__mulsf3>
    b182:	20 e0       	ldi	r18, 0x00	; 0
    b184:	30 e6       	ldi	r19, 0x60	; 96
    b186:	4a e6       	ldi	r20, 0x6A	; 106
    b188:	55 e4       	ldi	r21, 0x45	; 69
    b18a:	0e 94 2c 6c 	call	0xd858	; 0xd858 <__addsf3>
    b18e:	0e 94 0f 6d 	call	0xda1e	; 0xda1e <__fixsfsi>
    b192:	cb 01       	movw	r24, r22
    b194:	08 95       	ret

0000b196 <Process_curve>:
    b196:	af 92       	push	r10
    b198:	bf 92       	push	r11
    b19a:	cf 92       	push	r12
    b19c:	df 92       	push	r13
    b19e:	ef 92       	push	r14
    b1a0:	ff 92       	push	r15
    b1a2:	0f 93       	push	r16
    b1a4:	1f 93       	push	r17
    b1a6:	cf 93       	push	r28
    b1a8:	df 93       	push	r29
    b1aa:	26 2f       	mov	r18, r22
    b1ac:	ea 01       	movw	r28, r20
    b1ae:	61 30       	cpi	r22, 0x01	; 1
    b1b0:	71 f4       	brne	.+28     	; 0xb1ce <Process_curve+0x38>
    b1b2:	48 31       	cpi	r20, 0x18	; 24
    b1b4:	3c ef       	ldi	r19, 0xFC	; 252
    b1b6:	53 07       	cpc	r21, r19
    b1b8:	f4 f1       	brlt	.+124    	; 0xb236 <Process_curve+0xa0>
    b1ba:	49 3e       	cpi	r20, 0xE9	; 233
    b1bc:	93 e0       	ldi	r25, 0x03	; 3
    b1be:	59 07       	cpc	r21, r25
    b1c0:	0c f0       	brlt	.+2      	; 0xb1c4 <Process_curve+0x2e>
    b1c2:	69 c1       	rjmp	.+722    	; 0xb496 <Process_curve+0x300>
    b1c4:	45 36       	cpi	r20, 0x65	; 101
    b1c6:	3d ef       	ldi	r19, 0xFD	; 253
    b1c8:	53 07       	cpc	r21, r19
    b1ca:	6c f4       	brge	.+26     	; 0xb1e6 <Process_curve+0x50>
    b1cc:	36 c0       	rjmp	.+108    	; 0xb23a <Process_curve+0xa4>
    b1ce:	57 fd       	sbrc	r21, 7
    b1d0:	37 c0       	rjmp	.+110    	; 0xb240 <Process_curve+0xaa>
    b1d2:	41 3d       	cpi	r20, 0xD1	; 209
    b1d4:	97 e0       	ldi	r25, 0x07	; 7
    b1d6:	59 07       	cpc	r21, r25
    b1d8:	0c f0       	brlt	.+2      	; 0xb1dc <Process_curve+0x46>
    b1da:	60 c1       	rjmp	.+704    	; 0xb49c <Process_curve+0x306>
    b1dc:	4d 34       	cpi	r20, 0x4D	; 77
    b1de:	31 e0       	ldi	r19, 0x01	; 1
    b1e0:	53 07       	cpc	r21, r19
    b1e2:	9c f4       	brge	.+38     	; 0xb20a <Process_curve+0x74>
    b1e4:	2f c0       	rjmp	.+94     	; 0xb244 <Process_curve+0xae>
    b1e6:	43 3b       	cpi	r20, 0xB3	; 179
    b1e8:	9e ef       	ldi	r25, 0xFE	; 254
    b1ea:	59 07       	cpc	r21, r25
    b1ec:	d4 f1       	brlt	.+116    	; 0xb262 <Process_curve+0xcc>
    b1ee:	57 fd       	sbrc	r21, 7
    b1f0:	2c c1       	rjmp	.+600    	; 0xb44a <Process_curve+0x2b4>
    b1f2:	4c 39       	cpi	r20, 0x9C	; 156
    b1f4:	32 e0       	ldi	r19, 0x02	; 2
    b1f6:	53 07       	cpc	r21, r19
    b1f8:	0c f0       	brlt	.+2      	; 0xb1fc <Process_curve+0x66>
    b1fa:	53 c1       	rjmp	.+678    	; 0xb4a2 <Process_curve+0x30c>
    b1fc:	4e 34       	cpi	r20, 0x4E	; 78
    b1fe:	51 40       	sbci	r21, 0x01	; 1
    b200:	0c f0       	brlt	.+2      	; 0xb204 <Process_curve+0x6e>
    b202:	40 c0       	rjmp	.+128    	; 0xb284 <Process_curve+0xee>
    b204:	00 e0       	ldi	r16, 0x00	; 0
    b206:	10 e0       	ldi	r17, 0x00	; 0
    b208:	33 c1       	rjmp	.+614    	; 0xb470 <Process_curve+0x2da>
    b20a:	4b 39       	cpi	r20, 0x9B	; 155
    b20c:	32 e0       	ldi	r19, 0x02	; 2
    b20e:	53 07       	cpc	r21, r19
    b210:	0c f4       	brge	.+2      	; 0xb214 <Process_curve+0x7e>
    b212:	16 c1       	rjmp	.+556    	; 0xb440 <Process_curve+0x2aa>
    b214:	48 3e       	cpi	r20, 0xE8	; 232
    b216:	93 e0       	ldi	r25, 0x03	; 3
    b218:	59 07       	cpc	r21, r25
    b21a:	0c f4       	brge	.+2      	; 0xb21e <Process_curve+0x88>
    b21c:	19 c1       	rjmp	.+562    	; 0xb450 <Process_curve+0x2ba>
    b21e:	44 38       	cpi	r20, 0x84	; 132
    b220:	36 e0       	ldi	r19, 0x06	; 6
    b222:	53 07       	cpc	r21, r19
    b224:	0c f0       	brlt	.+2      	; 0xb228 <Process_curve+0x92>
    b226:	40 c1       	rjmp	.+640    	; 0xb4a8 <Process_curve+0x312>
    b228:	46 33       	cpi	r20, 0x36	; 54
    b22a:	55 40       	sbci	r21, 0x05	; 5
    b22c:	0c f0       	brlt	.+2      	; 0xb230 <Process_curve+0x9a>
    b22e:	2e c1       	rjmp	.+604    	; 0xb48c <Process_curve+0x2f6>
    b230:	08 ee       	ldi	r16, 0xE8	; 232
    b232:	13 e0       	ldi	r17, 0x03	; 3
    b234:	1d c1       	rjmp	.+570    	; 0xb470 <Process_curve+0x2da>
    b236:	c8 e1       	ldi	r28, 0x18	; 24
    b238:	dc ef       	ldi	r29, 0xFC	; 252
    b23a:	08 e1       	ldi	r16, 0x18	; 24
    b23c:	1c ef       	ldi	r17, 0xFC	; 252
    b23e:	04 c0       	rjmp	.+8      	; 0xb248 <Process_curve+0xb2>
    b240:	c0 e0       	ldi	r28, 0x00	; 0
    b242:	d0 e0       	ldi	r29, 0x00	; 0
    b244:	00 e0       	ldi	r16, 0x00	; 0
    b246:	10 e0       	ldi	r17, 0x00	; 0
    b248:	86 30       	cpi	r24, 0x06	; 6
    b24a:	08 f0       	brcs	.+2      	; 0xb24e <Process_curve+0xb8>
    b24c:	9a c0       	rjmp	.+308    	; 0xb382 <Process_curve+0x1ec>
    b24e:	38 e0       	ldi	r19, 0x08	; 8
    b250:	83 9f       	mul	r24, r19
    b252:	c0 01       	movw	r24, r0
    b254:	11 24       	eor	r1, r1
    b256:	87 5e       	subi	r24, 0xE7	; 231
    b258:	99 4f       	sbci	r25, 0xF9	; 249
    b25a:	fc 01       	movw	r30, r24
    b25c:	e5 5d       	subi	r30, 0xD5	; 213
    b25e:	fd 4f       	sbci	r31, 0xFD	; 253
    b260:	0e c0       	rjmp	.+28     	; 0xb27e <Process_curve+0xe8>
    b262:	05 e6       	ldi	r16, 0x65	; 101
    b264:	1d ef       	ldi	r17, 0xFD	; 253
    b266:	86 30       	cpi	r24, 0x06	; 6
    b268:	08 f0       	brcs	.+2      	; 0xb26c <Process_curve+0xd6>
    b26a:	ed c0       	rjmp	.+474    	; 0xb446 <Process_curve+0x2b0>
    b26c:	38 e0       	ldi	r19, 0x08	; 8
    b26e:	83 9f       	mul	r24, r19
    b270:	c0 01       	movw	r24, r0
    b272:	11 24       	eor	r1, r1
    b274:	87 5e       	subi	r24, 0xE7	; 231
    b276:	99 4f       	sbci	r25, 0xF9	; 249
    b278:	fc 01       	movw	r30, r24
    b27a:	e4 5d       	subi	r30, 0xD4	; 212
    b27c:	fd 4f       	sbci	r31, 0xFD	; 253
    b27e:	60 81       	ld	r22, Z
    b280:	31 96       	adiw	r30, 0x01	; 1
    b282:	17 c0       	rjmp	.+46     	; 0xb2b2 <Process_curve+0x11c>
    b284:	0d e4       	ldi	r16, 0x4D	; 77
    b286:	11 e0       	ldi	r17, 0x01	; 1
    b288:	86 30       	cpi	r24, 0x06	; 6
    b28a:	08 f0       	brcs	.+2      	; 0xb28e <Process_curve+0xf8>
    b28c:	02 c1       	rjmp	.+516    	; 0xb492 <Process_curve+0x2fc>
    b28e:	90 e0       	ldi	r25, 0x00	; 0
    b290:	fc 01       	movw	r30, r24
    b292:	a3 e0       	ldi	r26, 0x03	; 3
    b294:	ee 0f       	add	r30, r30
    b296:	ff 1f       	adc	r31, r31
    b298:	aa 95       	dec	r26
    b29a:	e1 f7       	brne	.-8      	; 0xb294 <Process_curve+0xfe>
    b29c:	e8 5b       	subi	r30, 0xB8	; 184
    b29e:	f7 4f       	sbci	r31, 0xF7	; 247
    b2a0:	60 81       	ld	r22, Z
    b2a2:	b3 e0       	ldi	r27, 0x03	; 3
    b2a4:	88 0f       	add	r24, r24
    b2a6:	99 1f       	adc	r25, r25
    b2a8:	ba 95       	dec	r27
    b2aa:	e1 f7       	brne	.-8      	; 0xb2a4 <Process_curve+0x10e>
    b2ac:	fc 01       	movw	r30, r24
    b2ae:	e7 5b       	subi	r30, 0xB7	; 183
    b2b0:	f7 4f       	sbci	r31, 0xF7	; 247
    b2b2:	c0 80       	ld	r12, Z
    b2b4:	06 2e       	mov	r0, r22
    b2b6:	00 0c       	add	r0, r0
    b2b8:	77 0b       	sbc	r23, r23
    b2ba:	88 0b       	sbc	r24, r24
    b2bc:	99 0b       	sbc	r25, r25
    b2be:	0c 2c       	mov	r0, r12
    b2c0:	00 0c       	add	r0, r0
    b2c2:	dd 08       	sbc	r13, r13
    b2c4:	ee 08       	sbc	r14, r14
    b2c6:	ff 08       	sbc	r15, r15
    b2c8:	21 30       	cpi	r18, 0x01	; 1
    b2ca:	a1 f4       	brne	.+40     	; 0xb2f4 <Process_curve+0x15e>
    b2cc:	0e 94 47 6d 	call	0xda8e	; 0xda8e <__floatsisf>
    b2d0:	20 e0       	ldi	r18, 0x00	; 0
    b2d2:	30 e0       	ldi	r19, 0x00	; 0
    b2d4:	40 e2       	ldi	r20, 0x20	; 32
    b2d6:	51 e4       	ldi	r21, 0x41	; 65
    b2d8:	0e 94 fc 6d 	call	0xdbf8	; 0xdbf8 <__mulsf3>
    b2dc:	0e 94 0f 6d 	call	0xda1e	; 0xda1e <__fixsfsi>
    b2e0:	5b 01       	movw	r10, r22
    b2e2:	c7 01       	movw	r24, r14
    b2e4:	b6 01       	movw	r22, r12
    b2e6:	0e 94 47 6d 	call	0xda8e	; 0xda8e <__floatsisf>
    b2ea:	20 e0       	ldi	r18, 0x00	; 0
    b2ec:	30 e0       	ldi	r19, 0x00	; 0
    b2ee:	40 e2       	ldi	r20, 0x20	; 32
    b2f0:	51 e4       	ldi	r21, 0x41	; 65
    b2f2:	13 c0       	rjmp	.+38     	; 0xb31a <Process_curve+0x184>
    b2f4:	0e 94 47 6d 	call	0xda8e	; 0xda8e <__floatsisf>
    b2f8:	20 e0       	ldi	r18, 0x00	; 0
    b2fa:	30 e0       	ldi	r19, 0x00	; 0
    b2fc:	40 ea       	ldi	r20, 0xA0	; 160
    b2fe:	51 e4       	ldi	r21, 0x41	; 65
    b300:	0e 94 fc 6d 	call	0xdbf8	; 0xdbf8 <__mulsf3>
    b304:	0e 94 0f 6d 	call	0xda1e	; 0xda1e <__fixsfsi>
    b308:	5b 01       	movw	r10, r22
    b30a:	c7 01       	movw	r24, r14
    b30c:	b6 01       	movw	r22, r12
    b30e:	0e 94 47 6d 	call	0xda8e	; 0xda8e <__floatsisf>
    b312:	20 e0       	ldi	r18, 0x00	; 0
    b314:	30 e0       	ldi	r19, 0x00	; 0
    b316:	40 ea       	ldi	r20, 0xA0	; 160
    b318:	51 e4       	ldi	r21, 0x41	; 65
    b31a:	0e 94 fc 6d 	call	0xdbf8	; 0xdbf8 <__mulsf3>
    b31e:	0e 94 0f 6d 	call	0xda1e	; 0xda1e <__fixsfsi>
    b322:	6a 19       	sub	r22, r10
    b324:	7b 09       	sbc	r23, r11
    b326:	cb 01       	movw	r24, r22
    b328:	77 0f       	add	r23, r23
    b32a:	aa 0b       	sbc	r26, r26
    b32c:	bb 0b       	sbc	r27, r27
    b32e:	a5 01       	movw	r20, r10
    b330:	bb 0c       	add	r11, r11
    b332:	66 0b       	sbc	r22, r22
    b334:	77 0b       	sbc	r23, r23
    b336:	7a 01       	movw	r14, r20
    b338:	dd 24       	eor	r13, r13
    b33a:	cc 24       	eor	r12, r12
    b33c:	c0 1b       	sub	r28, r16
    b33e:	d1 0b       	sbc	r29, r17
    b340:	77 27       	eor	r23, r23
    b342:	66 27       	eor	r22, r22
    b344:	2e e4       	ldi	r18, 0x4E	; 78
    b346:	31 e0       	ldi	r19, 0x01	; 1
    b348:	40 e0       	ldi	r20, 0x00	; 0
    b34a:	50 e0       	ldi	r21, 0x00	; 0
    b34c:	0e 94 91 6e 	call	0xdd22	; 0xdd22 <__divmodsi4>
    b350:	de 01       	movw	r26, r28
    b352:	0e 94 df 6e 	call	0xddbe	; 0xddbe <__mulshisi3>
    b356:	dc 01       	movw	r26, r24
    b358:	cb 01       	movw	r24, r22
    b35a:	8c 0d       	add	r24, r12
    b35c:	9d 1d       	adc	r25, r13
    b35e:	ae 1d       	adc	r26, r14
    b360:	bf 1d       	adc	r27, r15
    b362:	cd 01       	movw	r24, r26
    b364:	bb 27       	eor	r27, r27
    b366:	97 fd       	sbrc	r25, 7
    b368:	b0 95       	com	r27
    b36a:	ab 2f       	mov	r26, r27
    b36c:	df 91       	pop	r29
    b36e:	cf 91       	pop	r28
    b370:	1f 91       	pop	r17
    b372:	0f 91       	pop	r16
    b374:	ff 90       	pop	r15
    b376:	ef 90       	pop	r14
    b378:	df 90       	pop	r13
    b37a:	cf 90       	pop	r12
    b37c:	bf 90       	pop	r11
    b37e:	af 90       	pop	r10
    b380:	08 95       	ret
    b382:	30 e0       	ldi	r19, 0x00	; 0
    b384:	86 50       	subi	r24, 0x06	; 6
    b386:	90 e0       	ldi	r25, 0x00	; 0
    b388:	33 30       	cpi	r19, 0x03	; 3
    b38a:	59 f1       	breq	.+86     	; 0xb3e2 <Process_curve+0x24c>
    b38c:	2c f4       	brge	.+10     	; 0xb398 <Process_curve+0x202>
    b38e:	31 30       	cpi	r19, 0x01	; 1
    b390:	91 f0       	breq	.+36     	; 0xb3b6 <Process_curve+0x220>
    b392:	32 30       	cpi	r19, 0x02	; 2
    b394:	d9 f0       	breq	.+54     	; 0xb3cc <Process_curve+0x236>
    b396:	04 c0       	rjmp	.+8      	; 0xb3a0 <Process_curve+0x20a>
    b398:	34 30       	cpi	r19, 0x04	; 4
    b39a:	71 f1       	breq	.+92     	; 0xb3f8 <Process_curve+0x262>
    b39c:	35 30       	cpi	r19, 0x05	; 5
    b39e:	f1 f1       	breq	.+124    	; 0xb41c <Process_curve+0x286>
    b3a0:	63 e0       	ldi	r22, 0x03	; 3
    b3a2:	88 0f       	add	r24, r24
    b3a4:	99 1f       	adc	r25, r25
    b3a6:	6a 95       	dec	r22
    b3a8:	e1 f7       	brne	.-8      	; 0xb3a2 <Process_curve+0x20c>
    b3aa:	87 5e       	subi	r24, 0xE7	; 231
    b3ac:	99 4f       	sbci	r25, 0xF9	; 249
    b3ae:	fc 01       	movw	r30, r24
    b3b0:	ed 59       	subi	r30, 0x9D	; 157
    b3b2:	fd 4f       	sbci	r31, 0xFD	; 253
    b3b4:	64 cf       	rjmp	.-312    	; 0xb27e <Process_curve+0xe8>
    b3b6:	53 e0       	ldi	r21, 0x03	; 3
    b3b8:	88 0f       	add	r24, r24
    b3ba:	99 1f       	adc	r25, r25
    b3bc:	5a 95       	dec	r21
    b3be:	e1 f7       	brne	.-8      	; 0xb3b8 <Process_curve+0x222>
    b3c0:	87 5e       	subi	r24, 0xE7	; 231
    b3c2:	99 4f       	sbci	r25, 0xF9	; 249
    b3c4:	fc 01       	movw	r30, r24
    b3c6:	ec 59       	subi	r30, 0x9C	; 156
    b3c8:	fd 4f       	sbci	r31, 0xFD	; 253
    b3ca:	59 cf       	rjmp	.-334    	; 0xb27e <Process_curve+0xe8>
    b3cc:	43 e0       	ldi	r20, 0x03	; 3
    b3ce:	88 0f       	add	r24, r24
    b3d0:	99 1f       	adc	r25, r25
    b3d2:	4a 95       	dec	r20
    b3d4:	e1 f7       	brne	.-8      	; 0xb3ce <Process_curve+0x238>
    b3d6:	87 5e       	subi	r24, 0xE7	; 231
    b3d8:	99 4f       	sbci	r25, 0xF9	; 249
    b3da:	fc 01       	movw	r30, r24
    b3dc:	eb 59       	subi	r30, 0x9B	; 155
    b3de:	fd 4f       	sbci	r31, 0xFD	; 253
    b3e0:	4e cf       	rjmp	.-356    	; 0xb27e <Process_curve+0xe8>
    b3e2:	33 e0       	ldi	r19, 0x03	; 3
    b3e4:	88 0f       	add	r24, r24
    b3e6:	99 1f       	adc	r25, r25
    b3e8:	3a 95       	dec	r19
    b3ea:	e1 f7       	brne	.-8      	; 0xb3e4 <Process_curve+0x24e>
    b3ec:	87 5e       	subi	r24, 0xE7	; 231
    b3ee:	99 4f       	sbci	r25, 0xF9	; 249
    b3f0:	fc 01       	movw	r30, r24
    b3f2:	ea 59       	subi	r30, 0x9A	; 154
    b3f4:	fd 4f       	sbci	r31, 0xFD	; 253
    b3f6:	43 cf       	rjmp	.-378    	; 0xb27e <Process_curve+0xe8>
    b3f8:	fc 01       	movw	r30, r24
    b3fa:	a3 e0       	ldi	r26, 0x03	; 3
    b3fc:	ee 0f       	add	r30, r30
    b3fe:	ff 1f       	adc	r31, r31
    b400:	aa 95       	dec	r26
    b402:	e1 f7       	brne	.-8      	; 0xb3fc <Process_curve+0x266>
    b404:	e0 58       	subi	r30, 0x80	; 128
    b406:	f7 4f       	sbci	r31, 0xF7	; 247
    b408:	60 81       	ld	r22, Z
    b40a:	b3 e0       	ldi	r27, 0x03	; 3
    b40c:	88 0f       	add	r24, r24
    b40e:	99 1f       	adc	r25, r25
    b410:	ba 95       	dec	r27
    b412:	e1 f7       	brne	.-8      	; 0xb40c <Process_curve+0x276>
    b414:	fc 01       	movw	r30, r24
    b416:	ef 57       	subi	r30, 0x7F	; 127
    b418:	f7 4f       	sbci	r31, 0xF7	; 247
    b41a:	4b cf       	rjmp	.-362    	; 0xb2b2 <Process_curve+0x11c>
    b41c:	fc 01       	movw	r30, r24
    b41e:	53 e0       	ldi	r21, 0x03	; 3
    b420:	ee 0f       	add	r30, r30
    b422:	ff 1f       	adc	r31, r31
    b424:	5a 95       	dec	r21
    b426:	e1 f7       	brne	.-8      	; 0xb420 <Process_curve+0x28a>
    b428:	ef 57       	subi	r30, 0x7F	; 127
    b42a:	f7 4f       	sbci	r31, 0xF7	; 247
    b42c:	60 81       	ld	r22, Z
    b42e:	73 e0       	ldi	r23, 0x03	; 3
    b430:	88 0f       	add	r24, r24
    b432:	99 1f       	adc	r25, r25
    b434:	7a 95       	dec	r23
    b436:	e1 f7       	brne	.-8      	; 0xb430 <Process_curve+0x29a>
    b438:	fc 01       	movw	r30, r24
    b43a:	ee 57       	subi	r30, 0x7E	; 126
    b43c:	f7 4f       	sbci	r31, 0xF7	; 247
    b43e:	39 cf       	rjmp	.-398    	; 0xb2b2 <Process_curve+0x11c>
    b440:	0d e4       	ldi	r16, 0x4D	; 77
    b442:	11 e0       	ldi	r17, 0x01	; 1
    b444:	10 cf       	rjmp	.-480    	; 0xb266 <Process_curve+0xd0>
    b446:	31 e0       	ldi	r19, 0x01	; 1
    b448:	9d cf       	rjmp	.-198    	; 0xb384 <Process_curve+0x1ee>
    b44a:	03 eb       	ldi	r16, 0xB3	; 179
    b44c:	1e ef       	ldi	r17, 0xFE	; 254
    b44e:	02 c0       	rjmp	.+4      	; 0xb454 <Process_curve+0x2be>
    b450:	0b e9       	ldi	r16, 0x9B	; 155
    b452:	12 e0       	ldi	r17, 0x02	; 2
    b454:	86 30       	cpi	r24, 0x06	; 6
    b456:	50 f4       	brcc	.+20     	; 0xb46c <Process_curve+0x2d6>
    b458:	38 e0       	ldi	r19, 0x08	; 8
    b45a:	83 9f       	mul	r24, r19
    b45c:	c0 01       	movw	r24, r0
    b45e:	11 24       	eor	r1, r1
    b460:	87 5e       	subi	r24, 0xE7	; 231
    b462:	99 4f       	sbci	r25, 0xF9	; 249
    b464:	fc 01       	movw	r30, r24
    b466:	e3 5d       	subi	r30, 0xD3	; 211
    b468:	fd 4f       	sbci	r31, 0xFD	; 253
    b46a:	09 cf       	rjmp	.-494    	; 0xb27e <Process_curve+0xe8>
    b46c:	32 e0       	ldi	r19, 0x02	; 2
    b46e:	8a cf       	rjmp	.-236    	; 0xb384 <Process_curve+0x1ee>
    b470:	86 30       	cpi	r24, 0x06	; 6
    b472:	50 f4       	brcc	.+20     	; 0xb488 <Process_curve+0x2f2>
    b474:	38 e0       	ldi	r19, 0x08	; 8
    b476:	83 9f       	mul	r24, r19
    b478:	c0 01       	movw	r24, r0
    b47a:	11 24       	eor	r1, r1
    b47c:	87 5e       	subi	r24, 0xE7	; 231
    b47e:	99 4f       	sbci	r25, 0xF9	; 249
    b480:	fc 01       	movw	r30, r24
    b482:	e2 5d       	subi	r30, 0xD2	; 210
    b484:	fd 4f       	sbci	r31, 0xFD	; 253
    b486:	fb ce       	rjmp	.-522    	; 0xb27e <Process_curve+0xe8>
    b488:	33 e0       	ldi	r19, 0x03	; 3
    b48a:	7c cf       	rjmp	.-264    	; 0xb384 <Process_curve+0x1ee>
    b48c:	05 e3       	ldi	r16, 0x35	; 53
    b48e:	15 e0       	ldi	r17, 0x05	; 5
    b490:	fb ce       	rjmp	.-522    	; 0xb288 <Process_curve+0xf2>
    b492:	34 e0       	ldi	r19, 0x04	; 4
    b494:	77 cf       	rjmp	.-274    	; 0xb384 <Process_curve+0x1ee>
    b496:	c8 ee       	ldi	r28, 0xE8	; 232
    b498:	d3 e0       	ldi	r29, 0x03	; 3
    b49a:	03 c0       	rjmp	.+6      	; 0xb4a2 <Process_curve+0x30c>
    b49c:	c0 ed       	ldi	r28, 0xD0	; 208
    b49e:	d7 e0       	ldi	r29, 0x07	; 7
    b4a0:	03 c0       	rjmp	.+6      	; 0xb4a8 <Process_curve+0x312>
    b4a2:	0b e9       	ldi	r16, 0x9B	; 155
    b4a4:	12 e0       	ldi	r17, 0x02	; 2
    b4a6:	02 c0       	rjmp	.+4      	; 0xb4ac <Process_curve+0x316>
    b4a8:	03 e8       	ldi	r16, 0x83	; 131
    b4aa:	16 e0       	ldi	r17, 0x06	; 6
    b4ac:	86 30       	cpi	r24, 0x06	; 6
    b4ae:	98 f4       	brcc	.+38     	; 0xb4d6 <Process_curve+0x340>
    b4b0:	90 e0       	ldi	r25, 0x00	; 0
    b4b2:	fc 01       	movw	r30, r24
    b4b4:	73 e0       	ldi	r23, 0x03	; 3
    b4b6:	ee 0f       	add	r30, r30
    b4b8:	ff 1f       	adc	r31, r31
    b4ba:	7a 95       	dec	r23
    b4bc:	e1 f7       	brne	.-8      	; 0xb4b6 <Process_curve+0x320>
    b4be:	e7 5b       	subi	r30, 0xB7	; 183
    b4c0:	f7 4f       	sbci	r31, 0xF7	; 247
    b4c2:	60 81       	ld	r22, Z
    b4c4:	e3 e0       	ldi	r30, 0x03	; 3
    b4c6:	88 0f       	add	r24, r24
    b4c8:	99 1f       	adc	r25, r25
    b4ca:	ea 95       	dec	r30
    b4cc:	e1 f7       	brne	.-8      	; 0xb4c6 <Process_curve+0x330>
    b4ce:	fc 01       	movw	r30, r24
    b4d0:	e6 5b       	subi	r30, 0xB6	; 182
    b4d2:	f7 4f       	sbci	r31, 0xF7	; 247
    b4d4:	ee ce       	rjmp	.-548    	; 0xb2b2 <Process_curve+0x11c>
    b4d6:	35 e0       	ldi	r19, 0x05	; 5
    b4d8:	55 cf       	rjmp	.-342    	; 0xb384 <Process_curve+0x1ee>

0000b4da <ProcessMixer>:
    b4da:	2f 92       	push	r2
    b4dc:	3f 92       	push	r3
    b4de:	4f 92       	push	r4
    b4e0:	5f 92       	push	r5
    b4e2:	6f 92       	push	r6
    b4e4:	7f 92       	push	r7
    b4e6:	8f 92       	push	r8
    b4e8:	9f 92       	push	r9
    b4ea:	af 92       	push	r10
    b4ec:	bf 92       	push	r11
    b4ee:	cf 92       	push	r12
    b4f0:	df 92       	push	r13
    b4f2:	ef 92       	push	r14
    b4f4:	ff 92       	push	r15
    b4f6:	0f 93       	push	r16
    b4f8:	1f 93       	push	r17
    b4fa:	cf 93       	push	r28
    b4fc:	df 93       	push	r29
    b4fe:	cd b7       	in	r28, 0x3d	; 61
    b500:	de b7       	in	r29, 0x3e	; 62
    b502:	c2 57       	subi	r28, 0x72	; 114
    b504:	d1 09       	sbc	r29, r1
    b506:	0f b6       	in	r0, 0x3f	; 63
    b508:	f8 94       	cli
    b50a:	de bf       	out	0x3e, r29	; 62
    b50c:	0f be       	out	0x3f, r0	; 63
    b50e:	cd bf       	out	0x3d, r28	; 61
    b510:	40 91 61 09 	lds	r20, 0x0961
    b514:	50 91 62 09 	lds	r21, 0x0962
    b518:	60 e0       	ldi	r22, 0x00	; 0
    b51a:	80 e0       	ldi	r24, 0x00	; 0
    b51c:	0e 94 cb 58 	call	0xb196	; 0xb196 <Process_curve>
    b520:	1c 01       	movw	r2, r24
    b522:	40 91 61 09 	lds	r20, 0x0961
    b526:	50 91 62 09 	lds	r21, 0x0962
    b52a:	60 e0       	ldi	r22, 0x00	; 0
    b52c:	81 e0       	ldi	r24, 0x01	; 1
    b52e:	0e 94 cb 58 	call	0xb196	; 0xb196 <Process_curve>
    b532:	7c 01       	movw	r14, r24
    b534:	40 91 63 09 	lds	r20, 0x0963
    b538:	50 91 64 09 	lds	r21, 0x0964
    b53c:	61 e0       	ldi	r22, 0x01	; 1
    b53e:	82 e0       	ldi	r24, 0x02	; 2
    b540:	0e 94 cb 58 	call	0xb196	; 0xb196 <Process_curve>
    b544:	5c 01       	movw	r10, r24
    b546:	40 91 63 09 	lds	r20, 0x0963
    b54a:	50 91 64 09 	lds	r21, 0x0964
    b54e:	61 e0       	ldi	r22, 0x01	; 1
    b550:	83 e0       	ldi	r24, 0x03	; 3
    b552:	0e 94 cb 58 	call	0xb196	; 0xb196 <Process_curve>
    b556:	6c 01       	movw	r12, r24
    b558:	60 91 01 06 	lds	r22, 0x0601
    b55c:	70 91 02 06 	lds	r23, 0x0602
    b560:	80 91 03 06 	lds	r24, 0x0603
    b564:	90 91 04 06 	lds	r25, 0x0604
    b568:	0e 94 0f 6d 	call	0xda1e	; 0xda1e <__fixsfsi>
    b56c:	8b 01       	movw	r16, r22
    b56e:	63 e0       	ldi	r22, 0x03	; 3
    b570:	00 0f       	add	r16, r16
    b572:	11 1f       	adc	r17, r17
    b574:	6a 95       	dec	r22
    b576:	e1 f7       	brne	.-8      	; 0xb570 <ProcessMixer+0x96>
    b578:	60 91 05 06 	lds	r22, 0x0605
    b57c:	70 91 06 06 	lds	r23, 0x0606
    b580:	80 91 07 06 	lds	r24, 0x0607
    b584:	90 91 08 06 	lds	r25, 0x0608
    b588:	0e 94 0f 6d 	call	0xda1e	; 0xda1e <__fixsfsi>
    b58c:	e3 e0       	ldi	r30, 0x03	; 3
    b58e:	66 0f       	add	r22, r22
    b590:	77 1f       	adc	r23, r23
    b592:	ea 95       	dec	r30
    b594:	e1 f7       	brne	.-8      	; 0xb58e <ProcessMixer+0xb4>
    b596:	3c a6       	std	Y+44, r3	; 0x2c
    b598:	2b a6       	std	Y+43, r2	; 0x2b
    b59a:	80 91 56 05 	lds	r24, 0x0556
    b59e:	90 91 57 05 	lds	r25, 0x0557
    b5a2:	9e a7       	std	Y+46, r25	; 0x2e
    b5a4:	8d a7       	std	Y+45, r24	; 0x2d
    b5a6:	80 91 52 05 	lds	r24, 0x0552
    b5aa:	90 91 53 05 	lds	r25, 0x0553
    b5ae:	98 ab       	std	Y+48, r25	; 0x30
    b5b0:	8f a7       	std	Y+47, r24	; 0x2f
    b5b2:	ba aa       	std	Y+50, r11	; 0x32
    b5b4:	a9 aa       	std	Y+49, r10	; 0x31
    b5b6:	80 91 63 09 	lds	r24, 0x0963
    b5ba:	90 91 64 09 	lds	r25, 0x0964
    b5be:	9c ab       	std	Y+52, r25	; 0x34
    b5c0:	8b ab       	std	Y+51, r24	; 0x33
    b5c2:	80 91 65 09 	lds	r24, 0x0965
    b5c6:	90 91 66 09 	lds	r25, 0x0966
    b5ca:	9e ab       	std	Y+54, r25	; 0x36
    b5cc:	8d ab       	std	Y+53, r24	; 0x35
    b5ce:	80 91 67 09 	lds	r24, 0x0967
    b5d2:	90 91 68 09 	lds	r25, 0x0968
    b5d6:	98 af       	std	Y+56, r25	; 0x38
    b5d8:	8f ab       	std	Y+55, r24	; 0x37
    b5da:	80 91 69 09 	lds	r24, 0x0969
    b5de:	90 91 6a 09 	lds	r25, 0x096A
    b5e2:	9a af       	std	Y+58, r25	; 0x3a
    b5e4:	89 af       	std	Y+57, r24	; 0x39
    b5e6:	80 91 6b 09 	lds	r24, 0x096B
    b5ea:	90 91 6c 09 	lds	r25, 0x096C
    b5ee:	9c af       	std	Y+60, r25	; 0x3c
    b5f0:	8b af       	std	Y+59, r24	; 0x3b
    b5f2:	80 91 6d 09 	lds	r24, 0x096D
    b5f6:	90 91 6e 09 	lds	r25, 0x096E
    b5fa:	9e af       	std	Y+62, r25	; 0x3e
    b5fc:	8d af       	std	Y+61, r24	; 0x3d
    b5fe:	80 91 6f 09 	lds	r24, 0x096F
    b602:	90 91 70 09 	lds	r25, 0x0970
    b606:	21 96       	adiw	r28, 0x01	; 1
    b608:	9f af       	std	Y+63, r25	; 0x3f
    b60a:	8e af       	std	Y+62, r24	; 0x3e
    b60c:	21 97       	sbiw	r28, 0x01	; 1
    b60e:	80 91 71 09 	lds	r24, 0x0971
    b612:	90 91 72 09 	lds	r25, 0x0972
    b616:	23 96       	adiw	r28, 0x03	; 3
    b618:	9f af       	std	Y+63, r25	; 0x3f
    b61a:	8e af       	std	Y+62, r24	; 0x3e
    b61c:	23 97       	sbiw	r28, 0x03	; 3
    b61e:	40 90 39 09 	lds	r4, 0x0939
    b622:	50 90 3a 09 	lds	r5, 0x093A
    b626:	25 96       	adiw	r28, 0x05	; 5
    b628:	5f ae       	std	Y+63, r5	; 0x3f
    b62a:	4e ae       	std	Y+62, r4	; 0x3e
    b62c:	25 97       	sbiw	r28, 0x05	; 5
    b62e:	20 91 3b 09 	lds	r18, 0x093B
    b632:	30 91 3c 09 	lds	r19, 0x093C
    b636:	69 96       	adiw	r28, 0x19	; 25
    b638:	3f af       	std	Y+63, r19	; 0x3f
    b63a:	2e af       	std	Y+62, r18	; 0x3e
    b63c:	69 97       	sbiw	r28, 0x19	; 25
    b63e:	27 96       	adiw	r28, 0x07	; 7
    b640:	3f af       	std	Y+63, r19	; 0x3f
    b642:	2e af       	std	Y+62, r18	; 0x3e
    b644:	27 97       	sbiw	r28, 0x07	; 7
    b646:	20 91 3d 09 	lds	r18, 0x093D
    b64a:	30 91 3e 09 	lds	r19, 0x093E
    b64e:	6b 96       	adiw	r28, 0x1b	; 27
    b650:	3f af       	std	Y+63, r19	; 0x3f
    b652:	2e af       	std	Y+62, r18	; 0x3e
    b654:	6b 97       	sbiw	r28, 0x1b	; 27
    b656:	29 96       	adiw	r28, 0x09	; 9
    b658:	3f af       	std	Y+63, r19	; 0x3f
    b65a:	2e af       	std	Y+62, r18	; 0x3e
    b65c:	29 97       	sbiw	r28, 0x09	; 9
    b65e:	2b 96       	adiw	r28, 0x0b	; 11
    b660:	1f af       	std	Y+63, r17	; 0x3f
    b662:	0e af       	std	Y+62, r16	; 0x3e
    b664:	2b 97       	sbiw	r28, 0x0b	; 11
    b666:	2d 96       	adiw	r28, 0x0d	; 13
    b668:	7f af       	std	Y+63, r23	; 0x3f
    b66a:	6e af       	std	Y+62, r22	; 0x3e
    b66c:	2d 97       	sbiw	r28, 0x0d	; 13
    b66e:	80 91 45 09 	lds	r24, 0x0945
    b672:	90 91 46 09 	lds	r25, 0x0946
    b676:	2f 96       	adiw	r28, 0x0f	; 15
    b678:	9f af       	std	Y+63, r25	; 0x3f
    b67a:	8e af       	std	Y+62, r24	; 0x3e
    b67c:	2f 97       	sbiw	r28, 0x0f	; 15
    b67e:	80 91 47 09 	lds	r24, 0x0947
    b682:	90 91 48 09 	lds	r25, 0x0948
    b686:	61 96       	adiw	r28, 0x11	; 17
    b688:	9f af       	std	Y+63, r25	; 0x3f
    b68a:	8e af       	std	Y+62, r24	; 0x3e
    b68c:	61 97       	sbiw	r28, 0x11	; 17
    b68e:	80 91 49 09 	lds	r24, 0x0949
    b692:	90 91 4a 09 	lds	r25, 0x094A
    b696:	63 96       	adiw	r28, 0x13	; 19
    b698:	9f af       	std	Y+63, r25	; 0x3f
    b69a:	8e af       	std	Y+62, r24	; 0x3e
    b69c:	63 97       	sbiw	r28, 0x13	; 19
    b69e:	65 96       	adiw	r28, 0x15	; 21
    b6a0:	1f ae       	std	Y+63, r1	; 0x3f
    b6a2:	1e ae       	std	Y+62, r1	; 0x3e
    b6a4:	65 97       	sbiw	r28, 0x15	; 21
    b6a6:	fa 82       	std	Y+2, r15	; 0x02
    b6a8:	e9 82       	std	Y+1, r14	; 0x01
    b6aa:	80 91 54 05 	lds	r24, 0x0554
    b6ae:	90 91 55 05 	lds	r25, 0x0555
    b6b2:	9c 83       	std	Y+4, r25	; 0x04
    b6b4:	8b 83       	std	Y+3, r24	; 0x03
    b6b6:	80 91 50 05 	lds	r24, 0x0550
    b6ba:	90 91 51 05 	lds	r25, 0x0551
    b6be:	9e 83       	std	Y+6, r25	; 0x06
    b6c0:	8d 83       	std	Y+5, r24	; 0x05
    b6c2:	d8 86       	std	Y+8, r13	; 0x08
    b6c4:	cf 82       	std	Y+7, r12	; 0x07
    b6c6:	80 91 63 09 	lds	r24, 0x0963
    b6ca:	90 91 64 09 	lds	r25, 0x0964
    b6ce:	9a 87       	std	Y+10, r25	; 0x0a
    b6d0:	89 87       	std	Y+9, r24	; 0x09
    b6d2:	80 91 65 09 	lds	r24, 0x0965
    b6d6:	90 91 66 09 	lds	r25, 0x0966
    b6da:	9c 87       	std	Y+12, r25	; 0x0c
    b6dc:	8b 87       	std	Y+11, r24	; 0x0b
    b6de:	80 91 67 09 	lds	r24, 0x0967
    b6e2:	90 91 68 09 	lds	r25, 0x0968
    b6e6:	9e 87       	std	Y+14, r25	; 0x0e
    b6e8:	8d 87       	std	Y+13, r24	; 0x0d
    b6ea:	80 91 69 09 	lds	r24, 0x0969
    b6ee:	90 91 6a 09 	lds	r25, 0x096A
    b6f2:	98 8b       	std	Y+16, r25	; 0x10
    b6f4:	8f 87       	std	Y+15, r24	; 0x0f
    b6f6:	80 91 6b 09 	lds	r24, 0x096B
    b6fa:	90 91 6c 09 	lds	r25, 0x096C
    b6fe:	9a 8b       	std	Y+18, r25	; 0x12
    b700:	89 8b       	std	Y+17, r24	; 0x11
    b702:	80 91 6d 09 	lds	r24, 0x096D
    b706:	90 91 6e 09 	lds	r25, 0x096E
    b70a:	9c 8b       	std	Y+20, r25	; 0x14
    b70c:	8b 8b       	std	Y+19, r24	; 0x13
    b70e:	80 91 6f 09 	lds	r24, 0x096F
    b712:	90 91 70 09 	lds	r25, 0x0970
    b716:	9e 8b       	std	Y+22, r25	; 0x16
    b718:	8d 8b       	std	Y+21, r24	; 0x15
    b71a:	80 91 71 09 	lds	r24, 0x0971
    b71e:	90 91 72 09 	lds	r25, 0x0972
    b722:	98 8f       	std	Y+24, r25	; 0x18
    b724:	8f 8b       	std	Y+23, r24	; 0x17
    b726:	20 91 3f 09 	lds	r18, 0x093F
    b72a:	30 91 40 09 	lds	r19, 0x0940
    b72e:	6d 96       	adiw	r28, 0x1d	; 29
    b730:	3f af       	std	Y+63, r19	; 0x3f
    b732:	2e af       	std	Y+62, r18	; 0x3e
    b734:	6d 97       	sbiw	r28, 0x1d	; 29
    b736:	3a 8f       	std	Y+26, r19	; 0x1a
    b738:	29 8f       	std	Y+25, r18	; 0x19
    b73a:	80 91 41 09 	lds	r24, 0x0941
    b73e:	90 91 42 09 	lds	r25, 0x0942
    b742:	9c 8f       	std	Y+28, r25	; 0x1c
    b744:	8b 8f       	std	Y+27, r24	; 0x1b
    b746:	80 91 43 09 	lds	r24, 0x0943
    b74a:	90 91 44 09 	lds	r25, 0x0944
    b74e:	9e 8f       	std	Y+30, r25	; 0x1e
    b750:	8d 8f       	std	Y+29, r24	; 0x1d
    b752:	18 a3       	std	Y+32, r17	; 0x20
    b754:	0f 8f       	std	Y+31, r16	; 0x1f
    b756:	7a a3       	std	Y+34, r23	; 0x22
    b758:	69 a3       	std	Y+33, r22	; 0x21
    b75a:	80 91 4b 09 	lds	r24, 0x094B
    b75e:	90 91 4c 09 	lds	r25, 0x094C
    b762:	9c a3       	std	Y+36, r25	; 0x24
    b764:	8b a3       	std	Y+35, r24	; 0x23
    b766:	80 91 4d 09 	lds	r24, 0x094D
    b76a:	90 91 4e 09 	lds	r25, 0x094E
    b76e:	9e a3       	std	Y+38, r25	; 0x26
    b770:	8d a3       	std	Y+37, r24	; 0x25
    b772:	80 91 4f 09 	lds	r24, 0x094F
    b776:	90 91 50 09 	lds	r25, 0x0950
    b77a:	98 a7       	std	Y+40, r25	; 0x28
    b77c:	8f a3       	std	Y+39, r24	; 0x27
    b77e:	1a a6       	std	Y+42, r1	; 0x2a
    b780:	19 a6       	std	Y+41, r1	; 0x29
    b782:	00 91 6b 08 	lds	r16, 0x086B
    b786:	04 31       	cpi	r16, 0x14	; 20
    b788:	f9 f0       	breq	.+62     	; 0xb7c8 <ProcessMixer+0x2ee>
    b78a:	00 0f       	add	r16, r16
    b78c:	11 0b       	sbc	r17, r17
    b78e:	41 e0       	ldi	r20, 0x01	; 1
    b790:	50 e0       	ldi	r21, 0x00	; 0
    b792:	4c 0f       	add	r20, r28
    b794:	5d 1f       	adc	r21, r29
    b796:	04 0f       	add	r16, r20
    b798:	15 1f       	adc	r17, r21
    b79a:	f8 01       	movw	r30, r16
    b79c:	42 a5       	ldd	r20, Z+42	; 0x2a
    b79e:	53 a5       	ldd	r21, Z+43	; 0x2b
    b7a0:	61 e0       	ldi	r22, 0x01	; 1
    b7a2:	84 e0       	ldi	r24, 0x04	; 4
    b7a4:	0e 94 cb 58 	call	0xb196	; 0xb196 <Process_curve>
    b7a8:	90 93 57 05 	sts	0x0557, r25
    b7ac:	80 93 56 05 	sts	0x0556, r24
    b7b0:	f8 01       	movw	r30, r16
    b7b2:	40 81       	ld	r20, Z
    b7b4:	51 81       	ldd	r21, Z+1	; 0x01
    b7b6:	61 e0       	ldi	r22, 0x01	; 1
    b7b8:	84 e0       	ldi	r24, 0x04	; 4
    b7ba:	0e 94 cb 58 	call	0xb196	; 0xb196 <Process_curve>
    b7be:	90 93 55 05 	sts	0x0555, r25
    b7c2:	80 93 54 05 	sts	0x0554, r24
    b7c6:	04 c0       	rjmp	.+8      	; 0xb7d0 <ProcessMixer+0x2f6>
    b7c8:	10 92 55 05 	sts	0x0555, r1
    b7cc:	10 92 54 05 	sts	0x0554, r1
    b7d0:	00 91 73 08 	lds	r16, 0x0873
    b7d4:	04 31       	cpi	r16, 0x14	; 20
    b7d6:	f9 f0       	breq	.+62     	; 0xb816 <ProcessMixer+0x33c>
    b7d8:	00 0f       	add	r16, r16
    b7da:	11 0b       	sbc	r17, r17
    b7dc:	21 e0       	ldi	r18, 0x01	; 1
    b7de:	30 e0       	ldi	r19, 0x00	; 0
    b7e0:	2c 0f       	add	r18, r28
    b7e2:	3d 1f       	adc	r19, r29
    b7e4:	02 0f       	add	r16, r18
    b7e6:	13 1f       	adc	r17, r19
    b7e8:	f8 01       	movw	r30, r16
    b7ea:	42 a5       	ldd	r20, Z+42	; 0x2a
    b7ec:	53 a5       	ldd	r21, Z+43	; 0x2b
    b7ee:	61 e0       	ldi	r22, 0x01	; 1
    b7f0:	85 e0       	ldi	r24, 0x05	; 5
    b7f2:	0e 94 cb 58 	call	0xb196	; 0xb196 <Process_curve>
    b7f6:	90 93 53 05 	sts	0x0553, r25
    b7fa:	80 93 52 05 	sts	0x0552, r24
    b7fe:	f8 01       	movw	r30, r16
    b800:	40 81       	ld	r20, Z
    b802:	51 81       	ldd	r21, Z+1	; 0x01
    b804:	61 e0       	ldi	r22, 0x01	; 1
    b806:	85 e0       	ldi	r24, 0x05	; 5
    b808:	0e 94 cb 58 	call	0xb196	; 0xb196 <Process_curve>
    b80c:	90 93 51 05 	sts	0x0551, r25
    b810:	80 93 50 05 	sts	0x0550, r24
    b814:	04 c0       	rjmp	.+8      	; 0xb81e <ProcessMixer+0x344>
    b816:	10 92 51 05 	sts	0x0551, r1
    b81a:	10 92 50 05 	sts	0x0550, r1
    b81e:	20 91 b9 06 	lds	r18, 0x06B9
    b822:	af 96       	adiw	r28, 0x2f	; 47
    b824:	2f af       	std	Y+63, r18	; 0x3f
    b826:	af 97       	sbiw	r28, 0x2f	; 47
    b828:	a0 90 38 05 	lds	r10, 0x0538
    b82c:	b0 90 39 05 	lds	r11, 0x0539
    b830:	44 27       	eor	r20, r20
    b832:	55 27       	eor	r21, r21
    b834:	44 19       	sub	r20, r4
    b836:	55 09       	sbc	r21, r5
    b838:	e1 96       	adiw	r28, 0x31	; 49
    b83a:	5f af       	std	Y+63, r21	; 0x3f
    b83c:	4e af       	std	Y+62, r20	; 0x3e
    b83e:	e1 97       	sbiw	r28, 0x31	; 49
    b840:	6d 96       	adiw	r28, 0x1d	; 29
    b842:	2e ad       	ldd	r18, Y+62	; 0x3e
    b844:	3f ad       	ldd	r19, Y+63	; 0x3f
    b846:	6d 97       	sbiw	r28, 0x1d	; 29
    b848:	31 95       	neg	r19
    b84a:	21 95       	neg	r18
    b84c:	31 09       	sbc	r19, r1
    b84e:	e3 96       	adiw	r28, 0x33	; 51
    b850:	3f af       	std	Y+63, r19	; 0x3f
    b852:	2e af       	std	Y+62, r18	; 0x3e
    b854:	e3 97       	sbiw	r28, 0x33	; 51
    b856:	40 91 41 09 	lds	r20, 0x0941
    b85a:	50 91 42 09 	lds	r21, 0x0942
    b85e:	6f 96       	adiw	r28, 0x1f	; 31
    b860:	5f af       	std	Y+63, r21	; 0x3f
    b862:	4e af       	std	Y+62, r20	; 0x3e
    b864:	6f 97       	sbiw	r28, 0x1f	; 31
    b866:	20 91 43 09 	lds	r18, 0x0943
    b86a:	30 91 44 09 	lds	r19, 0x0944
    b86e:	a1 96       	adiw	r28, 0x21	; 33
    b870:	3f af       	std	Y+63, r19	; 0x3f
    b872:	2e af       	std	Y+62, r18	; 0x3e
    b874:	a1 97       	sbiw	r28, 0x21	; 33
    b876:	40 91 45 09 	lds	r20, 0x0945
    b87a:	50 91 46 09 	lds	r21, 0x0946
    b87e:	a3 96       	adiw	r28, 0x23	; 35
    b880:	5f af       	std	Y+63, r21	; 0x3f
    b882:	4e af       	std	Y+62, r20	; 0x3e
    b884:	a3 97       	sbiw	r28, 0x23	; 35
    b886:	20 91 47 09 	lds	r18, 0x0947
    b88a:	30 91 48 09 	lds	r19, 0x0948
    b88e:	a5 96       	adiw	r28, 0x25	; 37
    b890:	3f af       	std	Y+63, r19	; 0x3f
    b892:	2e af       	std	Y+62, r18	; 0x3e
    b894:	a5 97       	sbiw	r28, 0x25	; 37
    b896:	40 91 49 09 	lds	r20, 0x0949
    b89a:	50 91 4a 09 	lds	r21, 0x094A
    b89e:	a7 96       	adiw	r28, 0x27	; 39
    b8a0:	5f af       	std	Y+63, r21	; 0x3f
    b8a2:	4e af       	std	Y+62, r20	; 0x3e
    b8a4:	a7 97       	sbiw	r28, 0x27	; 39
    b8a6:	20 91 4b 09 	lds	r18, 0x094B
    b8aa:	30 91 4c 09 	lds	r19, 0x094C
    b8ae:	a9 96       	adiw	r28, 0x29	; 41
    b8b0:	3f af       	std	Y+63, r19	; 0x3f
    b8b2:	2e af       	std	Y+62, r18	; 0x3e
    b8b4:	a9 97       	sbiw	r28, 0x29	; 41
    b8b6:	40 91 4d 09 	lds	r20, 0x094D
    b8ba:	50 91 4e 09 	lds	r21, 0x094E
    b8be:	ab 96       	adiw	r28, 0x2b	; 43
    b8c0:	5f af       	std	Y+63, r21	; 0x3f
    b8c2:	4e af       	std	Y+62, r20	; 0x3e
    b8c4:	ab 97       	sbiw	r28, 0x2b	; 43
    b8c6:	20 91 4f 09 	lds	r18, 0x094F
    b8ca:	30 91 50 09 	lds	r19, 0x0950
    b8ce:	ad 96       	adiw	r28, 0x2d	; 45
    b8d0:	3f af       	std	Y+63, r19	; 0x3f
    b8d2:	2e af       	std	Y+62, r18	; 0x3e
    b8d4:	ad 97       	sbiw	r28, 0x2d	; 45
    b8d6:	09 e1       	ldi	r16, 0x19	; 25
    b8d8:	16 e0       	ldi	r17, 0x06	; 6
    b8da:	38 e0       	ldi	r19, 0x08	; 8
    b8dc:	ae 96       	adiw	r28, 0x2e	; 46
    b8de:	3f af       	std	Y+63, r19	; 0x3f
    b8e0:	ae 97       	sbiw	r28, 0x2e	; 46
    b8e2:	d8 01       	movw	r26, r16
    b8e4:	ad 54       	subi	r26, 0x4D	; 77
    b8e6:	bf 4f       	sbci	r27, 0xFF	; 255
    b8e8:	f8 01       	movw	r30, r16
    b8ea:	e9 54       	subi	r30, 0x49	; 73
    b8ec:	ff 4f       	sbci	r31, 0xFF	; 255
    b8ee:	af 96       	adiw	r28, 0x2f	; 47
    b8f0:	4f ad       	ldd	r20, Y+63	; 0x3f
    b8f2:	af 97       	sbiw	r28, 0x2f	; 47
    b8f4:	44 23       	and	r20, r20
    b8f6:	49 f0       	breq	.+18     	; 0xb90a <ProcessMixer+0x430>
    b8f8:	41 30       	cpi	r20, 0x01	; 1
    b8fa:	39 f0       	breq	.+14     	; 0xb90a <ProcessMixer+0x430>
    b8fc:	70 80       	ld	r7, Z
    b8fe:	5c 91       	ld	r21, X
    b900:	66 96       	adiw	r28, 0x16	; 22
    b902:	5f af       	std	Y+63, r21	; 0x3f
    b904:	66 97       	sbiw	r28, 0x16	; 22
    b906:	67 2c       	mov	r6, r7
    b908:	05 c0       	rjmp	.+10     	; 0xb914 <ProcessMixer+0x43a>
    b90a:	7c 90       	ld	r7, X
    b90c:	60 80       	ld	r6, Z
    b90e:	66 96       	adiw	r28, 0x16	; 22
    b910:	7f ae       	std	Y+63, r7	; 0x3f
    b912:	66 97       	sbiw	r28, 0x16	; 22
    b914:	84 e6       	ldi	r24, 0x64	; 100
    b916:	a8 16       	cp	r10, r24
    b918:	b1 04       	cpc	r11, r1
    b91a:	0c f0       	brlt	.+2      	; 0xb91e <ProcessMixer+0x444>
    b91c:	73 c0       	rjmp	.+230    	; 0xba04 <ProcessMixer+0x52a>
    b91e:	f8 01       	movw	r30, r16
    b920:	e7 54       	subi	r30, 0x47	; 71
    b922:	ff 4f       	sbci	r31, 0xFF	; 255
    b924:	80 81       	ld	r24, Z
    b926:	81 30       	cpi	r24, 0x01	; 1
    b928:	89 f0       	breq	.+34     	; 0xb94c <ProcessMixer+0x472>
    b92a:	82 30       	cpi	r24, 0x02	; 2
    b92c:	c9 f4       	brne	.+50     	; 0xb960 <ProcessMixer+0x486>
    b92e:	66 96       	adiw	r28, 0x16	; 22
    b930:	3f ad       	ldd	r19, Y+63	; 0x3f
    b932:	66 97       	sbiw	r28, 0x16	; 22
    b934:	45 e0       	ldi	r20, 0x05	; 5
    b936:	34 02       	muls	r19, r20
    b938:	b0 01       	movw	r22, r0
    b93a:	11 24       	eor	r1, r1
    b93c:	c2 01       	movw	r24, r4
    b93e:	0e 94 92 58 	call	0xb124	; 0xb124 <scale32>
    b942:	88 24       	eor	r8, r8
    b944:	99 24       	eor	r9, r9
    b946:	88 1a       	sub	r8, r24
    b948:	99 0a       	sbc	r9, r25
    b94a:	0e c0       	rjmp	.+28     	; 0xb968 <ProcessMixer+0x48e>
    b94c:	66 96       	adiw	r28, 0x16	; 22
    b94e:	2f ad       	ldd	r18, Y+63	; 0x3f
    b950:	66 97       	sbiw	r28, 0x16	; 22
    b952:	27 fd       	sbrc	r18, 7
    b954:	08 c0       	rjmp	.+16     	; 0xb966 <ProcessMixer+0x48c>
    b956:	e1 96       	adiw	r28, 0x31	; 49
    b958:	8e ac       	ldd	r8, Y+62	; 0x3e
    b95a:	9f ac       	ldd	r9, Y+63	; 0x3f
    b95c:	e1 97       	sbiw	r28, 0x31	; 49
    b95e:	04 c0       	rjmp	.+8      	; 0xb968 <ProcessMixer+0x48e>
    b960:	81 2c       	mov	r8, r1
    b962:	91 2c       	mov	r9, r1
    b964:	01 c0       	rjmp	.+2      	; 0xb968 <ProcessMixer+0x48e>
    b966:	42 01       	movw	r8, r4
    b968:	f8 01       	movw	r30, r16
    b96a:	e5 54       	subi	r30, 0x45	; 69
    b96c:	ff 4f       	sbci	r31, 0xFF	; 255
    b96e:	80 81       	ld	r24, Z
    b970:	81 30       	cpi	r24, 0x01	; 1
    b972:	99 f0       	breq	.+38     	; 0xb99a <ProcessMixer+0x4c0>
    b974:	82 30       	cpi	r24, 0x02	; 2
    b976:	01 f5       	brne	.+64     	; 0xb9b8 <ProcessMixer+0x4de>
    b978:	f8 01       	movw	r30, r16
    b97a:	eb 54       	subi	r30, 0x4B	; 75
    b97c:	ff 4f       	sbci	r31, 0xFF	; 255
    b97e:	60 81       	ld	r22, Z
    b980:	35 e0       	ldi	r19, 0x05	; 5
    b982:	63 02       	muls	r22, r19
    b984:	b0 01       	movw	r22, r0
    b986:	11 24       	eor	r1, r1
    b988:	69 96       	adiw	r28, 0x19	; 25
    b98a:	8e ad       	ldd	r24, Y+62	; 0x3e
    b98c:	9f ad       	ldd	r25, Y+63	; 0x3f
    b98e:	69 97       	sbiw	r28, 0x19	; 25
    b990:	0e 94 92 58 	call	0xb124	; 0xb124 <scale32>
    b994:	88 0e       	add	r8, r24
    b996:	99 1e       	adc	r9, r25
    b998:	0f c0       	rjmp	.+30     	; 0xb9b8 <ProcessMixer+0x4de>
    b99a:	f8 01       	movw	r30, r16
    b99c:	eb 54       	subi	r30, 0x4B	; 75
    b99e:	ff 4f       	sbci	r31, 0xFF	; 255
    b9a0:	80 81       	ld	r24, Z
    b9a2:	69 96       	adiw	r28, 0x19	; 25
    b9a4:	2e ad       	ldd	r18, Y+62	; 0x3e
    b9a6:	3f ad       	ldd	r19, Y+63	; 0x3f
    b9a8:	69 97       	sbiw	r28, 0x19	; 25
    b9aa:	87 ff       	sbrs	r24, 7
    b9ac:	03 c0       	rjmp	.+6      	; 0xb9b4 <ProcessMixer+0x4da>
    b9ae:	82 1a       	sub	r8, r18
    b9b0:	93 0a       	sbc	r9, r19
    b9b2:	02 c0       	rjmp	.+4      	; 0xb9b8 <ProcessMixer+0x4de>
    b9b4:	82 0e       	add	r8, r18
    b9b6:	93 1e       	adc	r9, r19
    b9b8:	f8 01       	movw	r30, r16
    b9ba:	e3 54       	subi	r30, 0x43	; 67
    b9bc:	ff 4f       	sbci	r31, 0xFF	; 255
    b9be:	80 81       	ld	r24, Z
    b9c0:	81 30       	cpi	r24, 0x01	; 1
    b9c2:	81 f0       	breq	.+32     	; 0xb9e4 <ProcessMixer+0x50a>
    b9c4:	82 30       	cpi	r24, 0x02	; 2
    b9c6:	c9 f4       	brne	.+50     	; 0xb9fa <ProcessMixer+0x520>
    b9c8:	36 2d       	mov	r19, r6
    b9ca:	45 e0       	ldi	r20, 0x05	; 5
    b9cc:	34 02       	muls	r19, r20
    b9ce:	b0 01       	movw	r22, r0
    b9d0:	11 24       	eor	r1, r1
    b9d2:	6b 96       	adiw	r28, 0x1b	; 27
    b9d4:	8e ad       	ldd	r24, Y+62	; 0x3e
    b9d6:	9f ad       	ldd	r25, Y+63	; 0x3f
    b9d8:	6b 97       	sbiw	r28, 0x1b	; 27
    b9da:	0e 94 92 58 	call	0xb124	; 0xb124 <scale32>
    b9de:	88 0e       	add	r8, r24
    b9e0:	99 1e       	adc	r9, r25
    b9e2:	0b c0       	rjmp	.+22     	; 0xb9fa <ProcessMixer+0x520>
    b9e4:	6b 96       	adiw	r28, 0x1b	; 27
    b9e6:	2e ad       	ldd	r18, Y+62	; 0x3e
    b9e8:	3f ad       	ldd	r19, Y+63	; 0x3f
    b9ea:	6b 97       	sbiw	r28, 0x1b	; 27
    b9ec:	67 fe       	sbrs	r6, 7
    b9ee:	03 c0       	rjmp	.+6      	; 0xb9f6 <ProcessMixer+0x51c>
    b9f0:	82 1a       	sub	r8, r18
    b9f2:	93 0a       	sbc	r9, r19
    b9f4:	02 c0       	rjmp	.+4      	; 0xb9fa <ProcessMixer+0x520>
    b9f6:	82 0e       	add	r8, r18
    b9f8:	93 1e       	adc	r9, r19
    b9fa:	1a 14       	cp	r1, r10
    b9fc:	1b 04       	cpc	r1, r11
    b9fe:	0c f0       	brlt	.+2      	; 0xba02 <ProcessMixer+0x528>
    ba00:	8e c0       	rjmp	.+284    	; 0xbb1e <ProcessMixer+0x644>
    ba02:	02 c0       	rjmp	.+4      	; 0xba08 <ProcessMixer+0x52e>
    ba04:	81 2c       	mov	r8, r1
    ba06:	91 2c       	mov	r9, r1
    ba08:	f8 01       	movw	r30, r16
    ba0a:	e6 54       	subi	r30, 0x46	; 70
    ba0c:	ff 4f       	sbci	r31, 0xFF	; 255
    ba0e:	80 81       	ld	r24, Z
    ba10:	81 30       	cpi	r24, 0x01	; 1
    ba12:	a9 f0       	breq	.+42     	; 0xba3e <ProcessMixer+0x564>
    ba14:	82 30       	cpi	r24, 0x02	; 2
    ba16:	f1 f4       	brne	.+60     	; 0xba54 <ProcessMixer+0x57a>
    ba18:	f8 01       	movw	r30, r16
    ba1a:	ec 54       	subi	r30, 0x4C	; 76
    ba1c:	ff 4f       	sbci	r31, 0xFF	; 255
    ba1e:	60 81       	ld	r22, Z
    ba20:	55 e0       	ldi	r21, 0x05	; 5
    ba22:	65 02       	muls	r22, r21
    ba24:	b0 01       	movw	r22, r0
    ba26:	11 24       	eor	r1, r1
    ba28:	6d 96       	adiw	r28, 0x1d	; 29
    ba2a:	8e ad       	ldd	r24, Y+62	; 0x3e
    ba2c:	9f ad       	ldd	r25, Y+63	; 0x3f
    ba2e:	6d 97       	sbiw	r28, 0x1d	; 29
    ba30:	0e 94 92 58 	call	0xb124	; 0xb124 <scale32>
    ba34:	cc 24       	eor	r12, r12
    ba36:	dd 24       	eor	r13, r13
    ba38:	c8 1a       	sub	r12, r24
    ba3a:	d9 0a       	sbc	r13, r25
    ba3c:	12 c0       	rjmp	.+36     	; 0xba62 <ProcessMixer+0x588>
    ba3e:	f8 01       	movw	r30, r16
    ba40:	ec 54       	subi	r30, 0x4C	; 76
    ba42:	ff 4f       	sbci	r31, 0xFF	; 255
    ba44:	80 81       	ld	r24, Z
    ba46:	87 ff       	sbrs	r24, 7
    ba48:	08 c0       	rjmp	.+16     	; 0xba5a <ProcessMixer+0x580>
    ba4a:	6d 96       	adiw	r28, 0x1d	; 29
    ba4c:	ce ac       	ldd	r12, Y+62	; 0x3e
    ba4e:	df ac       	ldd	r13, Y+63	; 0x3f
    ba50:	6d 97       	sbiw	r28, 0x1d	; 29
    ba52:	07 c0       	rjmp	.+14     	; 0xba62 <ProcessMixer+0x588>
    ba54:	c1 2c       	mov	r12, r1
    ba56:	d1 2c       	mov	r13, r1
    ba58:	04 c0       	rjmp	.+8      	; 0xba62 <ProcessMixer+0x588>
    ba5a:	e3 96       	adiw	r28, 0x33	; 51
    ba5c:	ce ac       	ldd	r12, Y+62	; 0x3e
    ba5e:	df ac       	ldd	r13, Y+63	; 0x3f
    ba60:	e3 97       	sbiw	r28, 0x33	; 51
    ba62:	f8 01       	movw	r30, r16
    ba64:	e4 54       	subi	r30, 0x44	; 68
    ba66:	ff 4f       	sbci	r31, 0xFF	; 255
    ba68:	80 81       	ld	r24, Z
    ba6a:	81 30       	cpi	r24, 0x01	; 1
    ba6c:	99 f0       	breq	.+38     	; 0xba94 <ProcessMixer+0x5ba>
    ba6e:	82 30       	cpi	r24, 0x02	; 2
    ba70:	21 f5       	brne	.+72     	; 0xbaba <ProcessMixer+0x5e0>
    ba72:	f8 01       	movw	r30, r16
    ba74:	ea 54       	subi	r30, 0x4A	; 74
    ba76:	ff 4f       	sbci	r31, 0xFF	; 255
    ba78:	60 81       	ld	r22, Z
    ba7a:	55 e0       	ldi	r21, 0x05	; 5
    ba7c:	65 02       	muls	r22, r21
    ba7e:	b0 01       	movw	r22, r0
    ba80:	11 24       	eor	r1, r1
    ba82:	6f 96       	adiw	r28, 0x1f	; 31
    ba84:	8e ad       	ldd	r24, Y+62	; 0x3e
    ba86:	9f ad       	ldd	r25, Y+63	; 0x3f
    ba88:	6f 97       	sbiw	r28, 0x1f	; 31
    ba8a:	0e 94 92 58 	call	0xb124	; 0xb124 <scale32>
    ba8e:	c8 0e       	add	r12, r24
    ba90:	d9 1e       	adc	r13, r25
    ba92:	13 c0       	rjmp	.+38     	; 0xbaba <ProcessMixer+0x5e0>
    ba94:	f8 01       	movw	r30, r16
    ba96:	ea 54       	subi	r30, 0x4A	; 74
    ba98:	ff 4f       	sbci	r31, 0xFF	; 255
    ba9a:	80 81       	ld	r24, Z
    ba9c:	87 ff       	sbrs	r24, 7
    ba9e:	07 c0       	rjmp	.+14     	; 0xbaae <ProcessMixer+0x5d4>
    baa0:	6f 96       	adiw	r28, 0x1f	; 31
    baa2:	2e ad       	ldd	r18, Y+62	; 0x3e
    baa4:	3f ad       	ldd	r19, Y+63	; 0x3f
    baa6:	6f 97       	sbiw	r28, 0x1f	; 31
    baa8:	c2 1a       	sub	r12, r18
    baaa:	d3 0a       	sbc	r13, r19
    baac:	06 c0       	rjmp	.+12     	; 0xbaba <ProcessMixer+0x5e0>
    baae:	6f 96       	adiw	r28, 0x1f	; 31
    bab0:	4e ad       	ldd	r20, Y+62	; 0x3e
    bab2:	5f ad       	ldd	r21, Y+63	; 0x3f
    bab4:	6f 97       	sbiw	r28, 0x1f	; 31
    bab6:	c4 0e       	add	r12, r20
    bab8:	d5 1e       	adc	r13, r21
    baba:	f8 01       	movw	r30, r16
    babc:	e2 54       	subi	r30, 0x42	; 66
    babe:	ff 4f       	sbci	r31, 0xFF	; 255
    bac0:	80 81       	ld	r24, Z
    bac2:	81 30       	cpi	r24, 0x01	; 1
    bac4:	99 f0       	breq	.+38     	; 0xbaec <ProcessMixer+0x612>
    bac6:	82 30       	cpi	r24, 0x02	; 2
    bac8:	21 f5       	brne	.+72     	; 0xbb12 <ProcessMixer+0x638>
    baca:	f8 01       	movw	r30, r16
    bacc:	e8 54       	subi	r30, 0x48	; 72
    bace:	ff 4f       	sbci	r31, 0xFF	; 255
    bad0:	60 81       	ld	r22, Z
    bad2:	55 e0       	ldi	r21, 0x05	; 5
    bad4:	65 02       	muls	r22, r21
    bad6:	b0 01       	movw	r22, r0
    bad8:	11 24       	eor	r1, r1
    bada:	a1 96       	adiw	r28, 0x21	; 33
    badc:	8e ad       	ldd	r24, Y+62	; 0x3e
    bade:	9f ad       	ldd	r25, Y+63	; 0x3f
    bae0:	a1 97       	sbiw	r28, 0x21	; 33
    bae2:	0e 94 92 58 	call	0xb124	; 0xb124 <scale32>
    bae6:	c8 0e       	add	r12, r24
    bae8:	d9 1e       	adc	r13, r25
    baea:	13 c0       	rjmp	.+38     	; 0xbb12 <ProcessMixer+0x638>
    baec:	f8 01       	movw	r30, r16
    baee:	e8 54       	subi	r30, 0x48	; 72
    baf0:	ff 4f       	sbci	r31, 0xFF	; 255
    baf2:	80 81       	ld	r24, Z
    baf4:	87 ff       	sbrs	r24, 7
    baf6:	07 c0       	rjmp	.+14     	; 0xbb06 <ProcessMixer+0x62c>
    baf8:	a1 96       	adiw	r28, 0x21	; 33
    bafa:	2e ad       	ldd	r18, Y+62	; 0x3e
    bafc:	3f ad       	ldd	r19, Y+63	; 0x3f
    bafe:	a1 97       	sbiw	r28, 0x21	; 33
    bb00:	c2 1a       	sub	r12, r18
    bb02:	d3 0a       	sbc	r13, r19
    bb04:	06 c0       	rjmp	.+12     	; 0xbb12 <ProcessMixer+0x638>
    bb06:	a1 96       	adiw	r28, 0x21	; 33
    bb08:	4e ad       	ldd	r20, Y+62	; 0x3e
    bb0a:	5f ad       	ldd	r21, Y+63	; 0x3f
    bb0c:	a1 97       	sbiw	r28, 0x21	; 33
    bb0e:	c4 0e       	add	r12, r20
    bb10:	d5 1e       	adc	r13, r21
    bb12:	84 e6       	ldi	r24, 0x64	; 100
    bb14:	a8 16       	cp	r10, r24
    bb16:	b1 04       	cpc	r11, r1
    bb18:	0c f0       	brlt	.+2      	; 0xbb1c <ProcessMixer+0x642>
    bb1a:	84 c0       	rjmp	.+264    	; 0xbc24 <ProcessMixer+0x74a>
    bb1c:	02 c0       	rjmp	.+4      	; 0xbb22 <ProcessMixer+0x648>
    bb1e:	c1 2c       	mov	r12, r1
    bb20:	d1 2c       	mov	r13, r1
    bb22:	f8 01       	movw	r30, r16
    bb24:	e1 54       	subi	r30, 0x41	; 65
    bb26:	ff 4f       	sbci	r31, 0xFF	; 255
    bb28:	80 81       	ld	r24, Z
    bb2a:	81 30       	cpi	r24, 0x01	; 1
    bb2c:	81 f0       	breq	.+32     	; 0xbb4e <ProcessMixer+0x674>
    bb2e:	82 30       	cpi	r24, 0x02	; 2
    bb30:	e9 f4       	brne	.+58     	; 0xbb6c <ProcessMixer+0x692>
    bb32:	57 2d       	mov	r21, r7
    bb34:	85 e0       	ldi	r24, 0x05	; 5
    bb36:	58 02       	muls	r21, r24
    bb38:	b0 01       	movw	r22, r0
    bb3a:	11 24       	eor	r1, r1
    bb3c:	a3 96       	adiw	r28, 0x23	; 35
    bb3e:	8e ad       	ldd	r24, Y+62	; 0x3e
    bb40:	9f ad       	ldd	r25, Y+63	; 0x3f
    bb42:	a3 97       	sbiw	r28, 0x23	; 35
    bb44:	0e 94 92 58 	call	0xb124	; 0xb124 <scale32>
    bb48:	88 1a       	sub	r8, r24
    bb4a:	99 0a       	sbc	r9, r25
    bb4c:	0f c0       	rjmp	.+30     	; 0xbb6c <ProcessMixer+0x692>
    bb4e:	77 fe       	sbrs	r7, 7
    bb50:	07 c0       	rjmp	.+14     	; 0xbb60 <ProcessMixer+0x686>
    bb52:	a3 96       	adiw	r28, 0x23	; 35
    bb54:	2e ad       	ldd	r18, Y+62	; 0x3e
    bb56:	3f ad       	ldd	r19, Y+63	; 0x3f
    bb58:	a3 97       	sbiw	r28, 0x23	; 35
    bb5a:	82 0e       	add	r8, r18
    bb5c:	93 1e       	adc	r9, r19
    bb5e:	06 c0       	rjmp	.+12     	; 0xbb6c <ProcessMixer+0x692>
    bb60:	a3 96       	adiw	r28, 0x23	; 35
    bb62:	4e ad       	ldd	r20, Y+62	; 0x3e
    bb64:	5f ad       	ldd	r21, Y+63	; 0x3f
    bb66:	a3 97       	sbiw	r28, 0x23	; 35
    bb68:	84 1a       	sub	r8, r20
    bb6a:	95 0a       	sbc	r9, r21
    bb6c:	f8 01       	movw	r30, r16
    bb6e:	ef 53       	subi	r30, 0x3F	; 63
    bb70:	ff 4f       	sbci	r31, 0xFF	; 255
    bb72:	80 81       	ld	r24, Z
    bb74:	81 30       	cpi	r24, 0x01	; 1
    bb76:	99 f0       	breq	.+38     	; 0xbb9e <ProcessMixer+0x6c4>
    bb78:	82 30       	cpi	r24, 0x02	; 2
    bb7a:	21 f5       	brne	.+72     	; 0xbbc4 <ProcessMixer+0x6ea>
    bb7c:	f8 01       	movw	r30, r16
    bb7e:	eb 54       	subi	r30, 0x4B	; 75
    bb80:	ff 4f       	sbci	r31, 0xFF	; 255
    bb82:	60 81       	ld	r22, Z
    bb84:	55 e0       	ldi	r21, 0x05	; 5
    bb86:	65 02       	muls	r22, r21
    bb88:	b0 01       	movw	r22, r0
    bb8a:	11 24       	eor	r1, r1
    bb8c:	a5 96       	adiw	r28, 0x25	; 37
    bb8e:	8e ad       	ldd	r24, Y+62	; 0x3e
    bb90:	9f ad       	ldd	r25, Y+63	; 0x3f
    bb92:	a5 97       	sbiw	r28, 0x25	; 37
    bb94:	0e 94 92 58 	call	0xb124	; 0xb124 <scale32>
    bb98:	88 0e       	add	r8, r24
    bb9a:	99 1e       	adc	r9, r25
    bb9c:	13 c0       	rjmp	.+38     	; 0xbbc4 <ProcessMixer+0x6ea>
    bb9e:	f8 01       	movw	r30, r16
    bba0:	eb 54       	subi	r30, 0x4B	; 75
    bba2:	ff 4f       	sbci	r31, 0xFF	; 255
    bba4:	80 81       	ld	r24, Z
    bba6:	87 ff       	sbrs	r24, 7
    bba8:	07 c0       	rjmp	.+14     	; 0xbbb8 <ProcessMixer+0x6de>
    bbaa:	a5 96       	adiw	r28, 0x25	; 37
    bbac:	2e ad       	ldd	r18, Y+62	; 0x3e
    bbae:	3f ad       	ldd	r19, Y+63	; 0x3f
    bbb0:	a5 97       	sbiw	r28, 0x25	; 37
    bbb2:	82 1a       	sub	r8, r18
    bbb4:	93 0a       	sbc	r9, r19
    bbb6:	06 c0       	rjmp	.+12     	; 0xbbc4 <ProcessMixer+0x6ea>
    bbb8:	a5 96       	adiw	r28, 0x25	; 37
    bbba:	4e ad       	ldd	r20, Y+62	; 0x3e
    bbbc:	5f ad       	ldd	r21, Y+63	; 0x3f
    bbbe:	a5 97       	sbiw	r28, 0x25	; 37
    bbc0:	84 0e       	add	r8, r20
    bbc2:	95 1e       	adc	r9, r21
    bbc4:	f8 01       	movw	r30, r16
    bbc6:	ed 53       	subi	r30, 0x3D	; 61
    bbc8:	ff 4f       	sbci	r31, 0xFF	; 255
    bbca:	80 81       	ld	r24, Z
    bbcc:	81 30       	cpi	r24, 0x01	; 1
    bbce:	99 f0       	breq	.+38     	; 0xbbf6 <ProcessMixer+0x71c>
    bbd0:	82 30       	cpi	r24, 0x02	; 2
    bbd2:	21 f5       	brne	.+72     	; 0xbc1c <ProcessMixer+0x742>
    bbd4:	f8 01       	movw	r30, r16
    bbd6:	e0 55       	subi	r30, 0x50	; 80
    bbd8:	ff 4f       	sbci	r31, 0xFF	; 255
    bbda:	60 81       	ld	r22, Z
    bbdc:	55 e0       	ldi	r21, 0x05	; 5
    bbde:	65 02       	muls	r22, r21
    bbe0:	b0 01       	movw	r22, r0
    bbe2:	11 24       	eor	r1, r1
    bbe4:	a7 96       	adiw	r28, 0x27	; 39
    bbe6:	8e ad       	ldd	r24, Y+62	; 0x3e
    bbe8:	9f ad       	ldd	r25, Y+63	; 0x3f
    bbea:	a7 97       	sbiw	r28, 0x27	; 39
    bbec:	0e 94 92 58 	call	0xb124	; 0xb124 <scale32>
    bbf0:	88 1a       	sub	r8, r24
    bbf2:	99 0a       	sbc	r9, r25
    bbf4:	13 c0       	rjmp	.+38     	; 0xbc1c <ProcessMixer+0x742>
    bbf6:	f8 01       	movw	r30, r16
    bbf8:	e0 55       	subi	r30, 0x50	; 80
    bbfa:	ff 4f       	sbci	r31, 0xFF	; 255
    bbfc:	80 81       	ld	r24, Z
    bbfe:	87 ff       	sbrs	r24, 7
    bc00:	07 c0       	rjmp	.+14     	; 0xbc10 <ProcessMixer+0x736>
    bc02:	a7 96       	adiw	r28, 0x27	; 39
    bc04:	2e ad       	ldd	r18, Y+62	; 0x3e
    bc06:	3f ad       	ldd	r19, Y+63	; 0x3f
    bc08:	a7 97       	sbiw	r28, 0x27	; 39
    bc0a:	82 0e       	add	r8, r18
    bc0c:	93 1e       	adc	r9, r19
    bc0e:	06 c0       	rjmp	.+12     	; 0xbc1c <ProcessMixer+0x742>
    bc10:	a7 96       	adiw	r28, 0x27	; 39
    bc12:	4e ad       	ldd	r20, Y+62	; 0x3e
    bc14:	5f ad       	ldd	r21, Y+63	; 0x3f
    bc16:	a7 97       	sbiw	r28, 0x27	; 39
    bc18:	84 1a       	sub	r8, r20
    bc1a:	95 0a       	sbc	r9, r21
    bc1c:	1a 14       	cp	r1, r10
    bc1e:	1b 04       	cpc	r1, r11
    bc20:	0c f0       	brlt	.+2      	; 0xbc24 <ProcessMixer+0x74a>
    bc22:	89 c0       	rjmp	.+274    	; 0xbd36 <ProcessMixer+0x85c>
    bc24:	f8 01       	movw	r30, r16
    bc26:	e0 54       	subi	r30, 0x40	; 64
    bc28:	ff 4f       	sbci	r31, 0xFF	; 255
    bc2a:	80 81       	ld	r24, Z
    bc2c:	81 30       	cpi	r24, 0x01	; 1
    bc2e:	99 f0       	breq	.+38     	; 0xbc56 <ProcessMixer+0x77c>
    bc30:	82 30       	cpi	r24, 0x02	; 2
    bc32:	21 f5       	brne	.+72     	; 0xbc7c <ProcessMixer+0x7a2>
    bc34:	f8 01       	movw	r30, r16
    bc36:	ec 54       	subi	r30, 0x4C	; 76
    bc38:	ff 4f       	sbci	r31, 0xFF	; 255
    bc3a:	60 81       	ld	r22, Z
    bc3c:	55 e0       	ldi	r21, 0x05	; 5
    bc3e:	65 02       	muls	r22, r21
    bc40:	b0 01       	movw	r22, r0
    bc42:	11 24       	eor	r1, r1
    bc44:	a9 96       	adiw	r28, 0x29	; 41
    bc46:	8e ad       	ldd	r24, Y+62	; 0x3e
    bc48:	9f ad       	ldd	r25, Y+63	; 0x3f
    bc4a:	a9 97       	sbiw	r28, 0x29	; 41
    bc4c:	0e 94 92 58 	call	0xb124	; 0xb124 <scale32>
    bc50:	c8 1a       	sub	r12, r24
    bc52:	d9 0a       	sbc	r13, r25
    bc54:	13 c0       	rjmp	.+38     	; 0xbc7c <ProcessMixer+0x7a2>
    bc56:	f8 01       	movw	r30, r16
    bc58:	ec 54       	subi	r30, 0x4C	; 76
    bc5a:	ff 4f       	sbci	r31, 0xFF	; 255
    bc5c:	80 81       	ld	r24, Z
    bc5e:	87 ff       	sbrs	r24, 7
    bc60:	07 c0       	rjmp	.+14     	; 0xbc70 <ProcessMixer+0x796>
    bc62:	a9 96       	adiw	r28, 0x29	; 41
    bc64:	2e ad       	ldd	r18, Y+62	; 0x3e
    bc66:	3f ad       	ldd	r19, Y+63	; 0x3f
    bc68:	a9 97       	sbiw	r28, 0x29	; 41
    bc6a:	c2 0e       	add	r12, r18
    bc6c:	d3 1e       	adc	r13, r19
    bc6e:	06 c0       	rjmp	.+12     	; 0xbc7c <ProcessMixer+0x7a2>
    bc70:	a9 96       	adiw	r28, 0x29	; 41
    bc72:	4e ad       	ldd	r20, Y+62	; 0x3e
    bc74:	5f ad       	ldd	r21, Y+63	; 0x3f
    bc76:	a9 97       	sbiw	r28, 0x29	; 41
    bc78:	c4 1a       	sub	r12, r20
    bc7a:	d5 0a       	sbc	r13, r21
    bc7c:	f8 01       	movw	r30, r16
    bc7e:	ee 53       	subi	r30, 0x3E	; 62
    bc80:	ff 4f       	sbci	r31, 0xFF	; 255
    bc82:	80 81       	ld	r24, Z
    bc84:	81 30       	cpi	r24, 0x01	; 1
    bc86:	99 f0       	breq	.+38     	; 0xbcae <ProcessMixer+0x7d4>
    bc88:	82 30       	cpi	r24, 0x02	; 2
    bc8a:	21 f5       	brne	.+72     	; 0xbcd4 <ProcessMixer+0x7fa>
    bc8c:	f8 01       	movw	r30, r16
    bc8e:	ea 54       	subi	r30, 0x4A	; 74
    bc90:	ff 4f       	sbci	r31, 0xFF	; 255
    bc92:	60 81       	ld	r22, Z
    bc94:	55 e0       	ldi	r21, 0x05	; 5
    bc96:	65 02       	muls	r22, r21
    bc98:	b0 01       	movw	r22, r0
    bc9a:	11 24       	eor	r1, r1
    bc9c:	ab 96       	adiw	r28, 0x2b	; 43
    bc9e:	8e ad       	ldd	r24, Y+62	; 0x3e
    bca0:	9f ad       	ldd	r25, Y+63	; 0x3f
    bca2:	ab 97       	sbiw	r28, 0x2b	; 43
    bca4:	0e 94 92 58 	call	0xb124	; 0xb124 <scale32>
    bca8:	c8 0e       	add	r12, r24
    bcaa:	d9 1e       	adc	r13, r25
    bcac:	13 c0       	rjmp	.+38     	; 0xbcd4 <ProcessMixer+0x7fa>
    bcae:	f8 01       	movw	r30, r16
    bcb0:	ea 54       	subi	r30, 0x4A	; 74
    bcb2:	ff 4f       	sbci	r31, 0xFF	; 255
    bcb4:	80 81       	ld	r24, Z
    bcb6:	87 ff       	sbrs	r24, 7
    bcb8:	07 c0       	rjmp	.+14     	; 0xbcc8 <ProcessMixer+0x7ee>
    bcba:	ab 96       	adiw	r28, 0x2b	; 43
    bcbc:	2e ad       	ldd	r18, Y+62	; 0x3e
    bcbe:	3f ad       	ldd	r19, Y+63	; 0x3f
    bcc0:	ab 97       	sbiw	r28, 0x2b	; 43
    bcc2:	c2 1a       	sub	r12, r18
    bcc4:	d3 0a       	sbc	r13, r19
    bcc6:	06 c0       	rjmp	.+12     	; 0xbcd4 <ProcessMixer+0x7fa>
    bcc8:	ab 96       	adiw	r28, 0x2b	; 43
    bcca:	4e ad       	ldd	r20, Y+62	; 0x3e
    bccc:	5f ad       	ldd	r21, Y+63	; 0x3f
    bcce:	ab 97       	sbiw	r28, 0x2b	; 43
    bcd0:	c4 0e       	add	r12, r20
    bcd2:	d5 1e       	adc	r13, r21
    bcd4:	f8 01       	movw	r30, r16
    bcd6:	ec 53       	subi	r30, 0x3C	; 60
    bcd8:	ff 4f       	sbci	r31, 0xFF	; 255
    bcda:	80 81       	ld	r24, Z
    bcdc:	81 30       	cpi	r24, 0x01	; 1
    bcde:	99 f0       	breq	.+38     	; 0xbd06 <ProcessMixer+0x82c>
    bce0:	82 30       	cpi	r24, 0x02	; 2
    bce2:	21 f5       	brne	.+72     	; 0xbd2c <ProcessMixer+0x852>
    bce4:	f8 01       	movw	r30, r16
    bce6:	ef 54       	subi	r30, 0x4F	; 79
    bce8:	ff 4f       	sbci	r31, 0xFF	; 255
    bcea:	60 81       	ld	r22, Z
    bcec:	55 e0       	ldi	r21, 0x05	; 5
    bcee:	65 02       	muls	r22, r21
    bcf0:	b0 01       	movw	r22, r0
    bcf2:	11 24       	eor	r1, r1
    bcf4:	ad 96       	adiw	r28, 0x2d	; 45
    bcf6:	8e ad       	ldd	r24, Y+62	; 0x3e
    bcf8:	9f ad       	ldd	r25, Y+63	; 0x3f
    bcfa:	ad 97       	sbiw	r28, 0x2d	; 45
    bcfc:	0e 94 92 58 	call	0xb124	; 0xb124 <scale32>
    bd00:	c8 1a       	sub	r12, r24
    bd02:	d9 0a       	sbc	r13, r25
    bd04:	13 c0       	rjmp	.+38     	; 0xbd2c <ProcessMixer+0x852>
    bd06:	f8 01       	movw	r30, r16
    bd08:	ef 54       	subi	r30, 0x4F	; 79
    bd0a:	ff 4f       	sbci	r31, 0xFF	; 255
    bd0c:	80 81       	ld	r24, Z
    bd0e:	87 ff       	sbrs	r24, 7
    bd10:	07 c0       	rjmp	.+14     	; 0xbd20 <ProcessMixer+0x846>
    bd12:	ad 96       	adiw	r28, 0x2d	; 45
    bd14:	2e ad       	ldd	r18, Y+62	; 0x3e
    bd16:	3f ad       	ldd	r19, Y+63	; 0x3f
    bd18:	ad 97       	sbiw	r28, 0x2d	; 45
    bd1a:	c2 0e       	add	r12, r18
    bd1c:	d3 1e       	adc	r13, r19
    bd1e:	06 c0       	rjmp	.+12     	; 0xbd2c <ProcessMixer+0x852>
    bd20:	ad 96       	adiw	r28, 0x2d	; 45
    bd22:	4e ad       	ldd	r20, Y+62	; 0x3e
    bd24:	5f ad       	ldd	r21, Y+63	; 0x3f
    bd26:	ad 97       	sbiw	r28, 0x2d	; 45
    bd28:	c4 1a       	sub	r12, r20
    bd2a:	d5 0a       	sbc	r13, r21
    bd2c:	84 e6       	ldi	r24, 0x64	; 100
    bd2e:	a8 16       	cp	r10, r24
    bd30:	b1 04       	cpc	r11, r1
    bd32:	0c f0       	brlt	.+2      	; 0xbd36 <ProcessMixer+0x85c>
    bd34:	68 c0       	rjmp	.+208    	; 0xbe06 <ProcessMixer+0x92c>
    bd36:	66 96       	adiw	r28, 0x16	; 22
    bd38:	2f ad       	ldd	r18, Y+63	; 0x3f
    bd3a:	66 97       	sbiw	r28, 0x16	; 22
    bd3c:	22 23       	and	r18, r18
    bd3e:	59 f0       	breq	.+22     	; 0xbd56 <ProcessMixer+0x87c>
    bd40:	80 91 65 09 	lds	r24, 0x0965
    bd44:	90 91 66 09 	lds	r25, 0x0966
    bd48:	62 2f       	mov	r22, r18
    bd4a:	22 0f       	add	r18, r18
    bd4c:	77 0b       	sbc	r23, r23
    bd4e:	0e 94 92 58 	call	0xb124	; 0xb124 <scale32>
    bd52:	88 0e       	add	r8, r24
    bd54:	99 1e       	adc	r9, r25
    bd56:	f8 01       	movw	r30, r16
    bd58:	eb 54       	subi	r30, 0x4B	; 75
    bd5a:	ff 4f       	sbci	r31, 0xFF	; 255
    bd5c:	60 81       	ld	r22, Z
    bd5e:	66 23       	and	r22, r22
    bd60:	59 f0       	breq	.+22     	; 0xbd78 <ProcessMixer+0x89e>
    bd62:	80 91 67 09 	lds	r24, 0x0967
    bd66:	90 91 68 09 	lds	r25, 0x0968
    bd6a:	06 2e       	mov	r0, r22
    bd6c:	00 0c       	add	r0, r0
    bd6e:	77 0b       	sbc	r23, r23
    bd70:	0e 94 92 58 	call	0xb124	; 0xb124 <scale32>
    bd74:	88 0e       	add	r8, r24
    bd76:	99 1e       	adc	r9, r25
    bd78:	66 20       	and	r6, r6
    bd7a:	59 f0       	breq	.+22     	; 0xbd92 <ProcessMixer+0x8b8>
    bd7c:	80 91 69 09 	lds	r24, 0x0969
    bd80:	90 91 6a 09 	lds	r25, 0x096A
    bd84:	66 2d       	mov	r22, r6
    bd86:	66 0c       	add	r6, r6
    bd88:	77 0b       	sbc	r23, r23
    bd8a:	0e 94 92 58 	call	0xb124	; 0xb124 <scale32>
    bd8e:	88 0e       	add	r8, r24
    bd90:	99 1e       	adc	r9, r25
    bd92:	f8 01       	movw	r30, r16
    bd94:	ea 53       	subi	r30, 0x3A	; 58
    bd96:	ff 4f       	sbci	r31, 0xFF	; 255
    bd98:	60 81       	ld	r22, Z
    bd9a:	66 23       	and	r22, r22
    bd9c:	a9 f0       	breq	.+42     	; 0xbdc8 <ProcessMixer+0x8ee>
    bd9e:	31 97       	sbiw	r30, 0x01	; 1
    bda0:	e0 81       	ld	r30, Z
    bda2:	e4 31       	cpi	r30, 0x14	; 20
    bda4:	89 f0       	breq	.+34     	; 0xbdc8 <ProcessMixer+0x8ee>
    bda6:	ee 0f       	add	r30, r30
    bda8:	ff 0b       	sbc	r31, r31
    bdaa:	41 e0       	ldi	r20, 0x01	; 1
    bdac:	50 e0       	ldi	r21, 0x00	; 0
    bdae:	4c 0f       	add	r20, r28
    bdb0:	5d 1f       	adc	r21, r29
    bdb2:	e4 0f       	add	r30, r20
    bdb4:	f5 1f       	adc	r31, r21
    bdb6:	06 2e       	mov	r0, r22
    bdb8:	00 0c       	add	r0, r0
    bdba:	77 0b       	sbc	r23, r23
    bdbc:	82 a5       	ldd	r24, Z+42	; 0x2a
    bdbe:	93 a5       	ldd	r25, Z+43	; 0x2b
    bdc0:	0e 94 92 58 	call	0xb124	; 0xb124 <scale32>
    bdc4:	88 0e       	add	r8, r24
    bdc6:	99 1e       	adc	r9, r25
    bdc8:	f8 01       	movw	r30, r16
    bdca:	e6 53       	subi	r30, 0x36	; 54
    bdcc:	ff 4f       	sbci	r31, 0xFF	; 255
    bdce:	60 81       	ld	r22, Z
    bdd0:	66 23       	and	r22, r22
    bdd2:	a9 f0       	breq	.+42     	; 0xbdfe <ProcessMixer+0x924>
    bdd4:	31 97       	sbiw	r30, 0x01	; 1
    bdd6:	e0 81       	ld	r30, Z
    bdd8:	e4 31       	cpi	r30, 0x14	; 20
    bdda:	89 f0       	breq	.+34     	; 0xbdfe <ProcessMixer+0x924>
    bddc:	ee 0f       	add	r30, r30
    bdde:	ff 0b       	sbc	r31, r31
    bde0:	81 e0       	ldi	r24, 0x01	; 1
    bde2:	90 e0       	ldi	r25, 0x00	; 0
    bde4:	8c 0f       	add	r24, r28
    bde6:	9d 1f       	adc	r25, r29
    bde8:	e8 0f       	add	r30, r24
    bdea:	f9 1f       	adc	r31, r25
    bdec:	06 2e       	mov	r0, r22
    bdee:	00 0c       	add	r0, r0
    bdf0:	77 0b       	sbc	r23, r23
    bdf2:	82 a5       	ldd	r24, Z+42	; 0x2a
    bdf4:	93 a5       	ldd	r25, Z+43	; 0x2b
    bdf6:	0e 94 92 58 	call	0xb124	; 0xb124 <scale32>
    bdfa:	88 0e       	add	r8, r24
    bdfc:	99 1e       	adc	r9, r25
    bdfe:	1a 14       	cp	r1, r10
    be00:	1b 04       	cpc	r1, r11
    be02:	0c f0       	brlt	.+2      	; 0xbe06 <ProcessMixer+0x92c>
    be04:	69 c0       	rjmp	.+210    	; 0xbed8 <ProcessMixer+0x9fe>
    be06:	f8 01       	movw	r30, r16
    be08:	ec 54       	subi	r30, 0x4C	; 76
    be0a:	ff 4f       	sbci	r31, 0xFF	; 255
    be0c:	60 81       	ld	r22, Z
    be0e:	66 23       	and	r22, r22
    be10:	59 f0       	breq	.+22     	; 0xbe28 <ProcessMixer+0x94e>
    be12:	80 91 65 09 	lds	r24, 0x0965
    be16:	90 91 66 09 	lds	r25, 0x0966
    be1a:	06 2e       	mov	r0, r22
    be1c:	00 0c       	add	r0, r0
    be1e:	77 0b       	sbc	r23, r23
    be20:	0e 94 92 58 	call	0xb124	; 0xb124 <scale32>
    be24:	c8 0e       	add	r12, r24
    be26:	d9 1e       	adc	r13, r25
    be28:	f8 01       	movw	r30, r16
    be2a:	ea 54       	subi	r30, 0x4A	; 74
    be2c:	ff 4f       	sbci	r31, 0xFF	; 255
    be2e:	60 81       	ld	r22, Z
    be30:	66 23       	and	r22, r22
    be32:	59 f0       	breq	.+22     	; 0xbe4a <ProcessMixer+0x970>
    be34:	80 91 67 09 	lds	r24, 0x0967
    be38:	90 91 68 09 	lds	r25, 0x0968
    be3c:	06 2e       	mov	r0, r22
    be3e:	00 0c       	add	r0, r0
    be40:	77 0b       	sbc	r23, r23
    be42:	0e 94 92 58 	call	0xb124	; 0xb124 <scale32>
    be46:	c8 0e       	add	r12, r24
    be48:	d9 1e       	adc	r13, r25
    be4a:	f8 01       	movw	r30, r16
    be4c:	e8 54       	subi	r30, 0x48	; 72
    be4e:	ff 4f       	sbci	r31, 0xFF	; 255
    be50:	60 81       	ld	r22, Z
    be52:	66 23       	and	r22, r22
    be54:	59 f0       	breq	.+22     	; 0xbe6c <ProcessMixer+0x992>
    be56:	80 91 69 09 	lds	r24, 0x0969
    be5a:	90 91 6a 09 	lds	r25, 0x096A
    be5e:	06 2e       	mov	r0, r22
    be60:	00 0c       	add	r0, r0
    be62:	77 0b       	sbc	r23, r23
    be64:	0e 94 92 58 	call	0xb124	; 0xb124 <scale32>
    be68:	c8 0e       	add	r12, r24
    be6a:	d9 1e       	adc	r13, r25
    be6c:	f8 01       	movw	r30, r16
    be6e:	e8 53       	subi	r30, 0x38	; 56
    be70:	ff 4f       	sbci	r31, 0xFF	; 255
    be72:	60 81       	ld	r22, Z
    be74:	66 23       	and	r22, r22
    be76:	a9 f0       	breq	.+42     	; 0xbea2 <ProcessMixer+0x9c8>
    be78:	31 97       	sbiw	r30, 0x01	; 1
    be7a:	e0 81       	ld	r30, Z
    be7c:	e4 31       	cpi	r30, 0x14	; 20
    be7e:	89 f0       	breq	.+34     	; 0xbea2 <ProcessMixer+0x9c8>
    be80:	ee 0f       	add	r30, r30
    be82:	ff 0b       	sbc	r31, r31
    be84:	21 e0       	ldi	r18, 0x01	; 1
    be86:	30 e0       	ldi	r19, 0x00	; 0
    be88:	2c 0f       	add	r18, r28
    be8a:	3d 1f       	adc	r19, r29
    be8c:	e2 0f       	add	r30, r18
    be8e:	f3 1f       	adc	r31, r19
    be90:	06 2e       	mov	r0, r22
    be92:	00 0c       	add	r0, r0
    be94:	77 0b       	sbc	r23, r23
    be96:	80 81       	ld	r24, Z
    be98:	91 81       	ldd	r25, Z+1	; 0x01
    be9a:	0e 94 92 58 	call	0xb124	; 0xb124 <scale32>
    be9e:	c8 0e       	add	r12, r24
    bea0:	d9 1e       	adc	r13, r25
    bea2:	f8 01       	movw	r30, r16
    bea4:	e4 53       	subi	r30, 0x34	; 52
    bea6:	ff 4f       	sbci	r31, 0xFF	; 255
    bea8:	60 81       	ld	r22, Z
    beaa:	66 23       	and	r22, r22
    beac:	a9 f0       	breq	.+42     	; 0xbed8 <ProcessMixer+0x9fe>
    beae:	31 97       	sbiw	r30, 0x01	; 1
    beb0:	e0 81       	ld	r30, Z
    beb2:	e4 31       	cpi	r30, 0x14	; 20
    beb4:	89 f0       	breq	.+34     	; 0xbed8 <ProcessMixer+0x9fe>
    beb6:	ee 0f       	add	r30, r30
    beb8:	ff 0b       	sbc	r31, r31
    beba:	41 e0       	ldi	r20, 0x01	; 1
    bebc:	50 e0       	ldi	r21, 0x00	; 0
    bebe:	4c 0f       	add	r20, r28
    bec0:	5d 1f       	adc	r21, r29
    bec2:	e4 0f       	add	r30, r20
    bec4:	f5 1f       	adc	r31, r21
    bec6:	06 2e       	mov	r0, r22
    bec8:	00 0c       	add	r0, r0
    beca:	77 0b       	sbc	r23, r23
    becc:	80 81       	ld	r24, Z
    bece:	91 81       	ldd	r25, Z+1	; 0x01
    bed0:	0e 94 92 58 	call	0xb124	; 0xb124 <scale32>
    bed4:	c8 0e       	add	r12, r24
    bed6:	d9 1e       	adc	r13, r25
    bed8:	f8 01       	movw	r30, r16
    beda:	e5 55       	subi	r30, 0x55	; 85
    bedc:	ff 4f       	sbci	r31, 0xFF	; 255
    bede:	91 82       	std	Z+1, r9	; 0x01
    bee0:	80 82       	st	Z, r8
    bee2:	32 96       	adiw	r30, 0x02	; 2
    bee4:	d1 82       	std	Z+1, r13	; 0x01
    bee6:	c0 82       	st	Z, r12
    bee8:	ae 96       	adiw	r28, 0x2e	; 46
    beea:	5f ad       	ldd	r21, Y+63	; 0x3f
    beec:	ae 97       	sbiw	r28, 0x2e	; 46
    beee:	51 50       	subi	r21, 0x01	; 1
    bef0:	ae 96       	adiw	r28, 0x2e	; 46
    bef2:	5f af       	std	Y+63, r21	; 0x3f
    bef4:	ae 97       	sbiw	r28, 0x2e	; 46
    bef6:	0e 5d       	subi	r16, 0xDE	; 222
    bef8:	1f 4f       	sbci	r17, 0xFF	; 255
    befa:	51 11       	cpse	r21, r1
    befc:	f2 cc       	rjmp	.-1564   	; 0xb8e2 <ProcessMixer+0x408>
    befe:	80 91 47 06 	lds	r24, 0x0647
    bf02:	88 23       	and	r24, r24
    bf04:	41 f0       	breq	.+16     	; 0xbf16 <ProcessMixer+0xa3c>
    bf06:	80 91 3c 05 	lds	r24, 0x053C
    bf0a:	90 91 3d 05 	lds	r25, 0x053D
    bf0e:	90 93 39 05 	sts	0x0539, r25
    bf12:	80 93 38 05 	sts	0x0538, r24
    bf16:	00 91 38 05 	lds	r16, 0x0538
    bf1a:	10 91 39 05 	lds	r17, 0x0539
    bf1e:	84 e6       	ldi	r24, 0x64	; 100
    bf20:	90 e0       	ldi	r25, 0x00	; 0
    bf22:	5c 01       	movw	r10, r24
    bf24:	a0 1a       	sub	r10, r16
    bf26:	b1 0a       	sbc	r11, r17
    bf28:	54 ec       	ldi	r21, 0xC4	; 196
    bf2a:	65 2e       	mov	r6, r21
    bf2c:	56 e0       	ldi	r21, 0x06	; 6
    bf2e:	75 2e       	mov	r7, r21
    bf30:	43 01       	movw	r8, r6
    bf32:	01 15       	cp	r16, r1
    bf34:	11 05       	cpc	r17, r1
    bf36:	21 f4       	brne	.+8      	; 0xbf40 <ProcessMixer+0xa66>
    bf38:	f4 01       	movw	r30, r8
    bf3a:	80 81       	ld	r24, Z
    bf3c:	91 81       	ldd	r25, Z+1	; 0x01
    bf3e:	16 c0       	rjmp	.+44     	; 0xbf6c <ProcessMixer+0xa92>
    bf40:	04 36       	cpi	r16, 0x64	; 100
    bf42:	11 05       	cpc	r17, r1
    bf44:	24 f0       	brlt	.+8      	; 0xbf4e <ProcessMixer+0xa74>
    bf46:	f4 01       	movw	r30, r8
    bf48:	82 81       	ldd	r24, Z+2	; 0x02
    bf4a:	93 81       	ldd	r25, Z+3	; 0x03
    bf4c:	0f c0       	rjmp	.+30     	; 0xbf6c <ProcessMixer+0xa92>
    bf4e:	b5 01       	movw	r22, r10
    bf50:	f4 01       	movw	r30, r8
    bf52:	80 81       	ld	r24, Z
    bf54:	91 81       	ldd	r25, Z+1	; 0x01
    bf56:	0e 94 92 58 	call	0xb124	; 0xb124 <scale32>
    bf5a:	6c 01       	movw	r12, r24
    bf5c:	b8 01       	movw	r22, r16
    bf5e:	f4 01       	movw	r30, r8
    bf60:	82 81       	ldd	r24, Z+2	; 0x02
    bf62:	93 81       	ldd	r25, Z+3	; 0x03
    bf64:	0e 94 92 58 	call	0xb124	; 0xb124 <scale32>
    bf68:	8c 0d       	add	r24, r12
    bf6a:	9d 1d       	adc	r25, r13
    bf6c:	f4 01       	movw	r30, r8
    bf6e:	91 83       	std	Z+1, r25	; 0x01
    bf70:	80 83       	st	Z, r24
    bf72:	f2 e2       	ldi	r31, 0x22	; 34
    bf74:	8f 0e       	add	r8, r31
    bf76:	91 1c       	adc	r9, r1
    bf78:	24 ed       	ldi	r18, 0xD4	; 212
    bf7a:	82 16       	cp	r8, r18
    bf7c:	27 e0       	ldi	r18, 0x07	; 7
    bf7e:	92 06       	cpc	r9, r18
    bf80:	c1 f6       	brne	.-80     	; 0xbf32 <ProcessMixer+0xa58>
    bf82:	2e 14       	cp	r2, r14
    bf84:	3f 04       	cpc	r3, r15
    bf86:	99 f1       	breq	.+102    	; 0xbfee <ProcessMixer+0xb14>
    bf88:	01 15       	cp	r16, r1
    bf8a:	11 05       	cpc	r17, r1
    bf8c:	81 f1       	breq	.+96     	; 0xbfee <ProcessMixer+0xb14>
    bf8e:	04 36       	cpi	r16, 0x64	; 100
    bf90:	11 05       	cpc	r17, r1
    bf92:	2c f0       	brlt	.+10     	; 0xbf9e <ProcessMixer+0xac4>
    bf94:	c7 01       	movw	r24, r14
    bf96:	ff 0c       	add	r15, r15
    bf98:	aa 0b       	sbc	r26, r26
    bf9a:	bb 0b       	sbc	r27, r27
    bf9c:	2c c0       	rjmp	.+88     	; 0xbff6 <ProcessMixer+0xb1c>
    bf9e:	b7 01       	movw	r22, r14
    bfa0:	62 19       	sub	r22, r2
    bfa2:	73 09       	sbc	r23, r3
    bfa4:	cb 01       	movw	r24, r22
    bfa6:	77 0f       	add	r23, r23
    bfa8:	aa 0b       	sbc	r26, r26
    bfaa:	bb 0b       	sbc	r27, r27
    bfac:	a1 01       	movw	r20, r2
    bfae:	33 0c       	add	r3, r3
    bfb0:	66 0b       	sbc	r22, r22
    bfb2:	77 0b       	sbc	r23, r23
    bfb4:	7a 01       	movw	r14, r20
    bfb6:	dd 24       	eor	r13, r13
    bfb8:	cc 24       	eor	r12, r12
    bfba:	77 27       	eor	r23, r23
    bfbc:	66 27       	eor	r22, r22
    bfbe:	24 e6       	ldi	r18, 0x64	; 100
    bfc0:	30 e0       	ldi	r19, 0x00	; 0
    bfc2:	40 e0       	ldi	r20, 0x00	; 0
    bfc4:	50 e0       	ldi	r21, 0x00	; 0
    bfc6:	0e 94 91 6e 	call	0xdd22	; 0xdd22 <__divmodsi4>
    bfca:	d8 01       	movw	r26, r16
    bfcc:	0e 94 df 6e 	call	0xddbe	; 0xddbe <__mulshisi3>
    bfd0:	dc 01       	movw	r26, r24
    bfd2:	cb 01       	movw	r24, r22
    bfd4:	8c 0d       	add	r24, r12
    bfd6:	9d 1d       	adc	r25, r13
    bfd8:	ae 1d       	adc	r26, r14
    bfda:	bf 1d       	adc	r27, r15
    bfdc:	90 58       	subi	r25, 0x80	; 128
    bfde:	af 4f       	sbci	r26, 0xFF	; 255
    bfe0:	bf 4f       	sbci	r27, 0xFF	; 255
    bfe2:	cd 01       	movw	r24, r26
    bfe4:	bb 27       	eor	r27, r27
    bfe6:	97 fd       	sbrc	r25, 7
    bfe8:	b0 95       	com	r27
    bfea:	ab 2f       	mov	r26, r27
    bfec:	04 c0       	rjmp	.+8      	; 0xbff6 <ProcessMixer+0xb1c>
    bfee:	c1 01       	movw	r24, r2
    bff0:	33 0c       	add	r3, r3
    bff2:	aa 0b       	sbc	r26, r26
    bff4:	bb 0b       	sbc	r27, r27
    bff6:	1c 01       	movw	r2, r24
    bff8:	6a ec       	ldi	r22, 0xCA	; 202
    bffa:	e6 2e       	mov	r14, r22
    bffc:	66 e0       	ldi	r22, 0x06	; 6
    bffe:	f6 2e       	mov	r15, r22
    c000:	74 ec       	ldi	r23, 0xC4	; 196
    c002:	c7 2e       	mov	r12, r23
    c004:	76 e0       	ldi	r23, 0x06	; 6
    c006:	d7 2e       	mov	r13, r23
    c008:	a1 2c       	mov	r10, r1
    c00a:	b1 2c       	mov	r11, r1
    c00c:	e4 e6       	ldi	r30, 0x64	; 100
    c00e:	8e 2e       	mov	r8, r30
    c010:	91 2c       	mov	r9, r1
    c012:	80 2f       	mov	r24, r16
    c014:	00 2e       	mov	r0, r16
    c016:	00 0c       	add	r0, r0
    c018:	99 0b       	sbc	r25, r25
    c01a:	ac 01       	movw	r20, r24
    c01c:	45 52       	subi	r20, 0x25	; 37
    c01e:	55 4d       	sbci	r21, 0xD5	; 213
    c020:	67 96       	adiw	r28, 0x17	; 23
    c022:	5f af       	std	Y+63, r21	; 0x3f
    c024:	4e af       	std	Y+62, r20	; 0x3e
    c026:	67 97       	sbiw	r28, 0x17	; 23
    c028:	94 01       	movw	r18, r8
    c02a:	28 1b       	sub	r18, r24
    c02c:	39 0b       	sbc	r19, r25
    c02e:	a9 01       	movw	r20, r18
    c030:	45 52       	subi	r20, 0x25	; 37
    c032:	55 4d       	sbci	r21, 0xD5	; 213
    c034:	69 96       	adiw	r28, 0x19	; 25
    c036:	5f af       	std	Y+63, r21	; 0x3f
    c038:	4e af       	std	Y+62, r20	; 0x3e
    c03a:	69 97       	sbiw	r28, 0x19	; 25
    c03c:	ac 01       	movw	r20, r24
    c03e:	40 5c       	subi	r20, 0xC0	; 192
    c040:	54 4d       	sbci	r21, 0xD4	; 212
    c042:	6b 96       	adiw	r28, 0x1b	; 27
    c044:	5f af       	std	Y+63, r21	; 0x3f
    c046:	4e af       	std	Y+62, r20	; 0x3e
    c048:	6b 97       	sbiw	r28, 0x1b	; 27
    c04a:	a9 01       	movw	r20, r18
    c04c:	40 5c       	subi	r20, 0xC0	; 192
    c04e:	54 4d       	sbci	r21, 0xD4	; 212
    c050:	6d 96       	adiw	r28, 0x1d	; 29
    c052:	5f af       	std	Y+63, r21	; 0x3f
    c054:	4e af       	std	Y+62, r20	; 0x3e
    c056:	6d 97       	sbiw	r28, 0x1d	; 29
    c058:	fe e1       	ldi	r31, 0x1E	; 30
    c05a:	4f 2e       	mov	r4, r31
    c05c:	fb ef       	ldi	r31, 0xFB	; 251
    c05e:	5f 2e       	mov	r5, r31
    c060:	f7 01       	movw	r30, r14
    c062:	31 97       	sbiw	r30, 0x01	; 1
    c064:	90 81       	ld	r25, Z
    c066:	f7 01       	movw	r30, r14
    c068:	80 81       	ld	r24, Z
    c06a:	91 11       	cpse	r25, r1
    c06c:	03 c0       	rjmp	.+6      	; 0xc074 <ProcessMixer+0xb9a>
    c06e:	88 23       	and	r24, r24
    c070:	09 f4       	brne	.+2      	; 0xc074 <ProcessMixer+0xb9a>
    c072:	6b c0       	rjmp	.+214    	; 0xc14a <ProcessMixer+0xc70>
    c074:	29 2f       	mov	r18, r25
    c076:	09 2e       	mov	r0, r25
    c078:	00 0c       	add	r0, r0
    c07a:	33 0b       	sbc	r19, r19
    c07c:	98 17       	cp	r25, r24
    c07e:	09 f4       	brne	.+2      	; 0xc082 <ProcessMixer+0xba8>
    c080:	56 c0       	rjmp	.+172    	; 0xc12e <ProcessMixer+0xc54>
    c082:	08 2e       	mov	r0, r24
    c084:	00 0c       	add	r0, r0
    c086:	99 0b       	sbc	r25, r25
    c088:	82 1b       	sub	r24, r18
    c08a:	93 0b       	sbc	r25, r19
    c08c:	96 95       	lsr	r25
    c08e:	98 2f       	mov	r25, r24
    c090:	88 27       	eor	r24, r24
    c092:	97 95       	ror	r25
    c094:	87 95       	ror	r24
    c096:	b4 01       	movw	r22, r8
    c098:	0e 94 7d 6e 	call	0xdcfa	; 0xdcfa <__divmodhi4>
    c09c:	c9 01       	movw	r24, r18
    c09e:	96 95       	lsr	r25
    c0a0:	98 2f       	mov	r25, r24
    c0a2:	88 27       	eor	r24, r24
    c0a4:	97 95       	ror	r25
    c0a6:	87 95       	ror	r24
    c0a8:	f5 01       	movw	r30, r10
    c0aa:	e5 53       	subi	r30, 0x35	; 53
    c0ac:	f9 4f       	sbci	r31, 0xF9	; 249
    c0ae:	20 81       	ld	r18, Z
    c0b0:	21 11       	cpse	r18, r1
    c0b2:	08 c0       	rjmp	.+16     	; 0xc0c4 <ProcessMixer+0xbea>
    c0b4:	60 9f       	mul	r22, r16
    c0b6:	a0 01       	movw	r20, r0
    c0b8:	61 9f       	mul	r22, r17
    c0ba:	50 0d       	add	r21, r0
    c0bc:	70 9f       	mul	r23, r16
    c0be:	50 0d       	add	r21, r0
    c0c0:	11 24       	eor	r1, r1
    c0c2:	2b c0       	rjmp	.+86     	; 0xc11a <ProcessMixer+0xc40>
    c0c4:	21 30       	cpi	r18, 0x01	; 1
    c0c6:	61 f4       	brne	.+24     	; 0xc0e0 <ProcessMixer+0xc06>
    c0c8:	77 ff       	sbrs	r23, 7
    c0ca:	05 c0       	rjmp	.+10     	; 0xc0d6 <ProcessMixer+0xbfc>
    c0cc:	6d 96       	adiw	r28, 0x1d	; 29
    c0ce:	ee ad       	ldd	r30, Y+62	; 0x3e
    c0d0:	ff ad       	ldd	r31, Y+63	; 0x3f
    c0d2:	6d 97       	sbiw	r28, 0x1d	; 29
    c0d4:	0b c0       	rjmp	.+22     	; 0xc0ec <ProcessMixer+0xc12>
    c0d6:	6b 96       	adiw	r28, 0x1b	; 27
    c0d8:	ee ad       	ldd	r30, Y+62	; 0x3e
    c0da:	ff ad       	ldd	r31, Y+63	; 0x3f
    c0dc:	6b 97       	sbiw	r28, 0x1b	; 27
    c0de:	12 c0       	rjmp	.+36     	; 0xc104 <ProcessMixer+0xc2a>
    c0e0:	77 ff       	sbrs	r23, 7
    c0e2:	0c c0       	rjmp	.+24     	; 0xc0fc <ProcessMixer+0xc22>
    c0e4:	69 96       	adiw	r28, 0x19	; 25
    c0e6:	ee ad       	ldd	r30, Y+62	; 0x3e
    c0e8:	ff ad       	ldd	r31, Y+63	; 0x3f
    c0ea:	69 97       	sbiw	r28, 0x19	; 25
    c0ec:	24 91       	lpm	r18, Z
    c0ee:	a4 01       	movw	r20, r8
    c0f0:	42 1b       	sub	r20, r18
    c0f2:	51 09       	sbc	r21, r1
    c0f4:	27 fd       	sbrc	r18, 7
    c0f6:	53 95       	inc	r21
    c0f8:	9a 01       	movw	r18, r20
    c0fa:	08 c0       	rjmp	.+16     	; 0xc10c <ProcessMixer+0xc32>
    c0fc:	67 96       	adiw	r28, 0x17	; 23
    c0fe:	ee ad       	ldd	r30, Y+62	; 0x3e
    c100:	ff ad       	ldd	r31, Y+63	; 0x3f
    c102:	67 97       	sbiw	r28, 0x17	; 23
    c104:	24 91       	lpm	r18, Z
    c106:	02 2e       	mov	r0, r18
    c108:	00 0c       	add	r0, r0
    c10a:	33 0b       	sbc	r19, r19
    c10c:	62 9f       	mul	r22, r18
    c10e:	a0 01       	movw	r20, r0
    c110:	63 9f       	mul	r22, r19
    c112:	50 0d       	add	r21, r0
    c114:	72 9f       	mul	r23, r18
    c116:	50 0d       	add	r21, r0
    c118:	11 24       	eor	r1, r1
    c11a:	84 0f       	add	r24, r20
    c11c:	95 1f       	adc	r25, r21
    c11e:	bc 01       	movw	r22, r24
    c120:	60 5c       	subi	r22, 0xC0	; 192
    c122:	7f 4f       	sbci	r23, 0xFF	; 255
    c124:	66 0f       	add	r22, r22
    c126:	67 2f       	mov	r22, r23
    c128:	66 1f       	adc	r22, r22
    c12a:	77 0b       	sbc	r23, r23
    c12c:	01 c0       	rjmp	.+2      	; 0xc130 <ProcessMixer+0xc56>
    c12e:	b9 01       	movw	r22, r18
    c130:	c1 01       	movw	r24, r2
    c132:	0e 94 92 58 	call	0xb124	; 0xb124 <scale32>
    c136:	88 5e       	subi	r24, 0xE8	; 232
    c138:	93 40       	sbci	r25, 0x03	; 3
    c13a:	f6 01       	movw	r30, r12
    c13c:	20 81       	ld	r18, Z
    c13e:	31 81       	ldd	r19, Z+1	; 0x01
    c140:	82 0f       	add	r24, r18
    c142:	93 1f       	adc	r25, r19
    c144:	91 83       	std	Z+1, r25	; 0x01
    c146:	80 83       	st	Z, r24
    c148:	08 c0       	rjmp	.+16     	; 0xc15a <ProcessMixer+0xc80>
    c14a:	f7 01       	movw	r30, r14
    c14c:	32 97       	sbiw	r30, 0x02	; 2
    c14e:	80 81       	ld	r24, Z
    c150:	82 30       	cpi	r24, 0x02	; 2
    c152:	19 f4       	brne	.+6      	; 0xc15a <ProcessMixer+0xc80>
    c154:	f6 01       	movw	r30, r12
    c156:	51 82       	std	Z+1, r5	; 0x01
    c158:	40 82       	st	Z, r4
    c15a:	f2 e2       	ldi	r31, 0x22	; 34
    c15c:	af 0e       	add	r10, r31
    c15e:	b1 1c       	adc	r11, r1
    c160:	22 e2       	ldi	r18, 0x22	; 34
    c162:	c2 0e       	add	r12, r18
    c164:	d1 1c       	adc	r13, r1
    c166:	32 e2       	ldi	r19, 0x22	; 34
    c168:	e3 0e       	add	r14, r19
    c16a:	f1 1c       	adc	r15, r1
    c16c:	40 e1       	ldi	r20, 0x10	; 16
    c16e:	a4 16       	cp	r10, r20
    c170:	41 e0       	ldi	r20, 0x01	; 1
    c172:	b4 06       	cpc	r11, r20
    c174:	09 f0       	breq	.+2      	; 0xc178 <ProcessMixer+0xc9e>
    c176:	74 cf       	rjmp	.-280    	; 0xc060 <ProcessMixer+0xb86>
    c178:	02 53       	subi	r16, 0x32	; 50
    c17a:	11 09       	sbc	r17, r1
    c17c:	84 e1       	ldi	r24, 0x14	; 20
    c17e:	80 9f       	mul	r24, r16
    c180:	70 01       	movw	r14, r0
    c182:	81 9f       	mul	r24, r17
    c184:	f0 0c       	add	r15, r0
    c186:	11 24       	eor	r1, r1
    c188:	16 e0       	ldi	r17, 0x06	; 6
    c18a:	a7 01       	movw	r20, r14
    c18c:	61 e0       	ldi	r22, 0x01	; 1
    c18e:	81 2f       	mov	r24, r17
    c190:	0e 94 cb 58 	call	0xb196	; 0xb196 <Process_curve>
    c194:	f3 01       	movw	r30, r6
    c196:	20 81       	ld	r18, Z
    c198:	31 81       	ldd	r19, Z+1	; 0x01
    c19a:	82 0f       	add	r24, r18
    c19c:	93 1f       	adc	r25, r19
    c19e:	91 83       	std	Z+1, r25	; 0x01
    c1a0:	80 83       	st	Z, r24
    c1a2:	1f 5f       	subi	r17, 0xFF	; 255
    c1a4:	f2 e2       	ldi	r31, 0x22	; 34
    c1a6:	6f 0e       	add	r6, r31
    c1a8:	71 1c       	adc	r7, r1
    c1aa:	1e 30       	cpi	r17, 0x0E	; 14
    c1ac:	71 f7       	brne	.-36     	; 0xc18a <ProcessMixer+0xcb0>
    c1ae:	ce 58       	subi	r28, 0x8E	; 142
    c1b0:	df 4f       	sbci	r29, 0xFF	; 255
    c1b2:	0f b6       	in	r0, 0x3f	; 63
    c1b4:	f8 94       	cli
    c1b6:	de bf       	out	0x3e, r29	; 62
    c1b8:	0f be       	out	0x3f, r0	; 63
    c1ba:	cd bf       	out	0x3d, r28	; 61
    c1bc:	df 91       	pop	r29
    c1be:	cf 91       	pop	r28
    c1c0:	1f 91       	pop	r17
    c1c2:	0f 91       	pop	r16
    c1c4:	ff 90       	pop	r15
    c1c6:	ef 90       	pop	r14
    c1c8:	df 90       	pop	r13
    c1ca:	cf 90       	pop	r12
    c1cc:	bf 90       	pop	r11
    c1ce:	af 90       	pop	r10
    c1d0:	9f 90       	pop	r9
    c1d2:	8f 90       	pop	r8
    c1d4:	7f 90       	pop	r7
    c1d6:	6f 90       	pop	r6
    c1d8:	5f 90       	pop	r5
    c1da:	4f 90       	pop	r4
    c1dc:	3f 90       	pop	r3
    c1de:	2f 90       	pop	r2
    c1e0:	08 95       	ret

0000c1e2 <mugui_text_sizestring>:
    c1e2:	df 92       	push	r13
    c1e4:	ef 92       	push	r14
    c1e6:	ff 92       	push	r15
    c1e8:	0f 93       	push	r16
    c1ea:	1f 93       	push	r17
    c1ec:	cf 93       	push	r28
    c1ee:	df 93       	push	r29
    c1f0:	fc 01       	movw	r30, r24
    c1f2:	01 90       	ld	r0, Z+
    c1f4:	00 20       	and	r0, r0
    c1f6:	e9 f7       	brne	.-6      	; 0xc1f2 <mugui_text_sizestring+0x10>
    c1f8:	31 97       	sbiw	r30, 0x01	; 1
    c1fa:	9f 01       	movw	r18, r30
    c1fc:	28 1b       	sub	r18, r24
    c1fe:	39 0b       	sbc	r19, r25
    c200:	fb 01       	movw	r30, r22
    c202:	34 96       	adiw	r30, 0x04	; 4
    c204:	e4 91       	lpm	r30, Z
    c206:	ce 2f       	mov	r28, r30
    c208:	d0 e0       	ldi	r29, 0x00	; 0
    c20a:	fb 01       	movw	r30, r22
    c20c:	32 96       	adiw	r30, 0x02	; 2
    c20e:	d4 90       	lpm	r13, Z
    c210:	dc 01       	movw	r26, r24
    c212:	82 0f       	add	r24, r18
    c214:	93 1f       	adc	r25, r19
    c216:	e1 2c       	mov	r14, r1
    c218:	f1 2c       	mov	r15, r1
    c21a:	a8 17       	cp	r26, r24
    c21c:	b9 07       	cpc	r27, r25
    c21e:	31 f1       	breq	.+76     	; 0xc26c <mugui_text_sizestring+0x8a>
    c220:	2d 91       	ld	r18, X+
    c222:	2d 19       	sub	r18, r13
    c224:	30 e0       	ldi	r19, 0x00	; 0
    c226:	22 0f       	add	r18, r18
    c228:	33 1f       	adc	r19, r19
    c22a:	f9 01       	movw	r30, r18
    c22c:	35 96       	adiw	r30, 0x05	; 5
    c22e:	e6 0f       	add	r30, r22
    c230:	f7 1f       	adc	r31, r23
    c232:	04 91       	lpm	r16, Z
    c234:	f9 01       	movw	r30, r18
    c236:	36 96       	adiw	r30, 0x06	; 6
    c238:	e6 0f       	add	r30, r22
    c23a:	f7 1f       	adc	r31, r23
    c23c:	e4 91       	lpm	r30, Z
    c23e:	10 e0       	ldi	r17, 0x00	; 0
    c240:	20 e0       	ldi	r18, 0x00	; 0
    c242:	30 e0       	ldi	r19, 0x00	; 0
    c244:	32 2f       	mov	r19, r18
    c246:	21 2f       	mov	r18, r17
    c248:	10 2f       	mov	r17, r16
    c24a:	00 27       	eor	r16, r16
    c24c:	0e 0f       	add	r16, r30
    c24e:	11 1d       	adc	r17, r1
    c250:	21 1d       	adc	r18, r1
    c252:	31 1d       	adc	r19, r1
    c254:	fb 01       	movw	r30, r22
    c256:	e0 0f       	add	r30, r16
    c258:	f1 1f       	adc	r31, r17
    c25a:	04 91       	lpm	r16, Z
    c25c:	e0 2f       	mov	r30, r16
    c25e:	f0 e0       	ldi	r31, 0x00	; 0
    c260:	8f 01       	movw	r16, r30
    c262:	0f 5f       	subi	r16, 0xFF	; 255
    c264:	1f 4f       	sbci	r17, 0xFF	; 255
    c266:	e0 0e       	add	r14, r16
    c268:	f1 1e       	adc	r15, r17
    c26a:	d7 cf       	rjmp	.-82     	; 0xc21a <mugui_text_sizestring+0x38>
    c26c:	fa 01       	movw	r30, r20
    c26e:	f1 82       	std	Z+1, r15	; 0x01
    c270:	e0 82       	st	Z, r14
    c272:	d3 83       	std	Z+3, r29	; 0x03
    c274:	c2 83       	std	Z+2, r28	; 0x02
    c276:	df 91       	pop	r29
    c278:	cf 91       	pop	r28
    c27a:	1f 91       	pop	r17
    c27c:	0f 91       	pop	r16
    c27e:	ff 90       	pop	r15
    c280:	ef 90       	pop	r14
    c282:	df 90       	pop	r13
    c284:	08 95       	ret

0000c286 <pgm_mugui_scopy>:
    c286:	a2 ea       	ldi	r26, 0xA2	; 162
    c288:	b5 e0       	ldi	r27, 0x05	; 5
    c28a:	20 e0       	ldi	r18, 0x00	; 0
    c28c:	30 e0       	ldi	r19, 0x00	; 0
    c28e:	fc 01       	movw	r30, r24
    c290:	e2 0f       	add	r30, r18
    c292:	f3 1f       	adc	r31, r19
    c294:	44 91       	lpm	r20, Z
    c296:	44 23       	and	r20, r20
    c298:	41 f0       	breq	.+16     	; 0xc2aa <pgm_mugui_scopy+0x24>
    c29a:	28 31       	cpi	r18, 0x18	; 24
    c29c:	31 05       	cpc	r19, r1
    c29e:	29 f0       	breq	.+10     	; 0xc2aa <pgm_mugui_scopy+0x24>
    c2a0:	e4 91       	lpm	r30, Z
    c2a2:	ed 93       	st	X+, r30
    c2a4:	2f 5f       	subi	r18, 0xFF	; 255
    c2a6:	3f 4f       	sbci	r19, 0xFF	; 255
    c2a8:	f2 cf       	rjmp	.-28     	; 0xc28e <pgm_mugui_scopy+0x8>
    c2aa:	f9 01       	movw	r30, r18
    c2ac:	ee 55       	subi	r30, 0x5E	; 94
    c2ae:	fa 4f       	sbci	r31, 0xFA	; 250
    c2b0:	10 82       	st	Z, r1
    c2b2:	08 95       	ret

0000c2b4 <mugui_lcd_putc>:
    c2b4:	2f 92       	push	r2
    c2b6:	3f 92       	push	r3
    c2b8:	4f 92       	push	r4
    c2ba:	5f 92       	push	r5
    c2bc:	6f 92       	push	r6
    c2be:	7f 92       	push	r7
    c2c0:	8f 92       	push	r8
    c2c2:	9f 92       	push	r9
    c2c4:	af 92       	push	r10
    c2c6:	bf 92       	push	r11
    c2c8:	cf 92       	push	r12
    c2ca:	df 92       	push	r13
    c2cc:	ef 92       	push	r14
    c2ce:	ff 92       	push	r15
    c2d0:	0f 93       	push	r16
    c2d2:	1f 93       	push	r17
    c2d4:	cf 93       	push	r28
    c2d6:	df 93       	push	r29
    c2d8:	cd b7       	in	r28, 0x3d	; 61
    c2da:	de b7       	in	r29, 0x3e	; 62
    c2dc:	27 97       	sbiw	r28, 0x07	; 7
    c2de:	0f b6       	in	r0, 0x3f	; 63
    c2e0:	f8 94       	cli
    c2e2:	de bf       	out	0x3e, r29	; 62
    c2e4:	0f be       	out	0x3f, r0	; 63
    c2e6:	cd bf       	out	0x3d, r28	; 61
    c2e8:	7b 01       	movw	r14, r22
    c2ea:	4c 83       	std	Y+4, r20	; 0x04
    c2ec:	2d 83       	std	Y+5, r18	; 0x05
    c2ee:	fb 01       	movw	r30, r22
    c2f0:	32 96       	adiw	r30, 0x02	; 2
    c2f2:	94 91       	lpm	r25, Z
    c2f4:	32 96       	adiw	r30, 0x02	; 2
    c2f6:	e4 91       	lpm	r30, Z
    c2f8:	4e 2e       	mov	r4, r30
    c2fa:	51 2c       	mov	r5, r1
    c2fc:	89 1b       	sub	r24, r25
    c2fe:	90 e0       	ldi	r25, 0x00	; 0
    c300:	88 0f       	add	r24, r24
    c302:	99 1f       	adc	r25, r25
    c304:	fc 01       	movw	r30, r24
    c306:	35 96       	adiw	r30, 0x05	; 5
    c308:	e6 0f       	add	r30, r22
    c30a:	f7 1f       	adc	r31, r23
    c30c:	44 91       	lpm	r20, Z
    c30e:	06 96       	adiw	r24, 0x06	; 6
    c310:	fb 01       	movw	r30, r22
    c312:	e8 0f       	add	r30, r24
    c314:	f9 1f       	adc	r31, r25
    c316:	84 91       	lpm	r24, Z
    c318:	50 e0       	ldi	r21, 0x00	; 0
    c31a:	60 e0       	ldi	r22, 0x00	; 0
    c31c:	70 e0       	ldi	r23, 0x00	; 0
    c31e:	76 2f       	mov	r23, r22
    c320:	65 2f       	mov	r22, r21
    c322:	54 2f       	mov	r21, r20
    c324:	44 27       	eor	r20, r20
    c326:	8a 01       	movw	r16, r20
    c328:	9b 01       	movw	r18, r22
    c32a:	08 0f       	add	r16, r24
    c32c:	11 1d       	adc	r17, r1
    c32e:	21 1d       	adc	r18, r1
    c330:	31 1d       	adc	r19, r1
    c332:	d9 01       	movw	r26, r18
    c334:	c8 01       	movw	r24, r16
    c336:	f7 01       	movw	r30, r14
    c338:	e0 0f       	add	r30, r16
    c33a:	f1 1f       	adc	r31, r17
    c33c:	e4 91       	lpm	r30, Z
    c33e:	0e 2f       	mov	r16, r30
    c340:	10 e0       	ldi	r17, 0x00	; 0
    c342:	92 01       	movw	r18, r4
    c344:	21 50       	subi	r18, 0x01	; 1
    c346:	31 09       	sbc	r19, r1
    c348:	43 e0       	ldi	r20, 0x03	; 3
    c34a:	36 95       	lsr	r19
    c34c:	27 95       	ror	r18
    c34e:	4a 95       	dec	r20
    c350:	e1 f7       	brne	.-8      	; 0xc34a <mugui_lcd_putc+0x96>
    c352:	41 e0       	ldi	r20, 0x01	; 1
    c354:	42 0f       	add	r20, r18
    c356:	49 83       	std	Y+1, r20	; 0x01
    c358:	24 2e       	mov	r2, r20
    c35a:	31 2c       	mov	r3, r1
    c35c:	fc 01       	movw	r30, r24
    c35e:	31 96       	adiw	r30, 0x01	; 1
    c360:	ff 83       	std	Y+7, r31	; 0x07
    c362:	ee 83       	std	Y+6, r30	; 0x06
    c364:	c1 2c       	mov	r12, r1
    c366:	d1 2c       	mov	r13, r1
    c368:	c0 16       	cp	r12, r16
    c36a:	d1 06       	cpc	r13, r17
    c36c:	08 f0       	brcs	.+2      	; 0xc370 <mugui_lcd_putc+0xbc>
    c36e:	44 c0       	rjmp	.+136    	; 0xc3f8 <mugui_lcd_putc+0x144>
    c370:	a1 2c       	mov	r10, r1
    c372:	b1 2c       	mov	r11, r1
    c374:	81 2c       	mov	r8, r1
    c376:	91 2c       	mov	r9, r1
    c378:	3c 81       	ldd	r19, Y+4	; 0x04
    c37a:	3c 0d       	add	r19, r12
    c37c:	3a 83       	std	Y+2, r19	; 0x02
    c37e:	39 81       	ldd	r19, Y+1	; 0x01
    c380:	a3 16       	cp	r10, r19
    c382:	80 f5       	brcc	.+96     	; 0xc3e4 <mugui_lcd_putc+0x130>
    c384:	ee 81       	ldd	r30, Y+6	; 0x06
    c386:	ff 81       	ldd	r31, Y+7	; 0x07
    c388:	ea 0d       	add	r30, r10
    c38a:	fb 1d       	adc	r31, r11
    c38c:	ee 0d       	add	r30, r14
    c38e:	ff 1d       	adc	r31, r15
    c390:	34 91       	lpm	r19, Z
    c392:	3b 83       	std	Y+3, r19	; 0x03
    c394:	61 2c       	mov	r6, r1
    c396:	71 2c       	mov	r7, r1
    c398:	84 14       	cp	r8, r4
    c39a:	95 04       	cpc	r9, r5
    c39c:	f8 f4       	brcc	.+62     	; 0xc3dc <mugui_lcd_putc+0x128>
    c39e:	81 e0       	ldi	r24, 0x01	; 1
    c3a0:	90 e0       	ldi	r25, 0x00	; 0
    c3a2:	06 2c       	mov	r0, r6
    c3a4:	01 c0       	rjmp	.+2      	; 0xc3a8 <mugui_lcd_putc+0xf4>
    c3a6:	88 0f       	add	r24, r24
    c3a8:	0a 94       	dec	r0
    c3aa:	ea f7       	brpl	.-6      	; 0xc3a6 <mugui_lcd_putc+0xf2>
    c3ac:	3b 81       	ldd	r19, Y+3	; 0x03
    c3ae:	83 23       	and	r24, r19
    c3b0:	4d 81       	ldd	r20, Y+5	; 0x05
    c3b2:	48 0d       	add	r20, r8
    c3b4:	88 23       	and	r24, r24
    c3b6:	11 f0       	breq	.+4      	; 0xc3bc <mugui_lcd_putc+0x108>
    c3b8:	21 e0       	ldi	r18, 0x01	; 1
    c3ba:	01 c0       	rjmp	.+2      	; 0xc3be <mugui_lcd_putc+0x10a>
    c3bc:	20 e0       	ldi	r18, 0x00	; 0
    c3be:	6a 81       	ldd	r22, Y+2	; 0x02
    c3c0:	80 e0       	ldi	r24, 0x00	; 0
    c3c2:	91 e0       	ldi	r25, 0x01	; 1
    c3c4:	0e 94 79 36 	call	0x6cf2	; 0x6cf2 <setpixel>
    c3c8:	4f ef       	ldi	r20, 0xFF	; 255
    c3ca:	84 1a       	sub	r8, r20
    c3cc:	94 0a       	sbc	r9, r20
    c3ce:	8f ef       	ldi	r24, 0xFF	; 255
    c3d0:	68 1a       	sub	r6, r24
    c3d2:	78 0a       	sbc	r7, r24
    c3d4:	98 e0       	ldi	r25, 0x08	; 8
    c3d6:	69 16       	cp	r6, r25
    c3d8:	71 04       	cpc	r7, r1
    c3da:	f1 f6       	brne	.-68     	; 0xc398 <mugui_lcd_putc+0xe4>
    c3dc:	af ef       	ldi	r26, 0xFF	; 255
    c3de:	aa 1a       	sub	r10, r26
    c3e0:	ba 0a       	sbc	r11, r26
    c3e2:	cd cf       	rjmp	.-102    	; 0xc37e <mugui_lcd_putc+0xca>
    c3e4:	4f ef       	ldi	r20, 0xFF	; 255
    c3e6:	c4 1a       	sub	r12, r20
    c3e8:	d4 0a       	sbc	r13, r20
    c3ea:	8e 81       	ldd	r24, Y+6	; 0x06
    c3ec:	9f 81       	ldd	r25, Y+7	; 0x07
    c3ee:	82 0d       	add	r24, r2
    c3f0:	93 1d       	adc	r25, r3
    c3f2:	9f 83       	std	Y+7, r25	; 0x07
    c3f4:	8e 83       	std	Y+6, r24	; 0x06
    c3f6:	b8 cf       	rjmp	.-144    	; 0xc368 <mugui_lcd_putc+0xb4>
    c3f8:	c8 01       	movw	r24, r16
    c3fa:	27 96       	adiw	r28, 0x07	; 7
    c3fc:	0f b6       	in	r0, 0x3f	; 63
    c3fe:	f8 94       	cli
    c400:	de bf       	out	0x3e, r29	; 62
    c402:	0f be       	out	0x3f, r0	; 63
    c404:	cd bf       	out	0x3d, r28	; 61
    c406:	df 91       	pop	r29
    c408:	cf 91       	pop	r28
    c40a:	1f 91       	pop	r17
    c40c:	0f 91       	pop	r16
    c40e:	ff 90       	pop	r15
    c410:	ef 90       	pop	r14
    c412:	df 90       	pop	r13
    c414:	cf 90       	pop	r12
    c416:	bf 90       	pop	r11
    c418:	af 90       	pop	r10
    c41a:	9f 90       	pop	r9
    c41c:	8f 90       	pop	r8
    c41e:	7f 90       	pop	r7
    c420:	6f 90       	pop	r6
    c422:	5f 90       	pop	r5
    c424:	4f 90       	pop	r4
    c426:	3f 90       	pop	r3
    c428:	2f 90       	pop	r2
    c42a:	08 95       	ret

0000c42c <pgm_mugui_lcd_puts>:
    c42c:	af 92       	push	r10
    c42e:	bf 92       	push	r11
    c430:	cf 92       	push	r12
    c432:	df 92       	push	r13
    c434:	ef 92       	push	r14
    c436:	ff 92       	push	r15
    c438:	0f 93       	push	r16
    c43a:	1f 93       	push	r17
    c43c:	cf 93       	push	r28
    c43e:	df 93       	push	r29
    c440:	ec 01       	movw	r28, r24
    c442:	7b 01       	movw	r14, r22
    c444:	6a 01       	movw	r12, r20
    c446:	59 01       	movw	r10, r18
    c448:	00 e0       	ldi	r16, 0x00	; 0
    c44a:	10 e0       	ldi	r17, 0x00	; 0
    c44c:	ce 01       	movw	r24, r28
    c44e:	fe 01       	movw	r30, r28
    c450:	24 91       	lpm	r18, Z
    c452:	22 23       	and	r18, r18
    c454:	71 f0       	breq	.+28     	; 0xc472 <pgm_mugui_lcd_puts+0x46>
    c456:	21 96       	adiw	r28, 0x01	; 1
    c458:	fc 01       	movw	r30, r24
    c45a:	84 91       	lpm	r24, Z
    c45c:	a8 01       	movw	r20, r16
    c45e:	4c 0d       	add	r20, r12
    c460:	5d 1d       	adc	r21, r13
    c462:	95 01       	movw	r18, r10
    c464:	b7 01       	movw	r22, r14
    c466:	0e 94 5a 61 	call	0xc2b4	; 0xc2b4 <mugui_lcd_putc>
    c46a:	01 96       	adiw	r24, 0x01	; 1
    c46c:	08 0f       	add	r16, r24
    c46e:	19 1f       	adc	r17, r25
    c470:	ed cf       	rjmp	.-38     	; 0xc44c <pgm_mugui_lcd_puts+0x20>
    c472:	df 91       	pop	r29
    c474:	cf 91       	pop	r28
    c476:	1f 91       	pop	r17
    c478:	0f 91       	pop	r16
    c47a:	ff 90       	pop	r15
    c47c:	ef 90       	pop	r14
    c47e:	df 90       	pop	r13
    c480:	cf 90       	pop	r12
    c482:	bf 90       	pop	r11
    c484:	af 90       	pop	r10
    c486:	08 95       	ret

0000c488 <mugui_lcd_puts>:
    c488:	8f 92       	push	r8
    c48a:	9f 92       	push	r9
    c48c:	af 92       	push	r10
    c48e:	bf 92       	push	r11
    c490:	cf 92       	push	r12
    c492:	df 92       	push	r13
    c494:	ef 92       	push	r14
    c496:	ff 92       	push	r15
    c498:	0f 93       	push	r16
    c49a:	1f 93       	push	r17
    c49c:	cf 93       	push	r28
    c49e:	df 93       	push	r29
    c4a0:	7b 01       	movw	r14, r22
    c4a2:	6a 01       	movw	r12, r20
    c4a4:	59 01       	movw	r10, r18
    c4a6:	fc 01       	movw	r30, r24
    c4a8:	01 90       	ld	r0, Z+
    c4aa:	00 20       	and	r0, r0
    c4ac:	e9 f7       	brne	.-6      	; 0xc4a8 <mugui_lcd_puts+0x20>
    c4ae:	ec 01       	movw	r28, r24
    c4b0:	cf 01       	movw	r24, r30
    c4b2:	01 97       	sbiw	r24, 0x01	; 1
    c4b4:	4c 01       	movw	r8, r24
    c4b6:	00 e0       	ldi	r16, 0x00	; 0
    c4b8:	10 e0       	ldi	r17, 0x00	; 0
    c4ba:	c8 15       	cp	r28, r8
    c4bc:	d9 05       	cpc	r29, r9
    c4be:	61 f0       	breq	.+24     	; 0xc4d8 <mugui_lcd_puts+0x50>
    c4c0:	a8 01       	movw	r20, r16
    c4c2:	4c 0d       	add	r20, r12
    c4c4:	5d 1d       	adc	r21, r13
    c4c6:	95 01       	movw	r18, r10
    c4c8:	b7 01       	movw	r22, r14
    c4ca:	89 91       	ld	r24, Y+
    c4cc:	0e 94 5a 61 	call	0xc2b4	; 0xc2b4 <mugui_lcd_putc>
    c4d0:	01 96       	adiw	r24, 0x01	; 1
    c4d2:	08 0f       	add	r16, r24
    c4d4:	19 1f       	adc	r17, r25
    c4d6:	f1 cf       	rjmp	.-30     	; 0xc4ba <mugui_lcd_puts+0x32>
    c4d8:	df 91       	pop	r29
    c4da:	cf 91       	pop	r28
    c4dc:	1f 91       	pop	r17
    c4de:	0f 91       	pop	r16
    c4e0:	ff 90       	pop	r15
    c4e2:	ef 90       	pop	r14
    c4e4:	df 90       	pop	r13
    c4e6:	cf 90       	pop	r12
    c4e8:	bf 90       	pop	r11
    c4ea:	af 90       	pop	r10
    c4ec:	9f 90       	pop	r9
    c4ee:	8f 90       	pop	r8
    c4f0:	08 95       	ret

0000c4f2 <Sensor_PID>:
    c4f2:	2f 92       	push	r2
    c4f4:	3f 92       	push	r3
    c4f6:	4f 92       	push	r4
    c4f8:	5f 92       	push	r5
    c4fa:	6f 92       	push	r6
    c4fc:	7f 92       	push	r7
    c4fe:	8f 92       	push	r8
    c500:	9f 92       	push	r9
    c502:	af 92       	push	r10
    c504:	bf 92       	push	r11
    c506:	cf 92       	push	r12
    c508:	df 92       	push	r13
    c50a:	ef 92       	push	r14
    c50c:	ff 92       	push	r15
    c50e:	0f 93       	push	r16
    c510:	1f 93       	push	r17
    c512:	cf 93       	push	r28
    c514:	df 93       	push	r29
    c516:	cd b7       	in	r28, 0x3d	; 61
    c518:	de b7       	in	r29, 0x3e	; 62
    c51a:	a7 97       	sbiw	r28, 0x27	; 39
    c51c:	0f b6       	in	r0, 0x3f	; 63
    c51e:	f8 94       	cli
    c520:	de bf       	out	0x3e, r29	; 62
    c522:	0f be       	out	0x3f, r0	; 63
    c524:	cd bf       	out	0x3d, r28	; 61
    c526:	6c a3       	std	Y+36, r22	; 0x24
    c528:	7d a3       	std	Y+37, r23	; 0x25
    c52a:	8e a3       	std	Y+38, r24	; 0x26
    c52c:	9f a3       	std	Y+39, r25	; 0x27
    c52e:	1d 86       	std	Y+13, r1	; 0x0d
    c530:	1e 86       	std	Y+14, r1	; 0x0e
    c532:	1f 86       	std	Y+15, r1	; 0x0f
    c534:	18 8a       	std	Y+16, r1	; 0x10
    c536:	80 91 65 09 	lds	r24, 0x0965
    c53a:	90 91 66 09 	lds	r25, 0x0966
    c53e:	91 95       	neg	r25
    c540:	81 95       	neg	r24
    c542:	91 09       	sbc	r25, r1
    c544:	98 87       	std	Y+8, r25	; 0x08
    c546:	8f 83       	std	Y+7, r24	; 0x07
    c548:	80 91 67 09 	lds	r24, 0x0967
    c54c:	90 91 68 09 	lds	r25, 0x0968
    c550:	9a 87       	std	Y+10, r25	; 0x0a
    c552:	89 87       	std	Y+9, r24	; 0x09
    c554:	80 91 69 09 	lds	r24, 0x0969
    c558:	90 91 6a 09 	lds	r25, 0x096A
    c55c:	9c 87       	std	Y+12, r25	; 0x0c
    c55e:	8b 87       	std	Y+11, r24	; 0x0b
    c560:	80 91 51 06 	lds	r24, 0x0651
    c564:	89 83       	std	Y+1, r24	; 0x01
    c566:	80 91 57 06 	lds	r24, 0x0657
    c56a:	8a 83       	std	Y+2, r24	; 0x02
    c56c:	80 91 5d 06 	lds	r24, 0x065D
    c570:	8b 83       	std	Y+3, r24	; 0x03
    c572:	80 91 65 06 	lds	r24, 0x0665
    c576:	8c 83       	std	Y+4, r24	; 0x04
    c578:	80 91 6b 06 	lds	r24, 0x066B
    c57c:	8d 83       	std	Y+5, r24	; 0x05
    c57e:	80 91 71 06 	lds	r24, 0x0671
    c582:	8e 83       	std	Y+6, r24	; 0x06
    c584:	80 91 4c 06 	lds	r24, 0x064C
    c588:	81 30       	cpi	r24, 0x01	; 1
    c58a:	09 f0       	breq	.+2      	; 0xc58e <Sensor_PID+0x9c>
    c58c:	d8 c0       	rjmp	.+432    	; 0xc73e <Sensor_PID+0x24c>
    c58e:	60 91 c1 05 	lds	r22, 0x05C1
    c592:	70 91 c2 05 	lds	r23, 0x05C2
    c596:	80 91 c3 05 	lds	r24, 0x05C3
    c59a:	90 91 c4 05 	lds	r25, 0x05C4
    c59e:	68 0f       	add	r22, r24
    c5a0:	79 1f       	adc	r23, r25
    c5a2:	80 91 c5 05 	lds	r24, 0x05C5
    c5a6:	90 91 c6 05 	lds	r25, 0x05C6
    c5aa:	68 0f       	add	r22, r24
    c5ac:	79 1f       	adc	r23, r25
    c5ae:	07 2e       	mov	r0, r23
    c5b0:	00 0c       	add	r0, r0
    c5b2:	88 0b       	sbc	r24, r24
    c5b4:	99 0b       	sbc	r25, r25
    c5b6:	0e 94 47 6d 	call	0xda8e	; 0xda8e <__floatsisf>
    c5ba:	4b 01       	movw	r8, r22
    c5bc:	5c 01       	movw	r10, r24
    c5be:	40 90 64 05 	lds	r4, 0x0564
    c5c2:	50 90 65 05 	lds	r5, 0x0565
    c5c6:	60 90 66 05 	lds	r6, 0x0566
    c5ca:	70 90 67 05 	lds	r7, 0x0567
    c5ce:	2d ef       	ldi	r18, 0xFD	; 253
    c5d0:	3d ea       	ldi	r19, 0xAD	; 173
    c5d2:	40 e8       	ldi	r20, 0x80	; 128
    c5d4:	5e e3       	ldi	r21, 0x3E	; 62
    c5d6:	0e 94 fc 6d 	call	0xdbf8	; 0xdbf8 <__mulsf3>
    c5da:	a3 01       	movw	r20, r6
    c5dc:	92 01       	movw	r18, r4
    c5de:	0e 94 2b 6c 	call	0xd856	; 0xd856 <__subsf3>
    c5e2:	6b 01       	movw	r12, r22
    c5e4:	7c 01       	movw	r14, r24
    c5e6:	60 93 60 05 	sts	0x0560, r22
    c5ea:	70 93 61 05 	sts	0x0561, r23
    c5ee:	80 93 62 05 	sts	0x0562, r24
    c5f2:	90 93 63 05 	sts	0x0563, r25
    c5f6:	80 91 5c 05 	lds	r24, 0x055C
    c5fa:	90 91 5d 05 	lds	r25, 0x055D
    c5fe:	a0 91 5e 05 	lds	r26, 0x055E
    c602:	b0 91 5f 05 	lds	r27, 0x055F
    c606:	89 8b       	std	Y+17, r24	; 0x11
    c608:	9a 8b       	std	Y+18, r25	; 0x12
    c60a:	ab 8b       	std	Y+19, r26	; 0x13
    c60c:	bc 8b       	std	Y+20, r27	; 0x14
    c60e:	a7 01       	movw	r20, r14
    c610:	96 01       	movw	r18, r12
    c612:	bc 01       	movw	r22, r24
    c614:	cd 01       	movw	r24, r26
    c616:	0e 94 2c 6c 	call	0xd858	; 0xd858 <__addsf3>
    c61a:	2d ed       	ldi	r18, 0xDD	; 221
    c61c:	35 ea       	ldi	r19, 0xA5	; 165
    c61e:	4e e7       	ldi	r20, 0x7E	; 126
    c620:	50 e4       	ldi	r21, 0x40	; 64
    c622:	0e 94 9d 6c 	call	0xd93a	; 0xd93a <__divsf3>
    c626:	9b 01       	movw	r18, r22
    c628:	ac 01       	movw	r20, r24
    c62a:	c3 01       	movw	r24, r6
    c62c:	b2 01       	movw	r22, r4
    c62e:	0e 94 2c 6c 	call	0xd858	; 0xd858 <__addsf3>
    c632:	2b 01       	movw	r4, r22
    c634:	3c 01       	movw	r6, r24
    c636:	60 93 64 05 	sts	0x0564, r22
    c63a:	70 93 65 05 	sts	0x0565, r23
    c63e:	80 93 66 05 	sts	0x0566, r24
    c642:	90 93 67 05 	sts	0x0567, r25
    c646:	2d ed       	ldi	r18, 0xDD	; 221
    c648:	35 ea       	ldi	r19, 0xA5	; 165
    c64a:	4e e7       	ldi	r20, 0x7E	; 126
    c64c:	50 e4       	ldi	r21, 0x40	; 64
    c64e:	c7 01       	movw	r24, r14
    c650:	b6 01       	movw	r22, r12
    c652:	0e 94 9d 6c 	call	0xd93a	; 0xd93a <__divsf3>
    c656:	9b 01       	movw	r18, r22
    c658:	ac 01       	movw	r20, r24
    c65a:	69 89       	ldd	r22, Y+17	; 0x11
    c65c:	7a 89       	ldd	r23, Y+18	; 0x12
    c65e:	8b 89       	ldd	r24, Y+19	; 0x13
    c660:	9c 89       	ldd	r25, Y+20	; 0x14
    c662:	0e 94 2c 6c 	call	0xd858	; 0xd858 <__addsf3>
    c666:	60 93 5c 05 	sts	0x055C, r22
    c66a:	70 93 5d 05 	sts	0x055D, r23
    c66e:	80 93 5e 05 	sts	0x055E, r24
    c672:	90 93 5f 05 	sts	0x055F, r25
    c676:	2d ef       	ldi	r18, 0xFD	; 253
    c678:	3d ea       	ldi	r19, 0xAD	; 173
    c67a:	40 e8       	ldi	r20, 0x80	; 128
    c67c:	5e e3       	ldi	r21, 0x3E	; 62
    c67e:	c3 01       	movw	r24, r6
    c680:	b2 01       	movw	r22, r4
    c682:	0e 94 9d 6c 	call	0xd93a	; 0xd93a <__divsf3>
    c686:	9b 01       	movw	r18, r22
    c688:	ac 01       	movw	r20, r24
    c68a:	c5 01       	movw	r24, r10
    c68c:	b4 01       	movw	r22, r8
    c68e:	0e 94 2b 6c 	call	0xd856	; 0xd856 <__subsf3>
    c692:	4b 01       	movw	r8, r22
    c694:	5c 01       	movw	r10, r24
    c696:	60 93 58 05 	sts	0x0558, r22
    c69a:	70 93 59 05 	sts	0x0559, r23
    c69e:	80 93 5a 05 	sts	0x055A, r24
    c6a2:	90 93 5b 05 	sts	0x055B, r25
    c6a6:	20 e0       	ldi	r18, 0x00	; 0
    c6a8:	30 e0       	ldi	r19, 0x00	; 0
    c6aa:	46 ec       	ldi	r20, 0xC6	; 198
    c6ac:	52 e4       	ldi	r21, 0x42	; 66
    c6ae:	60 91 5d 09 	lds	r22, 0x095D
    c6b2:	70 91 5e 09 	lds	r23, 0x095E
    c6b6:	80 91 5f 09 	lds	r24, 0x095F
    c6ba:	90 91 60 09 	lds	r25, 0x0960
    c6be:	0e 94 fc 6d 	call	0xdbf8	; 0xdbf8 <__mulsf3>
    c6c2:	6b 01       	movw	r12, r22
    c6c4:	7c 01       	movw	r14, r24
    c6c6:	c5 01       	movw	r24, r10
    c6c8:	b4 01       	movw	r22, r8
    c6ca:	0e 94 0f 6d 	call	0xda1e	; 0xda1e <__fixsfsi>
    c6ce:	9b 01       	movw	r18, r22
    c6d0:	77 ff       	sbrs	r23, 7
    c6d2:	04 c0       	rjmp	.+8      	; 0xc6dc <Sensor_PID+0x1ea>
    c6d4:	22 27       	eor	r18, r18
    c6d6:	33 27       	eor	r19, r19
    c6d8:	26 1b       	sub	r18, r22
    c6da:	37 0b       	sbc	r19, r23
    c6dc:	b9 01       	movw	r22, r18
    c6de:	33 0f       	add	r19, r19
    c6e0:	88 0b       	sbc	r24, r24
    c6e2:	99 0b       	sbc	r25, r25
    c6e4:	0e 94 47 6d 	call	0xda8e	; 0xda8e <__floatsisf>
    c6e8:	9b 01       	movw	r18, r22
    c6ea:	ac 01       	movw	r20, r24
    c6ec:	c7 01       	movw	r24, r14
    c6ee:	b6 01       	movw	r22, r12
    c6f0:	0e 94 2c 6c 	call	0xd858	; 0xd858 <__addsf3>
    c6f4:	20 e0       	ldi	r18, 0x00	; 0
    c6f6:	30 e0       	ldi	r19, 0x00	; 0
    c6f8:	48 ec       	ldi	r20, 0xC8	; 200
    c6fa:	52 e4       	ldi	r21, 0x42	; 66
    c6fc:	0e 94 9d 6c 	call	0xd93a	; 0xd93a <__divsf3>
    c700:	6b 01       	movw	r12, r22
    c702:	7c 01       	movw	r14, r24
    c704:	20 e0       	ldi	r18, 0x00	; 0
    c706:	30 ec       	ldi	r19, 0xC0	; 192
    c708:	49 e7       	ldi	r20, 0x79	; 121
    c70a:	54 e4       	ldi	r21, 0x44	; 68
    c70c:	0e 94 f7 6d 	call	0xdbee	; 0xdbee <__gesf2>
    c710:	18 16       	cp	r1, r24
    c712:	4c f0       	brlt	.+18     	; 0xc726 <Sensor_PID+0x234>
    c714:	c0 92 5d 09 	sts	0x095D, r12
    c718:	d0 92 5e 09 	sts	0x095E, r13
    c71c:	e0 92 5f 09 	sts	0x095F, r14
    c720:	f0 92 60 09 	sts	0x0960, r15
    c724:	0c c0       	rjmp	.+24     	; 0xc73e <Sensor_PID+0x24c>
    c726:	80 e0       	ldi	r24, 0x00	; 0
    c728:	90 ec       	ldi	r25, 0xC0	; 192
    c72a:	a9 e7       	ldi	r26, 0x79	; 121
    c72c:	b4 e4       	ldi	r27, 0x44	; 68
    c72e:	80 93 5d 09 	sts	0x095D, r24
    c732:	90 93 5e 09 	sts	0x095E, r25
    c736:	a0 93 5f 09 	sts	0x095F, r26
    c73a:	b0 93 60 09 	sts	0x0960, r27
    c73e:	de 01       	movw	r26, r28
    c740:	11 96       	adiw	r26, 0x01	; 1
    c742:	b9 a3       	std	Y+33, r27	; 0x21
    c744:	a8 a3       	std	Y+32, r26	; 0x20
    c746:	e1 e5       	ldi	r30, 0x51	; 81
    c748:	f9 e0       	ldi	r31, 0x09	; 9
    c74a:	fe 8f       	std	Y+30, r31	; 0x1e
    c74c:	ed 8f       	std	Y+29, r30	; 0x1d
    c74e:	01 e0       	ldi	r16, 0x01	; 1
    c750:	19 e0       	ldi	r17, 0x09	; 9
    c752:	29 e1       	ldi	r18, 0x19	; 25
    c754:	36 e0       	ldi	r19, 0x06	; 6
    c756:	38 8f       	std	Y+24, r19	; 0x18
    c758:	2f 8b       	std	Y+23, r18	; 0x17
    c75a:	8d e2       	ldi	r24, 0x2D	; 45
    c75c:	99 e0       	ldi	r25, 0x09	; 9
    c75e:	9a 8b       	std	Y+18, r25	; 0x12
    c760:	89 8b       	std	Y+17, r24	; 0x11
    c762:	ab eb       	ldi	r26, 0xBB	; 187
    c764:	b5 e0       	ldi	r27, 0x05	; 5
    c766:	be 8b       	std	Y+22, r27	; 0x16
    c768:	ad 8b       	std	Y+21, r26	; 0x15
    c76a:	1e 01       	movw	r2, r28
    c76c:	b7 e0       	ldi	r27, 0x07	; 7
    c76e:	2b 0e       	add	r2, r27
    c770:	31 1c       	adc	r3, r1
    c772:	fe 01       	movw	r30, r28
    c774:	34 96       	adiw	r30, 0x04	; 4
    c776:	fb a3       	std	Y+35, r31	; 0x23
    c778:	ea a3       	std	Y+34, r30	; 0x22
    c77a:	1f 8e       	std	Y+31, r1	; 0x1f
    c77c:	a8 a1       	ldd	r26, Y+32	; 0x20
    c77e:	b9 a1       	ldd	r27, Y+33	; 0x21
    c780:	2d 91       	ld	r18, X+
    c782:	b9 a3       	std	Y+33, r27	; 0x21
    c784:	a8 a3       	std	Y+32, r26	; 0x20
    c786:	82 2f       	mov	r24, r18
    c788:	02 2e       	mov	r0, r18
    c78a:	00 0c       	add	r0, r0
    c78c:	99 0b       	sbc	r25, r25
    c78e:	27 30       	cpi	r18, 0x07	; 7
    c790:	6c f4       	brge	.+26     	; 0xc7ac <Sensor_PID+0x2ba>
    c792:	e6 e0       	ldi	r30, 0x06	; 6
    c794:	f0 e0       	ldi	r31, 0x00	; 0
    c796:	e8 1b       	sub	r30, r24
    c798:	f9 0b       	sbc	r31, r25
    c79a:	d1 01       	movw	r26, r2
    c79c:	6d 90       	ld	r6, X+
    c79e:	7c 90       	ld	r7, X
    c7a0:	02 c0       	rjmp	.+4      	; 0xc7a6 <Sensor_PID+0x2b4>
    c7a2:	75 94       	asr	r7
    c7a4:	67 94       	ror	r6
    c7a6:	ea 95       	dec	r30
    c7a8:	e2 f7       	brpl	.-8      	; 0xc7a2 <Sensor_PID+0x2b0>
    c7aa:	09 c0       	rjmp	.+18     	; 0xc7be <Sensor_PID+0x2cc>
    c7ac:	06 97       	sbiw	r24, 0x06	; 6
    c7ae:	f1 01       	movw	r30, r2
    c7b0:	60 80       	ld	r6, Z
    c7b2:	71 80       	ldd	r7, Z+1	; 0x01
    c7b4:	02 c0       	rjmp	.+4      	; 0xc7ba <Sensor_PID+0x2c8>
    c7b6:	66 0c       	add	r6, r6
    c7b8:	77 1c       	adc	r7, r7
    c7ba:	8a 95       	dec	r24
    c7bc:	e2 f7       	brpl	.-8      	; 0xc7b6 <Sensor_PID+0x2c4>
    c7be:	aa a1       	ldd	r26, Y+34	; 0x22
    c7c0:	bb a1       	ldd	r27, Y+35	; 0x23
    c7c2:	2d 91       	ld	r18, X+
    c7c4:	bb a3       	std	Y+35, r27	; 0x23
    c7c6:	aa a3       	std	Y+34, r26	; 0x22
    c7c8:	82 2f       	mov	r24, r18
    c7ca:	02 2e       	mov	r0, r18
    c7cc:	00 0c       	add	r0, r0
    c7ce:	99 0b       	sbc	r25, r25
    c7d0:	27 30       	cpi	r18, 0x07	; 7
    c7d2:	6c f4       	brge	.+26     	; 0xc7ee <Sensor_PID+0x2fc>
    c7d4:	e6 e0       	ldi	r30, 0x06	; 6
    c7d6:	f0 e0       	ldi	r31, 0x00	; 0
    c7d8:	e8 1b       	sub	r30, r24
    c7da:	f9 0b       	sbc	r31, r25
    c7dc:	d1 01       	movw	r26, r2
    c7de:	4d 90       	ld	r4, X+
    c7e0:	5c 90       	ld	r5, X
    c7e2:	02 c0       	rjmp	.+4      	; 0xc7e8 <Sensor_PID+0x2f6>
    c7e4:	55 94       	asr	r5
    c7e6:	47 94       	ror	r4
    c7e8:	ea 95       	dec	r30
    c7ea:	e2 f7       	brpl	.-8      	; 0xc7e4 <Sensor_PID+0x2f2>
    c7ec:	09 c0       	rjmp	.+18     	; 0xc800 <Sensor_PID+0x30e>
    c7ee:	06 97       	sbiw	r24, 0x06	; 6
    c7f0:	f1 01       	movw	r30, r2
    c7f2:	40 80       	ld	r4, Z
    c7f4:	51 80       	ldd	r5, Z+1	; 0x01
    c7f6:	02 c0       	rjmp	.+4      	; 0xc7fc <Sensor_PID+0x30a>
    c7f8:	44 0c       	add	r4, r4
    c7fa:	55 1c       	adc	r5, r5
    c7fc:	8a 95       	dec	r24
    c7fe:	e2 f7       	brpl	.-8      	; 0xc7f8 <Sensor_PID+0x306>
    c800:	80 91 43 06 	lds	r24, 0x0643
    c804:	60 91 c0 06 	lds	r22, 0x06C0
    c808:	82 30       	cpi	r24, 0x02	; 2
    c80a:	39 f0       	breq	.+14     	; 0xc81a <Sensor_PID+0x328>
    c80c:	f4 e0       	ldi	r31, 0x04	; 4
    c80e:	6f 02       	muls	r22, r31
    c810:	b0 01       	movw	r22, r0
    c812:	11 24       	eor	r1, r1
    c814:	66 55       	subi	r22, 0x56	; 86
    c816:	7b 4d       	sbci	r23, 0xDB	; 219
    c818:	06 c0       	rjmp	.+12     	; 0xc826 <Sensor_PID+0x334>
    c81a:	24 e0       	ldi	r18, 0x04	; 4
    c81c:	62 02       	muls	r22, r18
    c81e:	b0 01       	movw	r22, r0
    c820:	11 24       	eor	r1, r1
    c822:	66 57       	subi	r22, 0x76	; 118
    c824:	7b 4d       	sbci	r23, 0xDB	; 219
    c826:	44 e0       	ldi	r20, 0x04	; 4
    c828:	50 e0       	ldi	r21, 0x00	; 0
    c82a:	ce 01       	movw	r24, r28
    c82c:	0d 96       	adiw	r24, 0x0d	; 13
    c82e:	0e 94 09 6f 	call	0xde12	; 0xde12 <memcpy_P>
    c832:	ad 89       	ldd	r26, Y+21	; 0x15
    c834:	be 89       	ldd	r27, Y+22	; 0x16
    c836:	6d 91       	ld	r22, X+
    c838:	7c 91       	ld	r23, X
    c83a:	07 2e       	mov	r0, r23
    c83c:	00 0c       	add	r0, r0
    c83e:	88 0b       	sbc	r24, r24
    c840:	99 0b       	sbc	r25, r25
    c842:	0e 94 47 6d 	call	0xda8e	; 0xda8e <__floatsisf>
    c846:	6b 01       	movw	r12, r22
    c848:	7c 01       	movw	r14, r24
    c84a:	80 91 c0 06 	lds	r24, 0x06C0
    c84e:	87 30       	cpi	r24, 0x07	; 7
    c850:	21 f1       	breq	.+72     	; 0xc89a <Sensor_PID+0x3a8>
    c852:	8d 84       	ldd	r8, Y+13	; 0x0d
    c854:	9e 84       	ldd	r9, Y+14	; 0x0e
    c856:	af 84       	ldd	r10, Y+15	; 0x0f
    c858:	b8 88       	ldd	r11, Y+16	; 0x10
    c85a:	20 e0       	ldi	r18, 0x00	; 0
    c85c:	30 e0       	ldi	r19, 0x00	; 0
    c85e:	40 e8       	ldi	r20, 0x80	; 128
    c860:	5f e3       	ldi	r21, 0x3F	; 63
    c862:	c5 01       	movw	r24, r10
    c864:	b4 01       	movw	r22, r8
    c866:	0e 94 2b 6c 	call	0xd856	; 0xd856 <__subsf3>
    c86a:	e9 89       	ldd	r30, Y+17	; 0x11
    c86c:	fa 89       	ldd	r31, Y+18	; 0x12
    c86e:	20 81       	ld	r18, Z
    c870:	31 81       	ldd	r19, Z+1	; 0x01
    c872:	42 81       	ldd	r20, Z+2	; 0x02
    c874:	53 81       	ldd	r21, Z+3	; 0x03
    c876:	0e 94 fc 6d 	call	0xdbf8	; 0xdbf8 <__mulsf3>
    c87a:	a7 01       	movw	r20, r14
    c87c:	96 01       	movw	r18, r12
    c87e:	0e 94 2c 6c 	call	0xd858	; 0xd858 <__addsf3>
    c882:	a5 01       	movw	r20, r10
    c884:	94 01       	movw	r18, r8
    c886:	0e 94 9d 6c 	call	0xd93a	; 0xd93a <__divsf3>
    c88a:	a9 89       	ldd	r26, Y+17	; 0x11
    c88c:	ba 89       	ldd	r27, Y+18	; 0x12
    c88e:	6d 93       	st	X+, r22
    c890:	7d 93       	st	X+, r23
    c892:	8d 93       	st	X+, r24
    c894:	9c 93       	st	X, r25
    c896:	13 97       	sbiw	r26, 0x03	; 3
    c898:	06 c0       	rjmp	.+12     	; 0xc8a6 <Sensor_PID+0x3b4>
    c89a:	e9 89       	ldd	r30, Y+17	; 0x11
    c89c:	fa 89       	ldd	r31, Y+18	; 0x12
    c89e:	c0 82       	st	Z, r12
    c8a0:	d1 82       	std	Z+1, r13	; 0x01
    c8a2:	e2 82       	std	Z+2, r14	; 0x02
    c8a4:	f3 82       	std	Z+3, r15	; 0x03
    c8a6:	a9 89       	ldd	r26, Y+17	; 0x11
    c8a8:	ba 89       	ldd	r27, Y+18	; 0x12
    c8aa:	6d 91       	ld	r22, X+
    c8ac:	7d 91       	ld	r23, X+
    c8ae:	8d 91       	ld	r24, X+
    c8b0:	9c 91       	ld	r25, X
    c8b2:	0e 94 0f 6d 	call	0xda1e	; 0xda1e <__fixsfsi>
    c8b6:	69 8f       	std	Y+25, r22	; 0x19
    c8b8:	7a 8f       	std	Y+26, r23	; 0x1a
    c8ba:	8b 8f       	std	Y+27, r24	; 0x1b
    c8bc:	9c 8f       	std	Y+28, r25	; 0x1c
    c8be:	29 8d       	ldd	r18, Y+25	; 0x19
    c8c0:	3a 8d       	ldd	r19, Y+26	; 0x1a
    c8c2:	ed 89       	ldd	r30, Y+21	; 0x15
    c8c4:	fe 89       	ldd	r31, Y+22	; 0x16
    c8c6:	31 83       	std	Z+1, r19	; 0x01
    c8c8:	20 83       	st	Z, r18
    c8ca:	6c a1       	ldd	r22, Y+36	; 0x24
    c8cc:	7d a1       	ldd	r23, Y+37	; 0x25
    c8ce:	8e a1       	ldd	r24, Y+38	; 0x26
    c8d0:	9f a1       	ldd	r25, Y+39	; 0x27
    c8d2:	0e 94 45 6d 	call	0xda8a	; 0xda8a <__floatunsisf>
    c8d6:	20 e0       	ldi	r18, 0x00	; 0
    c8d8:	30 e3       	ldi	r19, 0x30	; 48
    c8da:	4f e5       	ldi	r20, 0x5F	; 95
    c8dc:	55 e4       	ldi	r21, 0x45	; 69
    c8de:	0e 94 9d 6c 	call	0xd93a	; 0xd93a <__divsf3>
    c8e2:	4b 01       	movw	r8, r22
    c8e4:	5c 01       	movw	r10, r24
    c8e6:	69 8d       	ldd	r22, Y+25	; 0x19
    c8e8:	7a 8d       	ldd	r23, Y+26	; 0x1a
    c8ea:	66 0d       	add	r22, r6
    c8ec:	77 1d       	adc	r23, r7
    c8ee:	07 2e       	mov	r0, r23
    c8f0:	00 0c       	add	r0, r0
    c8f2:	88 0b       	sbc	r24, r24
    c8f4:	99 0b       	sbc	r25, r25
    c8f6:	0e 94 47 6d 	call	0xda8e	; 0xda8e <__floatsisf>
    c8fa:	6b 01       	movw	r12, r22
    c8fc:	7c 01       	movw	r14, r24
    c8fe:	69 8d       	ldd	r22, Y+25	; 0x19
    c900:	7a 8d       	ldd	r23, Y+26	; 0x1a
    c902:	64 0d       	add	r22, r4
    c904:	75 1d       	adc	r23, r5
    c906:	07 2e       	mov	r0, r23
    c908:	00 0c       	add	r0, r0
    c90a:	88 0b       	sbc	r24, r24
    c90c:	99 0b       	sbc	r25, r25
    c90e:	0e 94 47 6d 	call	0xda8e	; 0xda8e <__floatsisf>
    c912:	2b 01       	movw	r4, r22
    c914:	3c 01       	movw	r6, r24
    c916:	a5 01       	movw	r20, r10
    c918:	94 01       	movw	r18, r8
    c91a:	c7 01       	movw	r24, r14
    c91c:	b6 01       	movw	r22, r12
    c91e:	0e 94 fc 6d 	call	0xdbf8	; 0xdbf8 <__mulsf3>
    c922:	0e 94 0f 6d 	call	0xda1e	; 0xda1e <__fixsfsi>
    c926:	d8 01       	movw	r26, r16
    c928:	cd 90       	ld	r12, X+
    c92a:	dd 90       	ld	r13, X+
    c92c:	ed 90       	ld	r14, X+
    c92e:	fc 90       	ld	r15, X
    c930:	c6 0e       	add	r12, r22
    c932:	d7 1e       	adc	r13, r23
    c934:	e8 1e       	adc	r14, r24
    c936:	f9 1e       	adc	r15, r25
    c938:	f8 01       	movw	r30, r16
    c93a:	c0 82       	st	Z, r12
    c93c:	d1 82       	std	Z+1, r13	; 0x01
    c93e:	e2 82       	std	Z+2, r14	; 0x02
    c940:	f3 82       	std	Z+3, r15	; 0x03
    c942:	a5 01       	movw	r20, r10
    c944:	94 01       	movw	r18, r8
    c946:	c3 01       	movw	r24, r6
    c948:	b2 01       	movw	r22, r4
    c94a:	0e 94 fc 6d 	call	0xdbf8	; 0xdbf8 <__mulsf3>
    c94e:	0e 94 0f 6d 	call	0xda1e	; 0xda1e <__fixsfsi>
    c952:	d8 01       	movw	r26, r16
    c954:	1c 96       	adiw	r26, 0x0c	; 12
    c956:	8d 90       	ld	r8, X+
    c958:	9d 90       	ld	r9, X+
    c95a:	ad 90       	ld	r10, X+
    c95c:	bc 90       	ld	r11, X
    c95e:	1f 97       	sbiw	r26, 0x0f	; 15
    c960:	dc 01       	movw	r26, r24
    c962:	cb 01       	movw	r24, r22
    c964:	88 0d       	add	r24, r8
    c966:	99 1d       	adc	r25, r9
    c968:	aa 1d       	adc	r26, r10
    c96a:	bb 1d       	adc	r27, r11
    c96c:	f8 01       	movw	r30, r16
    c96e:	84 87       	std	Z+12, r24	; 0x0c
    c970:	95 87       	std	Z+13, r25	; 0x0d
    c972:	a6 87       	std	Z+14, r26	; 0x0e
    c974:	b7 87       	std	Z+15, r27	; 0x0f
    c976:	ef 89       	ldd	r30, Y+23	; 0x17
    c978:	f8 8d       	ldd	r31, Y+24	; 0x18
    c97a:	e3 58       	subi	r30, 0x83	; 131
    c97c:	ff 4f       	sbci	r31, 0xFF	; 255
    c97e:	80 81       	ld	r24, Z
    c980:	91 81       	ldd	r25, Z+1	; 0x01
    c982:	a2 81       	ldd	r26, Z+2	; 0x02
    c984:	b3 81       	ldd	r27, Z+3	; 0x03
    c986:	8c 15       	cp	r24, r12
    c988:	9d 05       	cpc	r25, r13
    c98a:	ae 05       	cpc	r26, r14
    c98c:	bf 05       	cpc	r27, r15
    c98e:	2c f4       	brge	.+10     	; 0xc99a <Sensor_PID+0x4a8>
    c990:	f8 01       	movw	r30, r16
    c992:	80 83       	st	Z, r24
    c994:	91 83       	std	Z+1, r25	; 0x01
    c996:	a2 83       	std	Z+2, r26	; 0x02
    c998:	b3 83       	std	Z+3, r27	; 0x03
    c99a:	b0 95       	com	r27
    c99c:	a0 95       	com	r26
    c99e:	90 95       	com	r25
    c9a0:	81 95       	neg	r24
    c9a2:	9f 4f       	sbci	r25, 0xFF	; 255
    c9a4:	af 4f       	sbci	r26, 0xFF	; 255
    c9a6:	bf 4f       	sbci	r27, 0xFF	; 255
    c9a8:	f8 01       	movw	r30, r16
    c9aa:	40 81       	ld	r20, Z
    c9ac:	51 81       	ldd	r21, Z+1	; 0x01
    c9ae:	62 81       	ldd	r22, Z+2	; 0x02
    c9b0:	73 81       	ldd	r23, Z+3	; 0x03
    c9b2:	48 17       	cp	r20, r24
    c9b4:	59 07       	cpc	r21, r25
    c9b6:	6a 07       	cpc	r22, r26
    c9b8:	7b 07       	cpc	r23, r27
    c9ba:	24 f4       	brge	.+8      	; 0xc9c4 <Sensor_PID+0x4d2>
    c9bc:	80 83       	st	Z, r24
    c9be:	91 83       	std	Z+1, r25	; 0x01
    c9c0:	a2 83       	std	Z+2, r26	; 0x02
    c9c2:	b3 83       	std	Z+3, r27	; 0x03
    c9c4:	ef 89       	ldd	r30, Y+23	; 0x17
    c9c6:	f8 8d       	ldd	r31, Y+24	; 0x18
    c9c8:	e3 57       	subi	r30, 0x73	; 115
    c9ca:	ff 4f       	sbci	r31, 0xFF	; 255
    c9cc:	80 81       	ld	r24, Z
    c9ce:	91 81       	ldd	r25, Z+1	; 0x01
    c9d0:	a2 81       	ldd	r26, Z+2	; 0x02
    c9d2:	b3 81       	ldd	r27, Z+3	; 0x03
    c9d4:	f8 01       	movw	r30, r16
    c9d6:	44 85       	ldd	r20, Z+12	; 0x0c
    c9d8:	55 85       	ldd	r21, Z+13	; 0x0d
    c9da:	66 85       	ldd	r22, Z+14	; 0x0e
    c9dc:	77 85       	ldd	r23, Z+15	; 0x0f
    c9de:	84 17       	cp	r24, r20
    c9e0:	95 07       	cpc	r25, r21
    c9e2:	a6 07       	cpc	r26, r22
    c9e4:	b7 07       	cpc	r27, r23
    c9e6:	24 f4       	brge	.+8      	; 0xc9f0 <Sensor_PID+0x4fe>
    c9e8:	84 87       	std	Z+12, r24	; 0x0c
    c9ea:	95 87       	std	Z+13, r25	; 0x0d
    c9ec:	a6 87       	std	Z+14, r26	; 0x0e
    c9ee:	b7 87       	std	Z+15, r27	; 0x0f
    c9f0:	b0 95       	com	r27
    c9f2:	a0 95       	com	r26
    c9f4:	90 95       	com	r25
    c9f6:	81 95       	neg	r24
    c9f8:	9f 4f       	sbci	r25, 0xFF	; 255
    c9fa:	af 4f       	sbci	r26, 0xFF	; 255
    c9fc:	bf 4f       	sbci	r27, 0xFF	; 255
    c9fe:	f8 01       	movw	r30, r16
    ca00:	44 85       	ldd	r20, Z+12	; 0x0c
    ca02:	55 85       	ldd	r21, Z+13	; 0x0d
    ca04:	66 85       	ldd	r22, Z+14	; 0x0e
    ca06:	77 85       	ldd	r23, Z+15	; 0x0f
    ca08:	48 17       	cp	r20, r24
    ca0a:	59 07       	cpc	r21, r25
    ca0c:	6a 07       	cpc	r22, r26
    ca0e:	7b 07       	cpc	r23, r27
    ca10:	24 f4       	brge	.+8      	; 0xca1a <Sensor_PID+0x528>
    ca12:	84 87       	std	Z+12, r24	; 0x0c
    ca14:	95 87       	std	Z+13, r25	; 0x0d
    ca16:	a6 87       	std	Z+14, r26	; 0x0e
    ca18:	b7 87       	std	Z+15, r27	; 0x0f
    ca1a:	29 8d       	ldd	r18, Y+25	; 0x19
    ca1c:	3a 8d       	ldd	r19, Y+26	; 0x1a
    ca1e:	c9 01       	movw	r24, r18
    ca20:	33 0f       	add	r19, r19
    ca22:	aa 0b       	sbc	r26, r26
    ca24:	bb 0b       	sbc	r27, r27
    ca26:	ed 8d       	ldd	r30, Y+29	; 0x1d
    ca28:	fe 8d       	ldd	r31, Y+30	; 0x1e
    ca2a:	40 81       	ld	r20, Z
    ca2c:	51 81       	ldd	r21, Z+1	; 0x01
    ca2e:	62 81       	ldd	r22, Z+2	; 0x02
    ca30:	73 81       	ldd	r23, Z+3	; 0x03
    ca32:	84 0f       	add	r24, r20
    ca34:	95 1f       	adc	r25, r21
    ca36:	a6 1f       	adc	r26, r22
    ca38:	b7 1f       	adc	r27, r23
    ca3a:	81 93       	st	Z+, r24
    ca3c:	91 93       	st	Z+, r25
    ca3e:	a1 93       	st	Z+, r26
    ca40:	b1 93       	st	Z+, r27
    ca42:	fe 8f       	std	Y+30, r31	; 0x1e
    ca44:	ed 8f       	std	Y+29, r30	; 0x1d
    ca46:	ff 8d       	ldd	r31, Y+31	; 0x1f
    ca48:	ff 5f       	subi	r31, 0xFF	; 255
    ca4a:	ff 8f       	std	Y+31, r31	; 0x1f
    ca4c:	0c 5f       	subi	r16, 0xFC	; 252
    ca4e:	1f 4f       	sbci	r17, 0xFF	; 255
    ca50:	2f 89       	ldd	r18, Y+23	; 0x17
    ca52:	38 8d       	ldd	r19, Y+24	; 0x18
    ca54:	2c 5f       	subi	r18, 0xFC	; 252
    ca56:	3f 4f       	sbci	r19, 0xFF	; 255
    ca58:	38 8f       	std	Y+24, r19	; 0x18
    ca5a:	2f 8b       	std	Y+23, r18	; 0x17
    ca5c:	89 89       	ldd	r24, Y+17	; 0x11
    ca5e:	9a 89       	ldd	r25, Y+18	; 0x12
    ca60:	04 96       	adiw	r24, 0x04	; 4
    ca62:	9a 8b       	std	Y+18, r25	; 0x12
    ca64:	89 8b       	std	Y+17, r24	; 0x11
    ca66:	ad 89       	ldd	r26, Y+21	; 0x15
    ca68:	be 89       	ldd	r27, Y+22	; 0x16
    ca6a:	12 96       	adiw	r26, 0x02	; 2
    ca6c:	be 8b       	std	Y+22, r27	; 0x16
    ca6e:	ad 8b       	std	Y+21, r26	; 0x15
    ca70:	b2 e0       	ldi	r27, 0x02	; 2
    ca72:	2b 0e       	add	r2, r27
    ca74:	31 1c       	adc	r3, r1
    ca76:	f3 30       	cpi	r31, 0x03	; 3
    ca78:	09 f0       	breq	.+2      	; 0xca7c <Sensor_PID+0x58a>
    ca7a:	80 ce       	rjmp	.-768    	; 0xc77c <Sensor_PID+0x28a>
    ca7c:	c0 90 26 05 	lds	r12, 0x0526
    ca80:	d0 90 27 05 	lds	r13, 0x0527
    ca84:	e0 90 28 05 	lds	r14, 0x0528
    ca88:	f0 90 29 05 	lds	r15, 0x0529
    ca8c:	20 91 29 09 	lds	r18, 0x0929
    ca90:	30 91 2a 09 	lds	r19, 0x092A
    ca94:	40 91 2b 09 	lds	r20, 0x092B
    ca98:	50 91 2c 09 	lds	r21, 0x092C
    ca9c:	c7 01       	movw	r24, r14
    ca9e:	b6 01       	movw	r22, r12
    caa0:	0e 94 2c 6c 	call	0xd858	; 0xd858 <__addsf3>
    caa4:	4b 01       	movw	r8, r22
    caa6:	5c 01       	movw	r10, r24
    caa8:	80 91 4d 06 	lds	r24, 0x064D
    caac:	68 2f       	mov	r22, r24
    caae:	88 0f       	add	r24, r24
    cab0:	77 0b       	sbc	r23, r23
    cab2:	88 0b       	sbc	r24, r24
    cab4:	99 0b       	sbc	r25, r25
    cab6:	0e 94 47 6d 	call	0xda8e	; 0xda8e <__floatsisf>
    caba:	20 e0       	ldi	r18, 0x00	; 0
    cabc:	30 e4       	ldi	r19, 0x40	; 64
    cabe:	4c e1       	ldi	r20, 0x1C	; 28
    cac0:	56 e4       	ldi	r21, 0x46	; 70
    cac2:	0e 94 9d 6c 	call	0xd93a	; 0xd93a <__divsf3>
    cac6:	9b 01       	movw	r18, r22
    cac8:	ac 01       	movw	r20, r24
    caca:	60 e0       	ldi	r22, 0x00	; 0
    cacc:	70 e0       	ldi	r23, 0x00	; 0
    cace:	80 e8       	ldi	r24, 0x80	; 128
    cad0:	9f e3       	ldi	r25, 0x3F	; 63
    cad2:	0e 94 2b 6c 	call	0xd856	; 0xd856 <__subsf3>
    cad6:	2b 01       	movw	r4, r22
    cad8:	3c 01       	movw	r6, r24
    cada:	20 91 25 09 	lds	r18, 0x0925
    cade:	30 91 26 09 	lds	r19, 0x0926
    cae2:	40 91 27 09 	lds	r20, 0x0927
    cae6:	50 91 28 09 	lds	r21, 0x0928
    caea:	c7 01       	movw	r24, r14
    caec:	b6 01       	movw	r22, r12
    caee:	0e 94 2c 6c 	call	0xd858	; 0xd858 <__addsf3>
    caf2:	a3 01       	movw	r20, r6
    caf4:	92 01       	movw	r18, r4
    caf6:	0e 94 fc 6d 	call	0xdbf8	; 0xdbf8 <__mulsf3>
    cafa:	60 93 25 09 	sts	0x0925, r22
    cafe:	70 93 26 09 	sts	0x0926, r23
    cb02:	80 93 27 09 	sts	0x0927, r24
    cb06:	90 93 28 09 	sts	0x0928, r25
    cb0a:	a3 01       	movw	r20, r6
    cb0c:	92 01       	movw	r18, r4
    cb0e:	c5 01       	movw	r24, r10
    cb10:	b4 01       	movw	r22, r8
    cb12:	0e 94 fc 6d 	call	0xdbf8	; 0xdbf8 <__mulsf3>
    cb16:	60 93 29 09 	sts	0x0929, r22
    cb1a:	70 93 2a 09 	sts	0x092A, r23
    cb1e:	80 93 2b 09 	sts	0x092B, r24
    cb22:	90 93 2c 09 	sts	0x092C, r25
    cb26:	05 e2       	ldi	r16, 0x25	; 37
    cb28:	19 e0       	ldi	r17, 0x09	; 9
    cb2a:	a1 2c       	mov	r10, r1
    cb2c:	b1 2c       	mov	r11, r1
    cb2e:	f5 01       	movw	r30, r10
    cb30:	ee 55       	subi	r30, 0x5E	; 94
    cb32:	f9 4f       	sbci	r31, 0xF9	; 249
    cb34:	60 81       	ld	r22, Z
    cb36:	71 81       	ldd	r23, Z+1	; 0x01
    cb38:	82 81       	ldd	r24, Z+2	; 0x02
    cb3a:	93 81       	ldd	r25, Z+3	; 0x03
    cb3c:	0e 94 47 6d 	call	0xda8e	; 0xda8e <__floatsisf>
    cb40:	6b 01       	movw	r12, r22
    cb42:	7c 01       	movw	r14, r24
    cb44:	9b 01       	movw	r18, r22
    cb46:	ac 01       	movw	r20, r24
    cb48:	f8 01       	movw	r30, r16
    cb4a:	60 81       	ld	r22, Z
    cb4c:	71 81       	ldd	r23, Z+1	; 0x01
    cb4e:	82 81       	ldd	r24, Z+2	; 0x02
    cb50:	93 81       	ldd	r25, Z+3	; 0x03
    cb52:	0e 94 f7 6d 	call	0xdbee	; 0xdbee <__gesf2>
    cb56:	18 16       	cp	r1, r24
    cb58:	34 f4       	brge	.+12     	; 0xcb66 <Sensor_PID+0x674>
    cb5a:	d8 01       	movw	r26, r16
    cb5c:	cd 92       	st	X+, r12
    cb5e:	dd 92       	st	X+, r13
    cb60:	ed 92       	st	X+, r14
    cb62:	fc 92       	st	X, r15
    cb64:	13 97       	sbiw	r26, 0x03	; 3
    cb66:	f7 fa       	bst	r15, 7
    cb68:	f0 94       	com	r15
    cb6a:	f7 f8       	bld	r15, 7
    cb6c:	f0 94       	com	r15
    cb6e:	a7 01       	movw	r20, r14
    cb70:	96 01       	movw	r18, r12
    cb72:	f8 01       	movw	r30, r16
    cb74:	60 81       	ld	r22, Z
    cb76:	71 81       	ldd	r23, Z+1	; 0x01
    cb78:	82 81       	ldd	r24, Z+2	; 0x02
    cb7a:	93 81       	ldd	r25, Z+3	; 0x03
    cb7c:	0e 94 98 6c 	call	0xd930	; 0xd930 <__cmpsf2>
    cb80:	87 ff       	sbrs	r24, 7
    cb82:	06 c0       	rjmp	.+12     	; 0xcb90 <Sensor_PID+0x69e>
    cb84:	d8 01       	movw	r26, r16
    cb86:	cd 92       	st	X+, r12
    cb88:	dd 92       	st	X+, r13
    cb8a:	ed 92       	st	X+, r14
    cb8c:	fc 92       	st	X, r15
    cb8e:	13 97       	sbiw	r26, 0x03	; 3
    cb90:	b0 e1       	ldi	r27, 0x10	; 16
    cb92:	ab 0e       	add	r10, r27
    cb94:	b1 1c       	adc	r11, r1
    cb96:	0c 5f       	subi	r16, 0xFC	; 252
    cb98:	1f 4f       	sbci	r17, 0xFF	; 255
    cb9a:	e0 e2       	ldi	r30, 0x20	; 32
    cb9c:	ae 16       	cp	r10, r30
    cb9e:	b1 04       	cpc	r11, r1
    cba0:	31 f6       	brne	.-116    	; 0xcb2e <Sensor_PID+0x63c>
    cba2:	a7 96       	adiw	r28, 0x27	; 39
    cba4:	0f b6       	in	r0, 0x3f	; 63
    cba6:	f8 94       	cli
    cba8:	de bf       	out	0x3e, r29	; 62
    cbaa:	0f be       	out	0x3f, r0	; 63
    cbac:	cd bf       	out	0x3d, r28	; 61
    cbae:	df 91       	pop	r29
    cbb0:	cf 91       	pop	r28
    cbb2:	1f 91       	pop	r17
    cbb4:	0f 91       	pop	r16
    cbb6:	ff 90       	pop	r15
    cbb8:	ef 90       	pop	r14
    cbba:	df 90       	pop	r13
    cbbc:	cf 90       	pop	r12
    cbbe:	bf 90       	pop	r11
    cbc0:	af 90       	pop	r10
    cbc2:	9f 90       	pop	r9
    cbc4:	8f 90       	pop	r8
    cbc6:	7f 90       	pop	r7
    cbc8:	6f 90       	pop	r6
    cbca:	5f 90       	pop	r5
    cbcc:	4f 90       	pop	r4
    cbce:	3f 90       	pop	r3
    cbd0:	2f 90       	pop	r2
    cbd2:	08 95       	ret

0000cbd4 <Calculate_PID>:
    cbd4:	2f 92       	push	r2
    cbd6:	3f 92       	push	r3
    cbd8:	4f 92       	push	r4
    cbda:	5f 92       	push	r5
    cbdc:	6f 92       	push	r6
    cbde:	7f 92       	push	r7
    cbe0:	8f 92       	push	r8
    cbe2:	9f 92       	push	r9
    cbe4:	af 92       	push	r10
    cbe6:	bf 92       	push	r11
    cbe8:	cf 92       	push	r12
    cbea:	df 92       	push	r13
    cbec:	ef 92       	push	r14
    cbee:	ff 92       	push	r15
    cbf0:	0f 93       	push	r16
    cbf2:	1f 93       	push	r17
    cbf4:	cf 93       	push	r28
    cbf6:	df 93       	push	r29
    cbf8:	cd b7       	in	r28, 0x3d	; 61
    cbfa:	de b7       	in	r29, 0x3e	; 62
    cbfc:	c4 54       	subi	r28, 0x44	; 68
    cbfe:	d1 09       	sbc	r29, r1
    cc00:	0f b6       	in	r0, 0x3f	; 63
    cc02:	f8 94       	cli
    cc04:	de bf       	out	0x3e, r29	; 62
    cc06:	0f be       	out	0x3f, r0	; 63
    cc08:	cd bf       	out	0x3d, r28	; 61
    cc0a:	80 91 4e 06 	lds	r24, 0x064E
    cc0e:	8f 8b       	std	Y+23, r24	; 0x17
    cc10:	80 91 54 06 	lds	r24, 0x0654
    cc14:	88 8f       	std	Y+24, r24	; 0x18
    cc16:	80 91 5a 06 	lds	r24, 0x065A
    cc1a:	89 8f       	std	Y+25, r24	; 0x19
    cc1c:	80 91 62 06 	lds	r24, 0x0662
    cc20:	8a 8f       	std	Y+26, r24	; 0x1a
    cc22:	80 91 68 06 	lds	r24, 0x0668
    cc26:	8b 8f       	std	Y+27, r24	; 0x1b
    cc28:	80 91 6e 06 	lds	r24, 0x066E
    cc2c:	8c 8f       	std	Y+28, r24	; 0x1c
    cc2e:	80 91 4f 06 	lds	r24, 0x064F
    cc32:	89 87       	std	Y+9, r24	; 0x09
    cc34:	80 91 55 06 	lds	r24, 0x0655
    cc38:	8a 87       	std	Y+10, r24	; 0x0a
    cc3a:	80 91 5b 06 	lds	r24, 0x065B
    cc3e:	8b 87       	std	Y+11, r24	; 0x0b
    cc40:	80 91 60 06 	lds	r24, 0x0660
    cc44:	8c 87       	std	Y+12, r24	; 0x0c
    cc46:	80 91 63 06 	lds	r24, 0x0663
    cc4a:	8d 87       	std	Y+13, r24	; 0x0d
    cc4c:	80 91 69 06 	lds	r24, 0x0669
    cc50:	8e 87       	std	Y+14, r24	; 0x0e
    cc52:	80 91 6f 06 	lds	r24, 0x066F
    cc56:	8f 87       	std	Y+15, r24	; 0x0f
    cc58:	80 91 74 06 	lds	r24, 0x0674
    cc5c:	88 8b       	std	Y+16, r24	; 0x10
    cc5e:	80 91 52 06 	lds	r24, 0x0652
    cc62:	89 8b       	std	Y+17, r24	; 0x11
    cc64:	80 91 58 06 	lds	r24, 0x0658
    cc68:	8a 8b       	std	Y+18, r24	; 0x12
    cc6a:	80 91 5f 06 	lds	r24, 0x065F
    cc6e:	8b 8b       	std	Y+19, r24	; 0x13
    cc70:	80 91 66 06 	lds	r24, 0x0666
    cc74:	8c 8b       	std	Y+20, r24	; 0x14
    cc76:	80 91 6c 06 	lds	r24, 0x066C
    cc7a:	8d 8b       	std	Y+21, r24	; 0x15
    cc7c:	80 91 73 06 	lds	r24, 0x0673
    cc80:	8e 8b       	std	Y+22, r24	; 0x16
    cc82:	80 91 11 08 	lds	r24, 0x0811
    cc86:	90 91 12 08 	lds	r25, 0x0812
    cc8a:	9a 83       	std	Y+2, r25	; 0x02
    cc8c:	89 83       	std	Y+1, r24	; 0x01
    cc8e:	80 91 15 08 	lds	r24, 0x0815
    cc92:	90 91 16 08 	lds	r25, 0x0816
    cc96:	9c 83       	std	Y+4, r25	; 0x04
    cc98:	8b 83       	std	Y+3, r24	; 0x03
    cc9a:	80 91 13 08 	lds	r24, 0x0813
    cc9e:	90 91 14 08 	lds	r25, 0x0814
    cca2:	9e 83       	std	Y+6, r25	; 0x06
    cca4:	8d 83       	std	Y+5, r24	; 0x05
    cca6:	80 91 17 08 	lds	r24, 0x0817
    ccaa:	90 91 18 08 	lds	r25, 0x0818
    ccae:	98 87       	std	Y+8, r25	; 0x08
    ccb0:	8f 83       	std	Y+7, r24	; 0x07
    ccb2:	80 91 5e 06 	lds	r24, 0x065E
    ccb6:	20 e4       	ldi	r18, 0x40	; 64
    ccb8:	82 02       	muls	r24, r18
    ccba:	c0 01       	movw	r24, r0
    ccbc:	11 24       	eor	r1, r1
    ccbe:	6c 01       	movw	r12, r24
    ccc0:	99 0f       	add	r25, r25
    ccc2:	ee 08       	sbc	r14, r14
    ccc4:	ff 08       	sbc	r15, r15
    ccc6:	c9 ae       	std	Y+57, r12	; 0x39
    ccc8:	da ae       	std	Y+58, r13	; 0x3a
    ccca:	eb ae       	std	Y+59, r14	; 0x3b
    cccc:	fc ae       	std	Y+60, r15	; 0x3c
    ccce:	80 91 72 06 	lds	r24, 0x0672
    ccd2:	20 e4       	ldi	r18, 0x40	; 64
    ccd4:	82 02       	muls	r24, r18
    ccd6:	c0 01       	movw	r24, r0
    ccd8:	11 24       	eor	r1, r1
    ccda:	6c 01       	movw	r12, r24
    ccdc:	99 0f       	add	r25, r25
    ccde:	ee 08       	sbc	r14, r14
    cce0:	ff 08       	sbc	r15, r15
    cce2:	21 96       	adiw	r28, 0x01	; 1
    cce4:	cc ae       	std	Y+60, r12	; 0x3c
    cce6:	dd ae       	std	Y+61, r13	; 0x3d
    cce8:	ee ae       	std	Y+62, r14	; 0x3e
    ccea:	ff ae       	std	Y+63, r15	; 0x3f
    ccec:	21 97       	sbiw	r28, 0x01	; 1
    ccee:	21 e5       	ldi	r18, 0x51	; 81
    ccf0:	39 e0       	ldi	r19, 0x09	; 9
    ccf2:	3a a3       	std	Y+34, r19	; 0x22
    ccf4:	29 a3       	std	Y+33, r18	; 0x21
    ccf6:	4b eb       	ldi	r20, 0xBB	; 187
    ccf8:	55 e0       	ldi	r21, 0x05	; 5
    ccfa:	5e ab       	std	Y+54, r21	; 0x36
    ccfc:	4d ab       	std	Y+53, r20	; 0x35
    ccfe:	89 e3       	ldi	r24, 0x39	; 57
    cd00:	99 e0       	ldi	r25, 0x09	; 9
    cd02:	9a a7       	std	Y+42, r25	; 0x2a
    cd04:	89 a7       	std	Y+41, r24	; 0x29
    cd06:	e9 ef       	ldi	r30, 0xF9	; 249
    cd08:	f5 e0       	ldi	r31, 0x05	; 5
    cd0a:	fc a7       	std	Y+44, r31	; 0x2c
    cd0c:	eb a7       	std	Y+43, r30	; 0x2b
    cd0e:	9e 01       	movw	r18, r28
    cd10:	2f 5f       	subi	r18, 0xFF	; 255
    cd12:	3f 4f       	sbci	r19, 0xFF	; 255
    cd14:	38 a7       	std	Y+40, r19	; 0x28
    cd16:	2f a3       	std	Y+39, r18	; 0x27
    cd18:	45 e4       	ldi	r20, 0x45	; 69
    cd1a:	59 e0       	ldi	r21, 0x09	; 9
    cd1c:	5e a7       	std	Y+46, r21	; 0x2e
    cd1e:	4d a7       	std	Y+45, r20	; 0x2d
    cd20:	09 e1       	ldi	r16, 0x19	; 25
    cd22:	16 e0       	ldi	r17, 0x06	; 6
    cd24:	ce 01       	movw	r24, r28
    cd26:	47 96       	adiw	r24, 0x17	; 23
    cd28:	98 af       	std	Y+56, r25	; 0x38
    cd2a:	8f ab       	std	Y+55, r24	; 0x37
    cd2c:	e1 e0       	ldi	r30, 0x01	; 1
    cd2e:	f9 e0       	ldi	r31, 0x09	; 9
    cd30:	f8 a3       	std	Y+32, r31	; 0x20
    cd32:	ef 8f       	std	Y+31, r30	; 0x1f
    cd34:	28 5f       	subi	r18, 0xF8	; 248
    cd36:	3f 4f       	sbci	r19, 0xFF	; 255
    cd38:	3c ab       	std	Y+52, r19	; 0x34
    cd3a:	2b ab       	std	Y+51, r18	; 0x33
    cd3c:	ae 01       	movw	r20, r28
    cd3e:	46 5e       	subi	r20, 0xE6	; 230
    cd40:	5f 4f       	sbci	r21, 0xFF	; 255
    cd42:	5a ab       	std	Y+50, r21	; 0x32
    cd44:	49 ab       	std	Y+49, r20	; 0x31
    cd46:	0a 97       	sbiw	r24, 0x0a	; 10
    cd48:	98 ab       	std	Y+48, r25	; 0x30
    cd4a:	8f a7       	std	Y+47, r24	; 0x2f
    cd4c:	e5 e4       	ldi	r30, 0x45	; 69
    cd4e:	f9 e0       	ldi	r31, 0x09	; 9
    cd50:	fe a3       	std	Y+38, r31	; 0x26
    cd52:	ed a3       	std	Y+37, r30	; 0x25
    cd54:	21 2c       	mov	r2, r1
    cd56:	31 2c       	mov	r3, r1
    cd58:	1d 8e       	std	Y+29, r1	; 0x1d
    cd5a:	20 91 2d 05 	lds	r18, 0x052D
    cd5e:	30 e0       	ldi	r19, 0x00	; 0
    cd60:	40 e0       	ldi	r20, 0x00	; 0
    cd62:	50 e0       	ldi	r21, 0x00	; 0
    cd64:	e9 a1       	ldd	r30, Y+33	; 0x21
    cd66:	fa a1       	ldd	r31, Y+34	; 0x22
    cd68:	60 81       	ld	r22, Z
    cd6a:	71 81       	ldd	r23, Z+1	; 0x01
    cd6c:	82 81       	ldd	r24, Z+2	; 0x02
    cd6e:	93 81       	ldd	r25, Z+3	; 0x03
    cd70:	0e 94 91 6e 	call	0xdd22	; 0xdd22 <__divmodsi4>
    cd74:	49 01       	movw	r8, r18
    cd76:	5a 01       	movw	r10, r20
    cd78:	ed a9       	ldd	r30, Y+53	; 0x35
    cd7a:	fe a9       	ldd	r31, Y+54	; 0x36
    cd7c:	21 93       	st	Z+, r18
    cd7e:	31 93       	st	Z+, r19
    cd80:	fe ab       	std	Y+54, r31	; 0x36
    cd82:	ed ab       	std	Y+53, r30	; 0x35
    cd84:	e9 a1       	ldd	r30, Y+33	; 0x21
    cd86:	fa a1       	ldd	r31, Y+34	; 0x22
    cd88:	10 82       	st	Z, r1
    cd8a:	11 82       	std	Z+1, r1	; 0x01
    cd8c:	12 82       	std	Z+2, r1	; 0x02
    cd8e:	13 82       	std	Z+3, r1	; 0x03
    cd90:	fd 8d       	ldd	r31, Y+29	; 0x1d
    cd92:	f2 30       	cpi	r31, 0x02	; 2
    cd94:	39 f0       	breq	.+14     	; 0xcda4 <Calculate_PID+0x1d0>
    cd96:	41 2c       	mov	r4, r1
    cd98:	51 2c       	mov	r5, r1
    cd9a:	32 01       	movw	r6, r4
    cd9c:	c1 2c       	mov	r12, r1
    cd9e:	d1 2c       	mov	r13, r1
    cda0:	76 01       	movw	r14, r12
    cda2:	0a c0       	rjmp	.+20     	; 0xcdb8 <Calculate_PID+0x1e4>
    cda4:	21 96       	adiw	r28, 0x01	; 1
    cda6:	4c ac       	ldd	r4, Y+60	; 0x3c
    cda8:	5d ac       	ldd	r5, Y+61	; 0x3d
    cdaa:	6e ac       	ldd	r6, Y+62	; 0x3e
    cdac:	7f ac       	ldd	r7, Y+63	; 0x3f
    cdae:	21 97       	sbiw	r28, 0x01	; 1
    cdb0:	c9 ac       	ldd	r12, Y+57	; 0x39
    cdb2:	da ac       	ldd	r13, Y+58	; 0x3a
    cdb4:	eb ac       	ldd	r14, Y+59	; 0x3b
    cdb6:	fc ac       	ldd	r15, Y+60	; 0x3c
    cdb8:	ef a9       	ldd	r30, Y+55	; 0x37
    cdba:	f8 ad       	ldd	r31, Y+56	; 0x38
    cdbc:	41 91       	ld	r20, Z+
    cdbe:	f8 af       	std	Y+56, r31	; 0x38
    cdc0:	ef ab       	std	Y+55, r30	; 0x37
    cdc2:	04 2e       	mov	r0, r20
    cdc4:	00 0c       	add	r0, r0
    cdc6:	55 0b       	sbc	r21, r21
    cdc8:	48 9d       	mul	r20, r8
    cdca:	c0 01       	movw	r24, r0
    cdcc:	49 9d       	mul	r20, r9
    cdce:	90 0d       	add	r25, r0
    cdd0:	58 9d       	mul	r21, r8
    cdd2:	90 0d       	add	r25, r0
    cdd4:	11 24       	eor	r1, r1
    cdd6:	09 2e       	mov	r0, r25
    cdd8:	00 0c       	add	r0, r0
    cdda:	aa 0b       	sbc	r26, r26
    cddc:	bb 0b       	sbc	r27, r27
    cdde:	a7 01       	movw	r20, r14
    cde0:	96 01       	movw	r18, r12
    cde2:	28 0f       	add	r18, r24
    cde4:	39 1f       	adc	r19, r25
    cde6:	4a 1f       	adc	r20, r26
    cde8:	5b 1f       	adc	r21, r27
    cdea:	a3 e0       	ldi	r26, 0x03	; 3
    cdec:	b0 e0       	ldi	r27, 0x00	; 0
    cdee:	0e 94 d4 6e 	call	0xdda8	; 0xdda8 <__muluhisi3>
    cdf2:	25 96       	adiw	r28, 0x05	; 5
    cdf4:	6c af       	std	Y+60, r22	; 0x3c
    cdf6:	7d af       	std	Y+61, r23	; 0x3d
    cdf8:	8e af       	std	Y+62, r24	; 0x3e
    cdfa:	9f af       	std	Y+63, r25	; 0x3f
    cdfc:	25 97       	sbiw	r28, 0x05	; 5
    cdfe:	eb a9       	ldd	r30, Y+51	; 0x33
    ce00:	fc a9       	ldd	r31, Y+52	; 0x34
    ce02:	a1 91       	ld	r26, Z+
    ce04:	fc ab       	std	Y+52, r31	; 0x34
    ce06:	eb ab       	std	Y+51, r30	; 0x33
    ce08:	ef 8d       	ldd	r30, Y+31	; 0x1f
    ce0a:	f8 a1       	ldd	r31, Y+32	; 0x20
    ce0c:	20 81       	ld	r18, Z
    ce0e:	31 81       	ldd	r19, Z+1	; 0x01
    ce10:	42 81       	ldd	r20, Z+2	; 0x02
    ce12:	53 81       	ldd	r21, Z+3	; 0x03
    ce14:	0a 2e       	mov	r0, r26
    ce16:	00 0c       	add	r0, r0
    ce18:	bb 0b       	sbc	r27, r27
    ce1a:	0e 94 df 6e 	call	0xddbe	; 0xddbe <__mulshisi3>
    ce1e:	6b 01       	movw	r12, r22
    ce20:	7c 01       	movw	r14, r24
    ce22:	45 e0       	ldi	r20, 0x05	; 5
    ce24:	f5 94       	asr	r15
    ce26:	e7 94       	ror	r14
    ce28:	d7 94       	ror	r13
    ce2a:	c7 94       	ror	r12
    ce2c:	4a 95       	dec	r20
    ce2e:	d1 f7       	brne	.-12     	; 0xce24 <Calculate_PID+0x250>
    ce30:	e9 a9       	ldd	r30, Y+49	; 0x31
    ce32:	fa a9       	ldd	r31, Y+50	; 0x32
    ce34:	81 91       	ld	r24, Z+
    ce36:	fa ab       	std	Y+50, r31	; 0x32
    ce38:	e9 ab       	std	Y+49, r30	; 0x31
    ce3a:	08 2e       	mov	r0, r24
    ce3c:	00 0c       	add	r0, r0
    ce3e:	99 0b       	sbc	r25, r25
    ce40:	88 9d       	mul	r24, r8
    ce42:	90 01       	movw	r18, r0
    ce44:	89 9d       	mul	r24, r9
    ce46:	30 0d       	add	r19, r0
    ce48:	98 9d       	mul	r25, r8
    ce4a:	30 0d       	add	r19, r0
    ce4c:	11 24       	eor	r1, r1
    ce4e:	c9 01       	movw	r24, r18
    ce50:	33 0f       	add	r19, r19
    ce52:	aa 0b       	sbc	r26, r26
    ce54:	bb 0b       	sbc	r27, r27
    ce56:	a3 01       	movw	r20, r6
    ce58:	92 01       	movw	r18, r4
    ce5a:	28 0f       	add	r18, r24
    ce5c:	39 1f       	adc	r19, r25
    ce5e:	4a 1f       	adc	r20, r26
    ce60:	5b 1f       	adc	r21, r27
    ce62:	a3 e0       	ldi	r26, 0x03	; 3
    ce64:	b0 e0       	ldi	r27, 0x00	; 0
    ce66:	0e 94 d4 6e 	call	0xdda8	; 0xdda8 <__muluhisi3>
    ce6a:	4b 01       	movw	r8, r22
    ce6c:	5c 01       	movw	r10, r24
    ce6e:	ef a5       	ldd	r30, Y+47	; 0x2f
    ce70:	f8 a9       	ldd	r31, Y+48	; 0x30
    ce72:	a1 91       	ld	r26, Z+
    ce74:	f8 ab       	std	Y+48, r31	; 0x30
    ce76:	ef a7       	std	Y+47, r30	; 0x2f
    ce78:	ef 8d       	ldd	r30, Y+31	; 0x1f
    ce7a:	f8 a1       	ldd	r31, Y+32	; 0x20
    ce7c:	24 85       	ldd	r18, Z+12	; 0x0c
    ce7e:	35 85       	ldd	r19, Z+13	; 0x0d
    ce80:	46 85       	ldd	r20, Z+14	; 0x0e
    ce82:	57 85       	ldd	r21, Z+15	; 0x0f
    ce84:	0a 2e       	mov	r0, r26
    ce86:	00 0c       	add	r0, r0
    ce88:	bb 0b       	sbc	r27, r27
    ce8a:	0e 94 df 6e 	call	0xddbe	; 0xddbe <__mulshisi3>
    ce8e:	2b 01       	movw	r4, r22
    ce90:	3c 01       	movw	r6, r24
    ce92:	55 e0       	ldi	r21, 0x05	; 5
    ce94:	75 94       	asr	r7
    ce96:	67 94       	ror	r6
    ce98:	57 94       	ror	r5
    ce9a:	47 94       	ror	r4
    ce9c:	5a 95       	dec	r21
    ce9e:	d1 f7       	brne	.-12     	; 0xce94 <Calculate_PID+0x2c0>
    cea0:	f8 01       	movw	r30, r16
    cea2:	e3 5a       	subi	r30, 0xA3	; 163
    cea4:	ff 4f       	sbci	r31, 0xFF	; 255
    cea6:	40 81       	ld	r20, Z
    cea8:	51 81       	ldd	r21, Z+1	; 0x01
    ceaa:	62 81       	ldd	r22, Z+2	; 0x02
    ceac:	73 81       	ldd	r23, Z+3	; 0x03
    ceae:	4c 15       	cp	r20, r12
    ceb0:	5d 05       	cpc	r21, r13
    ceb2:	6e 05       	cpc	r22, r14
    ceb4:	7f 05       	cpc	r23, r15
    ceb6:	84 f0       	brlt	.+32     	; 0xced8 <Calculate_PID+0x304>
    ceb8:	88 27       	eor	r24, r24
    ceba:	99 27       	eor	r25, r25
    cebc:	dc 01       	movw	r26, r24
    cebe:	84 1b       	sub	r24, r20
    cec0:	95 0b       	sbc	r25, r21
    cec2:	a6 0b       	sbc	r26, r22
    cec4:	b7 0b       	sbc	r27, r23
    cec6:	b7 01       	movw	r22, r14
    cec8:	a6 01       	movw	r20, r12
    ceca:	c8 16       	cp	r12, r24
    cecc:	d9 06       	cpc	r13, r25
    cece:	ea 06       	cpc	r14, r26
    ced0:	fb 06       	cpc	r15, r27
    ced2:	14 f4       	brge	.+4      	; 0xced8 <Calculate_PID+0x304>
    ced4:	ac 01       	movw	r20, r24
    ced6:	bd 01       	movw	r22, r26
    ced8:	f8 01       	movw	r30, r16
    ceda:	e3 59       	subi	r30, 0x93	; 147
    cedc:	ff 4f       	sbci	r31, 0xFF	; 255
    cede:	80 81       	ld	r24, Z
    cee0:	91 81       	ldd	r25, Z+1	; 0x01
    cee2:	a2 81       	ldd	r26, Z+2	; 0x02
    cee4:	b3 81       	ldd	r27, Z+3	; 0x03
    cee6:	84 15       	cp	r24, r4
    cee8:	95 05       	cpc	r25, r5
    ceea:	a6 05       	cpc	r26, r6
    ceec:	b7 05       	cpc	r27, r7
    ceee:	84 f0       	brlt	.+32     	; 0xcf10 <Calculate_PID+0x33c>
    cef0:	cc 24       	eor	r12, r12
    cef2:	dd 24       	eor	r13, r13
    cef4:	76 01       	movw	r14, r12
    cef6:	c8 1a       	sub	r12, r24
    cef8:	d9 0a       	sbc	r13, r25
    cefa:	ea 0a       	sbc	r14, r26
    cefc:	fb 0a       	sbc	r15, r27
    cefe:	d3 01       	movw	r26, r6
    cf00:	c2 01       	movw	r24, r4
    cf02:	4c 14       	cp	r4, r12
    cf04:	5d 04       	cpc	r5, r13
    cf06:	6e 04       	cpc	r6, r14
    cf08:	7f 04       	cpc	r7, r15
    cf0a:	14 f4       	brge	.+4      	; 0xcf10 <Calculate_PID+0x33c>
    cf0c:	d7 01       	movw	r26, r14
    cf0e:	c6 01       	movw	r24, r12
    cf10:	25 96       	adiw	r28, 0x05	; 5
    cf12:	cc ac       	ldd	r12, Y+60	; 0x3c
    cf14:	dd ac       	ldd	r13, Y+61	; 0x3d
    cf16:	ee ac       	ldd	r14, Y+62	; 0x3e
    cf18:	ff ac       	ldd	r15, Y+63	; 0x3f
    cf1a:	25 97       	sbiw	r28, 0x05	; 5
    cf1c:	4c 0d       	add	r20, r12
    cf1e:	5d 1d       	adc	r21, r13
    cf20:	6e 1d       	adc	r22, r14
    cf22:	7f 1d       	adc	r23, r15
    cf24:	26 e0       	ldi	r18, 0x06	; 6
    cf26:	75 95       	asr	r23
    cf28:	67 95       	ror	r22
    cf2a:	57 95       	ror	r21
    cf2c:	47 95       	ror	r20
    cf2e:	2a 95       	dec	r18
    cf30:	d1 f7       	brne	.-12     	; 0xcf26 <Calculate_PID+0x352>
    cf32:	e9 a5       	ldd	r30, Y+41	; 0x29
    cf34:	fa a5       	ldd	r31, Y+42	; 0x2a
    cf36:	51 83       	std	Z+1, r21	; 0x01
    cf38:	40 83       	st	Z, r20
    cf3a:	88 0e       	add	r8, r24
    cf3c:	99 1e       	adc	r9, r25
    cf3e:	aa 1e       	adc	r10, r26
    cf40:	bb 1e       	adc	r11, r27
    cf42:	36 e0       	ldi	r19, 0x06	; 6
    cf44:	b5 94       	asr	r11
    cf46:	a7 94       	ror	r10
    cf48:	97 94       	ror	r9
    cf4a:	87 94       	ror	r8
    cf4c:	3a 95       	dec	r19
    cf4e:	d1 f7       	brne	.-12     	; 0xcf44 <Calculate_PID+0x370>
    cf50:	97 82       	std	Z+7, r9	; 0x07
    cf52:	86 82       	std	Z+6, r8	; 0x06
    cf54:	fd 8d       	ldd	r31, Y+29	; 0x1d
    cf56:	f2 30       	cpi	r31, 0x02	; 2
    cf58:	d9 f1       	breq	.+118    	; 0xcfd0 <Calculate_PID+0x3fc>
    cf5a:	eb a5       	ldd	r30, Y+43	; 0x2b
    cf5c:	fc a5       	ldd	r31, Y+44	; 0x2c
    cf5e:	40 81       	ld	r20, Z
    cf60:	51 81       	ldd	r21, Z+1	; 0x01
    cf62:	ef a1       	ldd	r30, Y+39	; 0x27
    cf64:	f8 a5       	ldd	r31, Y+40	; 0x28
    cf66:	80 81       	ld	r24, Z
    cf68:	91 81       	ldd	r25, Z+1	; 0x01
    cf6a:	9a 01       	movw	r18, r20
    cf6c:	28 1b       	sub	r18, r24
    cf6e:	39 0b       	sbc	r19, r25
    cf70:	61 e1       	ldi	r22, 0x11	; 17
    cf72:	e6 2e       	mov	r14, r22
    cf74:	f1 2c       	mov	r15, r1
    cf76:	ec 0e       	add	r14, r28
    cf78:	fd 1e       	adc	r15, r29
    cf7a:	e2 0c       	add	r14, r2
    cf7c:	f3 1c       	adc	r15, r3
    cf7e:	f7 01       	movw	r30, r14
    cf80:	a0 81       	ld	r26, Z
    cf82:	0a 2e       	mov	r0, r26
    cf84:	00 0c       	add	r0, r0
    cf86:	bb 0b       	sbc	r27, r27
    cf88:	0e 94 b6 6e 	call	0xdd6c	; 0xdd6c <__mulhisi3>
    cf8c:	bb 27       	eor	r27, r27
    cf8e:	97 fd       	sbrc	r25, 7
    cf90:	ba 95       	dec	r27
    cf92:	a9 2f       	mov	r26, r25
    cf94:	98 2f       	mov	r25, r24
    cf96:	87 2f       	mov	r24, r23
    cf98:	ed a1       	ldd	r30, Y+37	; 0x25
    cf9a:	fe a1       	ldd	r31, Y+38	; 0x26
    cf9c:	91 83       	std	Z+1, r25	; 0x01
    cf9e:	80 83       	st	Z, r24
    cfa0:	ef a1       	ldd	r30, Y+39	; 0x27
    cfa2:	f8 a5       	ldd	r31, Y+40	; 0x28
    cfa4:	84 81       	ldd	r24, Z+4	; 0x04
    cfa6:	95 81       	ldd	r25, Z+5	; 0x05
    cfa8:	9a 01       	movw	r18, r20
    cfaa:	28 1b       	sub	r18, r24
    cfac:	39 0b       	sbc	r19, r25
    cfae:	f7 01       	movw	r30, r14
    cfb0:	a3 81       	ldd	r26, Z+3	; 0x03
    cfb2:	0a 2e       	mov	r0, r26
    cfb4:	00 0c       	add	r0, r0
    cfb6:	bb 0b       	sbc	r27, r27
    cfb8:	0e 94 b6 6e 	call	0xdd6c	; 0xdd6c <__mulhisi3>
    cfbc:	bb 27       	eor	r27, r27
    cfbe:	97 fd       	sbrc	r25, 7
    cfc0:	ba 95       	dec	r27
    cfc2:	a9 2f       	mov	r26, r25
    cfc4:	98 2f       	mov	r25, r24
    cfc6:	87 2f       	mov	r24, r23
    cfc8:	ed a1       	ldd	r30, Y+37	; 0x25
    cfca:	fe a1       	ldd	r31, Y+38	; 0x26
    cfcc:	97 83       	std	Z+7, r25	; 0x07
    cfce:	86 83       	std	Z+6, r24	; 0x06
    cfd0:	fd 8d       	ldd	r31, Y+29	; 0x1d
    cfd2:	ff 5f       	subi	r31, 0xFF	; 255
    cfd4:	fd 8f       	std	Y+29, r31	; 0x1d
    cfd6:	2f ef       	ldi	r18, 0xFF	; 255
    cfd8:	22 1a       	sub	r2, r18
    cfda:	32 0a       	sbc	r3, r18
    cfdc:	49 a1       	ldd	r20, Y+33	; 0x21
    cfde:	5a a1       	ldd	r21, Y+34	; 0x22
    cfe0:	4c 5f       	subi	r20, 0xFC	; 252
    cfe2:	5f 4f       	sbci	r21, 0xFF	; 255
    cfe4:	5a a3       	std	Y+34, r21	; 0x22
    cfe6:	49 a3       	std	Y+33, r20	; 0x21
    cfe8:	89 a5       	ldd	r24, Y+41	; 0x29
    cfea:	9a a5       	ldd	r25, Y+42	; 0x2a
    cfec:	02 96       	adiw	r24, 0x02	; 2
    cfee:	9a a7       	std	Y+42, r25	; 0x2a
    cff0:	89 a7       	std	Y+41, r24	; 0x29
    cff2:	eb a5       	ldd	r30, Y+43	; 0x2b
    cff4:	fc a5       	ldd	r31, Y+44	; 0x2c
    cff6:	32 96       	adiw	r30, 0x02	; 2
    cff8:	fc a7       	std	Y+44, r31	; 0x2c
    cffa:	eb a7       	std	Y+43, r30	; 0x2b
    cffc:	2f a1       	ldd	r18, Y+39	; 0x27
    cffe:	38 a5       	ldd	r19, Y+40	; 0x28
    d000:	2e 5f       	subi	r18, 0xFE	; 254
    d002:	3f 4f       	sbci	r19, 0xFF	; 255
    d004:	38 a7       	std	Y+40, r19	; 0x28
    d006:	2f a3       	std	Y+39, r18	; 0x27
    d008:	4d a1       	ldd	r20, Y+37	; 0x25
    d00a:	5e a1       	ldd	r21, Y+38	; 0x26
    d00c:	4e 5f       	subi	r20, 0xFE	; 254
    d00e:	5f 4f       	sbci	r21, 0xFF	; 255
    d010:	5e a3       	std	Y+38, r21	; 0x26
    d012:	4d a3       	std	Y+37, r20	; 0x25
    d014:	0c 5f       	subi	r16, 0xFC	; 252
    d016:	1f 4f       	sbci	r17, 0xFF	; 255
    d018:	8f 8d       	ldd	r24, Y+31	; 0x1f
    d01a:	98 a1       	ldd	r25, Y+32	; 0x20
    d01c:	04 96       	adiw	r24, 0x04	; 4
    d01e:	98 a3       	std	Y+32, r25	; 0x20
    d020:	8f 8f       	std	Y+31, r24	; 0x1f
    d022:	9d 8d       	ldd	r25, Y+29	; 0x1d
    d024:	93 30       	cpi	r25, 0x03	; 3
    d026:	09 f0       	breq	.+2      	; 0xd02a <Calculate_PID+0x456>
    d028:	98 ce       	rjmp	.-720    	; 0xcd5a <Calculate_PID+0x186>
    d02a:	80 91 26 05 	lds	r24, 0x0526
    d02e:	90 91 27 05 	lds	r25, 0x0527
    d032:	a0 91 28 05 	lds	r26, 0x0528
    d036:	b0 91 29 05 	lds	r27, 0x0529
    d03a:	bc 01       	movw	r22, r24
    d03c:	cd 01       	movw	r24, r26
    d03e:	90 58       	subi	r25, 0x80	; 128
    d040:	0e 94 0f 6d 	call	0xda1e	; 0xda1e <__fixsfsi>
    d044:	69 a3       	std	Y+33, r22	; 0x21
    d046:	7a a3       	std	Y+34, r23	; 0x22
    d048:	8b a3       	std	Y+35, r24	; 0x23
    d04a:	9c a3       	std	Y+36, r25	; 0x24
    d04c:	1e 01       	movw	r2, r28
    d04e:	e3 e1       	ldi	r30, 0x13	; 19
    d050:	2e 0e       	add	r2, r30
    d052:	31 1c       	adc	r3, r1
    d054:	25 e2       	ldi	r18, 0x25	; 37
    d056:	39 e0       	ldi	r19, 0x09	; 9
    d058:	38 a3       	std	Y+32, r19	; 0x20
    d05a:	2f 8f       	std	Y+31, r18	; 0x1f
    d05c:	ae 01       	movw	r20, r28
    d05e:	44 5f       	subi	r20, 0xF4	; 244
    d060:	5f 4f       	sbci	r21, 0xFF	; 255
    d062:	5e 8f       	std	Y+30, r21	; 0x1e
    d064:	4d 8f       	std	Y+29, r20	; 0x1d
    d066:	00 e0       	ldi	r16, 0x00	; 0
    d068:	10 e0       	ldi	r17, 0x00	; 0
    d06a:	f1 01       	movw	r30, r2
    d06c:	a0 81       	ld	r26, Z
    d06e:	0a 2e       	mov	r0, r26
    d070:	00 0c       	add	r0, r0
    d072:	bb 0b       	sbc	r27, r27
    d074:	29 a1       	ldd	r18, Y+33	; 0x21
    d076:	3a a1       	ldd	r19, Y+34	; 0x22
    d078:	4b a1       	ldd	r20, Y+35	; 0x23
    d07a:	5c a1       	ldd	r21, Y+36	; 0x24
    d07c:	0e 94 df 6e 	call	0xddbe	; 0xddbe <__mulshisi3>
    d080:	2b 01       	movw	r4, r22
    d082:	3c 01       	movw	r6, r24
    d084:	ef 8d       	ldd	r30, Y+31	; 0x1f
    d086:	f8 a1       	ldd	r31, Y+32	; 0x20
    d088:	81 91       	ld	r24, Z+
    d08a:	91 91       	ld	r25, Z+
    d08c:	a1 91       	ld	r26, Z+
    d08e:	b1 91       	ld	r27, Z+
    d090:	f8 a3       	std	Y+32, r31	; 0x20
    d092:	ef 8f       	std	Y+31, r30	; 0x1f
    d094:	bc 01       	movw	r22, r24
    d096:	cd 01       	movw	r24, r26
    d098:	90 58       	subi	r25, 0x80	; 128
    d09a:	0e 94 0f 6d 	call	0xda1e	; 0xda1e <__fixsfsi>
    d09e:	9b 01       	movw	r18, r22
    d0a0:	ac 01       	movw	r20, r24
    d0a2:	ed 8d       	ldd	r30, Y+29	; 0x1d
    d0a4:	fe 8d       	ldd	r31, Y+30	; 0x1e
    d0a6:	a0 81       	ld	r26, Z
    d0a8:	0a 2e       	mov	r0, r26
    d0aa:	00 0c       	add	r0, r0
    d0ac:	bb 0b       	sbc	r27, r27
    d0ae:	0e 94 df 6e 	call	0xddbe	; 0xddbe <__mulshisi3>
    d0b2:	f8 01       	movw	r30, r16
    d0b4:	ee 57       	subi	r30, 0x7E	; 126
    d0b6:	f9 4f       	sbci	r31, 0xF9	; 249
    d0b8:	80 80       	ld	r8, Z
    d0ba:	91 80       	ldd	r9, Z+1	; 0x01
    d0bc:	a2 80       	ldd	r10, Z+2	; 0x02
    d0be:	b3 80       	ldd	r11, Z+3	; 0x03
    d0c0:	6b 01       	movw	r12, r22
    d0c2:	7c 01       	movw	r14, r24
    d0c4:	92 e0       	ldi	r25, 0x02	; 2
    d0c6:	f5 94       	asr	r15
    d0c8:	e7 94       	ror	r14
    d0ca:	d7 94       	ror	r13
    d0cc:	c7 94       	ror	r12
    d0ce:	9a 95       	dec	r25
    d0d0:	d1 f7       	brne	.-12     	; 0xd0c6 <Calculate_PID+0x4f2>
    d0d2:	8c 14       	cp	r8, r12
    d0d4:	9d 04       	cpc	r9, r13
    d0d6:	ae 04       	cpc	r10, r14
    d0d8:	bf 04       	cpc	r11, r15
    d0da:	14 f4       	brge	.+4      	; 0xd0e0 <Calculate_PID+0x50c>
    d0dc:	75 01       	movw	r14, r10
    d0de:	64 01       	movw	r12, r8
    d0e0:	b0 94       	com	r11
    d0e2:	a0 94       	com	r10
    d0e4:	90 94       	com	r9
    d0e6:	80 94       	com	r8
    d0e8:	81 1c       	adc	r8, r1
    d0ea:	91 1c       	adc	r9, r1
    d0ec:	a1 1c       	adc	r10, r1
    d0ee:	b1 1c       	adc	r11, r1
    d0f0:	a3 e0       	ldi	r26, 0x03	; 3
    d0f2:	b0 e0       	ldi	r27, 0x00	; 0
    d0f4:	a3 01       	movw	r20, r6
    d0f6:	92 01       	movw	r18, r4
    d0f8:	0e 94 d4 6e 	call	0xdda8	; 0xdda8 <__muluhisi3>
    d0fc:	c8 14       	cp	r12, r8
    d0fe:	d9 04       	cpc	r13, r9
    d100:	ea 04       	cpc	r14, r10
    d102:	fb 04       	cpc	r15, r11
    d104:	14 f4       	brge	.+4      	; 0xd10a <Calculate_PID+0x536>
    d106:	75 01       	movw	r14, r10
    d108:	64 01       	movw	r12, r8
    d10a:	c6 0e       	add	r12, r22
    d10c:	d7 1e       	adc	r13, r23
    d10e:	e8 1e       	adc	r14, r24
    d110:	f9 1e       	adc	r15, r25
    d112:	86 e0       	ldi	r24, 0x06	; 6
    d114:	f5 94       	asr	r15
    d116:	e7 94       	ror	r14
    d118:	d7 94       	ror	r13
    d11a:	c7 94       	ror	r12
    d11c:	8a 95       	dec	r24
    d11e:	d1 f7       	brne	.-12     	; 0xd114 <Calculate_PID+0x540>
    d120:	ed a5       	ldd	r30, Y+45	; 0x2d
    d122:	fe a5       	ldd	r31, Y+46	; 0x2e
    d124:	d5 82       	std	Z+5, r13	; 0x05
    d126:	c4 82       	std	Z+4, r12	; 0x04
    d128:	f3 e0       	ldi	r31, 0x03	; 3
    d12a:	2f 0e       	add	r2, r31
    d12c:	31 1c       	adc	r3, r1
    d12e:	2d 8d       	ldd	r18, Y+29	; 0x1d
    d130:	3e 8d       	ldd	r19, Y+30	; 0x1e
    d132:	2c 5f       	subi	r18, 0xFC	; 252
    d134:	3f 4f       	sbci	r19, 0xFF	; 255
    d136:	3e 8f       	std	Y+30, r19	; 0x1e
    d138:	2d 8f       	std	Y+29, r18	; 0x1d
    d13a:	00 5f       	subi	r16, 0xF0	; 240
    d13c:	1f 4f       	sbci	r17, 0xFF	; 255
    d13e:	4d a5       	ldd	r20, Y+45	; 0x2d
    d140:	5e a5       	ldd	r21, Y+46	; 0x2e
    d142:	4a 5f       	subi	r20, 0xFA	; 250
    d144:	5f 4f       	sbci	r21, 0xFF	; 255
    d146:	5e a7       	std	Y+46, r21	; 0x2e
    d148:	4d a7       	std	Y+45, r20	; 0x2d
    d14a:	00 32       	cpi	r16, 0x20	; 32
    d14c:	11 05       	cpc	r17, r1
    d14e:	09 f0       	breq	.+2      	; 0xd152 <Calculate_PID+0x57e>
    d150:	8c cf       	rjmp	.-232    	; 0xd06a <Calculate_PID+0x496>
    d152:	cc 5b       	subi	r28, 0xBC	; 188
    d154:	df 4f       	sbci	r29, 0xFF	; 255
    d156:	0f b6       	in	r0, 0x3f	; 63
    d158:	f8 94       	cli
    d15a:	de bf       	out	0x3e, r29	; 62
    d15c:	0f be       	out	0x3f, r0	; 63
    d15e:	cd bf       	out	0x3d, r28	; 61
    d160:	df 91       	pop	r29
    d162:	cf 91       	pop	r28
    d164:	1f 91       	pop	r17
    d166:	0f 91       	pop	r16
    d168:	ff 90       	pop	r15
    d16a:	ef 90       	pop	r14
    d16c:	df 90       	pop	r13
    d16e:	cf 90       	pop	r12
    d170:	bf 90       	pop	r11
    d172:	af 90       	pop	r10
    d174:	9f 90       	pop	r9
    d176:	8f 90       	pop	r8
    d178:	7f 90       	pop	r7
    d17a:	6f 90       	pop	r6
    d17c:	5f 90       	pop	r5
    d17e:	4f 90       	pop	r4
    d180:	3f 90       	pop	r3
    d182:	2f 90       	pop	r2
    d184:	08 95       	ret

0000d186 <RxGetChannels>:
    d186:	ec ee       	ldi	r30, 0xEC	; 236
    d188:	f7 e0       	ldi	r31, 0x07	; 7
    d18a:	80 e0       	ldi	r24, 0x00	; 0
    d18c:	90 e0       	ldi	r25, 0x00	; 0
    d18e:	9c 01       	movw	r18, r24
    d190:	22 0f       	add	r18, r18
    d192:	33 1f       	adc	r19, r19
    d194:	d9 01       	movw	r26, r18
    d196:	a2 54       	subi	r26, 0x42	; 66
    d198:	b7 4f       	sbci	r27, 0xF7	; 247
    d19a:	4d 91       	ld	r20, X+
    d19c:	5c 91       	ld	r21, X
    d19e:	61 91       	ld	r22, Z+
    d1a0:	71 91       	ld	r23, Z+
    d1a2:	46 1b       	sub	r20, r22
    d1a4:	57 0b       	sbc	r21, r23
    d1a6:	d9 01       	movw	r26, r18
    d1a8:	ad 59       	subi	r26, 0x9D	; 157
    d1aa:	b6 4f       	sbci	r27, 0xF6	; 246
    d1ac:	11 96       	adiw	r26, 0x01	; 1
    d1ae:	5c 93       	st	X, r21
    d1b0:	4e 93       	st	-X, r20
    d1b2:	01 96       	adiw	r24, 0x01	; 1
    d1b4:	88 30       	cpi	r24, 0x08	; 8
    d1b6:	91 05       	cpc	r25, r1
    d1b8:	51 f7       	brne	.-44     	; 0xd18e <RxGetChannels+0x8>
    d1ba:	80 91 be 08 	lds	r24, 0x08BE
    d1be:	90 91 bf 08 	lds	r25, 0x08BF
    d1c2:	20 91 ec 07 	lds	r18, 0x07EC
    d1c6:	30 91 ed 07 	lds	r19, 0x07ED
    d1ca:	82 1b       	sub	r24, r18
    d1cc:	93 0b       	sbc	r25, r19
    d1ce:	90 93 62 09 	sts	0x0962, r25
    d1d2:	80 93 61 09 	sts	0x0961, r24
    d1d6:	80 91 be 08 	lds	r24, 0x08BE
    d1da:	90 91 bf 08 	lds	r25, 0x08BF
    d1de:	86 5a       	subi	r24, 0xA6	; 166
    d1e0:	9e 40       	sbci	r25, 0x0E	; 14
    d1e2:	90 93 64 09 	sts	0x0964, r25
    d1e6:	80 93 63 09 	sts	0x0963, r24
    d1ea:	80 91 1b 08 	lds	r24, 0x081B
    d1ee:	81 30       	cpi	r24, 0x01	; 1
    d1f0:	59 f4       	brne	.+22     	; 0xd208 <RxGetChannels+0x82>
    d1f2:	80 91 65 09 	lds	r24, 0x0965
    d1f6:	90 91 66 09 	lds	r25, 0x0966
    d1fa:	91 95       	neg	r25
    d1fc:	81 95       	neg	r24
    d1fe:	91 09       	sbc	r25, r1
    d200:	90 93 66 09 	sts	0x0966, r25
    d204:	80 93 65 09 	sts	0x0965, r24
    d208:	80 91 bc 08 	lds	r24, 0x08BC
    d20c:	81 30       	cpi	r24, 0x01	; 1
    d20e:	59 f4       	brne	.+22     	; 0xd226 <RxGetChannels+0xa0>
    d210:	80 91 67 09 	lds	r24, 0x0967
    d214:	90 91 68 09 	lds	r25, 0x0968
    d218:	91 95       	neg	r25
    d21a:	81 95       	neg	r24
    d21c:	91 09       	sbc	r25, r1
    d21e:	90 93 68 09 	sts	0x0968, r25
    d222:	80 93 67 09 	sts	0x0967, r24
    d226:	80 91 1a 08 	lds	r24, 0x081A
    d22a:	81 30       	cpi	r24, 0x01	; 1
    d22c:	59 f4       	brne	.+22     	; 0xd244 <RxGetChannels+0xbe>
    d22e:	80 91 69 09 	lds	r24, 0x0969
    d232:	90 91 6a 09 	lds	r25, 0x096A
    d236:	91 95       	neg	r25
    d238:	81 95       	neg	r24
    d23a:	91 09       	sbc	r25, r1
    d23c:	90 93 6a 09 	sts	0x096A, r25
    d240:	80 93 69 09 	sts	0x0969, r24
    d244:	40 91 65 09 	lds	r20, 0x0965
    d248:	50 91 66 09 	lds	r21, 0x0966
    d24c:	80 91 67 09 	lds	r24, 0x0967
    d250:	90 91 68 09 	lds	r25, 0x0968
    d254:	20 91 69 09 	lds	r18, 0x0969
    d258:	30 91 6a 09 	lds	r19, 0x096A
    d25c:	84 0f       	add	r24, r20
    d25e:	95 1f       	adc	r25, r21
    d260:	82 0f       	add	r24, r18
    d262:	93 1f       	adc	r25, r19
    d264:	20 91 68 05 	lds	r18, 0x0568
    d268:	30 91 69 05 	lds	r19, 0x0569
    d26c:	ac 01       	movw	r20, r24
    d26e:	42 1b       	sub	r20, r18
    d270:	53 0b       	sbc	r21, r19
    d272:	9a 01       	movw	r18, r20
    d274:	2b 5f       	subi	r18, 0xFB	; 251
    d276:	3f 4f       	sbci	r19, 0xFF	; 255
    d278:	2b 30       	cpi	r18, 0x0B	; 11
    d27a:	31 05       	cpc	r19, r1
    d27c:	38 f4       	brcc	.+14     	; 0xd28c <RxGetChannels+0x106>
    d27e:	20 91 61 09 	lds	r18, 0x0961
    d282:	30 91 62 09 	lds	r19, 0x0962
    d286:	23 33       	cpi	r18, 0x33	; 51
    d288:	31 05       	cpc	r19, r1
    d28a:	24 f0       	brlt	.+8      	; 0xd294 <RxGetChannels+0x10e>
    d28c:	20 91 34 05 	lds	r18, 0x0534
    d290:	21 60       	ori	r18, 0x01	; 1
    d292:	03 c0       	rjmp	.+6      	; 0xd29a <RxGetChannels+0x114>
    d294:	20 91 34 05 	lds	r18, 0x0534
    d298:	2e 7f       	andi	r18, 0xFE	; 254
    d29a:	20 93 34 05 	sts	0x0534, r18
    d29e:	10 92 74 09 	sts	0x0974, r1
    d2a2:	10 92 73 09 	sts	0x0973, r1
    d2a6:	90 93 69 05 	sts	0x0569, r25
    d2aa:	80 93 68 05 	sts	0x0568, r24
    d2ae:	08 95       	ret

0000d2b0 <CenterSticks>:
    d2b0:	ef 92       	push	r14
    d2b2:	ff 92       	push	r15
    d2b4:	0f 93       	push	r16
    d2b6:	1f 93       	push	r17
    d2b8:	cf 93       	push	r28
    d2ba:	df 93       	push	r29
    d2bc:	cd b7       	in	r28, 0x3d	; 61
    d2be:	de b7       	in	r29, 0x3e	; 62
    d2c0:	60 97       	sbiw	r28, 0x10	; 16
    d2c2:	0f b6       	in	r0, 0x3f	; 63
    d2c4:	f8 94       	cli
    d2c6:	de bf       	out	0x3e, r29	; 62
    d2c8:	0f be       	out	0x3f, r0	; 63
    d2ca:	cd bf       	out	0x3d, r28	; 61
    d2cc:	9e 01       	movw	r18, r28
    d2ce:	2f 5f       	subi	r18, 0xFF	; 255
    d2d0:	3f 4f       	sbci	r19, 0xFF	; 255
    d2d2:	80 e1       	ldi	r24, 0x10	; 16
    d2d4:	f9 01       	movw	r30, r18
    d2d6:	11 92       	st	Z+, r1
    d2d8:	8a 95       	dec	r24
    d2da:	e9 f7       	brne	.-6      	; 0xd2d6 <CenterSticks+0x26>
    d2dc:	48 e0       	ldi	r20, 0x08	; 8
    d2de:	79 01       	movw	r14, r18
    d2e0:	d9 01       	movw	r26, r18
    d2e2:	80 e0       	ldi	r24, 0x00	; 0
    d2e4:	90 e0       	ldi	r25, 0x00	; 0
    d2e6:	bc 01       	movw	r22, r24
    d2e8:	66 0f       	add	r22, r22
    d2ea:	77 1f       	adc	r23, r23
    d2ec:	62 54       	subi	r22, 0x42	; 66
    d2ee:	77 4f       	sbci	r23, 0xF7	; 247
    d2f0:	fb 01       	movw	r30, r22
    d2f2:	60 81       	ld	r22, Z
    d2f4:	71 81       	ldd	r23, Z+1	; 0x01
    d2f6:	0d 91       	ld	r16, X+
    d2f8:	1c 91       	ld	r17, X
    d2fa:	11 97       	sbiw	r26, 0x01	; 1
    d2fc:	60 0f       	add	r22, r16
    d2fe:	71 1f       	adc	r23, r17
    d300:	6d 93       	st	X+, r22
    d302:	7d 93       	st	X+, r23
    d304:	01 96       	adiw	r24, 0x01	; 1
    d306:	88 30       	cpi	r24, 0x08	; 8
    d308:	91 05       	cpc	r25, r1
    d30a:	69 f7       	brne	.-38     	; 0xd2e6 <CenterSticks+0x36>
    d30c:	ff e7       	ldi	r31, 0x7F	; 127
    d30e:	5a e1       	ldi	r21, 0x1A	; 26
    d310:	86 e0       	ldi	r24, 0x06	; 6
    d312:	f1 50       	subi	r31, 0x01	; 1
    d314:	50 40       	sbci	r21, 0x00	; 0
    d316:	80 40       	sbci	r24, 0x00	; 0
    d318:	e1 f7       	brne	.-8      	; 0xd312 <CenterSticks+0x62>
    d31a:	00 c0       	rjmp	.+0      	; 0xd31c <CenterSticks+0x6c>
    d31c:	00 00       	nop
    d31e:	41 50       	subi	r20, 0x01	; 1
    d320:	f1 f6       	brne	.-68     	; 0xd2de <CenterSticks+0x2e>
    d322:	ac ee       	ldi	r26, 0xEC	; 236
    d324:	b7 e0       	ldi	r27, 0x07	; 7
    d326:	9e 01       	movw	r18, r28
    d328:	2f 5e       	subi	r18, 0xEF	; 239
    d32a:	3f 4f       	sbci	r19, 0xFF	; 255
    d32c:	f7 01       	movw	r30, r14
    d32e:	81 91       	ld	r24, Z+
    d330:	91 91       	ld	r25, Z+
    d332:	7f 01       	movw	r14, r30
    d334:	04 96       	adiw	r24, 0x04	; 4
    d336:	43 e0       	ldi	r20, 0x03	; 3
    d338:	96 95       	lsr	r25
    d33a:	87 95       	ror	r24
    d33c:	4a 95       	dec	r20
    d33e:	e1 f7       	brne	.-8      	; 0xd338 <CenterSticks+0x88>
    d340:	8d 93       	st	X+, r24
    d342:	9d 93       	st	X+, r25
    d344:	e2 17       	cp	r30, r18
    d346:	f3 07       	cpc	r31, r19
    d348:	89 f7       	brne	.-30     	; 0xd32c <CenterSticks+0x7c>
    d34a:	60 96       	adiw	r28, 0x10	; 16
    d34c:	0f b6       	in	r0, 0x3f	; 63
    d34e:	f8 94       	cli
    d350:	de bf       	out	0x3e, r29	; 62
    d352:	0f be       	out	0x3f, r0	; 63
    d354:	cd bf       	out	0x3d, r28	; 61
    d356:	df 91       	pop	r29
    d358:	cf 91       	pop	r28
    d35a:	1f 91       	pop	r17
    d35c:	0f 91       	pop	r16
    d35e:	ff 90       	pop	r15
    d360:	ef 90       	pop	r14
    d362:	0c 94 4e 26 	jmp	0x4c9c	; 0x4c9c <Save_Config_to_EEPROM>

0000d366 <UpdateTransition>:
    d366:	e0 91 46 06 	lds	r30, 0x0646
    d36a:	ee 0f       	add	r30, r30
    d36c:	ff 0b       	sbc	r31, r31
    d36e:	ed 59       	subi	r30, 0x9D	; 157
    d370:	f6 4f       	sbci	r31, 0xF6	; 246
    d372:	80 81       	ld	r24, Z
    d374:	91 81       	ldd	r25, Z+1	; 0x01
    d376:	88 51       	subi	r24, 0x18	; 24
    d378:	9c 4f       	sbci	r25, 0xFC	; 252
    d37a:	97 ff       	sbrs	r25, 7
    d37c:	02 c0       	rjmp	.+4      	; 0xd382 <UpdateTransition+0x1c>
    d37e:	80 e0       	ldi	r24, 0x00	; 0
    d380:	90 e0       	ldi	r25, 0x00	; 0
    d382:	0a 96       	adiw	r24, 0x0a	; 10
    d384:	64 e1       	ldi	r22, 0x14	; 20
    d386:	70 e0       	ldi	r23, 0x00	; 0
    d388:	0e 94 7d 6e 	call	0xdcfa	; 0xdcfa <__divmodhi4>
    d38c:	65 36       	cpi	r22, 0x65	; 101
    d38e:	71 05       	cpc	r23, r1
    d390:	2c f4       	brge	.+10     	; 0xd39c <UpdateTransition+0x36>
    d392:	70 93 39 05 	sts	0x0539, r23
    d396:	60 93 38 05 	sts	0x0538, r22
    d39a:	08 95       	ret
    d39c:	84 e6       	ldi	r24, 0x64	; 100
    d39e:	90 e0       	ldi	r25, 0x00	; 0
    d3a0:	90 93 39 05 	sts	0x0539, r25
    d3a4:	80 93 38 05 	sts	0x0538, r24
    d3a8:	08 95       	ret

0000d3aa <output_servo_ppm>:
    d3aa:	3f 92       	push	r3
    d3ac:	4f 92       	push	r4
    d3ae:	5f 92       	push	r5
    d3b0:	6f 92       	push	r6
    d3b2:	7f 92       	push	r7
    d3b4:	8f 92       	push	r8
    d3b6:	9f 92       	push	r9
    d3b8:	af 92       	push	r10
    d3ba:	bf 92       	push	r11
    d3bc:	cf 92       	push	r12
    d3be:	df 92       	push	r13
    d3c0:	ef 92       	push	r14
    d3c2:	ff 92       	push	r15
    d3c4:	0f 93       	push	r16
    d3c6:	1f 93       	push	r17
    d3c8:	cf 93       	push	r28
    d3ca:	df 93       	push	r29
    d3cc:	00 d0       	rcall	.+0      	; 0xd3ce <output_servo_ppm+0x24>
    d3ce:	00 d0       	rcall	.+0      	; 0xd3d0 <output_servo_ppm+0x26>
    d3d0:	cd b7       	in	r28, 0x3d	; 61
    d3d2:	de b7       	in	r29, 0x3e	; 62
    d3d4:	38 2e       	mov	r3, r24
    d3d6:	e8 ec       	ldi	r30, 0xC8	; 200
    d3d8:	ce 2e       	mov	r12, r30
    d3da:	e6 e0       	ldi	r30, 0x06	; 6
    d3dc:	de 2e       	mov	r13, r30
    d3de:	09 e1       	ldi	r16, 0x19	; 25
    d3e0:	16 e0       	ldi	r17, 0x06	; 6
    d3e2:	da 82       	std	Y+2, r13	; 0x02
    d3e4:	c9 82       	std	Y+1, r12	; 0x01
    d3e6:	1c 82       	std	Y+4, r1	; 0x04
    d3e8:	1b 82       	std	Y+3, r1	; 0x03
    d3ea:	fa e0       	ldi	r31, 0x0A	; 10
    d3ec:	4f 2e       	mov	r4, r31
    d3ee:	51 2c       	mov	r5, r1
    d3f0:	61 2c       	mov	r6, r1
    d3f2:	71 2c       	mov	r7, r1
    d3f4:	eb 80       	ldd	r14, Y+3	; 0x03
    d3f6:	fc 80       	ldd	r15, Y+4	; 0x04
    d3f8:	ee 0c       	add	r14, r14
    d3fa:	ff 1c       	adc	r15, r15
    d3fc:	f7 01       	movw	r30, r14
    d3fe:	eb 58       	subi	r30, 0x8B	; 139
    d400:	f6 4f       	sbci	r31, 0xF6	; 246
    d402:	20 81       	ld	r18, Z
    d404:	31 81       	ldd	r19, Z+1	; 0x01
    d406:	a9 01       	movw	r20, r18
    d408:	60 e0       	ldi	r22, 0x00	; 0
    d40a:	70 e0       	ldi	r23, 0x00	; 0
    d40c:	e9 81       	ldd	r30, Y+1	; 0x01
    d40e:	fa 81       	ldd	r31, Y+2	; 0x02
    d410:	80 81       	ld	r24, Z
    d412:	82 30       	cpi	r24, 0x02	; 2
    d414:	89 f0       	breq	.+34     	; 0xd438 <output_servo_ppm+0x8e>
    d416:	db 01       	movw	r26, r22
    d418:	ca 01       	movw	r24, r20
    d41a:	86 5a       	subi	r24, 0xA6	; 166
    d41c:	9e 40       	sbci	r25, 0x0E	; 14
    d41e:	a1 09       	sbc	r26, r1
    d420:	b1 09       	sbc	r27, r1
    d422:	b5 95       	asr	r27
    d424:	a7 95       	ror	r26
    d426:	97 95       	ror	r25
    d428:	87 95       	ror	r24
    d42a:	9c 01       	movw	r18, r24
    d42c:	ad 01       	movw	r20, r26
    d42e:	24 52       	subi	r18, 0x24	; 36
    d430:	3a 4f       	sbci	r19, 0xFA	; 250
    d432:	4f 4f       	sbci	r20, 0xFF	; 255
    d434:	5f 4f       	sbci	r21, 0xFF	; 255
    d436:	13 c0       	rjmp	.+38     	; 0xd45e <output_servo_ppm+0xb4>
    d438:	db 01       	movw	r26, r22
    d43a:	ca 01       	movw	r24, r20
    d43c:	52 e0       	ldi	r21, 0x02	; 2
    d43e:	88 0f       	add	r24, r24
    d440:	99 1f       	adc	r25, r25
    d442:	aa 1f       	adc	r26, r26
    d444:	bb 1f       	adc	r27, r27
    d446:	5a 95       	dec	r21
    d448:	d1 f7       	brne	.-12     	; 0xd43e <output_servo_ppm+0x94>
    d44a:	bc 01       	movw	r22, r24
    d44c:	cd 01       	movw	r24, r26
    d44e:	6b 5f       	subi	r22, 0xFB	; 251
    d450:	7f 4f       	sbci	r23, 0xFF	; 255
    d452:	8f 4f       	sbci	r24, 0xFF	; 255
    d454:	9f 4f       	sbci	r25, 0xFF	; 255
    d456:	a3 01       	movw	r20, r6
    d458:	92 01       	movw	r18, r4
    d45a:	0e 94 91 6e 	call	0xdd22	; 0xdd22 <__divmodsi4>
    d45e:	f8 01       	movw	r30, r16
    d460:	83 85       	ldd	r24, Z+11	; 0x0b
    d462:	94 85       	ldd	r25, Z+12	; 0x0c
    d464:	09 2e       	mov	r0, r25
    d466:	00 0c       	add	r0, r0
    d468:	aa 0b       	sbc	r26, r26
    d46a:	bb 0b       	sbc	r27, r27
    d46c:	82 17       	cp	r24, r18
    d46e:	93 07       	cpc	r25, r19
    d470:	a4 07       	cpc	r26, r20
    d472:	b5 07       	cpc	r27, r21
    d474:	7c f0       	brlt	.+30     	; 0xd494 <output_servo_ppm+0xea>
    d476:	81 85       	ldd	r24, Z+9	; 0x09
    d478:	92 85       	ldd	r25, Z+10	; 0x0a
    d47a:	4c 01       	movw	r8, r24
    d47c:	99 0f       	add	r25, r25
    d47e:	aa 08       	sbc	r10, r10
    d480:	bb 08       	sbc	r11, r11
    d482:	da 01       	movw	r26, r20
    d484:	c9 01       	movw	r24, r18
    d486:	28 15       	cp	r18, r8
    d488:	39 05       	cpc	r19, r9
    d48a:	4a 05       	cpc	r20, r10
    d48c:	5b 05       	cpc	r21, r11
    d48e:	14 f4       	brge	.+4      	; 0xd494 <output_servo_ppm+0xea>
    d490:	d5 01       	movw	r26, r10
    d492:	c4 01       	movw	r24, r8
    d494:	f7 01       	movw	r30, r14
    d496:	eb 58       	subi	r30, 0x8B	; 139
    d498:	f6 4f       	sbci	r31, 0xF6	; 246
    d49a:	91 83       	std	Z+1, r25	; 0x01
    d49c:	80 83       	st	Z, r24
    d49e:	8b 81       	ldd	r24, Y+3	; 0x03
    d4a0:	9c 81       	ldd	r25, Y+4	; 0x04
    d4a2:	01 96       	adiw	r24, 0x01	; 1
    d4a4:	9c 83       	std	Y+4, r25	; 0x04
    d4a6:	8b 83       	std	Y+3, r24	; 0x03
    d4a8:	e9 81       	ldd	r30, Y+1	; 0x01
    d4aa:	fa 81       	ldd	r31, Y+2	; 0x02
    d4ac:	b2 96       	adiw	r30, 0x22	; 34
    d4ae:	fa 83       	std	Y+2, r31	; 0x02
    d4b0:	e9 83       	std	Y+1, r30	; 0x01
    d4b2:	0c 5f       	subi	r16, 0xFC	; 252
    d4b4:	1f 4f       	sbci	r17, 0xFF	; 255
    d4b6:	08 97       	sbiw	r24, 0x08	; 8
    d4b8:	09 f0       	breq	.+2      	; 0xd4bc <output_servo_ppm+0x112>
    d4ba:	9c cf       	rjmp	.-200    	; 0xd3f4 <output_servo_ppm+0x4a>
    d4bc:	80 91 61 09 	lds	r24, 0x0961
    d4c0:	90 91 62 09 	lds	r25, 0x0962
    d4c4:	c2 97       	sbiw	r24, 0x32	; 50
    d4c6:	4c f0       	brlt	.+18     	; 0xd4da <output_servo_ppm+0x130>
    d4c8:	80 91 35 05 	lds	r24, 0x0535
    d4cc:	82 fd       	sbrc	r24, 2
    d4ce:	05 c0       	rjmp	.+10     	; 0xd4da <output_servo_ppm+0x130>
    d4d0:	80 91 35 05 	lds	r24, 0x0535
    d4d4:	80 ff       	sbrs	r24, 0
    d4d6:	18 c0       	rjmp	.+48     	; 0xd508 <output_servo_ppm+0x15e>
    d4d8:	27 c0       	rjmp	.+78     	; 0xd528 <output_servo_ppm+0x17e>
    d4da:	80 e0       	ldi	r24, 0x00	; 0
    d4dc:	90 e0       	ldi	r25, 0x00	; 0
    d4de:	28 ee       	ldi	r18, 0xE8	; 232
    d4e0:	33 e0       	ldi	r19, 0x03	; 3
    d4e2:	f6 01       	movw	r30, r12
    d4e4:	40 81       	ld	r20, Z
    d4e6:	42 30       	cpi	r20, 0x02	; 2
    d4e8:	39 f4       	brne	.+14     	; 0xd4f8 <output_servo_ppm+0x14e>
    d4ea:	fc 01       	movw	r30, r24
    d4ec:	ee 0f       	add	r30, r30
    d4ee:	ff 1f       	adc	r31, r31
    d4f0:	eb 58       	subi	r30, 0x8B	; 139
    d4f2:	f6 4f       	sbci	r31, 0xF6	; 246
    d4f4:	31 83       	std	Z+1, r19	; 0x01
    d4f6:	20 83       	st	Z, r18
    d4f8:	01 96       	adiw	r24, 0x01	; 1
    d4fa:	f2 e2       	ldi	r31, 0x22	; 34
    d4fc:	cf 0e       	add	r12, r31
    d4fe:	d1 1c       	adc	r13, r1
    d500:	88 30       	cpi	r24, 0x08	; 8
    d502:	91 05       	cpc	r25, r1
    d504:	71 f7       	brne	.-36     	; 0xd4e2 <output_servo_ppm+0x138>
    d506:	e4 cf       	rjmp	.-56     	; 0xd4d0 <output_servo_ppm+0x126>
    d508:	80 91 34 05 	lds	r24, 0x0534
    d50c:	81 fd       	sbrc	r24, 1
    d50e:	0c c0       	rjmp	.+24     	; 0xd528 <output_servo_ppm+0x17e>
    d510:	63 2d       	mov	r22, r3
    d512:	10 92 fa 08 	sts	0x08FA, r1
    d516:	81 e0       	ldi	r24, 0x01	; 1
    d518:	80 93 f9 08 	sts	0x08F9, r24
    d51c:	85 e7       	ldi	r24, 0x75	; 117
    d51e:	99 e0       	ldi	r25, 0x09	; 9
    d520:	0e 94 1e 16 	call	0x2c3c	; 0x2c3c <output_servo_ppm_asm>
    d524:	10 92 f9 08 	sts	0x08F9, r1
    d528:	0f 90       	pop	r0
    d52a:	0f 90       	pop	r0
    d52c:	0f 90       	pop	r0
    d52e:	0f 90       	pop	r0
    d530:	df 91       	pop	r29
    d532:	cf 91       	pop	r28
    d534:	1f 91       	pop	r17
    d536:	0f 91       	pop	r16
    d538:	ff 90       	pop	r15
    d53a:	ef 90       	pop	r14
    d53c:	df 90       	pop	r13
    d53e:	cf 90       	pop	r12
    d540:	bf 90       	pop	r11
    d542:	af 90       	pop	r10
    d544:	9f 90       	pop	r9
    d546:	8f 90       	pop	r8
    d548:	7f 90       	pop	r7
    d54a:	6f 90       	pop	r6
    d54c:	5f 90       	pop	r5
    d54e:	4f 90       	pop	r4
    d550:	3f 90       	pop	r3
    d552:	08 95       	ret

0000d554 <i2c_init>:
    d554:	10 92 b9 00 	sts	0x00B9, r1
    d558:	81 e1       	ldi	r24, 0x11	; 17
    d55a:	80 93 b8 00 	sts	0x00B8, r24
    d55e:	08 95       	ret

0000d560 <i2c_start>:
    d560:	94 ea       	ldi	r25, 0xA4	; 164
    d562:	90 93 bc 00 	sts	0x00BC, r25
    d566:	4f ef       	ldi	r20, 0xFF	; 255
    d568:	50 e0       	ldi	r21, 0x00	; 0
    d56a:	60 e0       	ldi	r22, 0x00	; 0
    d56c:	70 e0       	ldi	r23, 0x00	; 0
    d56e:	90 91 bc 00 	lds	r25, 0x00BC
    d572:	97 fd       	sbrc	r25, 7
    d574:	06 c0       	rjmp	.+12     	; 0xd582 <i2c_start+0x22>
    d576:	41 50       	subi	r20, 0x01	; 1
    d578:	51 09       	sbc	r21, r1
    d57a:	61 09       	sbc	r22, r1
    d57c:	71 09       	sbc	r23, r1
    d57e:	b8 f7       	brcc	.-18     	; 0xd56e <i2c_start+0xe>
    d580:	06 c0       	rjmp	.+12     	; 0xd58e <i2c_start+0x2e>
    d582:	45 2b       	or	r20, r21
    d584:	46 2b       	or	r20, r22
    d586:	47 2b       	or	r20, r23
    d588:	11 f4       	brne	.+4      	; 0xd58e <i2c_start+0x2e>
    d58a:	81 e0       	ldi	r24, 0x01	; 1
    d58c:	08 95       	ret
    d58e:	90 91 b9 00 	lds	r25, 0x00B9
    d592:	98 7f       	andi	r25, 0xF8	; 248
    d594:	98 30       	cpi	r25, 0x08	; 8
    d596:	11 f0       	breq	.+4      	; 0xd59c <i2c_start+0x3c>
    d598:	90 31       	cpi	r25, 0x10	; 16
    d59a:	b9 f7       	brne	.-18     	; 0xd58a <i2c_start+0x2a>
    d59c:	80 93 bb 00 	sts	0x00BB, r24
    d5a0:	84 e8       	ldi	r24, 0x84	; 132
    d5a2:	80 93 bc 00 	sts	0x00BC, r24
    d5a6:	8f ef       	ldi	r24, 0xFF	; 255
    d5a8:	90 e0       	ldi	r25, 0x00	; 0
    d5aa:	a0 e0       	ldi	r26, 0x00	; 0
    d5ac:	b0 e0       	ldi	r27, 0x00	; 0
    d5ae:	20 91 bc 00 	lds	r18, 0x00BC
    d5b2:	27 fd       	sbrc	r18, 7
    d5b4:	05 c0       	rjmp	.+10     	; 0xd5c0 <i2c_start+0x60>
    d5b6:	01 97       	sbiw	r24, 0x01	; 1
    d5b8:	a1 09       	sbc	r26, r1
    d5ba:	b1 09       	sbc	r27, r1
    d5bc:	c0 f7       	brcc	.-16     	; 0xd5ae <i2c_start+0x4e>
    d5be:	04 c0       	rjmp	.+8      	; 0xd5c8 <i2c_start+0x68>
    d5c0:	89 2b       	or	r24, r25
    d5c2:	8a 2b       	or	r24, r26
    d5c4:	8b 2b       	or	r24, r27
    d5c6:	09 f3       	breq	.-62     	; 0xd58a <i2c_start+0x2a>
    d5c8:	80 91 b9 00 	lds	r24, 0x00B9
    d5cc:	88 7f       	andi	r24, 0xF8	; 248
    d5ce:	88 31       	cpi	r24, 0x18	; 24
    d5d0:	11 f0       	breq	.+4      	; 0xd5d6 <i2c_start+0x76>
    d5d2:	80 34       	cpi	r24, 0x40	; 64
    d5d4:	d1 f6       	brne	.-76     	; 0xd58a <i2c_start+0x2a>
    d5d6:	80 e0       	ldi	r24, 0x00	; 0
    d5d8:	08 95       	ret

0000d5da <i2c_start_wait>:
    d5da:	44 ea       	ldi	r20, 0xA4	; 164
    d5dc:	54 e8       	ldi	r21, 0x84	; 132
    d5de:	64 e9       	ldi	r22, 0x94	; 148
    d5e0:	40 93 bc 00 	sts	0x00BC, r20
    d5e4:	20 e0       	ldi	r18, 0x00	; 0
    d5e6:	30 e0       	ldi	r19, 0x00	; 0
    d5e8:	90 91 bc 00 	lds	r25, 0x00BC
    d5ec:	97 fd       	sbrc	r25, 7
    d5ee:	06 c0       	rjmp	.+12     	; 0xd5fc <i2c_start_wait+0x22>
    d5f0:	2f 5f       	subi	r18, 0xFF	; 255
    d5f2:	3f 4f       	sbci	r19, 0xFF	; 255
    d5f4:	21 15       	cp	r18, r1
    d5f6:	91 e0       	ldi	r25, 0x01	; 1
    d5f8:	39 07       	cpc	r19, r25
    d5fa:	b1 f7       	brne	.-20     	; 0xd5e8 <i2c_start_wait+0xe>
    d5fc:	90 91 b9 00 	lds	r25, 0x00B9
    d600:	98 7f       	andi	r25, 0xF8	; 248
    d602:	98 30       	cpi	r25, 0x08	; 8
    d604:	11 f0       	breq	.+4      	; 0xd60a <i2c_start_wait+0x30>
    d606:	90 31       	cpi	r25, 0x10	; 16
    d608:	59 f7       	brne	.-42     	; 0xd5e0 <i2c_start_wait+0x6>
    d60a:	80 93 bb 00 	sts	0x00BB, r24
    d60e:	50 93 bc 00 	sts	0x00BC, r21
    d612:	20 e0       	ldi	r18, 0x00	; 0
    d614:	30 e0       	ldi	r19, 0x00	; 0
    d616:	90 91 bc 00 	lds	r25, 0x00BC
    d61a:	97 fd       	sbrc	r25, 7
    d61c:	06 c0       	rjmp	.+12     	; 0xd62a <i2c_start_wait+0x50>
    d61e:	2f 5f       	subi	r18, 0xFF	; 255
    d620:	3f 4f       	sbci	r19, 0xFF	; 255
    d622:	21 15       	cp	r18, r1
    d624:	91 e0       	ldi	r25, 0x01	; 1
    d626:	39 07       	cpc	r19, r25
    d628:	b1 f7       	brne	.-20     	; 0xd616 <i2c_start_wait+0x3c>
    d62a:	90 91 b9 00 	lds	r25, 0x00B9
    d62e:	98 7f       	andi	r25, 0xF8	; 248
    d630:	90 32       	cpi	r25, 0x20	; 32
    d632:	11 f0       	breq	.+4      	; 0xd638 <i2c_start_wait+0x5e>
    d634:	98 35       	cpi	r25, 0x58	; 88
    d636:	79 f4       	brne	.+30     	; 0xd656 <i2c_start_wait+0x7c>
    d638:	60 93 bc 00 	sts	0x00BC, r22
    d63c:	20 e0       	ldi	r18, 0x00	; 0
    d63e:	30 e0       	ldi	r19, 0x00	; 0
    d640:	90 91 bc 00 	lds	r25, 0x00BC
    d644:	94 ff       	sbrs	r25, 4
    d646:	cc cf       	rjmp	.-104    	; 0xd5e0 <i2c_start_wait+0x6>
    d648:	2f 5f       	subi	r18, 0xFF	; 255
    d64a:	3f 4f       	sbci	r19, 0xFF	; 255
    d64c:	21 15       	cp	r18, r1
    d64e:	91 e0       	ldi	r25, 0x01	; 1
    d650:	39 07       	cpc	r19, r25
    d652:	b1 f7       	brne	.-20     	; 0xd640 <i2c_start_wait+0x66>
    d654:	c5 cf       	rjmp	.-118    	; 0xd5e0 <i2c_start_wait+0x6>
    d656:	08 95       	ret

0000d658 <i2c_rep_start>:
    d658:	0c 94 b0 6a 	jmp	0xd560	; 0xd560 <i2c_start>

0000d65c <i2c_stop>:
    d65c:	84 e9       	ldi	r24, 0x94	; 148
    d65e:	80 93 bc 00 	sts	0x00BC, r24
    d662:	80 e0       	ldi	r24, 0x00	; 0
    d664:	90 e0       	ldi	r25, 0x00	; 0
    d666:	20 91 bc 00 	lds	r18, 0x00BC
    d66a:	24 ff       	sbrs	r18, 4
    d66c:	05 c0       	rjmp	.+10     	; 0xd678 <i2c_stop+0x1c>
    d66e:	01 96       	adiw	r24, 0x01	; 1
    d670:	81 15       	cp	r24, r1
    d672:	21 e0       	ldi	r18, 0x01	; 1
    d674:	92 07       	cpc	r25, r18
    d676:	b9 f7       	brne	.-18     	; 0xd666 <i2c_stop+0xa>
    d678:	08 95       	ret

0000d67a <i2c_write>:
    d67a:	80 93 bb 00 	sts	0x00BB, r24
    d67e:	84 e8       	ldi	r24, 0x84	; 132
    d680:	80 93 bc 00 	sts	0x00BC, r24
    d684:	8f ef       	ldi	r24, 0xFF	; 255
    d686:	90 e0       	ldi	r25, 0x00	; 0
    d688:	a0 e0       	ldi	r26, 0x00	; 0
    d68a:	b0 e0       	ldi	r27, 0x00	; 0
    d68c:	20 91 bc 00 	lds	r18, 0x00BC
    d690:	27 fd       	sbrc	r18, 7
    d692:	05 c0       	rjmp	.+10     	; 0xd69e <i2c_write+0x24>
    d694:	01 97       	sbiw	r24, 0x01	; 1
    d696:	a1 09       	sbc	r26, r1
    d698:	b1 09       	sbc	r27, r1
    d69a:	c0 f7       	brcc	.-16     	; 0xd68c <i2c_write+0x12>
    d69c:	04 c0       	rjmp	.+8      	; 0xd6a6 <i2c_write+0x2c>
    d69e:	89 2b       	or	r24, r25
    d6a0:	8a 2b       	or	r24, r26
    d6a2:	8b 2b       	or	r24, r27
    d6a4:	41 f0       	breq	.+16     	; 0xd6b6 <i2c_write+0x3c>
    d6a6:	90 91 b9 00 	lds	r25, 0x00B9
    d6aa:	98 7f       	andi	r25, 0xF8	; 248
    d6ac:	81 e0       	ldi	r24, 0x01	; 1
    d6ae:	98 32       	cpi	r25, 0x28	; 40
    d6b0:	19 f4       	brne	.+6      	; 0xd6b8 <i2c_write+0x3e>
    d6b2:	80 e0       	ldi	r24, 0x00	; 0
    d6b4:	08 95       	ret
    d6b6:	81 e0       	ldi	r24, 0x01	; 1
    d6b8:	08 95       	ret

0000d6ba <i2c_readAck>:
    d6ba:	84 ec       	ldi	r24, 0xC4	; 196
    d6bc:	80 93 bc 00 	sts	0x00BC, r24
    d6c0:	8f ef       	ldi	r24, 0xFF	; 255
    d6c2:	90 e0       	ldi	r25, 0x00	; 0
    d6c4:	a0 e0       	ldi	r26, 0x00	; 0
    d6c6:	b0 e0       	ldi	r27, 0x00	; 0
    d6c8:	20 91 bc 00 	lds	r18, 0x00BC
    d6cc:	27 fd       	sbrc	r18, 7
    d6ce:	05 c0       	rjmp	.+10     	; 0xd6da <i2c_readAck+0x20>
    d6d0:	01 97       	sbiw	r24, 0x01	; 1
    d6d2:	a1 09       	sbc	r26, r1
    d6d4:	b1 09       	sbc	r27, r1
    d6d6:	c0 f7       	brcc	.-16     	; 0xd6c8 <i2c_readAck+0xe>
    d6d8:	04 c0       	rjmp	.+8      	; 0xd6e2 <i2c_readAck+0x28>
    d6da:	89 2b       	or	r24, r25
    d6dc:	8a 2b       	or	r24, r26
    d6de:	8b 2b       	or	r24, r27
    d6e0:	19 f0       	breq	.+6      	; 0xd6e8 <i2c_readAck+0x2e>
    d6e2:	80 91 bb 00 	lds	r24, 0x00BB
    d6e6:	08 95       	ret
    d6e8:	80 e0       	ldi	r24, 0x00	; 0
    d6ea:	08 95       	ret

0000d6ec <i2c_readNak>:
    d6ec:	84 e8       	ldi	r24, 0x84	; 132
    d6ee:	80 93 bc 00 	sts	0x00BC, r24
    d6f2:	8f ef       	ldi	r24, 0xFF	; 255
    d6f4:	90 e0       	ldi	r25, 0x00	; 0
    d6f6:	a0 e0       	ldi	r26, 0x00	; 0
    d6f8:	b0 e0       	ldi	r27, 0x00	; 0
    d6fa:	20 91 bc 00 	lds	r18, 0x00BC
    d6fe:	27 fd       	sbrc	r18, 7
    d700:	05 c0       	rjmp	.+10     	; 0xd70c <i2c_readNak+0x20>
    d702:	01 97       	sbiw	r24, 0x01	; 1
    d704:	a1 09       	sbc	r26, r1
    d706:	b1 09       	sbc	r27, r1
    d708:	c0 f7       	brcc	.-16     	; 0xd6fa <i2c_readNak+0xe>
    d70a:	04 c0       	rjmp	.+8      	; 0xd714 <i2c_readNak+0x28>
    d70c:	89 2b       	or	r24, r25
    d70e:	8a 2b       	or	r24, r26
    d710:	8b 2b       	or	r24, r27
    d712:	19 f0       	breq	.+6      	; 0xd71a <i2c_readNak+0x2e>
    d714:	80 91 bb 00 	lds	r24, 0x00BB
    d718:	08 95       	ret
    d71a:	80 e0       	ldi	r24, 0x00	; 0
    d71c:	08 95       	ret

0000d71e <init_uart>:
    d71e:	f8 94       	cli
    d720:	80 91 c1 00 	lds	r24, 0x00C1
    d724:	8f 77       	andi	r24, 0x7F	; 127
    d726:	80 93 c1 00 	sts	0x00C1, r24
    d72a:	80 91 c0 00 	lds	r24, 0x00C0
    d72e:	87 ff       	sbrs	r24, 7
    d730:	05 c0       	rjmp	.+10     	; 0xd73c <init_uart+0x1e>
    d732:	80 91 c6 00 	lds	r24, 0x00C6
    d736:	80 93 c2 00 	sts	0x00C2, r24
    d73a:	f7 cf       	rjmp	.-18     	; 0xd72a <init_uart+0xc>
    d73c:	10 92 c0 00 	sts	0x00C0, r1
    d740:	10 92 c1 00 	sts	0x00C1, r1
    d744:	86 e0       	ldi	r24, 0x06	; 6
    d746:	80 93 c2 00 	sts	0x00C2, r24
    d74a:	80 91 42 06 	lds	r24, 0x0642
    d74e:	82 30       	cpi	r24, 0x02	; 2
    d750:	a9 f0       	breq	.+42     	; 0xd77c <init_uart+0x5e>
    d752:	34 f4       	brge	.+12     	; 0xd760 <init_uart+0x42>
    d754:	87 fd       	sbrc	r24, 7
    d756:	4d c0       	rjmp	.+154    	; 0xd7f2 <init_uart+0xd4>
    d758:	80 91 c1 00 	lds	r24, 0x00C1
    d75c:	8f 7e       	andi	r24, 0xEF	; 239
    d75e:	47 c0       	rjmp	.+142    	; 0xd7ee <init_uart+0xd0>
    d760:	84 30       	cpi	r24, 0x04	; 4
    d762:	21 f0       	breq	.+8      	; 0xd76c <init_uart+0x4e>
    d764:	44 f1       	brlt	.+80     	; 0xd7b6 <init_uart+0x98>
    d766:	85 30       	cpi	r24, 0x05	; 5
    d768:	31 f1       	breq	.+76     	; 0xd7b6 <init_uart+0x98>
    d76a:	43 c0       	rjmp	.+134    	; 0xd7f2 <init_uart+0xd4>
    d76c:	90 91 c0 00 	lds	r25, 0x00C0
    d770:	9d 7f       	andi	r25, 0xFD	; 253
    d772:	90 93 c0 00 	sts	0x00C0, r25
    d776:	10 92 c5 00 	sts	0x00C5, r1
    d77a:	25 c0       	rjmp	.+74     	; 0xd7c6 <init_uart+0xa8>
    d77c:	80 91 c0 00 	lds	r24, 0x00C0
    d780:	82 60       	ori	r24, 0x02	; 2
    d782:	80 93 c0 00 	sts	0x00C0, r24
    d786:	10 92 c5 00 	sts	0x00C5, r1
    d78a:	88 e1       	ldi	r24, 0x18	; 24
    d78c:	80 93 c4 00 	sts	0x00C4, r24
    d790:	80 91 c1 00 	lds	r24, 0x00C1
    d794:	80 61       	ori	r24, 0x10	; 16
    d796:	80 93 c1 00 	sts	0x00C1, r24
    d79a:	80 91 c2 00 	lds	r24, 0x00C2
    d79e:	88 60       	ori	r24, 0x08	; 8
    d7a0:	80 93 c2 00 	sts	0x00C2, r24
    d7a4:	80 91 c2 00 	lds	r24, 0x00C2
    d7a8:	8f 7e       	andi	r24, 0xEF	; 239
    d7aa:	80 93 c2 00 	sts	0x00C2, r24
    d7ae:	80 91 c2 00 	lds	r24, 0x00C2
    d7b2:	80 62       	ori	r24, 0x20	; 32
    d7b4:	17 c0       	rjmp	.+46     	; 0xd7e4 <init_uart+0xc6>
    d7b6:	80 91 c0 00 	lds	r24, 0x00C0
    d7ba:	8d 7f       	andi	r24, 0xFD	; 253
    d7bc:	80 93 c0 00 	sts	0x00C0, r24
    d7c0:	10 92 c5 00 	sts	0x00C5, r1
    d7c4:	8a e0       	ldi	r24, 0x0A	; 10
    d7c6:	80 93 c4 00 	sts	0x00C4, r24
    d7ca:	80 91 c1 00 	lds	r24, 0x00C1
    d7ce:	80 61       	ori	r24, 0x10	; 16
    d7d0:	80 93 c1 00 	sts	0x00C1, r24
    d7d4:	80 91 c2 00 	lds	r24, 0x00C2
    d7d8:	87 7f       	andi	r24, 0xF7	; 247
    d7da:	80 93 c2 00 	sts	0x00C2, r24
    d7de:	80 91 c2 00 	lds	r24, 0x00C2
    d7e2:	8f 7e       	andi	r24, 0xEF	; 239
    d7e4:	80 93 c2 00 	sts	0x00C2, r24
    d7e8:	80 91 c1 00 	lds	r24, 0x00C1
    d7ec:	80 68       	ori	r24, 0x80	; 128
    d7ee:	80 93 c1 00 	sts	0x00C1, r24
    d7f2:	78 94       	sei
    d7f4:	08 95       	ret

0000d7f6 <CRC16>:
    d7f6:	96 27       	eor	r25, r22
    d7f8:	28 e0       	ldi	r18, 0x08	; 8
    d7fa:	ac 01       	movw	r20, r24
    d7fc:	44 0f       	add	r20, r20
    d7fe:	55 1f       	adc	r21, r21
    d800:	97 ff       	sbrs	r25, 7
    d802:	06 c0       	rjmp	.+12     	; 0xd810 <CRC16+0x1a>
    d804:	ca 01       	movw	r24, r20
    d806:	31 e2       	ldi	r19, 0x21	; 33
    d808:	83 27       	eor	r24, r19
    d80a:	30 e1       	ldi	r19, 0x10	; 16
    d80c:	93 27       	eor	r25, r19
    d80e:	01 c0       	rjmp	.+2      	; 0xd812 <CRC16+0x1c>
    d810:	ca 01       	movw	r24, r20
    d812:	21 50       	subi	r18, 0x01	; 1
    d814:	91 f7       	brne	.-28     	; 0xd7fa <CRC16+0x4>
    d816:	08 95       	ret

0000d818 <GetVbat>:
    d818:	83 e0       	ldi	r24, 0x03	; 3
    d81a:	0e 94 dc 1b 	call	0x37b8	; 0x37b8 <read_adc>
    d81e:	20 91 78 00 	lds	r18, 0x0078
    d822:	30 91 79 00 	lds	r19, 0x0079
    d826:	a9 01       	movw	r20, r18
    d828:	56 95       	lsr	r21
    d82a:	47 95       	ror	r20
    d82c:	c9 01       	movw	r24, r18
    d82e:	88 0f       	add	r24, r24
    d830:	99 1f       	adc	r25, r25
    d832:	84 0f       	add	r24, r20
    d834:	95 1f       	adc	r25, r21
    d836:	a9 01       	movw	r20, r18
    d838:	74 e0       	ldi	r23, 0x04	; 4
    d83a:	56 95       	lsr	r21
    d83c:	47 95       	ror	r20
    d83e:	7a 95       	dec	r23
    d840:	e1 f7       	brne	.-8      	; 0xd83a <GetVbat+0x22>
    d842:	84 0f       	add	r24, r20
    d844:	95 1f       	adc	r25, r21
    d846:	e6 e0       	ldi	r30, 0x06	; 6
    d848:	36 95       	lsr	r19
    d84a:	27 95       	ror	r18
    d84c:	ea 95       	dec	r30
    d84e:	e1 f7       	brne	.-8      	; 0xd848 <GetVbat+0x30>
    d850:	82 0f       	add	r24, r18
    d852:	93 1f       	adc	r25, r19
    d854:	08 95       	ret

0000d856 <__subsf3>:
    d856:	50 58       	subi	r21, 0x80	; 128

0000d858 <__addsf3>:
    d858:	bb 27       	eor	r27, r27
    d85a:	aa 27       	eor	r26, r26
    d85c:	0e 94 43 6c 	call	0xd886	; 0xd886 <__addsf3x>
    d860:	0c 94 bd 6d 	jmp	0xdb7a	; 0xdb7a <__fp_round>
    d864:	0e 94 af 6d 	call	0xdb5e	; 0xdb5e <__fp_pscA>
    d868:	38 f0       	brcs	.+14     	; 0xd878 <__addsf3+0x20>
    d86a:	0e 94 b6 6d 	call	0xdb6c	; 0xdb6c <__fp_pscB>
    d86e:	20 f0       	brcs	.+8      	; 0xd878 <__addsf3+0x20>
    d870:	39 f4       	brne	.+14     	; 0xd880 <__addsf3+0x28>
    d872:	9f 3f       	cpi	r25, 0xFF	; 255
    d874:	19 f4       	brne	.+6      	; 0xd87c <__addsf3+0x24>
    d876:	26 f4       	brtc	.+8      	; 0xd880 <__addsf3+0x28>
    d878:	0c 94 ac 6d 	jmp	0xdb58	; 0xdb58 <__fp_nan>
    d87c:	0e f4       	brtc	.+2      	; 0xd880 <__addsf3+0x28>
    d87e:	e0 95       	com	r30
    d880:	e7 fb       	bst	r30, 7
    d882:	0c 94 a6 6d 	jmp	0xdb4c	; 0xdb4c <__fp_inf>

0000d886 <__addsf3x>:
    d886:	e9 2f       	mov	r30, r25
    d888:	0e 94 ce 6d 	call	0xdb9c	; 0xdb9c <__fp_split3>
    d88c:	58 f3       	brcs	.-42     	; 0xd864 <__addsf3+0xc>
    d88e:	ba 17       	cp	r27, r26
    d890:	62 07       	cpc	r22, r18
    d892:	73 07       	cpc	r23, r19
    d894:	84 07       	cpc	r24, r20
    d896:	95 07       	cpc	r25, r21
    d898:	20 f0       	brcs	.+8      	; 0xd8a2 <__addsf3x+0x1c>
    d89a:	79 f4       	brne	.+30     	; 0xd8ba <__addsf3x+0x34>
    d89c:	a6 f5       	brtc	.+104    	; 0xd906 <__addsf3x+0x80>
    d89e:	0c 94 f0 6d 	jmp	0xdbe0	; 0xdbe0 <__fp_zero>
    d8a2:	0e f4       	brtc	.+2      	; 0xd8a6 <__addsf3x+0x20>
    d8a4:	e0 95       	com	r30
    d8a6:	0b 2e       	mov	r0, r27
    d8a8:	ba 2f       	mov	r27, r26
    d8aa:	a0 2d       	mov	r26, r0
    d8ac:	0b 01       	movw	r0, r22
    d8ae:	b9 01       	movw	r22, r18
    d8b0:	90 01       	movw	r18, r0
    d8b2:	0c 01       	movw	r0, r24
    d8b4:	ca 01       	movw	r24, r20
    d8b6:	a0 01       	movw	r20, r0
    d8b8:	11 24       	eor	r1, r1
    d8ba:	ff 27       	eor	r31, r31
    d8bc:	59 1b       	sub	r21, r25
    d8be:	99 f0       	breq	.+38     	; 0xd8e6 <__addsf3x+0x60>
    d8c0:	59 3f       	cpi	r21, 0xF9	; 249
    d8c2:	50 f4       	brcc	.+20     	; 0xd8d8 <__addsf3x+0x52>
    d8c4:	50 3e       	cpi	r21, 0xE0	; 224
    d8c6:	68 f1       	brcs	.+90     	; 0xd922 <__addsf3x+0x9c>
    d8c8:	1a 16       	cp	r1, r26
    d8ca:	f0 40       	sbci	r31, 0x00	; 0
    d8cc:	a2 2f       	mov	r26, r18
    d8ce:	23 2f       	mov	r18, r19
    d8d0:	34 2f       	mov	r19, r20
    d8d2:	44 27       	eor	r20, r20
    d8d4:	58 5f       	subi	r21, 0xF8	; 248
    d8d6:	f3 cf       	rjmp	.-26     	; 0xd8be <__addsf3x+0x38>
    d8d8:	46 95       	lsr	r20
    d8da:	37 95       	ror	r19
    d8dc:	27 95       	ror	r18
    d8de:	a7 95       	ror	r26
    d8e0:	f0 40       	sbci	r31, 0x00	; 0
    d8e2:	53 95       	inc	r21
    d8e4:	c9 f7       	brne	.-14     	; 0xd8d8 <__addsf3x+0x52>
    d8e6:	7e f4       	brtc	.+30     	; 0xd906 <__addsf3x+0x80>
    d8e8:	1f 16       	cp	r1, r31
    d8ea:	ba 0b       	sbc	r27, r26
    d8ec:	62 0b       	sbc	r22, r18
    d8ee:	73 0b       	sbc	r23, r19
    d8f0:	84 0b       	sbc	r24, r20
    d8f2:	ba f0       	brmi	.+46     	; 0xd922 <__addsf3x+0x9c>
    d8f4:	91 50       	subi	r25, 0x01	; 1
    d8f6:	a1 f0       	breq	.+40     	; 0xd920 <__addsf3x+0x9a>
    d8f8:	ff 0f       	add	r31, r31
    d8fa:	bb 1f       	adc	r27, r27
    d8fc:	66 1f       	adc	r22, r22
    d8fe:	77 1f       	adc	r23, r23
    d900:	88 1f       	adc	r24, r24
    d902:	c2 f7       	brpl	.-16     	; 0xd8f4 <__addsf3x+0x6e>
    d904:	0e c0       	rjmp	.+28     	; 0xd922 <__addsf3x+0x9c>
    d906:	ba 0f       	add	r27, r26
    d908:	62 1f       	adc	r22, r18
    d90a:	73 1f       	adc	r23, r19
    d90c:	84 1f       	adc	r24, r20
    d90e:	48 f4       	brcc	.+18     	; 0xd922 <__addsf3x+0x9c>
    d910:	87 95       	ror	r24
    d912:	77 95       	ror	r23
    d914:	67 95       	ror	r22
    d916:	b7 95       	ror	r27
    d918:	f7 95       	ror	r31
    d91a:	9e 3f       	cpi	r25, 0xFE	; 254
    d91c:	08 f0       	brcs	.+2      	; 0xd920 <__addsf3x+0x9a>
    d91e:	b0 cf       	rjmp	.-160    	; 0xd880 <__addsf3+0x28>
    d920:	93 95       	inc	r25
    d922:	88 0f       	add	r24, r24
    d924:	08 f0       	brcs	.+2      	; 0xd928 <__addsf3x+0xa2>
    d926:	99 27       	eor	r25, r25
    d928:	ee 0f       	add	r30, r30
    d92a:	97 95       	ror	r25
    d92c:	87 95       	ror	r24
    d92e:	08 95       	ret

0000d930 <__cmpsf2>:
    d930:	0e 94 82 6d 	call	0xdb04	; 0xdb04 <__fp_cmp>
    d934:	08 f4       	brcc	.+2      	; 0xd938 <__cmpsf2+0x8>
    d936:	81 e0       	ldi	r24, 0x01	; 1
    d938:	08 95       	ret

0000d93a <__divsf3>:
    d93a:	0e 94 b1 6c 	call	0xd962	; 0xd962 <__divsf3x>
    d93e:	0c 94 bd 6d 	jmp	0xdb7a	; 0xdb7a <__fp_round>
    d942:	0e 94 b6 6d 	call	0xdb6c	; 0xdb6c <__fp_pscB>
    d946:	58 f0       	brcs	.+22     	; 0xd95e <__divsf3+0x24>
    d948:	0e 94 af 6d 	call	0xdb5e	; 0xdb5e <__fp_pscA>
    d94c:	40 f0       	brcs	.+16     	; 0xd95e <__divsf3+0x24>
    d94e:	29 f4       	brne	.+10     	; 0xd95a <__divsf3+0x20>
    d950:	5f 3f       	cpi	r21, 0xFF	; 255
    d952:	29 f0       	breq	.+10     	; 0xd95e <__divsf3+0x24>
    d954:	0c 94 a6 6d 	jmp	0xdb4c	; 0xdb4c <__fp_inf>
    d958:	51 11       	cpse	r21, r1
    d95a:	0c 94 f1 6d 	jmp	0xdbe2	; 0xdbe2 <__fp_szero>
    d95e:	0c 94 ac 6d 	jmp	0xdb58	; 0xdb58 <__fp_nan>

0000d962 <__divsf3x>:
    d962:	0e 94 ce 6d 	call	0xdb9c	; 0xdb9c <__fp_split3>
    d966:	68 f3       	brcs	.-38     	; 0xd942 <__divsf3+0x8>

0000d968 <__divsf3_pse>:
    d968:	99 23       	and	r25, r25
    d96a:	b1 f3       	breq	.-20     	; 0xd958 <__divsf3+0x1e>
    d96c:	55 23       	and	r21, r21
    d96e:	91 f3       	breq	.-28     	; 0xd954 <__divsf3+0x1a>
    d970:	95 1b       	sub	r25, r21
    d972:	55 0b       	sbc	r21, r21
    d974:	bb 27       	eor	r27, r27
    d976:	aa 27       	eor	r26, r26
    d978:	62 17       	cp	r22, r18
    d97a:	73 07       	cpc	r23, r19
    d97c:	84 07       	cpc	r24, r20
    d97e:	38 f0       	brcs	.+14     	; 0xd98e <__divsf3_pse+0x26>
    d980:	9f 5f       	subi	r25, 0xFF	; 255
    d982:	5f 4f       	sbci	r21, 0xFF	; 255
    d984:	22 0f       	add	r18, r18
    d986:	33 1f       	adc	r19, r19
    d988:	44 1f       	adc	r20, r20
    d98a:	aa 1f       	adc	r26, r26
    d98c:	a9 f3       	breq	.-22     	; 0xd978 <__divsf3_pse+0x10>
    d98e:	35 d0       	rcall	.+106    	; 0xd9fa <__divsf3_pse+0x92>
    d990:	0e 2e       	mov	r0, r30
    d992:	3a f0       	brmi	.+14     	; 0xd9a2 <__divsf3_pse+0x3a>
    d994:	e0 e8       	ldi	r30, 0x80	; 128
    d996:	32 d0       	rcall	.+100    	; 0xd9fc <__divsf3_pse+0x94>
    d998:	91 50       	subi	r25, 0x01	; 1
    d99a:	50 40       	sbci	r21, 0x00	; 0
    d99c:	e6 95       	lsr	r30
    d99e:	00 1c       	adc	r0, r0
    d9a0:	ca f7       	brpl	.-14     	; 0xd994 <__divsf3_pse+0x2c>
    d9a2:	2b d0       	rcall	.+86     	; 0xd9fa <__divsf3_pse+0x92>
    d9a4:	fe 2f       	mov	r31, r30
    d9a6:	29 d0       	rcall	.+82     	; 0xd9fa <__divsf3_pse+0x92>
    d9a8:	66 0f       	add	r22, r22
    d9aa:	77 1f       	adc	r23, r23
    d9ac:	88 1f       	adc	r24, r24
    d9ae:	bb 1f       	adc	r27, r27
    d9b0:	26 17       	cp	r18, r22
    d9b2:	37 07       	cpc	r19, r23
    d9b4:	48 07       	cpc	r20, r24
    d9b6:	ab 07       	cpc	r26, r27
    d9b8:	b0 e8       	ldi	r27, 0x80	; 128
    d9ba:	09 f0       	breq	.+2      	; 0xd9be <__divsf3_pse+0x56>
    d9bc:	bb 0b       	sbc	r27, r27
    d9be:	80 2d       	mov	r24, r0
    d9c0:	bf 01       	movw	r22, r30
    d9c2:	ff 27       	eor	r31, r31
    d9c4:	93 58       	subi	r25, 0x83	; 131
    d9c6:	5f 4f       	sbci	r21, 0xFF	; 255
    d9c8:	3a f0       	brmi	.+14     	; 0xd9d8 <__divsf3_pse+0x70>
    d9ca:	9e 3f       	cpi	r25, 0xFE	; 254
    d9cc:	51 05       	cpc	r21, r1
    d9ce:	78 f0       	brcs	.+30     	; 0xd9ee <__divsf3_pse+0x86>
    d9d0:	0c 94 a6 6d 	jmp	0xdb4c	; 0xdb4c <__fp_inf>
    d9d4:	0c 94 f1 6d 	jmp	0xdbe2	; 0xdbe2 <__fp_szero>
    d9d8:	5f 3f       	cpi	r21, 0xFF	; 255
    d9da:	e4 f3       	brlt	.-8      	; 0xd9d4 <__divsf3_pse+0x6c>
    d9dc:	98 3e       	cpi	r25, 0xE8	; 232
    d9de:	d4 f3       	brlt	.-12     	; 0xd9d4 <__divsf3_pse+0x6c>
    d9e0:	86 95       	lsr	r24
    d9e2:	77 95       	ror	r23
    d9e4:	67 95       	ror	r22
    d9e6:	b7 95       	ror	r27
    d9e8:	f7 95       	ror	r31
    d9ea:	9f 5f       	subi	r25, 0xFF	; 255
    d9ec:	c9 f7       	brne	.-14     	; 0xd9e0 <__divsf3_pse+0x78>
    d9ee:	88 0f       	add	r24, r24
    d9f0:	91 1d       	adc	r25, r1
    d9f2:	96 95       	lsr	r25
    d9f4:	87 95       	ror	r24
    d9f6:	97 f9       	bld	r25, 7
    d9f8:	08 95       	ret
    d9fa:	e1 e0       	ldi	r30, 0x01	; 1
    d9fc:	66 0f       	add	r22, r22
    d9fe:	77 1f       	adc	r23, r23
    da00:	88 1f       	adc	r24, r24
    da02:	bb 1f       	adc	r27, r27
    da04:	62 17       	cp	r22, r18
    da06:	73 07       	cpc	r23, r19
    da08:	84 07       	cpc	r24, r20
    da0a:	ba 07       	cpc	r27, r26
    da0c:	20 f0       	brcs	.+8      	; 0xda16 <__divsf3_pse+0xae>
    da0e:	62 1b       	sub	r22, r18
    da10:	73 0b       	sbc	r23, r19
    da12:	84 0b       	sbc	r24, r20
    da14:	ba 0b       	sbc	r27, r26
    da16:	ee 1f       	adc	r30, r30
    da18:	88 f7       	brcc	.-30     	; 0xd9fc <__divsf3_pse+0x94>
    da1a:	e0 95       	com	r30
    da1c:	08 95       	ret

0000da1e <__fixsfsi>:
    da1e:	0e 94 16 6d 	call	0xda2c	; 0xda2c <__fixunssfsi>
    da22:	68 94       	set
    da24:	b1 11       	cpse	r27, r1
    da26:	0c 94 f1 6d 	jmp	0xdbe2	; 0xdbe2 <__fp_szero>
    da2a:	08 95       	ret

0000da2c <__fixunssfsi>:
    da2c:	0e 94 d6 6d 	call	0xdbac	; 0xdbac <__fp_splitA>
    da30:	88 f0       	brcs	.+34     	; 0xda54 <__fixunssfsi+0x28>
    da32:	9f 57       	subi	r25, 0x7F	; 127
    da34:	98 f0       	brcs	.+38     	; 0xda5c <__fixunssfsi+0x30>
    da36:	b9 2f       	mov	r27, r25
    da38:	99 27       	eor	r25, r25
    da3a:	b7 51       	subi	r27, 0x17	; 23
    da3c:	b0 f0       	brcs	.+44     	; 0xda6a <__fixunssfsi+0x3e>
    da3e:	e1 f0       	breq	.+56     	; 0xda78 <__fixunssfsi+0x4c>
    da40:	66 0f       	add	r22, r22
    da42:	77 1f       	adc	r23, r23
    da44:	88 1f       	adc	r24, r24
    da46:	99 1f       	adc	r25, r25
    da48:	1a f0       	brmi	.+6      	; 0xda50 <__fixunssfsi+0x24>
    da4a:	ba 95       	dec	r27
    da4c:	c9 f7       	brne	.-14     	; 0xda40 <__fixunssfsi+0x14>
    da4e:	14 c0       	rjmp	.+40     	; 0xda78 <__fixunssfsi+0x4c>
    da50:	b1 30       	cpi	r27, 0x01	; 1
    da52:	91 f0       	breq	.+36     	; 0xda78 <__fixunssfsi+0x4c>
    da54:	0e 94 f0 6d 	call	0xdbe0	; 0xdbe0 <__fp_zero>
    da58:	b1 e0       	ldi	r27, 0x01	; 1
    da5a:	08 95       	ret
    da5c:	0c 94 f0 6d 	jmp	0xdbe0	; 0xdbe0 <__fp_zero>
    da60:	67 2f       	mov	r22, r23
    da62:	78 2f       	mov	r23, r24
    da64:	88 27       	eor	r24, r24
    da66:	b8 5f       	subi	r27, 0xF8	; 248
    da68:	39 f0       	breq	.+14     	; 0xda78 <__fixunssfsi+0x4c>
    da6a:	b9 3f       	cpi	r27, 0xF9	; 249
    da6c:	cc f3       	brlt	.-14     	; 0xda60 <__fixunssfsi+0x34>
    da6e:	86 95       	lsr	r24
    da70:	77 95       	ror	r23
    da72:	67 95       	ror	r22
    da74:	b3 95       	inc	r27
    da76:	d9 f7       	brne	.-10     	; 0xda6e <__fixunssfsi+0x42>
    da78:	3e f4       	brtc	.+14     	; 0xda88 <__fixunssfsi+0x5c>
    da7a:	90 95       	com	r25
    da7c:	80 95       	com	r24
    da7e:	70 95       	com	r23
    da80:	61 95       	neg	r22
    da82:	7f 4f       	sbci	r23, 0xFF	; 255
    da84:	8f 4f       	sbci	r24, 0xFF	; 255
    da86:	9f 4f       	sbci	r25, 0xFF	; 255
    da88:	08 95       	ret

0000da8a <__floatunsisf>:
    da8a:	e8 94       	clt
    da8c:	09 c0       	rjmp	.+18     	; 0xdaa0 <__floatsisf+0x12>

0000da8e <__floatsisf>:
    da8e:	97 fb       	bst	r25, 7
    da90:	3e f4       	brtc	.+14     	; 0xdaa0 <__floatsisf+0x12>
    da92:	90 95       	com	r25
    da94:	80 95       	com	r24
    da96:	70 95       	com	r23
    da98:	61 95       	neg	r22
    da9a:	7f 4f       	sbci	r23, 0xFF	; 255
    da9c:	8f 4f       	sbci	r24, 0xFF	; 255
    da9e:	9f 4f       	sbci	r25, 0xFF	; 255
    daa0:	99 23       	and	r25, r25
    daa2:	a9 f0       	breq	.+42     	; 0xdace <__floatsisf+0x40>
    daa4:	f9 2f       	mov	r31, r25
    daa6:	96 e9       	ldi	r25, 0x96	; 150
    daa8:	bb 27       	eor	r27, r27
    daaa:	93 95       	inc	r25
    daac:	f6 95       	lsr	r31
    daae:	87 95       	ror	r24
    dab0:	77 95       	ror	r23
    dab2:	67 95       	ror	r22
    dab4:	b7 95       	ror	r27
    dab6:	f1 11       	cpse	r31, r1
    dab8:	f8 cf       	rjmp	.-16     	; 0xdaaa <__floatsisf+0x1c>
    daba:	fa f4       	brpl	.+62     	; 0xdafa <__floatsisf+0x6c>
    dabc:	bb 0f       	add	r27, r27
    dabe:	11 f4       	brne	.+4      	; 0xdac4 <__floatsisf+0x36>
    dac0:	60 ff       	sbrs	r22, 0
    dac2:	1b c0       	rjmp	.+54     	; 0xdafa <__floatsisf+0x6c>
    dac4:	6f 5f       	subi	r22, 0xFF	; 255
    dac6:	7f 4f       	sbci	r23, 0xFF	; 255
    dac8:	8f 4f       	sbci	r24, 0xFF	; 255
    daca:	9f 4f       	sbci	r25, 0xFF	; 255
    dacc:	16 c0       	rjmp	.+44     	; 0xdafa <__floatsisf+0x6c>
    dace:	88 23       	and	r24, r24
    dad0:	11 f0       	breq	.+4      	; 0xdad6 <__floatsisf+0x48>
    dad2:	96 e9       	ldi	r25, 0x96	; 150
    dad4:	11 c0       	rjmp	.+34     	; 0xdaf8 <__floatsisf+0x6a>
    dad6:	77 23       	and	r23, r23
    dad8:	21 f0       	breq	.+8      	; 0xdae2 <__floatsisf+0x54>
    dada:	9e e8       	ldi	r25, 0x8E	; 142
    dadc:	87 2f       	mov	r24, r23
    dade:	76 2f       	mov	r23, r22
    dae0:	05 c0       	rjmp	.+10     	; 0xdaec <__floatsisf+0x5e>
    dae2:	66 23       	and	r22, r22
    dae4:	71 f0       	breq	.+28     	; 0xdb02 <__floatsisf+0x74>
    dae6:	96 e8       	ldi	r25, 0x86	; 134
    dae8:	86 2f       	mov	r24, r22
    daea:	70 e0       	ldi	r23, 0x00	; 0
    daec:	60 e0       	ldi	r22, 0x00	; 0
    daee:	2a f0       	brmi	.+10     	; 0xdafa <__floatsisf+0x6c>
    daf0:	9a 95       	dec	r25
    daf2:	66 0f       	add	r22, r22
    daf4:	77 1f       	adc	r23, r23
    daf6:	88 1f       	adc	r24, r24
    daf8:	da f7       	brpl	.-10     	; 0xdaf0 <__floatsisf+0x62>
    dafa:	88 0f       	add	r24, r24
    dafc:	96 95       	lsr	r25
    dafe:	87 95       	ror	r24
    db00:	97 f9       	bld	r25, 7
    db02:	08 95       	ret

0000db04 <__fp_cmp>:
    db04:	99 0f       	add	r25, r25
    db06:	00 08       	sbc	r0, r0
    db08:	55 0f       	add	r21, r21
    db0a:	aa 0b       	sbc	r26, r26
    db0c:	e0 e8       	ldi	r30, 0x80	; 128
    db0e:	fe ef       	ldi	r31, 0xFE	; 254
    db10:	16 16       	cp	r1, r22
    db12:	17 06       	cpc	r1, r23
    db14:	e8 07       	cpc	r30, r24
    db16:	f9 07       	cpc	r31, r25
    db18:	c0 f0       	brcs	.+48     	; 0xdb4a <__fp_cmp+0x46>
    db1a:	12 16       	cp	r1, r18
    db1c:	13 06       	cpc	r1, r19
    db1e:	e4 07       	cpc	r30, r20
    db20:	f5 07       	cpc	r31, r21
    db22:	98 f0       	brcs	.+38     	; 0xdb4a <__fp_cmp+0x46>
    db24:	62 1b       	sub	r22, r18
    db26:	73 0b       	sbc	r23, r19
    db28:	84 0b       	sbc	r24, r20
    db2a:	95 0b       	sbc	r25, r21
    db2c:	39 f4       	brne	.+14     	; 0xdb3c <__fp_cmp+0x38>
    db2e:	0a 26       	eor	r0, r26
    db30:	61 f0       	breq	.+24     	; 0xdb4a <__fp_cmp+0x46>
    db32:	23 2b       	or	r18, r19
    db34:	24 2b       	or	r18, r20
    db36:	25 2b       	or	r18, r21
    db38:	21 f4       	brne	.+8      	; 0xdb42 <__fp_cmp+0x3e>
    db3a:	08 95       	ret
    db3c:	0a 26       	eor	r0, r26
    db3e:	09 f4       	brne	.+2      	; 0xdb42 <__fp_cmp+0x3e>
    db40:	a1 40       	sbci	r26, 0x01	; 1
    db42:	a6 95       	lsr	r26
    db44:	8f ef       	ldi	r24, 0xFF	; 255
    db46:	81 1d       	adc	r24, r1
    db48:	81 1d       	adc	r24, r1
    db4a:	08 95       	ret

0000db4c <__fp_inf>:
    db4c:	97 f9       	bld	r25, 7
    db4e:	9f 67       	ori	r25, 0x7F	; 127
    db50:	80 e8       	ldi	r24, 0x80	; 128
    db52:	70 e0       	ldi	r23, 0x00	; 0
    db54:	60 e0       	ldi	r22, 0x00	; 0
    db56:	08 95       	ret

0000db58 <__fp_nan>:
    db58:	9f ef       	ldi	r25, 0xFF	; 255
    db5a:	80 ec       	ldi	r24, 0xC0	; 192
    db5c:	08 95       	ret

0000db5e <__fp_pscA>:
    db5e:	00 24       	eor	r0, r0
    db60:	0a 94       	dec	r0
    db62:	16 16       	cp	r1, r22
    db64:	17 06       	cpc	r1, r23
    db66:	18 06       	cpc	r1, r24
    db68:	09 06       	cpc	r0, r25
    db6a:	08 95       	ret

0000db6c <__fp_pscB>:
    db6c:	00 24       	eor	r0, r0
    db6e:	0a 94       	dec	r0
    db70:	12 16       	cp	r1, r18
    db72:	13 06       	cpc	r1, r19
    db74:	14 06       	cpc	r1, r20
    db76:	05 06       	cpc	r0, r21
    db78:	08 95       	ret

0000db7a <__fp_round>:
    db7a:	09 2e       	mov	r0, r25
    db7c:	03 94       	inc	r0
    db7e:	00 0c       	add	r0, r0
    db80:	11 f4       	brne	.+4      	; 0xdb86 <__fp_round+0xc>
    db82:	88 23       	and	r24, r24
    db84:	52 f0       	brmi	.+20     	; 0xdb9a <__fp_round+0x20>
    db86:	bb 0f       	add	r27, r27
    db88:	40 f4       	brcc	.+16     	; 0xdb9a <__fp_round+0x20>
    db8a:	bf 2b       	or	r27, r31
    db8c:	11 f4       	brne	.+4      	; 0xdb92 <__fp_round+0x18>
    db8e:	60 ff       	sbrs	r22, 0
    db90:	04 c0       	rjmp	.+8      	; 0xdb9a <__fp_round+0x20>
    db92:	6f 5f       	subi	r22, 0xFF	; 255
    db94:	7f 4f       	sbci	r23, 0xFF	; 255
    db96:	8f 4f       	sbci	r24, 0xFF	; 255
    db98:	9f 4f       	sbci	r25, 0xFF	; 255
    db9a:	08 95       	ret

0000db9c <__fp_split3>:
    db9c:	57 fd       	sbrc	r21, 7
    db9e:	90 58       	subi	r25, 0x80	; 128
    dba0:	44 0f       	add	r20, r20
    dba2:	55 1f       	adc	r21, r21
    dba4:	59 f0       	breq	.+22     	; 0xdbbc <__fp_splitA+0x10>
    dba6:	5f 3f       	cpi	r21, 0xFF	; 255
    dba8:	71 f0       	breq	.+28     	; 0xdbc6 <__fp_splitA+0x1a>
    dbaa:	47 95       	ror	r20

0000dbac <__fp_splitA>:
    dbac:	88 0f       	add	r24, r24
    dbae:	97 fb       	bst	r25, 7
    dbb0:	99 1f       	adc	r25, r25
    dbb2:	61 f0       	breq	.+24     	; 0xdbcc <__fp_splitA+0x20>
    dbb4:	9f 3f       	cpi	r25, 0xFF	; 255
    dbb6:	79 f0       	breq	.+30     	; 0xdbd6 <__fp_splitA+0x2a>
    dbb8:	87 95       	ror	r24
    dbba:	08 95       	ret
    dbbc:	12 16       	cp	r1, r18
    dbbe:	13 06       	cpc	r1, r19
    dbc0:	14 06       	cpc	r1, r20
    dbc2:	55 1f       	adc	r21, r21
    dbc4:	f2 cf       	rjmp	.-28     	; 0xdbaa <__fp_split3+0xe>
    dbc6:	46 95       	lsr	r20
    dbc8:	f1 df       	rcall	.-30     	; 0xdbac <__fp_splitA>
    dbca:	08 c0       	rjmp	.+16     	; 0xdbdc <__fp_splitA+0x30>
    dbcc:	16 16       	cp	r1, r22
    dbce:	17 06       	cpc	r1, r23
    dbd0:	18 06       	cpc	r1, r24
    dbd2:	99 1f       	adc	r25, r25
    dbd4:	f1 cf       	rjmp	.-30     	; 0xdbb8 <__fp_splitA+0xc>
    dbd6:	86 95       	lsr	r24
    dbd8:	71 05       	cpc	r23, r1
    dbda:	61 05       	cpc	r22, r1
    dbdc:	08 94       	sec
    dbde:	08 95       	ret

0000dbe0 <__fp_zero>:
    dbe0:	e8 94       	clt

0000dbe2 <__fp_szero>:
    dbe2:	bb 27       	eor	r27, r27
    dbe4:	66 27       	eor	r22, r22
    dbe6:	77 27       	eor	r23, r23
    dbe8:	cb 01       	movw	r24, r22
    dbea:	97 f9       	bld	r25, 7
    dbec:	08 95       	ret

0000dbee <__gesf2>:
    dbee:	0e 94 82 6d 	call	0xdb04	; 0xdb04 <__fp_cmp>
    dbf2:	08 f4       	brcc	.+2      	; 0xdbf6 <__gesf2+0x8>
    dbf4:	8f ef       	ldi	r24, 0xFF	; 255
    dbf6:	08 95       	ret

0000dbf8 <__mulsf3>:
    dbf8:	0e 94 0f 6e 	call	0xdc1e	; 0xdc1e <__mulsf3x>
    dbfc:	0c 94 bd 6d 	jmp	0xdb7a	; 0xdb7a <__fp_round>
    dc00:	0e 94 af 6d 	call	0xdb5e	; 0xdb5e <__fp_pscA>
    dc04:	38 f0       	brcs	.+14     	; 0xdc14 <__mulsf3+0x1c>
    dc06:	0e 94 b6 6d 	call	0xdb6c	; 0xdb6c <__fp_pscB>
    dc0a:	20 f0       	brcs	.+8      	; 0xdc14 <__mulsf3+0x1c>
    dc0c:	95 23       	and	r25, r21
    dc0e:	11 f0       	breq	.+4      	; 0xdc14 <__mulsf3+0x1c>
    dc10:	0c 94 a6 6d 	jmp	0xdb4c	; 0xdb4c <__fp_inf>
    dc14:	0c 94 ac 6d 	jmp	0xdb58	; 0xdb58 <__fp_nan>
    dc18:	11 24       	eor	r1, r1
    dc1a:	0c 94 f1 6d 	jmp	0xdbe2	; 0xdbe2 <__fp_szero>

0000dc1e <__mulsf3x>:
    dc1e:	0e 94 ce 6d 	call	0xdb9c	; 0xdb9c <__fp_split3>
    dc22:	70 f3       	brcs	.-36     	; 0xdc00 <__mulsf3+0x8>

0000dc24 <__mulsf3_pse>:
    dc24:	95 9f       	mul	r25, r21
    dc26:	c1 f3       	breq	.-16     	; 0xdc18 <__mulsf3+0x20>
    dc28:	95 0f       	add	r25, r21
    dc2a:	50 e0       	ldi	r21, 0x00	; 0
    dc2c:	55 1f       	adc	r21, r21
    dc2e:	62 9f       	mul	r22, r18
    dc30:	f0 01       	movw	r30, r0
    dc32:	72 9f       	mul	r23, r18
    dc34:	bb 27       	eor	r27, r27
    dc36:	f0 0d       	add	r31, r0
    dc38:	b1 1d       	adc	r27, r1
    dc3a:	63 9f       	mul	r22, r19
    dc3c:	aa 27       	eor	r26, r26
    dc3e:	f0 0d       	add	r31, r0
    dc40:	b1 1d       	adc	r27, r1
    dc42:	aa 1f       	adc	r26, r26
    dc44:	64 9f       	mul	r22, r20
    dc46:	66 27       	eor	r22, r22
    dc48:	b0 0d       	add	r27, r0
    dc4a:	a1 1d       	adc	r26, r1
    dc4c:	66 1f       	adc	r22, r22
    dc4e:	82 9f       	mul	r24, r18
    dc50:	22 27       	eor	r18, r18
    dc52:	b0 0d       	add	r27, r0
    dc54:	a1 1d       	adc	r26, r1
    dc56:	62 1f       	adc	r22, r18
    dc58:	73 9f       	mul	r23, r19
    dc5a:	b0 0d       	add	r27, r0
    dc5c:	a1 1d       	adc	r26, r1
    dc5e:	62 1f       	adc	r22, r18
    dc60:	83 9f       	mul	r24, r19
    dc62:	a0 0d       	add	r26, r0
    dc64:	61 1d       	adc	r22, r1
    dc66:	22 1f       	adc	r18, r18
    dc68:	74 9f       	mul	r23, r20
    dc6a:	33 27       	eor	r19, r19
    dc6c:	a0 0d       	add	r26, r0
    dc6e:	61 1d       	adc	r22, r1
    dc70:	23 1f       	adc	r18, r19
    dc72:	84 9f       	mul	r24, r20
    dc74:	60 0d       	add	r22, r0
    dc76:	21 1d       	adc	r18, r1
    dc78:	82 2f       	mov	r24, r18
    dc7a:	76 2f       	mov	r23, r22
    dc7c:	6a 2f       	mov	r22, r26
    dc7e:	11 24       	eor	r1, r1
    dc80:	9f 57       	subi	r25, 0x7F	; 127
    dc82:	50 40       	sbci	r21, 0x00	; 0
    dc84:	9a f0       	brmi	.+38     	; 0xdcac <__mulsf3_pse+0x88>
    dc86:	f1 f0       	breq	.+60     	; 0xdcc4 <__mulsf3_pse+0xa0>
    dc88:	88 23       	and	r24, r24
    dc8a:	4a f0       	brmi	.+18     	; 0xdc9e <__mulsf3_pse+0x7a>
    dc8c:	ee 0f       	add	r30, r30
    dc8e:	ff 1f       	adc	r31, r31
    dc90:	bb 1f       	adc	r27, r27
    dc92:	66 1f       	adc	r22, r22
    dc94:	77 1f       	adc	r23, r23
    dc96:	88 1f       	adc	r24, r24
    dc98:	91 50       	subi	r25, 0x01	; 1
    dc9a:	50 40       	sbci	r21, 0x00	; 0
    dc9c:	a9 f7       	brne	.-22     	; 0xdc88 <__mulsf3_pse+0x64>
    dc9e:	9e 3f       	cpi	r25, 0xFE	; 254
    dca0:	51 05       	cpc	r21, r1
    dca2:	80 f0       	brcs	.+32     	; 0xdcc4 <__mulsf3_pse+0xa0>
    dca4:	0c 94 a6 6d 	jmp	0xdb4c	; 0xdb4c <__fp_inf>
    dca8:	0c 94 f1 6d 	jmp	0xdbe2	; 0xdbe2 <__fp_szero>
    dcac:	5f 3f       	cpi	r21, 0xFF	; 255
    dcae:	e4 f3       	brlt	.-8      	; 0xdca8 <__mulsf3_pse+0x84>
    dcb0:	98 3e       	cpi	r25, 0xE8	; 232
    dcb2:	d4 f3       	brlt	.-12     	; 0xdca8 <__mulsf3_pse+0x84>
    dcb4:	86 95       	lsr	r24
    dcb6:	77 95       	ror	r23
    dcb8:	67 95       	ror	r22
    dcba:	b7 95       	ror	r27
    dcbc:	f7 95       	ror	r31
    dcbe:	e7 95       	ror	r30
    dcc0:	9f 5f       	subi	r25, 0xFF	; 255
    dcc2:	c1 f7       	brne	.-16     	; 0xdcb4 <__mulsf3_pse+0x90>
    dcc4:	fe 2b       	or	r31, r30
    dcc6:	88 0f       	add	r24, r24
    dcc8:	91 1d       	adc	r25, r1
    dcca:	96 95       	lsr	r25
    dccc:	87 95       	ror	r24
    dcce:	97 f9       	bld	r25, 7
    dcd0:	08 95       	ret

0000dcd2 <__udivmodhi4>:
    dcd2:	aa 1b       	sub	r26, r26
    dcd4:	bb 1b       	sub	r27, r27
    dcd6:	51 e1       	ldi	r21, 0x11	; 17
    dcd8:	07 c0       	rjmp	.+14     	; 0xdce8 <__udivmodhi4_ep>

0000dcda <__udivmodhi4_loop>:
    dcda:	aa 1f       	adc	r26, r26
    dcdc:	bb 1f       	adc	r27, r27
    dcde:	a6 17       	cp	r26, r22
    dce0:	b7 07       	cpc	r27, r23
    dce2:	10 f0       	brcs	.+4      	; 0xdce8 <__udivmodhi4_ep>
    dce4:	a6 1b       	sub	r26, r22
    dce6:	b7 0b       	sbc	r27, r23

0000dce8 <__udivmodhi4_ep>:
    dce8:	88 1f       	adc	r24, r24
    dcea:	99 1f       	adc	r25, r25
    dcec:	5a 95       	dec	r21
    dcee:	a9 f7       	brne	.-22     	; 0xdcda <__udivmodhi4_loop>
    dcf0:	80 95       	com	r24
    dcf2:	90 95       	com	r25
    dcf4:	bc 01       	movw	r22, r24
    dcf6:	cd 01       	movw	r24, r26
    dcf8:	08 95       	ret

0000dcfa <__divmodhi4>:
    dcfa:	97 fb       	bst	r25, 7
    dcfc:	07 2e       	mov	r0, r23
    dcfe:	16 f4       	brtc	.+4      	; 0xdd04 <__divmodhi4+0xa>
    dd00:	00 94       	com	r0
    dd02:	07 d0       	rcall	.+14     	; 0xdd12 <__divmodhi4_neg1>
    dd04:	77 fd       	sbrc	r23, 7
    dd06:	09 d0       	rcall	.+18     	; 0xdd1a <__divmodhi4_neg2>
    dd08:	0e 94 69 6e 	call	0xdcd2	; 0xdcd2 <__udivmodhi4>
    dd0c:	07 fc       	sbrc	r0, 7
    dd0e:	05 d0       	rcall	.+10     	; 0xdd1a <__divmodhi4_neg2>
    dd10:	3e f4       	brtc	.+14     	; 0xdd20 <__divmodhi4_exit>

0000dd12 <__divmodhi4_neg1>:
    dd12:	90 95       	com	r25
    dd14:	81 95       	neg	r24
    dd16:	9f 4f       	sbci	r25, 0xFF	; 255
    dd18:	08 95       	ret

0000dd1a <__divmodhi4_neg2>:
    dd1a:	70 95       	com	r23
    dd1c:	61 95       	neg	r22
    dd1e:	7f 4f       	sbci	r23, 0xFF	; 255

0000dd20 <__divmodhi4_exit>:
    dd20:	08 95       	ret

0000dd22 <__divmodsi4>:
    dd22:	05 2e       	mov	r0, r21
    dd24:	97 fb       	bst	r25, 7
    dd26:	1e f4       	brtc	.+6      	; 0xdd2e <__divmodsi4+0xc>
    dd28:	00 94       	com	r0
    dd2a:	0e 94 a8 6e 	call	0xdd50	; 0xdd50 <__negsi2>
    dd2e:	57 fd       	sbrc	r21, 7
    dd30:	07 d0       	rcall	.+14     	; 0xdd40 <__divmodsi4_neg2>
    dd32:	0e 94 e7 6e 	call	0xddce	; 0xddce <__udivmodsi4>
    dd36:	07 fc       	sbrc	r0, 7
    dd38:	03 d0       	rcall	.+6      	; 0xdd40 <__divmodsi4_neg2>
    dd3a:	4e f4       	brtc	.+18     	; 0xdd4e <__divmodsi4_exit>
    dd3c:	0c 94 a8 6e 	jmp	0xdd50	; 0xdd50 <__negsi2>

0000dd40 <__divmodsi4_neg2>:
    dd40:	50 95       	com	r21
    dd42:	40 95       	com	r20
    dd44:	30 95       	com	r19
    dd46:	21 95       	neg	r18
    dd48:	3f 4f       	sbci	r19, 0xFF	; 255
    dd4a:	4f 4f       	sbci	r20, 0xFF	; 255
    dd4c:	5f 4f       	sbci	r21, 0xFF	; 255

0000dd4e <__divmodsi4_exit>:
    dd4e:	08 95       	ret

0000dd50 <__negsi2>:
    dd50:	90 95       	com	r25
    dd52:	80 95       	com	r24
    dd54:	70 95       	com	r23
    dd56:	61 95       	neg	r22
    dd58:	7f 4f       	sbci	r23, 0xFF	; 255
    dd5a:	8f 4f       	sbci	r24, 0xFF	; 255
    dd5c:	9f 4f       	sbci	r25, 0xFF	; 255
    dd5e:	08 95       	ret

0000dd60 <__tablejump2__>:
    dd60:	ee 0f       	add	r30, r30
    dd62:	ff 1f       	adc	r31, r31
    dd64:	05 90       	lpm	r0, Z+
    dd66:	f4 91       	lpm	r31, Z
    dd68:	e0 2d       	mov	r30, r0
    dd6a:	09 94       	ijmp

0000dd6c <__mulhisi3>:
    dd6c:	0e 94 be 6e 	call	0xdd7c	; 0xdd7c <__umulhisi3>
    dd70:	33 23       	and	r19, r19
    dd72:	12 f4       	brpl	.+4      	; 0xdd78 <__mulhisi3+0xc>
    dd74:	8a 1b       	sub	r24, r26
    dd76:	9b 0b       	sbc	r25, r27
    dd78:	0c 94 cf 6e 	jmp	0xdd9e	; 0xdd9e <__usmulhisi3_tail>

0000dd7c <__umulhisi3>:
    dd7c:	a2 9f       	mul	r26, r18
    dd7e:	b0 01       	movw	r22, r0
    dd80:	b3 9f       	mul	r27, r19
    dd82:	c0 01       	movw	r24, r0
    dd84:	a3 9f       	mul	r26, r19
    dd86:	70 0d       	add	r23, r0
    dd88:	81 1d       	adc	r24, r1
    dd8a:	11 24       	eor	r1, r1
    dd8c:	91 1d       	adc	r25, r1
    dd8e:	b2 9f       	mul	r27, r18
    dd90:	70 0d       	add	r23, r0
    dd92:	81 1d       	adc	r24, r1
    dd94:	11 24       	eor	r1, r1
    dd96:	91 1d       	adc	r25, r1
    dd98:	08 95       	ret

0000dd9a <__usmulhisi3>:
    dd9a:	0e 94 be 6e 	call	0xdd7c	; 0xdd7c <__umulhisi3>

0000dd9e <__usmulhisi3_tail>:
    dd9e:	b7 ff       	sbrs	r27, 7
    dda0:	08 95       	ret
    dda2:	82 1b       	sub	r24, r18
    dda4:	93 0b       	sbc	r25, r19
    dda6:	08 95       	ret

0000dda8 <__muluhisi3>:
    dda8:	0e 94 be 6e 	call	0xdd7c	; 0xdd7c <__umulhisi3>
    ddac:	a5 9f       	mul	r26, r21
    ddae:	90 0d       	add	r25, r0
    ddb0:	b4 9f       	mul	r27, r20
    ddb2:	90 0d       	add	r25, r0
    ddb4:	a4 9f       	mul	r26, r20
    ddb6:	80 0d       	add	r24, r0
    ddb8:	91 1d       	adc	r25, r1
    ddba:	11 24       	eor	r1, r1
    ddbc:	08 95       	ret

0000ddbe <__mulshisi3>:
    ddbe:	b7 ff       	sbrs	r27, 7
    ddc0:	0c 94 d4 6e 	jmp	0xdda8	; 0xdda8 <__muluhisi3>

0000ddc4 <__mulohisi3>:
    ddc4:	0e 94 d4 6e 	call	0xdda8	; 0xdda8 <__muluhisi3>
    ddc8:	82 1b       	sub	r24, r18
    ddca:	93 0b       	sbc	r25, r19
    ddcc:	08 95       	ret

0000ddce <__udivmodsi4>:
    ddce:	a1 e2       	ldi	r26, 0x21	; 33
    ddd0:	1a 2e       	mov	r1, r26
    ddd2:	aa 1b       	sub	r26, r26
    ddd4:	bb 1b       	sub	r27, r27
    ddd6:	fd 01       	movw	r30, r26
    ddd8:	0d c0       	rjmp	.+26     	; 0xddf4 <__udivmodsi4_ep>

0000ddda <__udivmodsi4_loop>:
    ddda:	aa 1f       	adc	r26, r26
    dddc:	bb 1f       	adc	r27, r27
    ddde:	ee 1f       	adc	r30, r30
    dde0:	ff 1f       	adc	r31, r31
    dde2:	a2 17       	cp	r26, r18
    dde4:	b3 07       	cpc	r27, r19
    dde6:	e4 07       	cpc	r30, r20
    dde8:	f5 07       	cpc	r31, r21
    ddea:	20 f0       	brcs	.+8      	; 0xddf4 <__udivmodsi4_ep>
    ddec:	a2 1b       	sub	r26, r18
    ddee:	b3 0b       	sbc	r27, r19
    ddf0:	e4 0b       	sbc	r30, r20
    ddf2:	f5 0b       	sbc	r31, r21

0000ddf4 <__udivmodsi4_ep>:
    ddf4:	66 1f       	adc	r22, r22
    ddf6:	77 1f       	adc	r23, r23
    ddf8:	88 1f       	adc	r24, r24
    ddfa:	99 1f       	adc	r25, r25
    ddfc:	1a 94       	dec	r1
    ddfe:	69 f7       	brne	.-38     	; 0xddda <__udivmodsi4_loop>
    de00:	60 95       	com	r22
    de02:	70 95       	com	r23
    de04:	80 95       	com	r24
    de06:	90 95       	com	r25
    de08:	9b 01       	movw	r18, r22
    de0a:	ac 01       	movw	r20, r24
    de0c:	bd 01       	movw	r22, r26
    de0e:	cf 01       	movw	r24, r30
    de10:	08 95       	ret

0000de12 <memcpy_P>:
    de12:	fb 01       	movw	r30, r22
    de14:	dc 01       	movw	r26, r24
    de16:	02 c0       	rjmp	.+4      	; 0xde1c <memcpy_P+0xa>
    de18:	05 90       	lpm	r0, Z+
    de1a:	0d 92       	st	X+, r0
    de1c:	41 50       	subi	r20, 0x01	; 1
    de1e:	50 40       	sbci	r21, 0x00	; 0
    de20:	d8 f7       	brcc	.-10     	; 0xde18 <memcpy_P+0x6>
    de22:	08 95       	ret

0000de24 <memmove>:
    de24:	68 17       	cp	r22, r24
    de26:	79 07       	cpc	r23, r25
    de28:	68 f4       	brcc	.+26     	; 0xde44 <memmove+0x20>
    de2a:	fb 01       	movw	r30, r22
    de2c:	dc 01       	movw	r26, r24
    de2e:	e4 0f       	add	r30, r20
    de30:	f5 1f       	adc	r31, r21
    de32:	a4 0f       	add	r26, r20
    de34:	b5 1f       	adc	r27, r21
    de36:	02 c0       	rjmp	.+4      	; 0xde3c <memmove+0x18>
    de38:	02 90       	ld	r0, -Z
    de3a:	0e 92       	st	-X, r0
    de3c:	41 50       	subi	r20, 0x01	; 1
    de3e:	50 40       	sbci	r21, 0x00	; 0
    de40:	d8 f7       	brcc	.-10     	; 0xde38 <memmove+0x14>
    de42:	08 95       	ret
    de44:	0c 94 49 6f 	jmp	0xde92	; 0xde92 <memcpy>

0000de48 <__itoa_ncheck>:
    de48:	bb 27       	eor	r27, r27
    de4a:	4a 30       	cpi	r20, 0x0A	; 10
    de4c:	31 f4       	brne	.+12     	; 0xde5a <__itoa_ncheck+0x12>
    de4e:	99 23       	and	r25, r25
    de50:	22 f4       	brpl	.+8      	; 0xde5a <__itoa_ncheck+0x12>
    de52:	bd e2       	ldi	r27, 0x2D	; 45
    de54:	90 95       	com	r25
    de56:	81 95       	neg	r24
    de58:	9f 4f       	sbci	r25, 0xFF	; 255
    de5a:	0c 94 30 6f 	jmp	0xde60	; 0xde60 <__utoa_common>

0000de5e <__utoa_ncheck>:
    de5e:	bb 27       	eor	r27, r27

0000de60 <__utoa_common>:
    de60:	fb 01       	movw	r30, r22
    de62:	55 27       	eor	r21, r21
    de64:	aa 27       	eor	r26, r26
    de66:	88 0f       	add	r24, r24
    de68:	99 1f       	adc	r25, r25
    de6a:	aa 1f       	adc	r26, r26
    de6c:	a4 17       	cp	r26, r20
    de6e:	10 f0       	brcs	.+4      	; 0xde74 <__utoa_common+0x14>
    de70:	a4 1b       	sub	r26, r20
    de72:	83 95       	inc	r24
    de74:	50 51       	subi	r21, 0x10	; 16
    de76:	b9 f7       	brne	.-18     	; 0xde66 <__utoa_common+0x6>
    de78:	a0 5d       	subi	r26, 0xD0	; 208
    de7a:	aa 33       	cpi	r26, 0x3A	; 58
    de7c:	08 f0       	brcs	.+2      	; 0xde80 <__utoa_common+0x20>
    de7e:	a9 5d       	subi	r26, 0xD9	; 217
    de80:	a1 93       	st	Z+, r26
    de82:	00 97       	sbiw	r24, 0x00	; 0
    de84:	79 f7       	brne	.-34     	; 0xde64 <__utoa_common+0x4>
    de86:	b1 11       	cpse	r27, r1
    de88:	b1 93       	st	Z+, r27
    de8a:	11 92       	st	Z+, r1
    de8c:	cb 01       	movw	r24, r22
    de8e:	0c 94 52 6f 	jmp	0xdea4	; 0xdea4 <strrev>

0000de92 <memcpy>:
    de92:	fb 01       	movw	r30, r22
    de94:	dc 01       	movw	r26, r24
    de96:	02 c0       	rjmp	.+4      	; 0xde9c <memcpy+0xa>
    de98:	01 90       	ld	r0, Z+
    de9a:	0d 92       	st	X+, r0
    de9c:	41 50       	subi	r20, 0x01	; 1
    de9e:	50 40       	sbci	r21, 0x00	; 0
    dea0:	d8 f7       	brcc	.-10     	; 0xde98 <memcpy+0x6>
    dea2:	08 95       	ret

0000dea4 <strrev>:
    dea4:	dc 01       	movw	r26, r24
    dea6:	fc 01       	movw	r30, r24
    dea8:	67 2f       	mov	r22, r23
    deaa:	71 91       	ld	r23, Z+
    deac:	77 23       	and	r23, r23
    deae:	e1 f7       	brne	.-8      	; 0xdea8 <strrev+0x4>
    deb0:	32 97       	sbiw	r30, 0x02	; 2
    deb2:	04 c0       	rjmp	.+8      	; 0xdebc <strrev+0x18>
    deb4:	7c 91       	ld	r23, X
    deb6:	6d 93       	st	X+, r22
    deb8:	70 83       	st	Z, r23
    deba:	62 91       	ld	r22, -Z
    debc:	ae 17       	cp	r26, r30
    debe:	bf 07       	cpc	r27, r31
    dec0:	c8 f3       	brcs	.-14     	; 0xdeb4 <strrev+0x10>
    dec2:	08 95       	ret

0000dec4 <eeprom_read_block>:
    dec4:	dc 01       	movw	r26, r24
    dec6:	cb 01       	movw	r24, r22

0000dec8 <eeprom_read_blraw>:
    dec8:	fc 01       	movw	r30, r24
    deca:	f9 99       	sbic	0x1f, 1	; 31
    decc:	fe cf       	rjmp	.-4      	; 0xdeca <eeprom_read_blraw+0x2>
    dece:	06 c0       	rjmp	.+12     	; 0xdedc <eeprom_read_blraw+0x14>
    ded0:	f2 bd       	out	0x22, r31	; 34
    ded2:	e1 bd       	out	0x21, r30	; 33
    ded4:	f8 9a       	sbi	0x1f, 0	; 31
    ded6:	31 96       	adiw	r30, 0x01	; 1
    ded8:	00 b4       	in	r0, 0x20	; 32
    deda:	0d 92       	st	X+, r0
    dedc:	41 50       	subi	r20, 0x01	; 1
    dede:	50 40       	sbci	r21, 0x00	; 0
    dee0:	b8 f7       	brcc	.-18     	; 0xded0 <eeprom_read_blraw+0x8>
    dee2:	08 95       	ret

0000dee4 <eeprom_read_byte>:
    dee4:	f9 99       	sbic	0x1f, 1	; 31
    dee6:	fe cf       	rjmp	.-4      	; 0xdee4 <eeprom_read_byte>
    dee8:	92 bd       	out	0x22, r25	; 34
    deea:	81 bd       	out	0x21, r24	; 33
    deec:	f8 9a       	sbi	0x1f, 0	; 31
    deee:	99 27       	eor	r25, r25
    def0:	80 b5       	in	r24, 0x20	; 32
    def2:	08 95       	ret

0000def4 <eeprom_write_byte>:
    def4:	26 2f       	mov	r18, r22

0000def6 <eeprom_write_r18>:
    def6:	f9 99       	sbic	0x1f, 1	; 31
    def8:	fe cf       	rjmp	.-4      	; 0xdef6 <eeprom_write_r18>
    defa:	1f ba       	out	0x1f, r1	; 31
    defc:	92 bd       	out	0x22, r25	; 34
    defe:	81 bd       	out	0x21, r24	; 33
    df00:	20 bd       	out	0x20, r18	; 32
    df02:	0f b6       	in	r0, 0x3f	; 63
    df04:	f8 94       	cli
    df06:	fa 9a       	sbi	0x1f, 2	; 31
    df08:	f9 9a       	sbi	0x1f, 1	; 31
    df0a:	0f be       	out	0x3f, r0	; 63
    df0c:	01 96       	adiw	r24, 0x01	; 1
    df0e:	08 95       	ret

0000df10 <_exit>:
    df10:	f8 94       	cli

0000df12 <__stop_program>:
    df12:	ff cf       	rjmp	.-2      	; 0xdf12 <__stop_program>
